
build/oob-pointer-arithmetic:     file format elf32-littleriscv


Disassembly of section .text:

000100a0 <exit>:
   100a0:	ff010113          	add	sp,sp,-16
   100a4:	00000593          	li	a1,0
   100a8:	00812423          	sw	s0,8(sp)
   100ac:	00112623          	sw	ra,12(sp)
   100b0:	00050413          	mv	s0,a0
   100b4:	599000ef          	jal	10e4c <__call_exitprocs>
   100b8:	f1c1a783          	lw	a5,-228(gp) # 2382c <__stdio_exit_handler>
   100bc:	00078463          	beqz	a5,100c4 <exit+0x24>
   100c0:	000780e7          	jalr	a5
   100c4:	00040513          	mv	a0,s0
   100c8:	3190b0ef          	jal	1bbe0 <_exit>

000100cc <register_fini>:
   100cc:	00000793          	li	a5,0
   100d0:	00078863          	beqz	a5,100e0 <register_fini+0x14>
   100d4:	00017537          	lui	a0,0x17
   100d8:	92050513          	add	a0,a0,-1760 # 16920 <__libc_fini_array>
   100dc:	6a50006f          	j	10f80 <atexit>
   100e0:	00008067          	ret

000100e4 <init_semihosting>:
   100e4:	ff010113          	add	sp,sp,-16
   100e8:	00812423          	sw	s0,8(sp)
   100ec:	24818413          	add	s0,gp,584 # 23b58 <fdtable>
   100f0:	00112623          	sw	ra,12(sp)
   100f4:	00912223          	sw	s1,4(sp)
   100f8:	24818793          	add	a5,gp,584 # 23b58 <fdtable>
   100fc:	08040693          	add	a3,s0,128
   10100:	fff00713          	li	a4,-1
   10104:	00e7a023          	sw	a4,0(a5)
   10108:	00878793          	add	a5,a5,8
   1010c:	fed79ce3          	bne	a5,a3,10104 <init_semihosting+0x20>
   10110:	000224b7          	lui	s1,0x22
   10114:	00000593          	li	a1,0
   10118:	12c48513          	add	a0,s1,300 # 2212c <__clzsi2+0x200>
   1011c:	5b50b0ef          	jal	1bed0 <_open>
   10120:	00050793          	mv	a5,a0
   10124:	60100593          	li	a1,1537
   10128:	12c48513          	add	a0,s1,300
   1012c:	00f42023          	sw	a5,0(s0)
   10130:	00042223          	sw	zero,4(s0)
   10134:	59d0b0ef          	jal	1bed0 <_open>
   10138:	00050793          	mv	a5,a0
   1013c:	20900593          	li	a1,521
   10140:	12c48513          	add	a0,s1,300
   10144:	00f42423          	sw	a5,8(s0)
   10148:	00042623          	sw	zero,12(s0)
   1014c:	5850b0ef          	jal	1bed0 <_open>
   10150:	00c12083          	lw	ra,12(sp)
   10154:	00a42823          	sw	a0,16(s0)
   10158:	00042a23          	sw	zero,20(s0)
   1015c:	00812403          	lw	s0,8(sp)
   10160:	00412483          	lw	s1,4(sp)
   10164:	01010113          	add	sp,sp,16
   10168:	00008067          	ret

0001016c <_start>:
   1016c:	00013197          	auipc	gp,0x13
   10170:	7a418193          	add	gp,gp,1956 # 23910 <__global_pointer$>
   10174:	f1c18513          	add	a0,gp,-228 # 2382c <__stdio_exit_handler>
   10178:	2c818613          	add	a2,gp,712 # 23bd8 <__BSS_END__>
   1017c:	40a60633          	sub	a2,a2,a0
   10180:	00000593          	li	a1,0
   10184:	361000ef          	jal	10ce4 <memset>
   10188:	00001517          	auipc	a0,0x1
   1018c:	df850513          	add	a0,a0,-520 # 10f80 <atexit>
   10190:	00050863          	beqz	a0,101a0 <_start+0x34>
   10194:	00006517          	auipc	a0,0x6
   10198:	78c50513          	add	a0,a0,1932 # 16920 <__libc_fini_array>
   1019c:	5e5000ef          	jal	10f80 <atexit>
   101a0:	2a9000ef          	jal	10c48 <__libc_init_array>
   101a4:	00012503          	lw	a0,0(sp)
   101a8:	00410593          	add	a1,sp,4
   101ac:	00000613          	li	a2,0
   101b0:	090000ef          	jal	10240 <main>
   101b4:	eedff06f          	j	100a0 <exit>

000101b8 <__do_global_dtors_aux>:
   101b8:	ff010113          	add	sp,sp,-16
   101bc:	00812423          	sw	s0,8(sp)
   101c0:	f3c1c783          	lbu	a5,-196(gp) # 2384c <completed.1>
   101c4:	00112623          	sw	ra,12(sp)
   101c8:	02079263          	bnez	a5,101ec <__do_global_dtors_aux+0x34>
   101cc:	00000793          	li	a5,0
   101d0:	00078a63          	beqz	a5,101e4 <__do_global_dtors_aux+0x2c>
   101d4:	00023537          	lui	a0,0x23
   101d8:	00050513          	mv	a0,a0
   101dc:	00000097          	auipc	ra,0x0
   101e0:	000000e7          	jalr	zero # 0 <exit-0x100a0>
   101e4:	00100793          	li	a5,1
   101e8:	f2f18e23          	sb	a5,-196(gp) # 2384c <completed.1>
   101ec:	00c12083          	lw	ra,12(sp)
   101f0:	00812403          	lw	s0,8(sp)
   101f4:	01010113          	add	sp,sp,16
   101f8:	00008067          	ret

000101fc <frame_dummy>:
   101fc:	00000793          	li	a5,0
   10200:	00078c63          	beqz	a5,10218 <frame_dummy+0x1c>
   10204:	00023537          	lui	a0,0x23
   10208:	f4018593          	add	a1,gp,-192 # 23850 <object.0>
   1020c:	00050513          	mv	a0,a0
   10210:	00000317          	auipc	t1,0x0
   10214:	00000067          	jr	zero # 0 <exit-0x100a0>
   10218:	00008067          	ret

0001021c <_ZL20__gthread_key_deletei>:
   1021c:	fe010113          	add	sp,sp,-32
   10220:	00812e23          	sw	s0,28(sp)
   10224:	02010413          	add	s0,sp,32
   10228:	fea42623          	sw	a0,-20(s0)
   1022c:	00000793          	li	a5,0
   10230:	00078513          	mv	a0,a5
   10234:	01c12403          	lw	s0,28(sp)
   10238:	02010113          	add	sp,sp,32
   1023c:	00008067          	ret

00010240 <main>:
{
   10240:	fd010113          	add	sp,sp,-48
   10244:	02112623          	sw	ra,44(sp)
   10248:	02812423          	sw	s0,40(sp)
   1024c:	03010413          	add	s0,sp,48
    printf("Testing Out-Of-Bounds Pointer Arithmetic (C++)...\n");
   10250:	000227b7          	lui	a5,0x22
   10254:	f7878513          	add	a0,a5,-136 # 21f78 <__clzsi2+0x4c>
   10258:	620000ef          	jal	10878 <puts>
    int arr[4] = {100, 200, 300, 400};
   1025c:	000227b7          	lui	a5,0x22
   10260:	01078793          	add	a5,a5,16 # 22010 <__clzsi2+0xe4>
   10264:	0007a603          	lw	a2,0(a5)
   10268:	0047a683          	lw	a3,4(a5)
   1026c:	0087a703          	lw	a4,8(a5)
   10270:	00c7a783          	lw	a5,12(a5)
   10274:	fcc42c23          	sw	a2,-40(s0)
   10278:	fcd42e23          	sw	a3,-36(s0)
   1027c:	fee42023          	sw	a4,-32(s0)
   10280:	fef42223          	sw	a5,-28(s0)
    printf("Array base: %p\n", static_cast<const void*>(arr));
   10284:	fd840793          	add	a5,s0,-40
   10288:	00078593          	mv	a1,a5
   1028c:	000227b7          	lui	a5,0x22
   10290:	fac78513          	add	a0,a5,-84 # 21fac <__clzsi2+0x80>
   10294:	4c8000ef          	jal	1075c <printf>
    printf("Array end: %p\n", static_cast<const void*>(arr + 4));
   10298:	fd840793          	add	a5,s0,-40
   1029c:	01078793          	add	a5,a5,16
   102a0:	00078593          	mv	a1,a5
   102a4:	000227b7          	lui	a5,0x22
   102a8:	fbc78513          	add	a0,a5,-68 # 21fbc <__clzsi2+0x90>
   102ac:	4b0000ef          	jal	1075c <printf>
    int* p = arr + 10;
   102b0:	fd840793          	add	a5,s0,-40
   102b4:	02878793          	add	a5,a5,40
   102b8:	fef42623          	sw	a5,-20(s0)
    printf("Pointer moved to arr + 10: %p\n", static_cast<const void*>(p));
   102bc:	fec42583          	lw	a1,-20(s0)
   102c0:	000227b7          	lui	a5,0x22
   102c4:	fcc78513          	add	a0,a5,-52 # 21fcc <__clzsi2+0xa0>
   102c8:	494000ef          	jal	1075c <printf>
    int val = *p;
   102cc:	fec42783          	lw	a5,-20(s0)
   102d0:	0007a783          	lw	a5,0(a5)
   102d4:	fef42423          	sw	a5,-24(s0)
    printf("Read value: %d (UB on normal HW)\n", val);
   102d8:	fe842583          	lw	a1,-24(s0)
   102dc:	000227b7          	lui	a5,0x22
   102e0:	fec78513          	add	a0,a5,-20 # 21fec <__clzsi2+0xc0>
   102e4:	478000ef          	jal	1075c <printf>
    return 0;
   102e8:	00000793          	li	a5,0
}
   102ec:	00078513          	mv	a0,a5
   102f0:	02c12083          	lw	ra,44(sp)
   102f4:	02812403          	lw	s0,40(sp)
   102f8:	03010113          	add	sp,sp,48
   102fc:	00008067          	ret

00010300 <__fp_lock>:
   10300:	00000513          	li	a0,0
   10304:	00008067          	ret

00010308 <stdio_exit_handler>:
   10308:	00023637          	lui	a2,0x23
   1030c:	000165b7          	lui	a1,0x16
   10310:	00023537          	lui	a0,0x23
   10314:	11060613          	add	a2,a2,272 # 23110 <__sglue>
   10318:	a0058593          	add	a1,a1,-1536 # 15a00 <_fclose_r>
   1031c:	12050513          	add	a0,a0,288 # 23120 <_impure_data>
   10320:	3480006f          	j	10668 <_fwalk_sglue>

00010324 <cleanup_stdio>:
   10324:	00452583          	lw	a1,4(a0)
   10328:	ff010113          	add	sp,sp,-16
   1032c:	00812423          	sw	s0,8(sp)
   10330:	00112623          	sw	ra,12(sp)
   10334:	f5818793          	add	a5,gp,-168 # 23868 <__sf>
   10338:	00050413          	mv	s0,a0
   1033c:	00f58463          	beq	a1,a5,10344 <cleanup_stdio+0x20>
   10340:	6c0050ef          	jal	15a00 <_fclose_r>
   10344:	00842583          	lw	a1,8(s0)
   10348:	fc018793          	add	a5,gp,-64 # 238d0 <__sf+0x68>
   1034c:	00f58663          	beq	a1,a5,10358 <cleanup_stdio+0x34>
   10350:	00040513          	mv	a0,s0
   10354:	6ac050ef          	jal	15a00 <_fclose_r>
   10358:	00c42583          	lw	a1,12(s0)
   1035c:	02818793          	add	a5,gp,40 # 23938 <__global_pointer$+0x28>
   10360:	00f58c63          	beq	a1,a5,10378 <cleanup_stdio+0x54>
   10364:	00040513          	mv	a0,s0
   10368:	00812403          	lw	s0,8(sp)
   1036c:	00c12083          	lw	ra,12(sp)
   10370:	01010113          	add	sp,sp,16
   10374:	68c0506f          	j	15a00 <_fclose_r>
   10378:	00c12083          	lw	ra,12(sp)
   1037c:	00812403          	lw	s0,8(sp)
   10380:	01010113          	add	sp,sp,16
   10384:	00008067          	ret

00010388 <__fp_unlock>:
   10388:	00000513          	li	a0,0
   1038c:	00008067          	ret

00010390 <global_stdio_init.part.0>:
   10390:	fe010113          	add	sp,sp,-32
   10394:	000107b7          	lui	a5,0x10
   10398:	00812c23          	sw	s0,24(sp)
   1039c:	30878793          	add	a5,a5,776 # 10308 <stdio_exit_handler>
   103a0:	f5818413          	add	s0,gp,-168 # 23868 <__sf>
   103a4:	00112e23          	sw	ra,28(sp)
   103a8:	00912a23          	sw	s1,20(sp)
   103ac:	01212823          	sw	s2,16(sp)
   103b0:	01312623          	sw	s3,12(sp)
   103b4:	01412423          	sw	s4,8(sp)
   103b8:	f0f1ae23          	sw	a5,-228(gp) # 2382c <__stdio_exit_handler>
   103bc:	00800613          	li	a2,8
   103c0:	00400793          	li	a5,4
   103c4:	00000593          	li	a1,0
   103c8:	fb418513          	add	a0,gp,-76 # 238c4 <__sf+0x5c>
   103cc:	00f42623          	sw	a5,12(s0)
   103d0:	00042023          	sw	zero,0(s0)
   103d4:	00042223          	sw	zero,4(s0)
   103d8:	00042423          	sw	zero,8(s0)
   103dc:	06042223          	sw	zero,100(s0)
   103e0:	00042823          	sw	zero,16(s0)
   103e4:	00042a23          	sw	zero,20(s0)
   103e8:	00042c23          	sw	zero,24(s0)
   103ec:	0f9000ef          	jal	10ce4 <memset>
   103f0:	000107b7          	lui	a5,0x10
   103f4:	00011a37          	lui	s4,0x11
   103f8:	000119b7          	lui	s3,0x11
   103fc:	00011937          	lui	s2,0x11
   10400:	000114b7          	lui	s1,0x11
   10404:	884a0a13          	add	s4,s4,-1916 # 10884 <__sread>
   10408:	8e898993          	add	s3,s3,-1816 # 108e8 <__swrite>
   1040c:	97090913          	add	s2,s2,-1680 # 10970 <__sseek>
   10410:	9e848493          	add	s1,s1,-1560 # 109e8 <__sclose>
   10414:	00978793          	add	a5,a5,9 # 10009 <exit-0x97>
   10418:	00800613          	li	a2,8
   1041c:	00000593          	li	a1,0
   10420:	01c18513          	add	a0,gp,28 # 2392c <__global_pointer$+0x1c>
   10424:	03442023          	sw	s4,32(s0)
   10428:	03342223          	sw	s3,36(s0)
   1042c:	03242423          	sw	s2,40(s0)
   10430:	02942623          	sw	s1,44(s0)
   10434:	06f42a23          	sw	a5,116(s0)
   10438:	00842e23          	sw	s0,28(s0)
   1043c:	06042423          	sw	zero,104(s0)
   10440:	06042623          	sw	zero,108(s0)
   10444:	06042823          	sw	zero,112(s0)
   10448:	0c042623          	sw	zero,204(s0)
   1044c:	06042c23          	sw	zero,120(s0)
   10450:	06042e23          	sw	zero,124(s0)
   10454:	08042023          	sw	zero,128(s0)
   10458:	08d000ef          	jal	10ce4 <memset>
   1045c:	000207b7          	lui	a5,0x20
   10460:	01278793          	add	a5,a5,18 # 20012 <__multf3+0xf32>
   10464:	fc018713          	add	a4,gp,-64 # 238d0 <__sf+0x68>
   10468:	00800613          	li	a2,8
   1046c:	00000593          	li	a1,0
   10470:	08418513          	add	a0,gp,132 # 23994 <__global_pointer$+0x84>
   10474:	09442423          	sw	s4,136(s0)
   10478:	09342623          	sw	s3,140(s0)
   1047c:	09242823          	sw	s2,144(s0)
   10480:	08942a23          	sw	s1,148(s0)
   10484:	0cf42e23          	sw	a5,220(s0)
   10488:	08e42223          	sw	a4,132(s0)
   1048c:	0c042823          	sw	zero,208(s0)
   10490:	0c042a23          	sw	zero,212(s0)
   10494:	0c042c23          	sw	zero,216(s0)
   10498:	12042a23          	sw	zero,308(s0)
   1049c:	0e042023          	sw	zero,224(s0)
   104a0:	0e042223          	sw	zero,228(s0)
   104a4:	0e042423          	sw	zero,232(s0)
   104a8:	03d000ef          	jal	10ce4 <memset>
   104ac:	02818793          	add	a5,gp,40 # 23938 <__global_pointer$+0x28>
   104b0:	0f442823          	sw	s4,240(s0)
   104b4:	0f342a23          	sw	s3,244(s0)
   104b8:	0f242c23          	sw	s2,248(s0)
   104bc:	0e942e23          	sw	s1,252(s0)
   104c0:	01c12083          	lw	ra,28(sp)
   104c4:	0ef42623          	sw	a5,236(s0)
   104c8:	01812403          	lw	s0,24(sp)
   104cc:	01412483          	lw	s1,20(sp)
   104d0:	01012903          	lw	s2,16(sp)
   104d4:	00c12983          	lw	s3,12(sp)
   104d8:	00812a03          	lw	s4,8(sp)
   104dc:	02010113          	add	sp,sp,32
   104e0:	00008067          	ret

000104e4 <__sfp>:
   104e4:	f1c1a783          	lw	a5,-228(gp) # 2382c <__stdio_exit_handler>
   104e8:	fe010113          	add	sp,sp,-32
   104ec:	01312623          	sw	s3,12(sp)
   104f0:	00112e23          	sw	ra,28(sp)
   104f4:	00812c23          	sw	s0,24(sp)
   104f8:	00912a23          	sw	s1,20(sp)
   104fc:	01212823          	sw	s2,16(sp)
   10500:	00050993          	mv	s3,a0
   10504:	0e078863          	beqz	a5,105f4 <__sfp+0x110>
   10508:	00023937          	lui	s2,0x23
   1050c:	11090913          	add	s2,s2,272 # 23110 <__sglue>
   10510:	fff00493          	li	s1,-1
   10514:	00492783          	lw	a5,4(s2)
   10518:	00892403          	lw	s0,8(s2)
   1051c:	fff78793          	add	a5,a5,-1
   10520:	0007d863          	bgez	a5,10530 <__sfp+0x4c>
   10524:	0800006f          	j	105a4 <__sfp+0xc0>
   10528:	06840413          	add	s0,s0,104
   1052c:	06978c63          	beq	a5,s1,105a4 <__sfp+0xc0>
   10530:	00c41703          	lh	a4,12(s0)
   10534:	fff78793          	add	a5,a5,-1
   10538:	fe0718e3          	bnez	a4,10528 <__sfp+0x44>
   1053c:	ffff07b7          	lui	a5,0xffff0
   10540:	00178793          	add	a5,a5,1 # ffff0001 <__BSS_END__+0xfffcc429>
   10544:	00f42623          	sw	a5,12(s0)
   10548:	06042223          	sw	zero,100(s0)
   1054c:	00042023          	sw	zero,0(s0)
   10550:	00042423          	sw	zero,8(s0)
   10554:	00042223          	sw	zero,4(s0)
   10558:	00042823          	sw	zero,16(s0)
   1055c:	00042a23          	sw	zero,20(s0)
   10560:	00042c23          	sw	zero,24(s0)
   10564:	00800613          	li	a2,8
   10568:	00000593          	li	a1,0
   1056c:	05c40513          	add	a0,s0,92
   10570:	774000ef          	jal	10ce4 <memset>
   10574:	02042823          	sw	zero,48(s0)
   10578:	02042a23          	sw	zero,52(s0)
   1057c:	04042223          	sw	zero,68(s0)
   10580:	04042423          	sw	zero,72(s0)
   10584:	01c12083          	lw	ra,28(sp)
   10588:	00040513          	mv	a0,s0
   1058c:	01812403          	lw	s0,24(sp)
   10590:	01412483          	lw	s1,20(sp)
   10594:	01012903          	lw	s2,16(sp)
   10598:	00c12983          	lw	s3,12(sp)
   1059c:	02010113          	add	sp,sp,32
   105a0:	00008067          	ret
   105a4:	00092403          	lw	s0,0(s2)
   105a8:	00040663          	beqz	s0,105b4 <__sfp+0xd0>
   105ac:	00040913          	mv	s2,s0
   105b0:	f65ff06f          	j	10514 <__sfp+0x30>
   105b4:	1ac00593          	li	a1,428
   105b8:	00098513          	mv	a0,s3
   105bc:	615000ef          	jal	113d0 <_malloc_r>
   105c0:	00050413          	mv	s0,a0
   105c4:	02050c63          	beqz	a0,105fc <__sfp+0x118>
   105c8:	00c50513          	add	a0,a0,12
   105cc:	00400793          	li	a5,4
   105d0:	00042023          	sw	zero,0(s0)
   105d4:	00f42223          	sw	a5,4(s0)
   105d8:	00a42423          	sw	a0,8(s0)
   105dc:	1a000613          	li	a2,416
   105e0:	00000593          	li	a1,0
   105e4:	700000ef          	jal	10ce4 <memset>
   105e8:	00892023          	sw	s0,0(s2)
   105ec:	00040913          	mv	s2,s0
   105f0:	f25ff06f          	j	10514 <__sfp+0x30>
   105f4:	d9dff0ef          	jal	10390 <global_stdio_init.part.0>
   105f8:	f11ff06f          	j	10508 <__sfp+0x24>
   105fc:	00092023          	sw	zero,0(s2)
   10600:	00c00793          	li	a5,12
   10604:	00f9a023          	sw	a5,0(s3)
   10608:	f7dff06f          	j	10584 <__sfp+0xa0>

0001060c <__sinit>:
   1060c:	03452783          	lw	a5,52(a0)
   10610:	00078463          	beqz	a5,10618 <__sinit+0xc>
   10614:	00008067          	ret
   10618:	f1c1a703          	lw	a4,-228(gp) # 2382c <__stdio_exit_handler>
   1061c:	000107b7          	lui	a5,0x10
   10620:	32478793          	add	a5,a5,804 # 10324 <cleanup_stdio>
   10624:	02f52a23          	sw	a5,52(a0)
   10628:	fe0716e3          	bnez	a4,10614 <__sinit+0x8>
   1062c:	d65ff06f          	j	10390 <global_stdio_init.part.0>

00010630 <__sfp_lock_acquire>:
   10630:	00008067          	ret

00010634 <__sfp_lock_release>:
   10634:	00008067          	ret

00010638 <__fp_lock_all>:
   10638:	00023637          	lui	a2,0x23
   1063c:	000105b7          	lui	a1,0x10
   10640:	11060613          	add	a2,a2,272 # 23110 <__sglue>
   10644:	30058593          	add	a1,a1,768 # 10300 <__fp_lock>
   10648:	00000513          	li	a0,0
   1064c:	01c0006f          	j	10668 <_fwalk_sglue>

00010650 <__fp_unlock_all>:
   10650:	00023637          	lui	a2,0x23
   10654:	000105b7          	lui	a1,0x10
   10658:	11060613          	add	a2,a2,272 # 23110 <__sglue>
   1065c:	38858593          	add	a1,a1,904 # 10388 <__fp_unlock>
   10660:	00000513          	li	a0,0
   10664:	0040006f          	j	10668 <_fwalk_sglue>

00010668 <_fwalk_sglue>:
   10668:	fd010113          	add	sp,sp,-48
   1066c:	03212023          	sw	s2,32(sp)
   10670:	01312e23          	sw	s3,28(sp)
   10674:	01412c23          	sw	s4,24(sp)
   10678:	01512a23          	sw	s5,20(sp)
   1067c:	01612823          	sw	s6,16(sp)
   10680:	01712623          	sw	s7,12(sp)
   10684:	02112623          	sw	ra,44(sp)
   10688:	02812423          	sw	s0,40(sp)
   1068c:	02912223          	sw	s1,36(sp)
   10690:	00050b13          	mv	s6,a0
   10694:	00058b93          	mv	s7,a1
   10698:	00060a93          	mv	s5,a2
   1069c:	00000a13          	li	s4,0
   106a0:	00100993          	li	s3,1
   106a4:	fff00913          	li	s2,-1
   106a8:	004aa483          	lw	s1,4(s5)
   106ac:	008aa403          	lw	s0,8(s5)
   106b0:	fff48493          	add	s1,s1,-1
   106b4:	0204c863          	bltz	s1,106e4 <_fwalk_sglue+0x7c>
   106b8:	00c45783          	lhu	a5,12(s0)
   106bc:	00f9fe63          	bgeu	s3,a5,106d8 <_fwalk_sglue+0x70>
   106c0:	00e41783          	lh	a5,14(s0)
   106c4:	00040593          	mv	a1,s0
   106c8:	000b0513          	mv	a0,s6
   106cc:	01278663          	beq	a5,s2,106d8 <_fwalk_sglue+0x70>
   106d0:	000b80e7          	jalr	s7
   106d4:	00aa6a33          	or	s4,s4,a0
   106d8:	fff48493          	add	s1,s1,-1
   106dc:	06840413          	add	s0,s0,104
   106e0:	fd249ce3          	bne	s1,s2,106b8 <_fwalk_sglue+0x50>
   106e4:	000aaa83          	lw	s5,0(s5)
   106e8:	fc0a90e3          	bnez	s5,106a8 <_fwalk_sglue+0x40>
   106ec:	02c12083          	lw	ra,44(sp)
   106f0:	02812403          	lw	s0,40(sp)
   106f4:	02412483          	lw	s1,36(sp)
   106f8:	02012903          	lw	s2,32(sp)
   106fc:	01c12983          	lw	s3,28(sp)
   10700:	01412a83          	lw	s5,20(sp)
   10704:	01012b03          	lw	s6,16(sp)
   10708:	00c12b83          	lw	s7,12(sp)
   1070c:	000a0513          	mv	a0,s4
   10710:	01812a03          	lw	s4,24(sp)
   10714:	03010113          	add	sp,sp,48
   10718:	00008067          	ret

0001071c <_printf_r>:
   1071c:	fc010113          	add	sp,sp,-64
   10720:	02c12423          	sw	a2,40(sp)
   10724:	02d12623          	sw	a3,44(sp)
   10728:	02e12823          	sw	a4,48(sp)
   1072c:	02f12a23          	sw	a5,52(sp)
   10730:	03012c23          	sw	a6,56(sp)
   10734:	03112e23          	sw	a7,60(sp)
   10738:	00058613          	mv	a2,a1
   1073c:	00852583          	lw	a1,8(a0)
   10740:	02810693          	add	a3,sp,40
   10744:	00112e23          	sw	ra,28(sp)
   10748:	00d12623          	sw	a3,12(sp)
   1074c:	448010ef          	jal	11b94 <_vfprintf_r>
   10750:	01c12083          	lw	ra,28(sp)
   10754:	04010113          	add	sp,sp,64
   10758:	00008067          	ret

0001075c <printf>:
   1075c:	f101a303          	lw	t1,-240(gp) # 23820 <_impure_ptr>
   10760:	fc010113          	add	sp,sp,-64
   10764:	02c12423          	sw	a2,40(sp)
   10768:	02d12623          	sw	a3,44(sp)
   1076c:	02b12223          	sw	a1,36(sp)
   10770:	02e12823          	sw	a4,48(sp)
   10774:	02f12a23          	sw	a5,52(sp)
   10778:	03012c23          	sw	a6,56(sp)
   1077c:	03112e23          	sw	a7,60(sp)
   10780:	00832583          	lw	a1,8(t1) # 10218 <frame_dummy+0x1c>
   10784:	02410693          	add	a3,sp,36
   10788:	00050613          	mv	a2,a0
   1078c:	00030513          	mv	a0,t1
   10790:	00112e23          	sw	ra,28(sp)
   10794:	00d12623          	sw	a3,12(sp)
   10798:	3fc010ef          	jal	11b94 <_vfprintf_r>
   1079c:	01c12083          	lw	ra,28(sp)
   107a0:	04010113          	add	sp,sp,64
   107a4:	00008067          	ret

000107a8 <_puts_r>:
   107a8:	fc010113          	add	sp,sp,-64
   107ac:	02812c23          	sw	s0,56(sp)
   107b0:	00050413          	mv	s0,a0
   107b4:	00058513          	mv	a0,a1
   107b8:	02912a23          	sw	s1,52(sp)
   107bc:	02112e23          	sw	ra,60(sp)
   107c0:	00058493          	mv	s1,a1
   107c4:	5fc000ef          	jal	10dc0 <strlen>
   107c8:	000227b7          	lui	a5,0x22
   107cc:	02078793          	add	a5,a5,32 # 22020 <__clzsi2+0xf4>
   107d0:	02f12423          	sw	a5,40(sp)
   107d4:	00100793          	li	a5,1
   107d8:	02f12623          	sw	a5,44(sp)
   107dc:	03442703          	lw	a4,52(s0)
   107e0:	02010793          	add	a5,sp,32
   107e4:	00150693          	add	a3,a0,1
   107e8:	00f12a23          	sw	a5,20(sp)
   107ec:	00200793          	li	a5,2
   107f0:	02912023          	sw	s1,32(sp)
   107f4:	02a12223          	sw	a0,36(sp)
   107f8:	00d12e23          	sw	a3,28(sp)
   107fc:	00f12c23          	sw	a5,24(sp)
   10800:	00842583          	lw	a1,8(s0)
   10804:	06070063          	beqz	a4,10864 <_puts_r+0xbc>
   10808:	00c59783          	lh	a5,12(a1)
   1080c:	01279713          	sll	a4,a5,0x12
   10810:	02074263          	bltz	a4,10834 <_puts_r+0x8c>
   10814:	0645a703          	lw	a4,100(a1)
   10818:	ffffe6b7          	lui	a3,0xffffe
   1081c:	fff68693          	add	a3,a3,-1 # ffffdfff <__BSS_END__+0xfffda427>
   10820:	00002637          	lui	a2,0x2
   10824:	00c7e7b3          	or	a5,a5,a2
   10828:	00d77733          	and	a4,a4,a3
   1082c:	00f59623          	sh	a5,12(a1)
   10830:	06e5a223          	sw	a4,100(a1)
   10834:	01410613          	add	a2,sp,20
   10838:	00040513          	mv	a0,s0
   1083c:	608050ef          	jal	15e44 <__sfvwrite_r>
   10840:	03c12083          	lw	ra,60(sp)
   10844:	03812403          	lw	s0,56(sp)
   10848:	00153513          	seqz	a0,a0
   1084c:	40a00533          	neg	a0,a0
   10850:	00b57513          	and	a0,a0,11
   10854:	03412483          	lw	s1,52(sp)
   10858:	fff50513          	add	a0,a0,-1
   1085c:	04010113          	add	sp,sp,64
   10860:	00008067          	ret
   10864:	00040513          	mv	a0,s0
   10868:	00b12623          	sw	a1,12(sp)
   1086c:	da1ff0ef          	jal	1060c <__sinit>
   10870:	00c12583          	lw	a1,12(sp)
   10874:	f95ff06f          	j	10808 <_puts_r+0x60>

00010878 <puts>:
   10878:	00050593          	mv	a1,a0
   1087c:	f101a503          	lw	a0,-240(gp) # 23820 <_impure_ptr>
   10880:	f29ff06f          	j	107a8 <_puts_r>

00010884 <__sread>:
   10884:	ff010113          	add	sp,sp,-16
   10888:	00812423          	sw	s0,8(sp)
   1088c:	00058413          	mv	s0,a1
   10890:	00e59583          	lh	a1,14(a1)
   10894:	00112623          	sw	ra,12(sp)
   10898:	2e0000ef          	jal	10b78 <_read_r>
   1089c:	02054063          	bltz	a0,108bc <__sread+0x38>
   108a0:	05042783          	lw	a5,80(s0)
   108a4:	00c12083          	lw	ra,12(sp)
   108a8:	00a787b3          	add	a5,a5,a0
   108ac:	04f42823          	sw	a5,80(s0)
   108b0:	00812403          	lw	s0,8(sp)
   108b4:	01010113          	add	sp,sp,16
   108b8:	00008067          	ret
   108bc:	00c45783          	lhu	a5,12(s0)
   108c0:	fffff737          	lui	a4,0xfffff
   108c4:	fff70713          	add	a4,a4,-1 # ffffefff <__BSS_END__+0xfffdb427>
   108c8:	00e7f7b3          	and	a5,a5,a4
   108cc:	00c12083          	lw	ra,12(sp)
   108d0:	00f41623          	sh	a5,12(s0)
   108d4:	00812403          	lw	s0,8(sp)
   108d8:	01010113          	add	sp,sp,16
   108dc:	00008067          	ret

000108e0 <__seofread>:
   108e0:	00000513          	li	a0,0
   108e4:	00008067          	ret

000108e8 <__swrite>:
   108e8:	00c59783          	lh	a5,12(a1)
   108ec:	fe010113          	add	sp,sp,-32
   108f0:	00812c23          	sw	s0,24(sp)
   108f4:	00912a23          	sw	s1,20(sp)
   108f8:	01212823          	sw	s2,16(sp)
   108fc:	01312623          	sw	s3,12(sp)
   10900:	00112e23          	sw	ra,28(sp)
   10904:	1007f713          	and	a4,a5,256
   10908:	00058413          	mv	s0,a1
   1090c:	00050493          	mv	s1,a0
   10910:	00060913          	mv	s2,a2
   10914:	00068993          	mv	s3,a3
   10918:	04071063          	bnez	a4,10958 <__swrite+0x70>
   1091c:	fffff737          	lui	a4,0xfffff
   10920:	fff70713          	add	a4,a4,-1 # ffffefff <__BSS_END__+0xfffdb427>
   10924:	00e7f7b3          	and	a5,a5,a4
   10928:	00e41583          	lh	a1,14(s0)
   1092c:	00f41623          	sh	a5,12(s0)
   10930:	01812403          	lw	s0,24(sp)
   10934:	01c12083          	lw	ra,28(sp)
   10938:	00098693          	mv	a3,s3
   1093c:	00090613          	mv	a2,s2
   10940:	00c12983          	lw	s3,12(sp)
   10944:	01012903          	lw	s2,16(sp)
   10948:	00048513          	mv	a0,s1
   1094c:	01412483          	lw	s1,20(sp)
   10950:	02010113          	add	sp,sp,32
   10954:	28c0006f          	j	10be0 <_write_r>
   10958:	00e59583          	lh	a1,14(a1)
   1095c:	00200693          	li	a3,2
   10960:	00000613          	li	a2,0
   10964:	1ac000ef          	jal	10b10 <_lseek_r>
   10968:	00c41783          	lh	a5,12(s0)
   1096c:	fb1ff06f          	j	1091c <__swrite+0x34>

00010970 <__sseek>:
   10970:	ff010113          	add	sp,sp,-16
   10974:	00812423          	sw	s0,8(sp)
   10978:	00058413          	mv	s0,a1
   1097c:	00e59583          	lh	a1,14(a1)
   10980:	00112623          	sw	ra,12(sp)
   10984:	18c000ef          	jal	10b10 <_lseek_r>
   10988:	fff00793          	li	a5,-1
   1098c:	02f50863          	beq	a0,a5,109bc <__sseek+0x4c>
   10990:	00c45783          	lhu	a5,12(s0)
   10994:	00001737          	lui	a4,0x1
   10998:	00c12083          	lw	ra,12(sp)
   1099c:	00e7e7b3          	or	a5,a5,a4
   109a0:	01079793          	sll	a5,a5,0x10
   109a4:	4107d793          	sra	a5,a5,0x10
   109a8:	04a42823          	sw	a0,80(s0)
   109ac:	00f41623          	sh	a5,12(s0)
   109b0:	00812403          	lw	s0,8(sp)
   109b4:	01010113          	add	sp,sp,16
   109b8:	00008067          	ret
   109bc:	00c45783          	lhu	a5,12(s0)
   109c0:	fffff737          	lui	a4,0xfffff
   109c4:	fff70713          	add	a4,a4,-1 # ffffefff <__BSS_END__+0xfffdb427>
   109c8:	00e7f7b3          	and	a5,a5,a4
   109cc:	01079793          	sll	a5,a5,0x10
   109d0:	4107d793          	sra	a5,a5,0x10
   109d4:	00c12083          	lw	ra,12(sp)
   109d8:	00f41623          	sh	a5,12(s0)
   109dc:	00812403          	lw	s0,8(sp)
   109e0:	01010113          	add	sp,sp,16
   109e4:	00008067          	ret

000109e8 <__sclose>:
   109e8:	00e59583          	lh	a1,14(a1)
   109ec:	0040006f          	j	109f0 <_close_r>

000109f0 <_close_r>:
   109f0:	ff010113          	add	sp,sp,-16
   109f4:	00812423          	sw	s0,8(sp)
   109f8:	00912223          	sw	s1,4(sp)
   109fc:	00050413          	mv	s0,a0
   10a00:	00058513          	mv	a0,a1
   10a04:	00112623          	sw	ra,12(sp)
   10a08:	f201a023          	sw	zero,-224(gp) # 23830 <errno>
   10a0c:	1440b0ef          	jal	1bb50 <_close>
   10a10:	fff00793          	li	a5,-1
   10a14:	00f50c63          	beq	a0,a5,10a2c <_close_r+0x3c>
   10a18:	00c12083          	lw	ra,12(sp)
   10a1c:	00812403          	lw	s0,8(sp)
   10a20:	00412483          	lw	s1,4(sp)
   10a24:	01010113          	add	sp,sp,16
   10a28:	00008067          	ret
   10a2c:	f201a783          	lw	a5,-224(gp) # 23830 <errno>
   10a30:	fe0784e3          	beqz	a5,10a18 <_close_r+0x28>
   10a34:	00c12083          	lw	ra,12(sp)
   10a38:	00f42023          	sw	a5,0(s0)
   10a3c:	00812403          	lw	s0,8(sp)
   10a40:	00412483          	lw	s1,4(sp)
   10a44:	01010113          	add	sp,sp,16
   10a48:	00008067          	ret

00010a4c <_reclaim_reent>:
   10a4c:	f101a783          	lw	a5,-240(gp) # 23820 <_impure_ptr>
   10a50:	0aa78e63          	beq	a5,a0,10b0c <_reclaim_reent+0xc0>
   10a54:	04452583          	lw	a1,68(a0)
   10a58:	fe010113          	add	sp,sp,-32
   10a5c:	00912a23          	sw	s1,20(sp)
   10a60:	00112e23          	sw	ra,28(sp)
   10a64:	00050493          	mv	s1,a0
   10a68:	04058c63          	beqz	a1,10ac0 <_reclaim_reent+0x74>
   10a6c:	01212823          	sw	s2,16(sp)
   10a70:	01312623          	sw	s3,12(sp)
   10a74:	00812c23          	sw	s0,24(sp)
   10a78:	00000913          	li	s2,0
   10a7c:	08000993          	li	s3,128
   10a80:	012587b3          	add	a5,a1,s2
   10a84:	0007a403          	lw	s0,0(a5)
   10a88:	00040e63          	beqz	s0,10aa4 <_reclaim_reent+0x58>
   10a8c:	00040593          	mv	a1,s0
   10a90:	00042403          	lw	s0,0(s0)
   10a94:	00048513          	mv	a0,s1
   10a98:	634000ef          	jal	110cc <_free_r>
   10a9c:	fe0418e3          	bnez	s0,10a8c <_reclaim_reent+0x40>
   10aa0:	0444a583          	lw	a1,68(s1)
   10aa4:	00490913          	add	s2,s2,4
   10aa8:	fd391ce3          	bne	s2,s3,10a80 <_reclaim_reent+0x34>
   10aac:	00048513          	mv	a0,s1
   10ab0:	61c000ef          	jal	110cc <_free_r>
   10ab4:	01812403          	lw	s0,24(sp)
   10ab8:	01012903          	lw	s2,16(sp)
   10abc:	00c12983          	lw	s3,12(sp)
   10ac0:	0384a583          	lw	a1,56(s1)
   10ac4:	00058663          	beqz	a1,10ad0 <_reclaim_reent+0x84>
   10ac8:	00048513          	mv	a0,s1
   10acc:	600000ef          	jal	110cc <_free_r>
   10ad0:	04c4a583          	lw	a1,76(s1)
   10ad4:	00058663          	beqz	a1,10ae0 <_reclaim_reent+0x94>
   10ad8:	00048513          	mv	a0,s1
   10adc:	5f0000ef          	jal	110cc <_free_r>
   10ae0:	0344a783          	lw	a5,52(s1)
   10ae4:	00078c63          	beqz	a5,10afc <_reclaim_reent+0xb0>
   10ae8:	01c12083          	lw	ra,28(sp)
   10aec:	00048513          	mv	a0,s1
   10af0:	01412483          	lw	s1,20(sp)
   10af4:	02010113          	add	sp,sp,32
   10af8:	00078067          	jr	a5
   10afc:	01c12083          	lw	ra,28(sp)
   10b00:	01412483          	lw	s1,20(sp)
   10b04:	02010113          	add	sp,sp,32
   10b08:	00008067          	ret
   10b0c:	00008067          	ret

00010b10 <_lseek_r>:
   10b10:	ff010113          	add	sp,sp,-16
   10b14:	00058713          	mv	a4,a1
   10b18:	00812423          	sw	s0,8(sp)
   10b1c:	00912223          	sw	s1,4(sp)
   10b20:	00060593          	mv	a1,a2
   10b24:	00050413          	mv	s0,a0
   10b28:	00068613          	mv	a2,a3
   10b2c:	00070513          	mv	a0,a4
   10b30:	00112623          	sw	ra,12(sp)
   10b34:	f201a023          	sw	zero,-224(gp) # 23830 <errno>
   10b38:	2680b0ef          	jal	1bda0 <_lseek>
   10b3c:	fff00793          	li	a5,-1
   10b40:	00f50c63          	beq	a0,a5,10b58 <_lseek_r+0x48>
   10b44:	00c12083          	lw	ra,12(sp)
   10b48:	00812403          	lw	s0,8(sp)
   10b4c:	00412483          	lw	s1,4(sp)
   10b50:	01010113          	add	sp,sp,16
   10b54:	00008067          	ret
   10b58:	f201a783          	lw	a5,-224(gp) # 23830 <errno>
   10b5c:	fe0784e3          	beqz	a5,10b44 <_lseek_r+0x34>
   10b60:	00c12083          	lw	ra,12(sp)
   10b64:	00f42023          	sw	a5,0(s0)
   10b68:	00812403          	lw	s0,8(sp)
   10b6c:	00412483          	lw	s1,4(sp)
   10b70:	01010113          	add	sp,sp,16
   10b74:	00008067          	ret

00010b78 <_read_r>:
   10b78:	ff010113          	add	sp,sp,-16
   10b7c:	00058713          	mv	a4,a1
   10b80:	00812423          	sw	s0,8(sp)
   10b84:	00912223          	sw	s1,4(sp)
   10b88:	00060593          	mv	a1,a2
   10b8c:	00050413          	mv	s0,a0
   10b90:	00068613          	mv	a2,a3
   10b94:	00070513          	mv	a0,a4
   10b98:	00112623          	sw	ra,12(sp)
   10b9c:	f201a023          	sw	zero,-224(gp) # 23830 <errno>
   10ba0:	4300b0ef          	jal	1bfd0 <_read>
   10ba4:	fff00793          	li	a5,-1
   10ba8:	00f50c63          	beq	a0,a5,10bc0 <_read_r+0x48>
   10bac:	00c12083          	lw	ra,12(sp)
   10bb0:	00812403          	lw	s0,8(sp)
   10bb4:	00412483          	lw	s1,4(sp)
   10bb8:	01010113          	add	sp,sp,16
   10bbc:	00008067          	ret
   10bc0:	f201a783          	lw	a5,-224(gp) # 23830 <errno>
   10bc4:	fe0784e3          	beqz	a5,10bac <_read_r+0x34>
   10bc8:	00c12083          	lw	ra,12(sp)
   10bcc:	00f42023          	sw	a5,0(s0)
   10bd0:	00812403          	lw	s0,8(sp)
   10bd4:	00412483          	lw	s1,4(sp)
   10bd8:	01010113          	add	sp,sp,16
   10bdc:	00008067          	ret

00010be0 <_write_r>:
   10be0:	ff010113          	add	sp,sp,-16
   10be4:	00058713          	mv	a4,a1
   10be8:	00812423          	sw	s0,8(sp)
   10bec:	00912223          	sw	s1,4(sp)
   10bf0:	00060593          	mv	a1,a2
   10bf4:	00050413          	mv	s0,a0
   10bf8:	00068613          	mv	a2,a3
   10bfc:	00070513          	mv	a0,a4
   10c00:	00112623          	sw	ra,12(sp)
   10c04:	f201a023          	sw	zero,-224(gp) # 23830 <errno>
   10c08:	5480b0ef          	jal	1c150 <_write>
   10c0c:	fff00793          	li	a5,-1
   10c10:	00f50c63          	beq	a0,a5,10c28 <_write_r+0x48>
   10c14:	00c12083          	lw	ra,12(sp)
   10c18:	00812403          	lw	s0,8(sp)
   10c1c:	00412483          	lw	s1,4(sp)
   10c20:	01010113          	add	sp,sp,16
   10c24:	00008067          	ret
   10c28:	f201a783          	lw	a5,-224(gp) # 23830 <errno>
   10c2c:	fe0784e3          	beqz	a5,10c14 <_write_r+0x34>
   10c30:	00c12083          	lw	ra,12(sp)
   10c34:	00f42023          	sw	a5,0(s0)
   10c38:	00812403          	lw	s0,8(sp)
   10c3c:	00412483          	lw	s1,4(sp)
   10c40:	01010113          	add	sp,sp,16
   10c44:	00008067          	ret

00010c48 <__libc_init_array>:
   10c48:	ff010113          	add	sp,sp,-16
   10c4c:	00812423          	sw	s0,8(sp)
   10c50:	000237b7          	lui	a5,0x23
   10c54:	00023437          	lui	s0,0x23
   10c58:	01212023          	sw	s2,0(sp)
   10c5c:	10078793          	add	a5,a5,256 # 23100 <__init_array_start>
   10c60:	10040713          	add	a4,s0,256 # 23100 <__init_array_start>
   10c64:	00112623          	sw	ra,12(sp)
   10c68:	00912223          	sw	s1,4(sp)
   10c6c:	40e78933          	sub	s2,a5,a4
   10c70:	02e78263          	beq	a5,a4,10c94 <__libc_init_array+0x4c>
   10c74:	40295913          	sra	s2,s2,0x2
   10c78:	10040413          	add	s0,s0,256
   10c7c:	00000493          	li	s1,0
   10c80:	00042783          	lw	a5,0(s0)
   10c84:	00148493          	add	s1,s1,1
   10c88:	00440413          	add	s0,s0,4
   10c8c:	000780e7          	jalr	a5
   10c90:	ff24e8e3          	bltu	s1,s2,10c80 <__libc_init_array+0x38>
   10c94:	00023437          	lui	s0,0x23
   10c98:	000237b7          	lui	a5,0x23
   10c9c:	10c78793          	add	a5,a5,268 # 2310c <__do_global_dtors_aux_fini_array_entry>
   10ca0:	10040713          	add	a4,s0,256 # 23100 <__init_array_start>
   10ca4:	40e78933          	sub	s2,a5,a4
   10ca8:	40295913          	sra	s2,s2,0x2
   10cac:	02e78063          	beq	a5,a4,10ccc <__libc_init_array+0x84>
   10cb0:	10040413          	add	s0,s0,256
   10cb4:	00000493          	li	s1,0
   10cb8:	00042783          	lw	a5,0(s0)
   10cbc:	00148493          	add	s1,s1,1
   10cc0:	00440413          	add	s0,s0,4
   10cc4:	000780e7          	jalr	a5
   10cc8:	ff24e8e3          	bltu	s1,s2,10cb8 <__libc_init_array+0x70>
   10ccc:	00c12083          	lw	ra,12(sp)
   10cd0:	00812403          	lw	s0,8(sp)
   10cd4:	00412483          	lw	s1,4(sp)
   10cd8:	00012903          	lw	s2,0(sp)
   10cdc:	01010113          	add	sp,sp,16
   10ce0:	00008067          	ret

00010ce4 <memset>:
   10ce4:	00f00313          	li	t1,15
   10ce8:	00050713          	mv	a4,a0
   10cec:	02c37e63          	bgeu	t1,a2,10d28 <memset+0x44>
   10cf0:	00f77793          	and	a5,a4,15
   10cf4:	0a079063          	bnez	a5,10d94 <memset+0xb0>
   10cf8:	08059263          	bnez	a1,10d7c <memset+0x98>
   10cfc:	ff067693          	and	a3,a2,-16
   10d00:	00f67613          	and	a2,a2,15
   10d04:	00e686b3          	add	a3,a3,a4
   10d08:	00b72023          	sw	a1,0(a4)
   10d0c:	00b72223          	sw	a1,4(a4)
   10d10:	00b72423          	sw	a1,8(a4)
   10d14:	00b72623          	sw	a1,12(a4)
   10d18:	01070713          	add	a4,a4,16
   10d1c:	fed766e3          	bltu	a4,a3,10d08 <memset+0x24>
   10d20:	00061463          	bnez	a2,10d28 <memset+0x44>
   10d24:	00008067          	ret
   10d28:	40c306b3          	sub	a3,t1,a2
   10d2c:	00269693          	sll	a3,a3,0x2
   10d30:	00000297          	auipc	t0,0x0
   10d34:	005686b3          	add	a3,a3,t0
   10d38:	00c68067          	jr	12(a3)
   10d3c:	00b70723          	sb	a1,14(a4)
   10d40:	00b706a3          	sb	a1,13(a4)
   10d44:	00b70623          	sb	a1,12(a4)
   10d48:	00b705a3          	sb	a1,11(a4)
   10d4c:	00b70523          	sb	a1,10(a4)
   10d50:	00b704a3          	sb	a1,9(a4)
   10d54:	00b70423          	sb	a1,8(a4)
   10d58:	00b703a3          	sb	a1,7(a4)
   10d5c:	00b70323          	sb	a1,6(a4)
   10d60:	00b702a3          	sb	a1,5(a4)
   10d64:	00b70223          	sb	a1,4(a4)
   10d68:	00b701a3          	sb	a1,3(a4)
   10d6c:	00b70123          	sb	a1,2(a4)
   10d70:	00b700a3          	sb	a1,1(a4)
   10d74:	00b70023          	sb	a1,0(a4)
   10d78:	00008067          	ret
   10d7c:	0ff5f593          	zext.b	a1,a1
   10d80:	00859693          	sll	a3,a1,0x8
   10d84:	00d5e5b3          	or	a1,a1,a3
   10d88:	01059693          	sll	a3,a1,0x10
   10d8c:	00d5e5b3          	or	a1,a1,a3
   10d90:	f6dff06f          	j	10cfc <memset+0x18>
   10d94:	00279693          	sll	a3,a5,0x2
   10d98:	00000297          	auipc	t0,0x0
   10d9c:	005686b3          	add	a3,a3,t0
   10da0:	00008293          	mv	t0,ra
   10da4:	fa0680e7          	jalr	-96(a3)
   10da8:	00028093          	mv	ra,t0
   10dac:	ff078793          	add	a5,a5,-16
   10db0:	40f70733          	sub	a4,a4,a5
   10db4:	00f60633          	add	a2,a2,a5
   10db8:	f6c378e3          	bgeu	t1,a2,10d28 <memset+0x44>
   10dbc:	f3dff06f          	j	10cf8 <memset+0x14>

00010dc0 <strlen>:
   10dc0:	00357793          	and	a5,a0,3
   10dc4:	00050713          	mv	a4,a0
   10dc8:	04079c63          	bnez	a5,10e20 <strlen+0x60>
   10dcc:	7f7f86b7          	lui	a3,0x7f7f8
   10dd0:	f7f68693          	add	a3,a3,-129 # 7f7f7f7f <__BSS_END__+0x7f7d43a7>
   10dd4:	fff00593          	li	a1,-1
   10dd8:	00072603          	lw	a2,0(a4)
   10ddc:	00470713          	add	a4,a4,4
   10de0:	00d677b3          	and	a5,a2,a3
   10de4:	00d787b3          	add	a5,a5,a3
   10de8:	00c7e7b3          	or	a5,a5,a2
   10dec:	00d7e7b3          	or	a5,a5,a3
   10df0:	feb784e3          	beq	a5,a1,10dd8 <strlen+0x18>
   10df4:	ffc74683          	lbu	a3,-4(a4)
   10df8:	40a707b3          	sub	a5,a4,a0
   10dfc:	04068463          	beqz	a3,10e44 <strlen+0x84>
   10e00:	ffd74683          	lbu	a3,-3(a4)
   10e04:	02068c63          	beqz	a3,10e3c <strlen+0x7c>
   10e08:	ffe74503          	lbu	a0,-2(a4)
   10e0c:	00a03533          	snez	a0,a0
   10e10:	00f50533          	add	a0,a0,a5
   10e14:	ffe50513          	add	a0,a0,-2
   10e18:	00008067          	ret
   10e1c:	fa0688e3          	beqz	a3,10dcc <strlen+0xc>
   10e20:	00074783          	lbu	a5,0(a4)
   10e24:	00170713          	add	a4,a4,1
   10e28:	00377693          	and	a3,a4,3
   10e2c:	fe0798e3          	bnez	a5,10e1c <strlen+0x5c>
   10e30:	40a70733          	sub	a4,a4,a0
   10e34:	fff70513          	add	a0,a4,-1
   10e38:	00008067          	ret
   10e3c:	ffd78513          	add	a0,a5,-3
   10e40:	00008067          	ret
   10e44:	ffc78513          	add	a0,a5,-4
   10e48:	00008067          	ret

00010e4c <__call_exitprocs>:
   10e4c:	fd010113          	add	sp,sp,-48
   10e50:	01412c23          	sw	s4,24(sp)
   10e54:	03212023          	sw	s2,32(sp)
   10e58:	f241a903          	lw	s2,-220(gp) # 23834 <__atexit>
   10e5c:	02112623          	sw	ra,44(sp)
   10e60:	0a090863          	beqz	s2,10f10 <__call_exitprocs+0xc4>
   10e64:	01312e23          	sw	s3,28(sp)
   10e68:	01512a23          	sw	s5,20(sp)
   10e6c:	01612823          	sw	s6,16(sp)
   10e70:	01712623          	sw	s7,12(sp)
   10e74:	02812423          	sw	s0,40(sp)
   10e78:	02912223          	sw	s1,36(sp)
   10e7c:	01812423          	sw	s8,8(sp)
   10e80:	00050b13          	mv	s6,a0
   10e84:	00058b93          	mv	s7,a1
   10e88:	fff00993          	li	s3,-1
   10e8c:	00100a93          	li	s5,1
   10e90:	00492483          	lw	s1,4(s2)
   10e94:	fff48413          	add	s0,s1,-1
   10e98:	04044e63          	bltz	s0,10ef4 <__call_exitprocs+0xa8>
   10e9c:	00249493          	sll	s1,s1,0x2
   10ea0:	009904b3          	add	s1,s2,s1
   10ea4:	080b9063          	bnez	s7,10f24 <__call_exitprocs+0xd8>
   10ea8:	00492783          	lw	a5,4(s2)
   10eac:	0044a683          	lw	a3,4(s1)
   10eb0:	fff78793          	add	a5,a5,-1
   10eb4:	0a878c63          	beq	a5,s0,10f6c <__call_exitprocs+0x120>
   10eb8:	0004a223          	sw	zero,4(s1)
   10ebc:	02068663          	beqz	a3,10ee8 <__call_exitprocs+0x9c>
   10ec0:	18892783          	lw	a5,392(s2)
   10ec4:	008a9733          	sll	a4,s5,s0
   10ec8:	00492c03          	lw	s8,4(s2)
   10ecc:	00f777b3          	and	a5,a4,a5
   10ed0:	06079663          	bnez	a5,10f3c <__call_exitprocs+0xf0>
   10ed4:	000680e7          	jalr	a3
   10ed8:	00492703          	lw	a4,4(s2)
   10edc:	f241a783          	lw	a5,-220(gp) # 23834 <__atexit>
   10ee0:	09871063          	bne	a4,s8,10f60 <__call_exitprocs+0x114>
   10ee4:	07279e63          	bne	a5,s2,10f60 <__call_exitprocs+0x114>
   10ee8:	fff40413          	add	s0,s0,-1
   10eec:	ffc48493          	add	s1,s1,-4
   10ef0:	fb341ae3          	bne	s0,s3,10ea4 <__call_exitprocs+0x58>
   10ef4:	02812403          	lw	s0,40(sp)
   10ef8:	02412483          	lw	s1,36(sp)
   10efc:	01c12983          	lw	s3,28(sp)
   10f00:	01412a83          	lw	s5,20(sp)
   10f04:	01012b03          	lw	s6,16(sp)
   10f08:	00c12b83          	lw	s7,12(sp)
   10f0c:	00812c03          	lw	s8,8(sp)
   10f10:	02c12083          	lw	ra,44(sp)
   10f14:	02012903          	lw	s2,32(sp)
   10f18:	01812a03          	lw	s4,24(sp)
   10f1c:	03010113          	add	sp,sp,48
   10f20:	00008067          	ret
   10f24:	1044a783          	lw	a5,260(s1)
   10f28:	f97780e3          	beq	a5,s7,10ea8 <__call_exitprocs+0x5c>
   10f2c:	fff40413          	add	s0,s0,-1
   10f30:	ffc48493          	add	s1,s1,-4
   10f34:	ff3418e3          	bne	s0,s3,10f24 <__call_exitprocs+0xd8>
   10f38:	fbdff06f          	j	10ef4 <__call_exitprocs+0xa8>
   10f3c:	18c92783          	lw	a5,396(s2)
   10f40:	0844a583          	lw	a1,132(s1)
   10f44:	00f77733          	and	a4,a4,a5
   10f48:	02071663          	bnez	a4,10f74 <__call_exitprocs+0x128>
   10f4c:	000b0513          	mv	a0,s6
   10f50:	000680e7          	jalr	a3
   10f54:	00492703          	lw	a4,4(s2)
   10f58:	f241a783          	lw	a5,-220(gp) # 23834 <__atexit>
   10f5c:	f98704e3          	beq	a4,s8,10ee4 <__call_exitprocs+0x98>
   10f60:	f8078ae3          	beqz	a5,10ef4 <__call_exitprocs+0xa8>
   10f64:	00078913          	mv	s2,a5
   10f68:	f29ff06f          	j	10e90 <__call_exitprocs+0x44>
   10f6c:	00892223          	sw	s0,4(s2)
   10f70:	f4dff06f          	j	10ebc <__call_exitprocs+0x70>
   10f74:	00058513          	mv	a0,a1
   10f78:	000680e7          	jalr	a3
   10f7c:	f5dff06f          	j	10ed8 <__call_exitprocs+0x8c>

00010f80 <atexit>:
   10f80:	00050593          	mv	a1,a0
   10f84:	00000693          	li	a3,0
   10f88:	00000613          	li	a2,0
   10f8c:	00000513          	li	a0,0
   10f90:	79d0506f          	j	16f2c <__register_exitproc>

00010f94 <_malloc_trim_r>:
   10f94:	fe010113          	add	sp,sp,-32
   10f98:	01312623          	sw	s3,12(sp)
   10f9c:	000239b7          	lui	s3,0x23
   10fa0:	00812c23          	sw	s0,24(sp)
   10fa4:	00912a23          	sw	s1,20(sp)
   10fa8:	01212823          	sw	s2,16(sp)
   10fac:	01412423          	sw	s4,8(sp)
   10fb0:	00112e23          	sw	ra,28(sp)
   10fb4:	00058a13          	mv	s4,a1
   10fb8:	00050913          	mv	s2,a0
   10fbc:	24098993          	add	s3,s3,576 # 23240 <__malloc_av_>
   10fc0:	3cd000ef          	jal	11b8c <__malloc_lock>
   10fc4:	0089a703          	lw	a4,8(s3)
   10fc8:	000017b7          	lui	a5,0x1
   10fcc:	fef78793          	add	a5,a5,-17 # fef <exit-0xf0b1>
   10fd0:	00472483          	lw	s1,4(a4)
   10fd4:	00001737          	lui	a4,0x1
   10fd8:	ffc4f493          	and	s1,s1,-4
   10fdc:	00f48433          	add	s0,s1,a5
   10fe0:	41440433          	sub	s0,s0,s4
   10fe4:	00c45413          	srl	s0,s0,0xc
   10fe8:	fff40413          	add	s0,s0,-1
   10fec:	00c41413          	sll	s0,s0,0xc
   10ff0:	00e44e63          	blt	s0,a4,1100c <_malloc_trim_r+0x78>
   10ff4:	00000593          	li	a1,0
   10ff8:	00090513          	mv	a0,s2
   10ffc:	0c9050ef          	jal	168c4 <_sbrk_r>
   11000:	0089a783          	lw	a5,8(s3)
   11004:	009787b3          	add	a5,a5,s1
   11008:	02f50863          	beq	a0,a5,11038 <_malloc_trim_r+0xa4>
   1100c:	00090513          	mv	a0,s2
   11010:	381000ef          	jal	11b90 <__malloc_unlock>
   11014:	01c12083          	lw	ra,28(sp)
   11018:	01812403          	lw	s0,24(sp)
   1101c:	01412483          	lw	s1,20(sp)
   11020:	01012903          	lw	s2,16(sp)
   11024:	00c12983          	lw	s3,12(sp)
   11028:	00812a03          	lw	s4,8(sp)
   1102c:	00000513          	li	a0,0
   11030:	02010113          	add	sp,sp,32
   11034:	00008067          	ret
   11038:	408005b3          	neg	a1,s0
   1103c:	00090513          	mv	a0,s2
   11040:	085050ef          	jal	168c4 <_sbrk_r>
   11044:	fff00793          	li	a5,-1
   11048:	04f50863          	beq	a0,a5,11098 <_malloc_trim_r+0x104>
   1104c:	09018793          	add	a5,gp,144 # 239a0 <__malloc_current_mallinfo>
   11050:	0007a703          	lw	a4,0(a5)
   11054:	0089a683          	lw	a3,8(s3)
   11058:	408484b3          	sub	s1,s1,s0
   1105c:	0014e493          	or	s1,s1,1
   11060:	40870733          	sub	a4,a4,s0
   11064:	00090513          	mv	a0,s2
   11068:	0096a223          	sw	s1,4(a3)
   1106c:	00e7a023          	sw	a4,0(a5)
   11070:	321000ef          	jal	11b90 <__malloc_unlock>
   11074:	01c12083          	lw	ra,28(sp)
   11078:	01812403          	lw	s0,24(sp)
   1107c:	01412483          	lw	s1,20(sp)
   11080:	01012903          	lw	s2,16(sp)
   11084:	00c12983          	lw	s3,12(sp)
   11088:	00812a03          	lw	s4,8(sp)
   1108c:	00100513          	li	a0,1
   11090:	02010113          	add	sp,sp,32
   11094:	00008067          	ret
   11098:	00000593          	li	a1,0
   1109c:	00090513          	mv	a0,s2
   110a0:	025050ef          	jal	168c4 <_sbrk_r>
   110a4:	0089a703          	lw	a4,8(s3)
   110a8:	00f00693          	li	a3,15
   110ac:	40e507b3          	sub	a5,a0,a4
   110b0:	f4f6dee3          	bge	a3,a5,1100c <_malloc_trim_r+0x78>
   110b4:	f141a683          	lw	a3,-236(gp) # 23824 <__malloc_sbrk_base>
   110b8:	0017e793          	or	a5,a5,1
   110bc:	00f72223          	sw	a5,4(a4) # 1004 <exit-0xf09c>
   110c0:	40d50533          	sub	a0,a0,a3
   110c4:	08a1a823          	sw	a0,144(gp) # 239a0 <__malloc_current_mallinfo>
   110c8:	f45ff06f          	j	1100c <_malloc_trim_r+0x78>

000110cc <_free_r>:
   110cc:	18058263          	beqz	a1,11250 <_free_r+0x184>
   110d0:	ff010113          	add	sp,sp,-16
   110d4:	00812423          	sw	s0,8(sp)
   110d8:	00912223          	sw	s1,4(sp)
   110dc:	00058413          	mv	s0,a1
   110e0:	00050493          	mv	s1,a0
   110e4:	00112623          	sw	ra,12(sp)
   110e8:	2a5000ef          	jal	11b8c <__malloc_lock>
   110ec:	ffc42503          	lw	a0,-4(s0)
   110f0:	ff840713          	add	a4,s0,-8
   110f4:	000235b7          	lui	a1,0x23
   110f8:	ffe57793          	and	a5,a0,-2
   110fc:	00f70633          	add	a2,a4,a5
   11100:	24058593          	add	a1,a1,576 # 23240 <__malloc_av_>
   11104:	00462683          	lw	a3,4(a2) # 2004 <exit-0xe09c>
   11108:	0085a803          	lw	a6,8(a1)
   1110c:	ffc6f693          	and	a3,a3,-4
   11110:	1ac80263          	beq	a6,a2,112b4 <_free_r+0x1e8>
   11114:	00d62223          	sw	a3,4(a2)
   11118:	00157513          	and	a0,a0,1
   1111c:	00d60833          	add	a6,a2,a3
   11120:	0a051063          	bnez	a0,111c0 <_free_r+0xf4>
   11124:	ff842303          	lw	t1,-8(s0)
   11128:	00482803          	lw	a6,4(a6)
   1112c:	00023537          	lui	a0,0x23
   11130:	40670733          	sub	a4,a4,t1
   11134:	00872883          	lw	a7,8(a4)
   11138:	24850513          	add	a0,a0,584 # 23248 <__malloc_av_+0x8>
   1113c:	006787b3          	add	a5,a5,t1
   11140:	00187813          	and	a6,a6,1
   11144:	14a88263          	beq	a7,a0,11288 <_free_r+0x1bc>
   11148:	00c72303          	lw	t1,12(a4)
   1114c:	0068a623          	sw	t1,12(a7)
   11150:	01132423          	sw	a7,8(t1)
   11154:	1a080663          	beqz	a6,11300 <_free_r+0x234>
   11158:	0017e693          	or	a3,a5,1
   1115c:	00d72223          	sw	a3,4(a4)
   11160:	00f62023          	sw	a5,0(a2)
   11164:	1ff00693          	li	a3,511
   11168:	06f6ec63          	bltu	a3,a5,111e0 <_free_r+0x114>
   1116c:	ff87f693          	and	a3,a5,-8
   11170:	00868693          	add	a3,a3,8
   11174:	0045a503          	lw	a0,4(a1)
   11178:	00d586b3          	add	a3,a1,a3
   1117c:	0006a603          	lw	a2,0(a3)
   11180:	0057d813          	srl	a6,a5,0x5
   11184:	00100793          	li	a5,1
   11188:	010797b3          	sll	a5,a5,a6
   1118c:	00a7e7b3          	or	a5,a5,a0
   11190:	ff868513          	add	a0,a3,-8
   11194:	00a72623          	sw	a0,12(a4)
   11198:	00c72423          	sw	a2,8(a4)
   1119c:	00f5a223          	sw	a5,4(a1)
   111a0:	00e6a023          	sw	a4,0(a3)
   111a4:	00e62623          	sw	a4,12(a2)
   111a8:	00812403          	lw	s0,8(sp)
   111ac:	00c12083          	lw	ra,12(sp)
   111b0:	00048513          	mv	a0,s1
   111b4:	00412483          	lw	s1,4(sp)
   111b8:	01010113          	add	sp,sp,16
   111bc:	1d50006f          	j	11b90 <__malloc_unlock>
   111c0:	00482503          	lw	a0,4(a6)
   111c4:	00157513          	and	a0,a0,1
   111c8:	08050663          	beqz	a0,11254 <_free_r+0x188>
   111cc:	0017e693          	or	a3,a5,1
   111d0:	fed42e23          	sw	a3,-4(s0)
   111d4:	00f62023          	sw	a5,0(a2)
   111d8:	1ff00693          	li	a3,511
   111dc:	f8f6f8e3          	bgeu	a3,a5,1116c <_free_r+0xa0>
   111e0:	0097d693          	srl	a3,a5,0x9
   111e4:	00400613          	li	a2,4
   111e8:	12d66063          	bltu	a2,a3,11308 <_free_r+0x23c>
   111ec:	0067d693          	srl	a3,a5,0x6
   111f0:	03968513          	add	a0,a3,57
   111f4:	03868613          	add	a2,a3,56
   111f8:	00351513          	sll	a0,a0,0x3
   111fc:	00a58533          	add	a0,a1,a0
   11200:	00052683          	lw	a3,0(a0)
   11204:	ff850513          	add	a0,a0,-8
   11208:	00d51863          	bne	a0,a3,11218 <_free_r+0x14c>
   1120c:	1540006f          	j	11360 <_free_r+0x294>
   11210:	0086a683          	lw	a3,8(a3)
   11214:	00d50863          	beq	a0,a3,11224 <_free_r+0x158>
   11218:	0046a603          	lw	a2,4(a3)
   1121c:	ffc67613          	and	a2,a2,-4
   11220:	fec7e8e3          	bltu	a5,a2,11210 <_free_r+0x144>
   11224:	00c6a503          	lw	a0,12(a3)
   11228:	00a72623          	sw	a0,12(a4)
   1122c:	00d72423          	sw	a3,8(a4)
   11230:	00812403          	lw	s0,8(sp)
   11234:	00e52423          	sw	a4,8(a0)
   11238:	00c12083          	lw	ra,12(sp)
   1123c:	00048513          	mv	a0,s1
   11240:	00412483          	lw	s1,4(sp)
   11244:	00e6a623          	sw	a4,12(a3)
   11248:	01010113          	add	sp,sp,16
   1124c:	1450006f          	j	11b90 <__malloc_unlock>
   11250:	00008067          	ret
   11254:	00023537          	lui	a0,0x23
   11258:	00d787b3          	add	a5,a5,a3
   1125c:	24850513          	add	a0,a0,584 # 23248 <__malloc_av_+0x8>
   11260:	00862683          	lw	a3,8(a2)
   11264:	0ca68c63          	beq	a3,a0,1133c <_free_r+0x270>
   11268:	00c62803          	lw	a6,12(a2)
   1126c:	0017e513          	or	a0,a5,1
   11270:	00f70633          	add	a2,a4,a5
   11274:	0106a623          	sw	a6,12(a3)
   11278:	00d82423          	sw	a3,8(a6)
   1127c:	00a72223          	sw	a0,4(a4)
   11280:	00f62023          	sw	a5,0(a2)
   11284:	ee1ff06f          	j	11164 <_free_r+0x98>
   11288:	12081c63          	bnez	a6,113c0 <_free_r+0x2f4>
   1128c:	00862583          	lw	a1,8(a2)
   11290:	00c62603          	lw	a2,12(a2)
   11294:	00f686b3          	add	a3,a3,a5
   11298:	0016e793          	or	a5,a3,1
   1129c:	00c5a623          	sw	a2,12(a1)
   112a0:	00b62423          	sw	a1,8(a2)
   112a4:	00f72223          	sw	a5,4(a4)
   112a8:	00d70733          	add	a4,a4,a3
   112ac:	00d72023          	sw	a3,0(a4)
   112b0:	ef9ff06f          	j	111a8 <_free_r+0xdc>
   112b4:	00157513          	and	a0,a0,1
   112b8:	00d786b3          	add	a3,a5,a3
   112bc:	02051063          	bnez	a0,112dc <_free_r+0x210>
   112c0:	ff842503          	lw	a0,-8(s0)
   112c4:	40a70733          	sub	a4,a4,a0
   112c8:	00c72783          	lw	a5,12(a4)
   112cc:	00872603          	lw	a2,8(a4)
   112d0:	00a686b3          	add	a3,a3,a0
   112d4:	00f62623          	sw	a5,12(a2)
   112d8:	00c7a423          	sw	a2,8(a5)
   112dc:	0016e613          	or	a2,a3,1
   112e0:	f181a783          	lw	a5,-232(gp) # 23828 <__malloc_trim_threshold>
   112e4:	00c72223          	sw	a2,4(a4)
   112e8:	00e5a423          	sw	a4,8(a1)
   112ec:	eaf6eee3          	bltu	a3,a5,111a8 <_free_r+0xdc>
   112f0:	f301a583          	lw	a1,-208(gp) # 23840 <__malloc_top_pad>
   112f4:	00048513          	mv	a0,s1
   112f8:	c9dff0ef          	jal	10f94 <_malloc_trim_r>
   112fc:	eadff06f          	j	111a8 <_free_r+0xdc>
   11300:	00d787b3          	add	a5,a5,a3
   11304:	f5dff06f          	j	11260 <_free_r+0x194>
   11308:	01400613          	li	a2,20
   1130c:	02d67063          	bgeu	a2,a3,1132c <_free_r+0x260>
   11310:	05400613          	li	a2,84
   11314:	06d66463          	bltu	a2,a3,1137c <_free_r+0x2b0>
   11318:	00c7d693          	srl	a3,a5,0xc
   1131c:	06f68513          	add	a0,a3,111
   11320:	06e68613          	add	a2,a3,110
   11324:	00351513          	sll	a0,a0,0x3
   11328:	ed5ff06f          	j	111fc <_free_r+0x130>
   1132c:	05c68513          	add	a0,a3,92
   11330:	05b68613          	add	a2,a3,91
   11334:	00351513          	sll	a0,a0,0x3
   11338:	ec5ff06f          	j	111fc <_free_r+0x130>
   1133c:	00e5aa23          	sw	a4,20(a1)
   11340:	00e5a823          	sw	a4,16(a1)
   11344:	0017e693          	or	a3,a5,1
   11348:	00a72623          	sw	a0,12(a4)
   1134c:	00a72423          	sw	a0,8(a4)
   11350:	00d72223          	sw	a3,4(a4)
   11354:	00f70733          	add	a4,a4,a5
   11358:	00f72023          	sw	a5,0(a4)
   1135c:	e4dff06f          	j	111a8 <_free_r+0xdc>
   11360:	0045a803          	lw	a6,4(a1)
   11364:	40265613          	sra	a2,a2,0x2
   11368:	00100793          	li	a5,1
   1136c:	00c797b3          	sll	a5,a5,a2
   11370:	0107e7b3          	or	a5,a5,a6
   11374:	00f5a223          	sw	a5,4(a1)
   11378:	eb1ff06f          	j	11228 <_free_r+0x15c>
   1137c:	15400613          	li	a2,340
   11380:	00d66c63          	bltu	a2,a3,11398 <_free_r+0x2cc>
   11384:	00f7d693          	srl	a3,a5,0xf
   11388:	07868513          	add	a0,a3,120
   1138c:	07768613          	add	a2,a3,119
   11390:	00351513          	sll	a0,a0,0x3
   11394:	e69ff06f          	j	111fc <_free_r+0x130>
   11398:	55400613          	li	a2,1364
   1139c:	00d66c63          	bltu	a2,a3,113b4 <_free_r+0x2e8>
   113a0:	0127d693          	srl	a3,a5,0x12
   113a4:	07d68513          	add	a0,a3,125
   113a8:	07c68613          	add	a2,a3,124
   113ac:	00351513          	sll	a0,a0,0x3
   113b0:	e4dff06f          	j	111fc <_free_r+0x130>
   113b4:	3f800513          	li	a0,1016
   113b8:	07e00613          	li	a2,126
   113bc:	e41ff06f          	j	111fc <_free_r+0x130>
   113c0:	0017e693          	or	a3,a5,1
   113c4:	00d72223          	sw	a3,4(a4)
   113c8:	00f62023          	sw	a5,0(a2)
   113cc:	dddff06f          	j	111a8 <_free_r+0xdc>

000113d0 <_malloc_r>:
   113d0:	fd010113          	add	sp,sp,-48
   113d4:	01312e23          	sw	s3,28(sp)
   113d8:	02112623          	sw	ra,44(sp)
   113dc:	02812423          	sw	s0,40(sp)
   113e0:	02912223          	sw	s1,36(sp)
   113e4:	03212023          	sw	s2,32(sp)
   113e8:	00b58793          	add	a5,a1,11
   113ec:	01600713          	li	a4,22
   113f0:	00050993          	mv	s3,a0
   113f4:	08f76263          	bltu	a4,a5,11478 <_malloc_r+0xa8>
   113f8:	01000793          	li	a5,16
   113fc:	20b7e663          	bltu	a5,a1,11608 <_malloc_r+0x238>
   11400:	78c000ef          	jal	11b8c <__malloc_lock>
   11404:	01800793          	li	a5,24
   11408:	00200593          	li	a1,2
   1140c:	01000493          	li	s1,16
   11410:	00023937          	lui	s2,0x23
   11414:	24090913          	add	s2,s2,576 # 23240 <__malloc_av_>
   11418:	00f907b3          	add	a5,s2,a5
   1141c:	0047a403          	lw	s0,4(a5)
   11420:	ff878713          	add	a4,a5,-8
   11424:	34e40463          	beq	s0,a4,1176c <_malloc_r+0x39c>
   11428:	00442783          	lw	a5,4(s0)
   1142c:	00c42683          	lw	a3,12(s0)
   11430:	00842603          	lw	a2,8(s0)
   11434:	ffc7f793          	and	a5,a5,-4
   11438:	00f407b3          	add	a5,s0,a5
   1143c:	0047a703          	lw	a4,4(a5)
   11440:	00d62623          	sw	a3,12(a2)
   11444:	00c6a423          	sw	a2,8(a3)
   11448:	00176713          	or	a4,a4,1
   1144c:	00098513          	mv	a0,s3
   11450:	00e7a223          	sw	a4,4(a5)
   11454:	73c000ef          	jal	11b90 <__malloc_unlock>
   11458:	00840513          	add	a0,s0,8
   1145c:	02c12083          	lw	ra,44(sp)
   11460:	02812403          	lw	s0,40(sp)
   11464:	02412483          	lw	s1,36(sp)
   11468:	02012903          	lw	s2,32(sp)
   1146c:	01c12983          	lw	s3,28(sp)
   11470:	03010113          	add	sp,sp,48
   11474:	00008067          	ret
   11478:	ff87f493          	and	s1,a5,-8
   1147c:	1807c663          	bltz	a5,11608 <_malloc_r+0x238>
   11480:	18b4e463          	bltu	s1,a1,11608 <_malloc_r+0x238>
   11484:	708000ef          	jal	11b8c <__malloc_lock>
   11488:	1f700793          	li	a5,503
   1148c:	3e97fa63          	bgeu	a5,s1,11880 <_malloc_r+0x4b0>
   11490:	0094d793          	srl	a5,s1,0x9
   11494:	18078263          	beqz	a5,11618 <_malloc_r+0x248>
   11498:	00400713          	li	a4,4
   1149c:	34f76063          	bltu	a4,a5,117dc <_malloc_r+0x40c>
   114a0:	0064d793          	srl	a5,s1,0x6
   114a4:	03978593          	add	a1,a5,57
   114a8:	03878813          	add	a6,a5,56
   114ac:	00359613          	sll	a2,a1,0x3
   114b0:	00023937          	lui	s2,0x23
   114b4:	24090913          	add	s2,s2,576 # 23240 <__malloc_av_>
   114b8:	00c90633          	add	a2,s2,a2
   114bc:	00462403          	lw	s0,4(a2)
   114c0:	ff860613          	add	a2,a2,-8
   114c4:	02860863          	beq	a2,s0,114f4 <_malloc_r+0x124>
   114c8:	00f00513          	li	a0,15
   114cc:	0140006f          	j	114e0 <_malloc_r+0x110>
   114d0:	00c42683          	lw	a3,12(s0)
   114d4:	28075863          	bgez	a4,11764 <_malloc_r+0x394>
   114d8:	00d60e63          	beq	a2,a3,114f4 <_malloc_r+0x124>
   114dc:	00068413          	mv	s0,a3
   114e0:	00442783          	lw	a5,4(s0)
   114e4:	ffc7f793          	and	a5,a5,-4
   114e8:	40978733          	sub	a4,a5,s1
   114ec:	fee552e3          	bge	a0,a4,114d0 <_malloc_r+0x100>
   114f0:	00080593          	mv	a1,a6
   114f4:	01092403          	lw	s0,16(s2)
   114f8:	00023837          	lui	a6,0x23
   114fc:	24880813          	add	a6,a6,584 # 23248 <__malloc_av_+0x8>
   11500:	25040e63          	beq	s0,a6,1175c <_malloc_r+0x38c>
   11504:	00442783          	lw	a5,4(s0)
   11508:	00f00693          	li	a3,15
   1150c:	ffc7f793          	and	a5,a5,-4
   11510:	40978733          	sub	a4,a5,s1
   11514:	36e6cc63          	blt	a3,a4,1188c <_malloc_r+0x4bc>
   11518:	01092a23          	sw	a6,20(s2)
   1151c:	01092823          	sw	a6,16(s2)
   11520:	34075063          	bgez	a4,11860 <_malloc_r+0x490>
   11524:	1ff00713          	li	a4,511
   11528:	00492503          	lw	a0,4(s2)
   1152c:	24f76863          	bltu	a4,a5,1177c <_malloc_r+0x3ac>
   11530:	ff87f713          	and	a4,a5,-8
   11534:	00870713          	add	a4,a4,8
   11538:	00e90733          	add	a4,s2,a4
   1153c:	00072683          	lw	a3,0(a4)
   11540:	0057d613          	srl	a2,a5,0x5
   11544:	00100793          	li	a5,1
   11548:	00c797b3          	sll	a5,a5,a2
   1154c:	00f56533          	or	a0,a0,a5
   11550:	ff870793          	add	a5,a4,-8
   11554:	00f42623          	sw	a5,12(s0)
   11558:	00d42423          	sw	a3,8(s0)
   1155c:	00a92223          	sw	a0,4(s2)
   11560:	00872023          	sw	s0,0(a4)
   11564:	0086a623          	sw	s0,12(a3)
   11568:	4025d793          	sra	a5,a1,0x2
   1156c:	00100613          	li	a2,1
   11570:	00f61633          	sll	a2,a2,a5
   11574:	0ac56a63          	bltu	a0,a2,11628 <_malloc_r+0x258>
   11578:	00a677b3          	and	a5,a2,a0
   1157c:	02079463          	bnez	a5,115a4 <_malloc_r+0x1d4>
   11580:	00161613          	sll	a2,a2,0x1
   11584:	ffc5f593          	and	a1,a1,-4
   11588:	00a677b3          	and	a5,a2,a0
   1158c:	00458593          	add	a1,a1,4
   11590:	00079a63          	bnez	a5,115a4 <_malloc_r+0x1d4>
   11594:	00161613          	sll	a2,a2,0x1
   11598:	00a677b3          	and	a5,a2,a0
   1159c:	00458593          	add	a1,a1,4
   115a0:	fe078ae3          	beqz	a5,11594 <_malloc_r+0x1c4>
   115a4:	00f00893          	li	a7,15
   115a8:	00359313          	sll	t1,a1,0x3
   115ac:	00690333          	add	t1,s2,t1
   115b0:	00030513          	mv	a0,t1
   115b4:	00c52783          	lw	a5,12(a0)
   115b8:	00058e13          	mv	t3,a1
   115bc:	24f50263          	beq	a0,a5,11800 <_malloc_r+0x430>
   115c0:	0047a703          	lw	a4,4(a5)
   115c4:	00078413          	mv	s0,a5
   115c8:	00c7a783          	lw	a5,12(a5)
   115cc:	ffc77713          	and	a4,a4,-4
   115d0:	409706b3          	sub	a3,a4,s1
   115d4:	24d8c263          	blt	a7,a3,11818 <_malloc_r+0x448>
   115d8:	fe06c2e3          	bltz	a3,115bc <_malloc_r+0x1ec>
   115dc:	00e40733          	add	a4,s0,a4
   115e0:	00472683          	lw	a3,4(a4)
   115e4:	00842603          	lw	a2,8(s0)
   115e8:	00098513          	mv	a0,s3
   115ec:	0016e693          	or	a3,a3,1
   115f0:	00d72223          	sw	a3,4(a4)
   115f4:	00f62623          	sw	a5,12(a2)
   115f8:	00c7a423          	sw	a2,8(a5)
   115fc:	594000ef          	jal	11b90 <__malloc_unlock>
   11600:	00840513          	add	a0,s0,8
   11604:	e59ff06f          	j	1145c <_malloc_r+0x8c>
   11608:	00c00793          	li	a5,12
   1160c:	00f9a023          	sw	a5,0(s3)
   11610:	00000513          	li	a0,0
   11614:	e49ff06f          	j	1145c <_malloc_r+0x8c>
   11618:	20000613          	li	a2,512
   1161c:	04000593          	li	a1,64
   11620:	03f00813          	li	a6,63
   11624:	e8dff06f          	j	114b0 <_malloc_r+0xe0>
   11628:	00892403          	lw	s0,8(s2)
   1162c:	01612823          	sw	s6,16(sp)
   11630:	00442783          	lw	a5,4(s0)
   11634:	ffc7fb13          	and	s6,a5,-4
   11638:	009b6863          	bltu	s6,s1,11648 <_malloc_r+0x278>
   1163c:	409b0733          	sub	a4,s6,s1
   11640:	00f00793          	li	a5,15
   11644:	0ce7ca63          	blt	a5,a4,11718 <_malloc_r+0x348>
   11648:	01912223          	sw	s9,4(sp)
   1164c:	01512a23          	sw	s5,20(sp)
   11650:	f141a703          	lw	a4,-236(gp) # 23824 <__malloc_sbrk_base>
   11654:	f301aa83          	lw	s5,-208(gp) # 23840 <__malloc_top_pad>
   11658:	01412c23          	sw	s4,24(sp)
   1165c:	01712623          	sw	s7,12(sp)
   11660:	fff00793          	li	a5,-1
   11664:	01640a33          	add	s4,s0,s6
   11668:	01548ab3          	add	s5,s1,s5
   1166c:	3cf70663          	beq	a4,a5,11a38 <_malloc_r+0x668>
   11670:	000017b7          	lui	a5,0x1
   11674:	00f78793          	add	a5,a5,15 # 100f <exit-0xf091>
   11678:	00fa8ab3          	add	s5,s5,a5
   1167c:	fffff7b7          	lui	a5,0xfffff
   11680:	00fafab3          	and	s5,s5,a5
   11684:	000a8593          	mv	a1,s5
   11688:	00098513          	mv	a0,s3
   1168c:	238050ef          	jal	168c4 <_sbrk_r>
   11690:	fff00793          	li	a5,-1
   11694:	00050b93          	mv	s7,a0
   11698:	44f50a63          	beq	a0,a5,11aec <_malloc_r+0x71c>
   1169c:	01812423          	sw	s8,8(sp)
   116a0:	23456e63          	bltu	a0,s4,118dc <_malloc_r+0x50c>
   116a4:	09018c13          	add	s8,gp,144 # 239a0 <__malloc_current_mallinfo>
   116a8:	000c2583          	lw	a1,0(s8)
   116ac:	00ba85b3          	add	a1,s5,a1
   116b0:	00bc2023          	sw	a1,0(s8)
   116b4:	00058713          	mv	a4,a1
   116b8:	2aaa1663          	bne	s4,a0,11964 <_malloc_r+0x594>
   116bc:	01451793          	sll	a5,a0,0x14
   116c0:	2a079263          	bnez	a5,11964 <_malloc_r+0x594>
   116c4:	00892b83          	lw	s7,8(s2)
   116c8:	015b07b3          	add	a5,s6,s5
   116cc:	0017e793          	or	a5,a5,1
   116d0:	00fba223          	sw	a5,4(s7)
   116d4:	f2c1a683          	lw	a3,-212(gp) # 2383c <__malloc_max_sbrked_mem>
   116d8:	00b6f463          	bgeu	a3,a1,116e0 <_malloc_r+0x310>
   116dc:	f2b1a623          	sw	a1,-212(gp) # 2383c <__malloc_max_sbrked_mem>
   116e0:	f281a683          	lw	a3,-216(gp) # 23838 <__malloc_max_total_mem>
   116e4:	00b6f463          	bgeu	a3,a1,116ec <_malloc_r+0x31c>
   116e8:	f2b1a423          	sw	a1,-216(gp) # 23838 <__malloc_max_total_mem>
   116ec:	00812c03          	lw	s8,8(sp)
   116f0:	000b8413          	mv	s0,s7
   116f4:	ffc7f793          	and	a5,a5,-4
   116f8:	40978733          	sub	a4,a5,s1
   116fc:	3897ea63          	bltu	a5,s1,11a90 <_malloc_r+0x6c0>
   11700:	00f00793          	li	a5,15
   11704:	38e7d663          	bge	a5,a4,11a90 <_malloc_r+0x6c0>
   11708:	01812a03          	lw	s4,24(sp)
   1170c:	01412a83          	lw	s5,20(sp)
   11710:	00c12b83          	lw	s7,12(sp)
   11714:	00412c83          	lw	s9,4(sp)
   11718:	0014e793          	or	a5,s1,1
   1171c:	00f42223          	sw	a5,4(s0)
   11720:	009404b3          	add	s1,s0,s1
   11724:	00992423          	sw	s1,8(s2)
   11728:	00176713          	or	a4,a4,1
   1172c:	00098513          	mv	a0,s3
   11730:	00e4a223          	sw	a4,4(s1)
   11734:	45c000ef          	jal	11b90 <__malloc_unlock>
   11738:	02c12083          	lw	ra,44(sp)
   1173c:	00840513          	add	a0,s0,8
   11740:	02812403          	lw	s0,40(sp)
   11744:	01012b03          	lw	s6,16(sp)
   11748:	02412483          	lw	s1,36(sp)
   1174c:	02012903          	lw	s2,32(sp)
   11750:	01c12983          	lw	s3,28(sp)
   11754:	03010113          	add	sp,sp,48
   11758:	00008067          	ret
   1175c:	00492503          	lw	a0,4(s2)
   11760:	e09ff06f          	j	11568 <_malloc_r+0x198>
   11764:	00842603          	lw	a2,8(s0)
   11768:	cd1ff06f          	j	11438 <_malloc_r+0x68>
   1176c:	00c7a403          	lw	s0,12(a5) # fffff00c <__BSS_END__+0xfffdb434>
   11770:	00258593          	add	a1,a1,2
   11774:	d88780e3          	beq	a5,s0,114f4 <_malloc_r+0x124>
   11778:	cb1ff06f          	j	11428 <_malloc_r+0x58>
   1177c:	0097d713          	srl	a4,a5,0x9
   11780:	00400693          	li	a3,4
   11784:	14e6f263          	bgeu	a3,a4,118c8 <_malloc_r+0x4f8>
   11788:	01400693          	li	a3,20
   1178c:	32e6e463          	bltu	a3,a4,11ab4 <_malloc_r+0x6e4>
   11790:	05c70613          	add	a2,a4,92
   11794:	05b70693          	add	a3,a4,91
   11798:	00361613          	sll	a2,a2,0x3
   1179c:	00c90633          	add	a2,s2,a2
   117a0:	00062703          	lw	a4,0(a2)
   117a4:	ff860613          	add	a2,a2,-8
   117a8:	00e61863          	bne	a2,a4,117b8 <_malloc_r+0x3e8>
   117ac:	2940006f          	j	11a40 <_malloc_r+0x670>
   117b0:	00872703          	lw	a4,8(a4)
   117b4:	00e60863          	beq	a2,a4,117c4 <_malloc_r+0x3f4>
   117b8:	00472683          	lw	a3,4(a4)
   117bc:	ffc6f693          	and	a3,a3,-4
   117c0:	fed7e8e3          	bltu	a5,a3,117b0 <_malloc_r+0x3e0>
   117c4:	00c72603          	lw	a2,12(a4)
   117c8:	00c42623          	sw	a2,12(s0)
   117cc:	00e42423          	sw	a4,8(s0)
   117d0:	00862423          	sw	s0,8(a2)
   117d4:	00872623          	sw	s0,12(a4)
   117d8:	d91ff06f          	j	11568 <_malloc_r+0x198>
   117dc:	01400713          	li	a4,20
   117e0:	10f77863          	bgeu	a4,a5,118f0 <_malloc_r+0x520>
   117e4:	05400713          	li	a4,84
   117e8:	2ef76463          	bltu	a4,a5,11ad0 <_malloc_r+0x700>
   117ec:	00c4d793          	srl	a5,s1,0xc
   117f0:	06f78593          	add	a1,a5,111
   117f4:	06e78813          	add	a6,a5,110
   117f8:	00359613          	sll	a2,a1,0x3
   117fc:	cb5ff06f          	j	114b0 <_malloc_r+0xe0>
   11800:	001e0e13          	add	t3,t3,1
   11804:	003e7793          	and	a5,t3,3
   11808:	00850513          	add	a0,a0,8
   1180c:	10078063          	beqz	a5,1190c <_malloc_r+0x53c>
   11810:	00c52783          	lw	a5,12(a0)
   11814:	da9ff06f          	j	115bc <_malloc_r+0x1ec>
   11818:	00842603          	lw	a2,8(s0)
   1181c:	0014e593          	or	a1,s1,1
   11820:	00b42223          	sw	a1,4(s0)
   11824:	00f62623          	sw	a5,12(a2)
   11828:	00c7a423          	sw	a2,8(a5)
   1182c:	009404b3          	add	s1,s0,s1
   11830:	00992a23          	sw	s1,20(s2)
   11834:	00992823          	sw	s1,16(s2)
   11838:	0016e793          	or	a5,a3,1
   1183c:	0104a623          	sw	a6,12(s1)
   11840:	0104a423          	sw	a6,8(s1)
   11844:	00f4a223          	sw	a5,4(s1)
   11848:	00e40733          	add	a4,s0,a4
   1184c:	00098513          	mv	a0,s3
   11850:	00d72023          	sw	a3,0(a4)
   11854:	33c000ef          	jal	11b90 <__malloc_unlock>
   11858:	00840513          	add	a0,s0,8
   1185c:	c01ff06f          	j	1145c <_malloc_r+0x8c>
   11860:	00f407b3          	add	a5,s0,a5
   11864:	0047a703          	lw	a4,4(a5)
   11868:	00098513          	mv	a0,s3
   1186c:	00176713          	or	a4,a4,1
   11870:	00e7a223          	sw	a4,4(a5)
   11874:	31c000ef          	jal	11b90 <__malloc_unlock>
   11878:	00840513          	add	a0,s0,8
   1187c:	be1ff06f          	j	1145c <_malloc_r+0x8c>
   11880:	0034d593          	srl	a1,s1,0x3
   11884:	00848793          	add	a5,s1,8
   11888:	b89ff06f          	j	11410 <_malloc_r+0x40>
   1188c:	0014e693          	or	a3,s1,1
   11890:	00d42223          	sw	a3,4(s0)
   11894:	009404b3          	add	s1,s0,s1
   11898:	00992a23          	sw	s1,20(s2)
   1189c:	00992823          	sw	s1,16(s2)
   118a0:	00176693          	or	a3,a4,1
   118a4:	0104a623          	sw	a6,12(s1)
   118a8:	0104a423          	sw	a6,8(s1)
   118ac:	00d4a223          	sw	a3,4(s1)
   118b0:	00f407b3          	add	a5,s0,a5
   118b4:	00098513          	mv	a0,s3
   118b8:	00e7a023          	sw	a4,0(a5)
   118bc:	2d4000ef          	jal	11b90 <__malloc_unlock>
   118c0:	00840513          	add	a0,s0,8
   118c4:	b99ff06f          	j	1145c <_malloc_r+0x8c>
   118c8:	0067d713          	srl	a4,a5,0x6
   118cc:	03970613          	add	a2,a4,57
   118d0:	03870693          	add	a3,a4,56
   118d4:	00361613          	sll	a2,a2,0x3
   118d8:	ec5ff06f          	j	1179c <_malloc_r+0x3cc>
   118dc:	07240c63          	beq	s0,s2,11954 <_malloc_r+0x584>
   118e0:	00892403          	lw	s0,8(s2)
   118e4:	00812c03          	lw	s8,8(sp)
   118e8:	00442783          	lw	a5,4(s0)
   118ec:	e09ff06f          	j	116f4 <_malloc_r+0x324>
   118f0:	05c78593          	add	a1,a5,92
   118f4:	05b78813          	add	a6,a5,91
   118f8:	00359613          	sll	a2,a1,0x3
   118fc:	bb5ff06f          	j	114b0 <_malloc_r+0xe0>
   11900:	00832783          	lw	a5,8(t1)
   11904:	fff58593          	add	a1,a1,-1
   11908:	26679e63          	bne	a5,t1,11b84 <_malloc_r+0x7b4>
   1190c:	0035f793          	and	a5,a1,3
   11910:	ff830313          	add	t1,t1,-8
   11914:	fe0796e3          	bnez	a5,11900 <_malloc_r+0x530>
   11918:	00492703          	lw	a4,4(s2)
   1191c:	fff64793          	not	a5,a2
   11920:	00e7f7b3          	and	a5,a5,a4
   11924:	00f92223          	sw	a5,4(s2)
   11928:	00161613          	sll	a2,a2,0x1
   1192c:	cec7eee3          	bltu	a5,a2,11628 <_malloc_r+0x258>
   11930:	ce060ce3          	beqz	a2,11628 <_malloc_r+0x258>
   11934:	00f67733          	and	a4,a2,a5
   11938:	00071a63          	bnez	a4,1194c <_malloc_r+0x57c>
   1193c:	00161613          	sll	a2,a2,0x1
   11940:	00f67733          	and	a4,a2,a5
   11944:	004e0e13          	add	t3,t3,4
   11948:	fe070ae3          	beqz	a4,1193c <_malloc_r+0x56c>
   1194c:	000e0593          	mv	a1,t3
   11950:	c59ff06f          	j	115a8 <_malloc_r+0x1d8>
   11954:	09018c13          	add	s8,gp,144 # 239a0 <__malloc_current_mallinfo>
   11958:	000c2703          	lw	a4,0(s8)
   1195c:	00ea8733          	add	a4,s5,a4
   11960:	00ec2023          	sw	a4,0(s8)
   11964:	f141a683          	lw	a3,-236(gp) # 23824 <__malloc_sbrk_base>
   11968:	fff00793          	li	a5,-1
   1196c:	18f68663          	beq	a3,a5,11af8 <_malloc_r+0x728>
   11970:	414b87b3          	sub	a5,s7,s4
   11974:	00e787b3          	add	a5,a5,a4
   11978:	00fc2023          	sw	a5,0(s8)
   1197c:	007bfc93          	and	s9,s7,7
   11980:	0c0c8c63          	beqz	s9,11a58 <_malloc_r+0x688>
   11984:	419b8bb3          	sub	s7,s7,s9
   11988:	000017b7          	lui	a5,0x1
   1198c:	00878793          	add	a5,a5,8 # 1008 <exit-0xf098>
   11990:	008b8b93          	add	s7,s7,8
   11994:	419785b3          	sub	a1,a5,s9
   11998:	015b8ab3          	add	s5,s7,s5
   1199c:	415585b3          	sub	a1,a1,s5
   119a0:	01459593          	sll	a1,a1,0x14
   119a4:	0145da13          	srl	s4,a1,0x14
   119a8:	000a0593          	mv	a1,s4
   119ac:	00098513          	mv	a0,s3
   119b0:	715040ef          	jal	168c4 <_sbrk_r>
   119b4:	fff00793          	li	a5,-1
   119b8:	18f50063          	beq	a0,a5,11b38 <_malloc_r+0x768>
   119bc:	41750533          	sub	a0,a0,s7
   119c0:	01450ab3          	add	s5,a0,s4
   119c4:	000c2703          	lw	a4,0(s8)
   119c8:	01792423          	sw	s7,8(s2)
   119cc:	001ae793          	or	a5,s5,1
   119d0:	00ea05b3          	add	a1,s4,a4
   119d4:	00bc2023          	sw	a1,0(s8)
   119d8:	00fba223          	sw	a5,4(s7)
   119dc:	cf240ce3          	beq	s0,s2,116d4 <_malloc_r+0x304>
   119e0:	00f00693          	li	a3,15
   119e4:	0b66f063          	bgeu	a3,s6,11a84 <_malloc_r+0x6b4>
   119e8:	00442703          	lw	a4,4(s0)
   119ec:	ff4b0793          	add	a5,s6,-12
   119f0:	ff87f793          	and	a5,a5,-8
   119f4:	00177713          	and	a4,a4,1
   119f8:	00f76733          	or	a4,a4,a5
   119fc:	00e42223          	sw	a4,4(s0)
   11a00:	00500613          	li	a2,5
   11a04:	00f40733          	add	a4,s0,a5
   11a08:	00c72223          	sw	a2,4(a4)
   11a0c:	00c72423          	sw	a2,8(a4)
   11a10:	00f6e663          	bltu	a3,a5,11a1c <_malloc_r+0x64c>
   11a14:	004ba783          	lw	a5,4(s7)
   11a18:	cbdff06f          	j	116d4 <_malloc_r+0x304>
   11a1c:	00840593          	add	a1,s0,8
   11a20:	00098513          	mv	a0,s3
   11a24:	ea8ff0ef          	jal	110cc <_free_r>
   11a28:	00892b83          	lw	s7,8(s2)
   11a2c:	000c2583          	lw	a1,0(s8)
   11a30:	004ba783          	lw	a5,4(s7)
   11a34:	ca1ff06f          	j	116d4 <_malloc_r+0x304>
   11a38:	010a8a93          	add	s5,s5,16
   11a3c:	c49ff06f          	j	11684 <_malloc_r+0x2b4>
   11a40:	4026d693          	sra	a3,a3,0x2
   11a44:	00100793          	li	a5,1
   11a48:	00d797b3          	sll	a5,a5,a3
   11a4c:	00f56533          	or	a0,a0,a5
   11a50:	00a92223          	sw	a0,4(s2)
   11a54:	d75ff06f          	j	117c8 <_malloc_r+0x3f8>
   11a58:	015b85b3          	add	a1,s7,s5
   11a5c:	40b005b3          	neg	a1,a1
   11a60:	01459593          	sll	a1,a1,0x14
   11a64:	0145da13          	srl	s4,a1,0x14
   11a68:	000a0593          	mv	a1,s4
   11a6c:	00098513          	mv	a0,s3
   11a70:	655040ef          	jal	168c4 <_sbrk_r>
   11a74:	fff00793          	li	a5,-1
   11a78:	f4f512e3          	bne	a0,a5,119bc <_malloc_r+0x5ec>
   11a7c:	00000a13          	li	s4,0
   11a80:	f45ff06f          	j	119c4 <_malloc_r+0x5f4>
   11a84:	00812c03          	lw	s8,8(sp)
   11a88:	00100793          	li	a5,1
   11a8c:	00fba223          	sw	a5,4(s7)
   11a90:	00098513          	mv	a0,s3
   11a94:	0fc000ef          	jal	11b90 <__malloc_unlock>
   11a98:	00000513          	li	a0,0
   11a9c:	01812a03          	lw	s4,24(sp)
   11aa0:	01412a83          	lw	s5,20(sp)
   11aa4:	01012b03          	lw	s6,16(sp)
   11aa8:	00c12b83          	lw	s7,12(sp)
   11aac:	00412c83          	lw	s9,4(sp)
   11ab0:	9adff06f          	j	1145c <_malloc_r+0x8c>
   11ab4:	05400693          	li	a3,84
   11ab8:	04e6e463          	bltu	a3,a4,11b00 <_malloc_r+0x730>
   11abc:	00c7d713          	srl	a4,a5,0xc
   11ac0:	06f70613          	add	a2,a4,111
   11ac4:	06e70693          	add	a3,a4,110
   11ac8:	00361613          	sll	a2,a2,0x3
   11acc:	cd1ff06f          	j	1179c <_malloc_r+0x3cc>
   11ad0:	15400713          	li	a4,340
   11ad4:	04f76463          	bltu	a4,a5,11b1c <_malloc_r+0x74c>
   11ad8:	00f4d793          	srl	a5,s1,0xf
   11adc:	07878593          	add	a1,a5,120
   11ae0:	07778813          	add	a6,a5,119
   11ae4:	00359613          	sll	a2,a1,0x3
   11ae8:	9c9ff06f          	j	114b0 <_malloc_r+0xe0>
   11aec:	00892403          	lw	s0,8(s2)
   11af0:	00442783          	lw	a5,4(s0)
   11af4:	c01ff06f          	j	116f4 <_malloc_r+0x324>
   11af8:	f171aa23          	sw	s7,-236(gp) # 23824 <__malloc_sbrk_base>
   11afc:	e81ff06f          	j	1197c <_malloc_r+0x5ac>
   11b00:	15400693          	li	a3,340
   11b04:	04e6e463          	bltu	a3,a4,11b4c <_malloc_r+0x77c>
   11b08:	00f7d713          	srl	a4,a5,0xf
   11b0c:	07870613          	add	a2,a4,120
   11b10:	07770693          	add	a3,a4,119
   11b14:	00361613          	sll	a2,a2,0x3
   11b18:	c85ff06f          	j	1179c <_malloc_r+0x3cc>
   11b1c:	55400713          	li	a4,1364
   11b20:	04f76463          	bltu	a4,a5,11b68 <_malloc_r+0x798>
   11b24:	0124d793          	srl	a5,s1,0x12
   11b28:	07d78593          	add	a1,a5,125
   11b2c:	07c78813          	add	a6,a5,124
   11b30:	00359613          	sll	a2,a1,0x3
   11b34:	97dff06f          	j	114b0 <_malloc_r+0xe0>
   11b38:	ff8c8c93          	add	s9,s9,-8
   11b3c:	019a8ab3          	add	s5,s5,s9
   11b40:	417a8ab3          	sub	s5,s5,s7
   11b44:	00000a13          	li	s4,0
   11b48:	e7dff06f          	j	119c4 <_malloc_r+0x5f4>
   11b4c:	55400693          	li	a3,1364
   11b50:	02e6e463          	bltu	a3,a4,11b78 <_malloc_r+0x7a8>
   11b54:	0127d713          	srl	a4,a5,0x12
   11b58:	07d70613          	add	a2,a4,125
   11b5c:	07c70693          	add	a3,a4,124
   11b60:	00361613          	sll	a2,a2,0x3
   11b64:	c39ff06f          	j	1179c <_malloc_r+0x3cc>
   11b68:	3f800613          	li	a2,1016
   11b6c:	07f00593          	li	a1,127
   11b70:	07e00813          	li	a6,126
   11b74:	93dff06f          	j	114b0 <_malloc_r+0xe0>
   11b78:	3f800613          	li	a2,1016
   11b7c:	07e00693          	li	a3,126
   11b80:	c1dff06f          	j	1179c <_malloc_r+0x3cc>
   11b84:	00492783          	lw	a5,4(s2)
   11b88:	da1ff06f          	j	11928 <_malloc_r+0x558>

00011b8c <__malloc_lock>:
   11b8c:	00008067          	ret

00011b90 <__malloc_unlock>:
   11b90:	00008067          	ret

00011b94 <_vfprintf_r>:
   11b94:	e3010113          	add	sp,sp,-464
   11b98:	1c112623          	sw	ra,460(sp)
   11b9c:	1c812423          	sw	s0,456(sp)
   11ba0:	1c912223          	sw	s1,452(sp)
   11ba4:	1b612823          	sw	s6,432(sp)
   11ba8:	00058493          	mv	s1,a1
   11bac:	00060b13          	mv	s6,a2
   11bb0:	00d12623          	sw	a3,12(sp)
   11bb4:	00050413          	mv	s0,a0
   11bb8:	02a12223          	sw	a0,36(sp)
   11bbc:	4f9040ef          	jal	168b4 <_localeconv_r>
   11bc0:	00052703          	lw	a4,0(a0)
   11bc4:	00070513          	mv	a0,a4
   11bc8:	02e12623          	sw	a4,44(sp)
   11bcc:	9f4ff0ef          	jal	10dc0 <strlen>
   11bd0:	02a12423          	sw	a0,40(sp)
   11bd4:	0c012823          	sw	zero,208(sp)
   11bd8:	0c012a23          	sw	zero,212(sp)
   11bdc:	0c012c23          	sw	zero,216(sp)
   11be0:	0c012e23          	sw	zero,220(sp)
   11be4:	00040863          	beqz	s0,11bf4 <_vfprintf_r+0x60>
   11be8:	03442703          	lw	a4,52(s0)
   11bec:	00071463          	bnez	a4,11bf4 <_vfprintf_r+0x60>
   11bf0:	1150106f          	j	13504 <_vfprintf_r+0x1970>
   11bf4:	00c49703          	lh	a4,12(s1)
   11bf8:	01271693          	sll	a3,a4,0x12
   11bfc:	0206c663          	bltz	a3,11c28 <_vfprintf_r+0x94>
   11c00:	0644a683          	lw	a3,100(s1)
   11c04:	000025b7          	lui	a1,0x2
   11c08:	ffffe637          	lui	a2,0xffffe
   11c0c:	00b76733          	or	a4,a4,a1
   11c10:	fff60613          	add	a2,a2,-1 # ffffdfff <__BSS_END__+0xfffda427>
   11c14:	01071713          	sll	a4,a4,0x10
   11c18:	41075713          	sra	a4,a4,0x10
   11c1c:	00c6f6b3          	and	a3,a3,a2
   11c20:	00e49623          	sh	a4,12(s1)
   11c24:	06d4a223          	sw	a3,100(s1)
   11c28:	00877693          	and	a3,a4,8
   11c2c:	30068463          	beqz	a3,11f34 <_vfprintf_r+0x3a0>
   11c30:	0104a683          	lw	a3,16(s1)
   11c34:	30068063          	beqz	a3,11f34 <_vfprintf_r+0x3a0>
   11c38:	01a77713          	and	a4,a4,26
   11c3c:	00a00693          	li	a3,10
   11c40:	30d70c63          	beq	a4,a3,11f58 <_vfprintf_r+0x3c4>
   11c44:	1b312e23          	sw	s3,444(sp)
   11c48:	1b512a23          	sw	s5,436(sp)
   11c4c:	1b712623          	sw	s7,428(sp)
   11c50:	1ba12023          	sw	s10,416(sp)
   11c54:	00022737          	lui	a4,0x22
   11c58:	1d212023          	sw	s2,448(sp)
   11c5c:	1b412c23          	sw	s4,440(sp)
   11c60:	1b812423          	sw	s8,424(sp)
   11c64:	1b912223          	sw	s9,420(sp)
   11c68:	19b12e23          	sw	s11,412(sp)
   11c6c:	000b0d13          	mv	s10,s6
   11c70:	13070793          	add	a5,a4,304 # 22130 <__clzsi2+0x204>
   11c74:	000d4703          	lbu	a4,0(s10)
   11c78:	0ec10993          	add	s3,sp,236
   11c7c:	00022ab7          	lui	s5,0x22
   11c80:	0d312223          	sw	s3,196(sp)
   11c84:	0c012623          	sw	zero,204(sp)
   11c88:	0c012423          	sw	zero,200(sp)
   11c8c:	00012c23          	sw	zero,24(sp)
   11c90:	02012823          	sw	zero,48(sp)
   11c94:	02012e23          	sw	zero,60(sp)
   11c98:	02012c23          	sw	zero,56(sp)
   11c9c:	04012023          	sw	zero,64(sp)
   11ca0:	04012223          	sw	zero,68(sp)
   11ca4:	00012223          	sw	zero,4(sp)
   11ca8:	00f12823          	sw	a5,16(sp)
   11cac:	02412b83          	lw	s7,36(sp)
   11cb0:	00098413          	mv	s0,s3
   11cb4:	334a8a93          	add	s5,s5,820 # 22334 <zeroes.0>
   11cb8:	22070063          	beqz	a4,11ed8 <_vfprintf_r+0x344>
   11cbc:	000d0913          	mv	s2,s10
   11cc0:	02500693          	li	a3,37
   11cc4:	3ed70863          	beq	a4,a3,120b4 <_vfprintf_r+0x520>
   11cc8:	00194703          	lbu	a4,1(s2)
   11ccc:	00190913          	add	s2,s2,1
   11cd0:	fe071ae3          	bnez	a4,11cc4 <_vfprintf_r+0x130>
   11cd4:	41a90a33          	sub	s4,s2,s10
   11cd8:	21a90063          	beq	s2,s10,11ed8 <_vfprintf_r+0x344>
   11cdc:	0cc12683          	lw	a3,204(sp)
   11ce0:	0c812703          	lw	a4,200(sp)
   11ce4:	01a42023          	sw	s10,0(s0)
   11ce8:	014686b3          	add	a3,a3,s4
   11cec:	00170713          	add	a4,a4,1
   11cf0:	01442223          	sw	s4,4(s0)
   11cf4:	0cd12623          	sw	a3,204(sp)
   11cf8:	0ce12423          	sw	a4,200(sp)
   11cfc:	00700693          	li	a3,7
   11d00:	00840413          	add	s0,s0,8
   11d04:	3ce6c063          	blt	a3,a4,120c4 <_vfprintf_r+0x530>
   11d08:	00412783          	lw	a5,4(sp)
   11d0c:	00094703          	lbu	a4,0(s2)
   11d10:	014787b3          	add	a5,a5,s4
   11d14:	00f12223          	sw	a5,4(sp)
   11d18:	1c070063          	beqz	a4,11ed8 <_vfprintf_r+0x344>
   11d1c:	00194883          	lbu	a7,1(s2)
   11d20:	0a0103a3          	sb	zero,167(sp)
   11d24:	00190913          	add	s2,s2,1
   11d28:	fff00a13          	li	s4,-1
   11d2c:	00000c93          	li	s9,0
   11d30:	00000d93          	li	s11,0
   11d34:	05a00b13          	li	s6,90
   11d38:	00190913          	add	s2,s2,1
   11d3c:	fe088793          	add	a5,a7,-32
   11d40:	04fb6663          	bltu	s6,a5,11d8c <_vfprintf_r+0x1f8>
   11d44:	01012703          	lw	a4,16(sp)
   11d48:	00279793          	sll	a5,a5,0x2
   11d4c:	00e787b3          	add	a5,a5,a4
   11d50:	0007a783          	lw	a5,0(a5)
   11d54:	00078067          	jr	a5
   11d58:	00000c93          	li	s9,0
   11d5c:	fd088793          	add	a5,a7,-48
   11d60:	00900693          	li	a3,9
   11d64:	00094883          	lbu	a7,0(s2)
   11d68:	002c9713          	sll	a4,s9,0x2
   11d6c:	01970cb3          	add	s9,a4,s9
   11d70:	001c9c93          	sll	s9,s9,0x1
   11d74:	01978cb3          	add	s9,a5,s9
   11d78:	fd088793          	add	a5,a7,-48
   11d7c:	00190913          	add	s2,s2,1
   11d80:	fef6f2e3          	bgeu	a3,a5,11d64 <_vfprintf_r+0x1d0>
   11d84:	fe088793          	add	a5,a7,-32
   11d88:	fafb7ee3          	bgeu	s6,a5,11d44 <_vfprintf_r+0x1b0>
   11d8c:	14088663          	beqz	a7,11ed8 <_vfprintf_r+0x344>
   11d90:	13110623          	sb	a7,300(sp)
   11d94:	0a0103a3          	sb	zero,167(sp)
   11d98:	00100c13          	li	s8,1
   11d9c:	00100b13          	li	s6,1
   11da0:	12c10d13          	add	s10,sp,300
   11da4:	00012423          	sw	zero,8(sp)
   11da8:	00000a13          	li	s4,0
   11dac:	02012023          	sw	zero,32(sp)
   11db0:	00012e23          	sw	zero,28(sp)
   11db4:	00012a23          	sw	zero,20(sp)
   11db8:	002df293          	and	t0,s11,2
   11dbc:	00028463          	beqz	t0,11dc4 <_vfprintf_r+0x230>
   11dc0:	002c0c13          	add	s8,s8,2
   11dc4:	084dff93          	and	t6,s11,132
   11dc8:	0cc12603          	lw	a2,204(sp)
   11dcc:	000f9663          	bnez	t6,11dd8 <_vfprintf_r+0x244>
   11dd0:	418c8733          	sub	a4,s9,s8
   11dd4:	46e04ce3          	bgtz	a4,12a4c <_vfprintf_r+0xeb8>
   11dd8:	0a714703          	lbu	a4,167(sp)
   11ddc:	02070a63          	beqz	a4,11e10 <_vfprintf_r+0x27c>
   11de0:	0c812703          	lw	a4,200(sp)
   11de4:	0a710593          	add	a1,sp,167
   11de8:	00b42023          	sw	a1,0(s0)
   11dec:	00160613          	add	a2,a2,1
   11df0:	00100593          	li	a1,1
   11df4:	00170713          	add	a4,a4,1
   11df8:	00b42223          	sw	a1,4(s0)
   11dfc:	0cc12623          	sw	a2,204(sp)
   11e00:	0ce12423          	sw	a4,200(sp)
   11e04:	00700593          	li	a1,7
   11e08:	00840413          	add	s0,s0,8
   11e0c:	3ee5c463          	blt	a1,a4,121f4 <_vfprintf_r+0x660>
   11e10:	02028a63          	beqz	t0,11e44 <_vfprintf_r+0x2b0>
   11e14:	0c812703          	lw	a4,200(sp)
   11e18:	00200593          	li	a1,2
   11e1c:	00260613          	add	a2,a2,2
   11e20:	00170713          	add	a4,a4,1
   11e24:	0a810793          	add	a5,sp,168
   11e28:	00b42223          	sw	a1,4(s0)
   11e2c:	00f42023          	sw	a5,0(s0)
   11e30:	0cc12623          	sw	a2,204(sp)
   11e34:	0ce12423          	sw	a4,200(sp)
   11e38:	00700593          	li	a1,7
   11e3c:	00840413          	add	s0,s0,8
   11e40:	50e5cce3          	blt	a1,a4,12b58 <_vfprintf_r+0xfc4>
   11e44:	08000713          	li	a4,128
   11e48:	1eef8ee3          	beq	t6,a4,12844 <_vfprintf_r+0xcb0>
   11e4c:	416a0a33          	sub	s4,s4,s6
   11e50:	2f4044e3          	bgtz	s4,12938 <_vfprintf_r+0xda4>
   11e54:	100df713          	and	a4,s11,256
   11e58:	040718e3          	bnez	a4,126a8 <_vfprintf_r+0xb14>
   11e5c:	0c812783          	lw	a5,200(sp)
   11e60:	01660633          	add	a2,a2,s6
   11e64:	01a42023          	sw	s10,0(s0)
   11e68:	00178793          	add	a5,a5,1
   11e6c:	01642223          	sw	s6,4(s0)
   11e70:	0cc12623          	sw	a2,204(sp)
   11e74:	0cf12423          	sw	a5,200(sp)
   11e78:	00700713          	li	a4,7
   11e7c:	4cf74063          	blt	a4,a5,1233c <_vfprintf_r+0x7a8>
   11e80:	00840413          	add	s0,s0,8
   11e84:	004dfe13          	and	t3,s11,4
   11e88:	000e0663          	beqz	t3,11e94 <_vfprintf_r+0x300>
   11e8c:	418c8a33          	sub	s4,s9,s8
   11e90:	4f404ce3          	bgtz	s4,12b88 <_vfprintf_r+0xff4>
   11e94:	000c8313          	mv	t1,s9
   11e98:	018cd463          	bge	s9,s8,11ea0 <_vfprintf_r+0x30c>
   11e9c:	000c0313          	mv	t1,s8
   11ea0:	00412783          	lw	a5,4(sp)
   11ea4:	006787b3          	add	a5,a5,t1
   11ea8:	00f12223          	sw	a5,4(sp)
   11eac:	360618e3          	bnez	a2,12a1c <_vfprintf_r+0xe88>
   11eb0:	00812783          	lw	a5,8(sp)
   11eb4:	0c012423          	sw	zero,200(sp)
   11eb8:	00078863          	beqz	a5,11ec8 <_vfprintf_r+0x334>
   11ebc:	00812583          	lw	a1,8(sp)
   11ec0:	000b8513          	mv	a0,s7
   11ec4:	a08ff0ef          	jal	110cc <_free_r>
   11ec8:	00098413          	mv	s0,s3
   11ecc:	00090d13          	mv	s10,s2
   11ed0:	000d4703          	lbu	a4,0(s10)
   11ed4:	de0714e3          	bnez	a4,11cbc <_vfprintf_r+0x128>
   11ed8:	0cc12783          	lw	a5,204(sp)
   11edc:	00078463          	beqz	a5,11ee4 <_vfprintf_r+0x350>
   11ee0:	3890106f          	j	13a68 <_vfprintf_r+0x1ed4>
   11ee4:	00c4d783          	lhu	a5,12(s1)
   11ee8:	1c012903          	lw	s2,448(sp)
   11eec:	1bc12983          	lw	s3,444(sp)
   11ef0:	0407f793          	and	a5,a5,64
   11ef4:	1b812a03          	lw	s4,440(sp)
   11ef8:	1b412a83          	lw	s5,436(sp)
   11efc:	1ac12b83          	lw	s7,428(sp)
   11f00:	1a812c03          	lw	s8,424(sp)
   11f04:	1a412c83          	lw	s9,420(sp)
   11f08:	1a012d03          	lw	s10,416(sp)
   11f0c:	19c12d83          	lw	s11,412(sp)
   11f10:	00078463          	beqz	a5,11f18 <_vfprintf_r+0x384>
   11f14:	1640206f          	j	14078 <_vfprintf_r+0x24e4>
   11f18:	1cc12083          	lw	ra,460(sp)
   11f1c:	1c812403          	lw	s0,456(sp)
   11f20:	00412503          	lw	a0,4(sp)
   11f24:	1c412483          	lw	s1,452(sp)
   11f28:	1b012b03          	lw	s6,432(sp)
   11f2c:	1d010113          	add	sp,sp,464
   11f30:	00008067          	ret
   11f34:	02412503          	lw	a0,36(sp)
   11f38:	00048593          	mv	a1,s1
   11f3c:	41c040ef          	jal	16358 <__swsetup_r>
   11f40:	00050463          	beqz	a0,11f48 <_vfprintf_r+0x3b4>
   11f44:	1340206f          	j	14078 <_vfprintf_r+0x24e4>
   11f48:	00c49703          	lh	a4,12(s1)
   11f4c:	00a00693          	li	a3,10
   11f50:	01a77713          	and	a4,a4,26
   11f54:	ced718e3          	bne	a4,a3,11c44 <_vfprintf_r+0xb0>
   11f58:	00e49703          	lh	a4,14(s1)
   11f5c:	ce0744e3          	bltz	a4,11c44 <_vfprintf_r+0xb0>
   11f60:	00c12683          	lw	a3,12(sp)
   11f64:	02412503          	lw	a0,36(sp)
   11f68:	000b0613          	mv	a2,s6
   11f6c:	00048593          	mv	a1,s1
   11f70:	4c4020ef          	jal	14434 <__sbprintf>
   11f74:	00a12223          	sw	a0,4(sp)
   11f78:	fa1ff06f          	j	11f18 <_vfprintf_r+0x384>
   11f7c:	000b8513          	mv	a0,s7
   11f80:	135040ef          	jal	168b4 <_localeconv_r>
   11f84:	00452783          	lw	a5,4(a0)
   11f88:	00078513          	mv	a0,a5
   11f8c:	04f12223          	sw	a5,68(sp)
   11f90:	e31fe0ef          	jal	10dc0 <strlen>
   11f94:	00050793          	mv	a5,a0
   11f98:	000b8513          	mv	a0,s7
   11f9c:	00078c13          	mv	s8,a5
   11fa0:	04f12023          	sw	a5,64(sp)
   11fa4:	111040ef          	jal	168b4 <_localeconv_r>
   11fa8:	00852703          	lw	a4,8(a0)
   11fac:	02e12c23          	sw	a4,56(sp)
   11fb0:	760c10e3          	bnez	s8,12f10 <_vfprintf_r+0x137c>
   11fb4:	00094883          	lbu	a7,0(s2)
   11fb8:	d81ff06f          	j	11d38 <_vfprintf_r+0x1a4>
   11fbc:	00094883          	lbu	a7,0(s2)
   11fc0:	020ded93          	or	s11,s11,32
   11fc4:	d75ff06f          	j	11d38 <_vfprintf_r+0x1a4>
   11fc8:	010ded93          	or	s11,s11,16
   11fcc:	020df793          	and	a5,s11,32
   11fd0:	3a078e63          	beqz	a5,1238c <_vfprintf_r+0x7f8>
   11fd4:	00c12783          	lw	a5,12(sp)
   11fd8:	00778c13          	add	s8,a5,7
   11fdc:	ff8c7c13          	and	s8,s8,-8
   11fe0:	004c2783          	lw	a5,4(s8)
   11fe4:	000c2b03          	lw	s6,0(s8)
   11fe8:	008c0713          	add	a4,s8,8
   11fec:	00e12623          	sw	a4,12(sp)
   11ff0:	00078813          	mv	a6,a5
   11ff4:	3c07c663          	bltz	a5,123c0 <_vfprintf_r+0x82c>
   11ff8:	000d8613          	mv	a2,s11
   11ffc:	4e0a4e63          	bltz	s4,124f8 <_vfprintf_r+0x964>
   12000:	010b67b3          	or	a5,s6,a6
   12004:	f7fdf613          	and	a2,s11,-129
   12008:	4e079863          	bnez	a5,124f8 <_vfprintf_r+0x964>
   1200c:	4e0a1c63          	bnez	s4,12504 <_vfprintf_r+0x970>
   12010:	00000b13          	li	s6,0
   12014:	00060d93          	mv	s11,a2
   12018:	19010d13          	add	s10,sp,400
   1201c:	0a714703          	lbu	a4,167(sp)
   12020:	000a0c13          	mv	s8,s4
   12024:	016a5463          	bge	s4,s6,1202c <_vfprintf_r+0x498>
   12028:	000b0c13          	mv	s8,s6
   1202c:	00012423          	sw	zero,8(sp)
   12030:	02012023          	sw	zero,32(sp)
   12034:	00012e23          	sw	zero,28(sp)
   12038:	00012a23          	sw	zero,20(sp)
   1203c:	d6070ee3          	beqz	a4,11db8 <_vfprintf_r+0x224>
   12040:	001c0c13          	add	s8,s8,1
   12044:	d75ff06f          	j	11db8 <_vfprintf_r+0x224>
   12048:	010ded93          	or	s11,s11,16
   1204c:	020df793          	and	a5,s11,32
   12050:	30078663          	beqz	a5,1235c <_vfprintf_r+0x7c8>
   12054:	00c12783          	lw	a5,12(sp)
   12058:	00778c13          	add	s8,a5,7
   1205c:	ff8c7c13          	and	s8,s8,-8
   12060:	000c2b03          	lw	s6,0(s8)
   12064:	004c2803          	lw	a6,4(s8)
   12068:	008c0793          	add	a5,s8,8
   1206c:	00f12623          	sw	a5,12(sp)
   12070:	bffdf613          	and	a2,s11,-1025
   12074:	00000793          	li	a5,0
   12078:	00000693          	li	a3,0
   1207c:	0ad103a3          	sb	a3,167(sp)
   12080:	360a4263          	bltz	s4,123e4 <_vfprintf_r+0x850>
   12084:	010b66b3          	or	a3,s6,a6
   12088:	f7f67d93          	and	s11,a2,-129
   1208c:	1a069ce3          	bnez	a3,12a44 <_vfprintf_r+0xeb0>
   12090:	740a1c63          	bnez	s4,127e8 <_vfprintf_r+0xc54>
   12094:	5e0796e3          	bnez	a5,12e80 <_vfprintf_r+0x12ec>
   12098:	00167b13          	and	s6,a2,1
   1209c:	19010d13          	add	s10,sp,400
   120a0:	f60b0ee3          	beqz	s6,1201c <_vfprintf_r+0x488>
   120a4:	03000793          	li	a5,48
   120a8:	18f107a3          	sb	a5,399(sp)
   120ac:	18f10d13          	add	s10,sp,399
   120b0:	f6dff06f          	j	1201c <_vfprintf_r+0x488>
   120b4:	41a90a33          	sub	s4,s2,s10
   120b8:	c3a912e3          	bne	s2,s10,11cdc <_vfprintf_r+0x148>
   120bc:	00094703          	lbu	a4,0(s2)
   120c0:	c59ff06f          	j	11d18 <_vfprintf_r+0x184>
   120c4:	0c410613          	add	a2,sp,196
   120c8:	00048593          	mv	a1,s1
   120cc:	000b8513          	mv	a0,s7
   120d0:	554020ef          	jal	14624 <__sprint_r>
   120d4:	e00518e3          	bnez	a0,11ee4 <_vfprintf_r+0x350>
   120d8:	00098413          	mv	s0,s3
   120dc:	c2dff06f          	j	11d08 <_vfprintf_r+0x174>
   120e0:	008df713          	and	a4,s11,8
   120e4:	600714e3          	bnez	a4,12eec <_vfprintf_r+0x1358>
   120e8:	00c12783          	lw	a5,12(sp)
   120ec:	09010513          	add	a0,sp,144
   120f0:	01112423          	sw	a7,8(sp)
   120f4:	00778c13          	add	s8,a5,7
   120f8:	ff8c7c13          	and	s8,s8,-8
   120fc:	000c2583          	lw	a1,0(s8)
   12100:	004c2603          	lw	a2,4(s8)
   12104:	008c0793          	add	a5,s8,8
   12108:	00f12623          	sw	a5,12(sp)
   1210c:	3410f0ef          	jal	21c4c <__extenddftf2>
   12110:	09012583          	lw	a1,144(sp)
   12114:	09412603          	lw	a2,148(sp)
   12118:	09812683          	lw	a3,152(sp)
   1211c:	09c12703          	lw	a4,156(sp)
   12120:	00812883          	lw	a7,8(sp)
   12124:	0d010513          	add	a0,sp,208
   12128:	01112423          	sw	a7,8(sp)
   1212c:	0ce12e23          	sw	a4,220(sp)
   12130:	0cb12823          	sw	a1,208(sp)
   12134:	0cc12a23          	sw	a2,212(sp)
   12138:	0cd12c23          	sw	a3,216(sp)
   1213c:	140050ef          	jal	1727c <_ldcheck>
   12140:	0aa12623          	sw	a0,172(sp)
   12144:	00200713          	li	a4,2
   12148:	00812883          	lw	a7,8(sp)
   1214c:	00e51463          	bne	a0,a4,12154 <_vfprintf_r+0x5c0>
   12150:	4100106f          	j	13560 <_vfprintf_r+0x19cc>
   12154:	00100713          	li	a4,1
   12158:	00e51463          	bne	a0,a4,12160 <_vfprintf_r+0x5cc>
   1215c:	5640106f          	j	136c0 <_vfprintf_r+0x1b2c>
   12160:	06100713          	li	a4,97
   12164:	00e89463          	bne	a7,a4,1216c <_vfprintf_r+0x5d8>
   12168:	7b10006f          	j	13118 <_vfprintf_r+0x1584>
   1216c:	04100713          	li	a4,65
   12170:	05800793          	li	a5,88
   12174:	00e89463          	bne	a7,a4,1217c <_vfprintf_r+0x5e8>
   12178:	7a50006f          	j	1311c <_vfprintf_r+0x1588>
   1217c:	fff00713          	li	a4,-1
   12180:	00ea1463          	bne	s4,a4,12188 <_vfprintf_r+0x5f4>
   12184:	0ec0206f          	j	14270 <_vfprintf_r+0x26dc>
   12188:	fdf8f713          	and	a4,a7,-33
   1218c:	04700693          	li	a3,71
   12190:	00012423          	sw	zero,8(sp)
   12194:	00d71663          	bne	a4,a3,121a0 <_vfprintf_r+0x60c>
   12198:	000a1463          	bnez	s4,121a0 <_vfprintf_r+0x60c>
   1219c:	00100a13          	li	s4,1
   121a0:	0dc12c03          	lw	s8,220(sp)
   121a4:	100de793          	or	a5,s11,256
   121a8:	04f12423          	sw	a5,72(sp)
   121ac:	02012a23          	sw	zero,52(sp)
   121b0:	0d012f83          	lw	t6,208(sp)
   121b4:	0d412f03          	lw	t5,212(sp)
   121b8:	0d812e83          	lw	t4,216(sp)
   121bc:	000c5a63          	bgez	s8,121d0 <_vfprintf_r+0x63c>
   121c0:	80000737          	lui	a4,0x80000
   121c4:	02d00793          	li	a5,45
   121c8:	01874c33          	xor	s8,a4,s8
   121cc:	02f12a23          	sw	a5,52(sp)
   121d0:	fbf88713          	add	a4,a7,-65
   121d4:	02500693          	li	a3,37
   121d8:	78e6e6e3          	bltu	a3,a4,13164 <_vfprintf_r+0x15d0>
   121dc:	000226b7          	lui	a3,0x22
   121e0:	00271713          	sll	a4,a4,0x2
   121e4:	29c68693          	add	a3,a3,668 # 2229c <__clzsi2+0x370>
   121e8:	00d70733          	add	a4,a4,a3
   121ec:	00072703          	lw	a4,0(a4) # 80000000 <__BSS_END__+0x7ffdc428>
   121f0:	00070067          	jr	a4
   121f4:	0c410613          	add	a2,sp,196
   121f8:	00048593          	mv	a1,s1
   121fc:	000b8513          	mv	a0,s7
   12200:	05112623          	sw	a7,76(sp)
   12204:	05f12423          	sw	t6,72(sp)
   12208:	02512a23          	sw	t0,52(sp)
   1220c:	418020ef          	jal	14624 <__sprint_r>
   12210:	020510e3          	bnez	a0,12a30 <_vfprintf_r+0xe9c>
   12214:	0cc12603          	lw	a2,204(sp)
   12218:	04c12883          	lw	a7,76(sp)
   1221c:	04812f83          	lw	t6,72(sp)
   12220:	03412283          	lw	t0,52(sp)
   12224:	00098413          	mv	s0,s3
   12228:	be9ff06f          	j	11e10 <_vfprintf_r+0x27c>
   1222c:	0c812a03          	lw	s4,200(sp)
   12230:	01812783          	lw	a5,24(sp)
   12234:	00100713          	li	a4,1
   12238:	01a42023          	sw	s10,0(s0)
   1223c:	00160613          	add	a2,a2,1
   12240:	001a0a13          	add	s4,s4,1
   12244:	00840b13          	add	s6,s0,8
   12248:	34f752e3          	bge	a4,a5,12d8c <_vfprintf_r+0x11f8>
   1224c:	00100713          	li	a4,1
   12250:	00e42223          	sw	a4,4(s0)
   12254:	0cc12623          	sw	a2,204(sp)
   12258:	0d412423          	sw	s4,200(sp)
   1225c:	00700713          	li	a4,7
   12260:	01475463          	bge	a4,s4,12268 <_vfprintf_r+0x6d4>
   12264:	0fc0106f          	j	13360 <_vfprintf_r+0x17cc>
   12268:	02812783          	lw	a5,40(sp)
   1226c:	02c12703          	lw	a4,44(sp)
   12270:	001a0a13          	add	s4,s4,1
   12274:	00f60633          	add	a2,a2,a5
   12278:	00eb2023          	sw	a4,0(s6)
   1227c:	00fb2223          	sw	a5,4(s6)
   12280:	0cc12623          	sw	a2,204(sp)
   12284:	0d412423          	sw	s4,200(sp)
   12288:	00700713          	li	a4,7
   1228c:	008b0b13          	add	s6,s6,8
   12290:	01475463          	bge	a4,s4,12298 <_vfprintf_r+0x704>
   12294:	0f00106f          	j	13384 <_vfprintf_r+0x17f0>
   12298:	0d012703          	lw	a4,208(sp)
   1229c:	01812783          	lw	a5,24(sp)
   122a0:	08010593          	add	a1,sp,128
   122a4:	08e12823          	sw	a4,144(sp)
   122a8:	0d412703          	lw	a4,212(sp)
   122ac:	09010513          	add	a0,sp,144
   122b0:	00c12a23          	sw	a2,20(sp)
   122b4:	08e12a23          	sw	a4,148(sp)
   122b8:	0d812703          	lw	a4,216(sp)
   122bc:	08012023          	sw	zero,128(sp)
   122c0:	08012223          	sw	zero,132(sp)
   122c4:	08e12c23          	sw	a4,152(sp)
   122c8:	0dc12703          	lw	a4,220(sp)
   122cc:	08012423          	sw	zero,136(sp)
   122d0:	08012623          	sw	zero,140(sp)
   122d4:	08e12e23          	sw	a4,156(sp)
   122d8:	fff78413          	add	s0,a5,-1
   122dc:	2d90c0ef          	jal	1edb4 <__eqtf2>
   122e0:	01412603          	lw	a2,20(sp)
   122e4:	2e0504e3          	beqz	a0,12dcc <_vfprintf_r+0x1238>
   122e8:	001d0793          	add	a5,s10,1
   122ec:	001a0a13          	add	s4,s4,1
   122f0:	00860633          	add	a2,a2,s0
   122f4:	00fb2023          	sw	a5,0(s6)
   122f8:	008b2223          	sw	s0,4(s6)
   122fc:	0cc12623          	sw	a2,204(sp)
   12300:	0d412423          	sw	s4,200(sp)
   12304:	00700793          	li	a5,7
   12308:	008b0b13          	add	s6,s6,8
   1230c:	2947cee3          	blt	a5,s4,12da8 <_vfprintf_r+0x1214>
   12310:	03c12683          	lw	a3,60(sp)
   12314:	0b410713          	add	a4,sp,180
   12318:	001a0793          	add	a5,s4,1
   1231c:	00c68633          	add	a2,a3,a2
   12320:	00eb2023          	sw	a4,0(s6)
   12324:	00db2223          	sw	a3,4(s6)
   12328:	0cc12623          	sw	a2,204(sp)
   1232c:	0cf12423          	sw	a5,200(sp)
   12330:	00700713          	li	a4,7
   12334:	008b0413          	add	s0,s6,8
   12338:	b4f756e3          	bge	a4,a5,11e84 <_vfprintf_r+0x2f0>
   1233c:	0c410613          	add	a2,sp,196
   12340:	00048593          	mv	a1,s1
   12344:	000b8513          	mv	a0,s7
   12348:	2dc020ef          	jal	14624 <__sprint_r>
   1234c:	6e051263          	bnez	a0,12a30 <_vfprintf_r+0xe9c>
   12350:	0cc12603          	lw	a2,204(sp)
   12354:	00098413          	mv	s0,s3
   12358:	b2dff06f          	j	11e84 <_vfprintf_r+0x2f0>
   1235c:	00c12683          	lw	a3,12(sp)
   12360:	010df793          	and	a5,s11,16
   12364:	0006a703          	lw	a4,0(a3)
   12368:	00468693          	add	a3,a3,4
   1236c:	00d12623          	sw	a3,12(sp)
   12370:	360798e3          	bnez	a5,12ee0 <_vfprintf_r+0x134c>
   12374:	040df793          	and	a5,s11,64
   12378:	360780e3          	beqz	a5,12ed8 <_vfprintf_r+0x1344>
   1237c:	01071b13          	sll	s6,a4,0x10
   12380:	010b5b13          	srl	s6,s6,0x10
   12384:	00000813          	li	a6,0
   12388:	ce9ff06f          	j	12070 <_vfprintf_r+0x4dc>
   1238c:	00c12683          	lw	a3,12(sp)
   12390:	010df793          	and	a5,s11,16
   12394:	0006a703          	lw	a4,0(a3)
   12398:	00468693          	add	a3,a3,4
   1239c:	00d12623          	sw	a3,12(sp)
   123a0:	320794e3          	bnez	a5,12ec8 <_vfprintf_r+0x1334>
   123a4:	040df793          	and	a5,s11,64
   123a8:	30078ce3          	beqz	a5,12ec0 <_vfprintf_r+0x132c>
   123ac:	01071b13          	sll	s6,a4,0x10
   123b0:	410b5b13          	sra	s6,s6,0x10
   123b4:	41fb5813          	sra	a6,s6,0x1f
   123b8:	00080793          	mv	a5,a6
   123bc:	c207dee3          	bgez	a5,11ff8 <_vfprintf_r+0x464>
   123c0:	02d00693          	li	a3,45
   123c4:	016037b3          	snez	a5,s6
   123c8:	41000833          	neg	a6,a6
   123cc:	0ad103a3          	sb	a3,167(sp)
   123d0:	40f80833          	sub	a6,a6,a5
   123d4:	41600b33          	neg	s6,s6
   123d8:	000d8613          	mv	a2,s11
   123dc:	00100793          	li	a5,1
   123e0:	ca0a52e3          	bgez	s4,12084 <_vfprintf_r+0x4f0>
   123e4:	00100693          	li	a3,1
   123e8:	10d78863          	beq	a5,a3,124f8 <_vfprintf_r+0x964>
   123ec:	00200693          	li	a3,2
   123f0:	40d78863          	beq	a5,a3,12800 <_vfprintf_r+0xc6c>
   123f4:	19010d13          	add	s10,sp,400
   123f8:	01d81793          	sll	a5,a6,0x1d
   123fc:	007b7693          	and	a3,s6,7
   12400:	003b5b13          	srl	s6,s6,0x3
   12404:	03068693          	add	a3,a3,48
   12408:	0167eb33          	or	s6,a5,s6
   1240c:	00385813          	srl	a6,a6,0x3
   12410:	fedd0fa3          	sb	a3,-1(s10)
   12414:	010b67b3          	or	a5,s6,a6
   12418:	000d0513          	mv	a0,s10
   1241c:	fffd0d13          	add	s10,s10,-1
   12420:	fc079ce3          	bnez	a5,123f8 <_vfprintf_r+0x864>
   12424:	00167713          	and	a4,a2,1
   12428:	40070663          	beqz	a4,12834 <_vfprintf_r+0xca0>
   1242c:	03000713          	li	a4,48
   12430:	40e68263          	beq	a3,a4,12834 <_vfprintf_r+0xca0>
   12434:	ffe50513          	add	a0,a0,-2
   12438:	19010793          	add	a5,sp,400
   1243c:	feed0fa3          	sb	a4,-1(s10)
   12440:	40a78b33          	sub	s6,a5,a0
   12444:	00060d93          	mv	s11,a2
   12448:	00050d13          	mv	s10,a0
   1244c:	bd1ff06f          	j	1201c <_vfprintf_r+0x488>
   12450:	00c12703          	lw	a4,12(sp)
   12454:	0a0103a3          	sb	zero,167(sp)
   12458:	00100c13          	li	s8,1
   1245c:	00072783          	lw	a5,0(a4)
   12460:	00470713          	add	a4,a4,4
   12464:	00e12623          	sw	a4,12(sp)
   12468:	12f10623          	sb	a5,300(sp)
   1246c:	00100b13          	li	s6,1
   12470:	12c10d13          	add	s10,sp,300
   12474:	931ff06f          	j	11da4 <_vfprintf_r+0x210>
   12478:	00c12783          	lw	a5,12(sp)
   1247c:	0a0103a3          	sb	zero,167(sp)
   12480:	0007ad03          	lw	s10,0(a5)
   12484:	00478813          	add	a6,a5,4
   12488:	3a0d02e3          	beqz	s10,1302c <_vfprintf_r+0x1498>
   1248c:	000a5463          	bgez	s4,12494 <_vfprintf_r+0x900>
   12490:	1c80106f          	j	13658 <_vfprintf_r+0x1ac4>
   12494:	000a0613          	mv	a2,s4
   12498:	00000593          	li	a1,0
   1249c:	000d0513          	mv	a0,s10
   124a0:	01012a23          	sw	a6,20(sp)
   124a4:	01112623          	sw	a7,12(sp)
   124a8:	18c040ef          	jal	16634 <memchr>
   124ac:	00a12423          	sw	a0,8(sp)
   124b0:	00c12883          	lw	a7,12(sp)
   124b4:	01412803          	lw	a6,20(sp)
   124b8:	00051463          	bnez	a0,124c0 <_vfprintf_r+0x92c>
   124bc:	3450106f          	j	14000 <_vfprintf_r+0x246c>
   124c0:	00812783          	lw	a5,8(sp)
   124c4:	0a714703          	lbu	a4,167(sp)
   124c8:	01012623          	sw	a6,12(sp)
   124cc:	41a78b33          	sub	s6,a5,s10
   124d0:	fffb4693          	not	a3,s6
   124d4:	41f6d693          	sra	a3,a3,0x1f
   124d8:	00012423          	sw	zero,8(sp)
   124dc:	02012023          	sw	zero,32(sp)
   124e0:	00012e23          	sw	zero,28(sp)
   124e4:	00012a23          	sw	zero,20(sp)
   124e8:	00db7c33          	and	s8,s6,a3
   124ec:	00000a13          	li	s4,0
   124f0:	b40718e3          	bnez	a4,12040 <_vfprintf_r+0x4ac>
   124f4:	8c5ff06f          	j	11db8 <_vfprintf_r+0x224>
   124f8:	6c0812e3          	bnez	a6,133bc <_vfprintf_r+0x1828>
   124fc:	00900793          	li	a5,9
   12500:	6b67eee3          	bltu	a5,s6,133bc <_vfprintf_r+0x1828>
   12504:	030b0713          	add	a4,s6,48
   12508:	18e107a3          	sb	a4,399(sp)
   1250c:	00060d93          	mv	s11,a2
   12510:	00100b13          	li	s6,1
   12514:	18f10d13          	add	s10,sp,399
   12518:	b05ff06f          	j	1201c <_vfprintf_r+0x488>
   1251c:	00c12783          	lw	a5,12(sp)
   12520:	0007ac83          	lw	s9,0(a5)
   12524:	00478793          	add	a5,a5,4
   12528:	160cdae3          	bgez	s9,12e9c <_vfprintf_r+0x1308>
   1252c:	41900cb3          	neg	s9,s9
   12530:	00f12623          	sw	a5,12(sp)
   12534:	00094883          	lbu	a7,0(s2)
   12538:	004ded93          	or	s11,s11,4
   1253c:	ffcff06f          	j	11d38 <_vfprintf_r+0x1a4>
   12540:	010de613          	or	a2,s11,16
   12544:	02067793          	and	a5,a2,32
   12548:	100782e3          	beqz	a5,12e4c <_vfprintf_r+0x12b8>
   1254c:	00c12783          	lw	a5,12(sp)
   12550:	00778c13          	add	s8,a5,7
   12554:	ff8c7c13          	and	s8,s8,-8
   12558:	008c0793          	add	a5,s8,8
   1255c:	00f12623          	sw	a5,12(sp)
   12560:	000c2b03          	lw	s6,0(s8)
   12564:	004c2803          	lw	a6,4(s8)
   12568:	00100793          	li	a5,1
   1256c:	b0dff06f          	j	12078 <_vfprintf_r+0x4e4>
   12570:	02b00793          	li	a5,43
   12574:	00094883          	lbu	a7,0(s2)
   12578:	0af103a3          	sb	a5,167(sp)
   1257c:	fbcff06f          	j	11d38 <_vfprintf_r+0x1a4>
   12580:	00c12703          	lw	a4,12(sp)
   12584:	000087b7          	lui	a5,0x8
   12588:	83078793          	add	a5,a5,-2000 # 7830 <exit-0x8870>
   1258c:	0af11423          	sh	a5,168(sp)
   12590:	00470793          	add	a5,a4,4
   12594:	00f12623          	sw	a5,12(sp)
   12598:	000227b7          	lui	a5,0x22
   1259c:	03478793          	add	a5,a5,52 # 22034 <__clzsi2+0x108>
   125a0:	02f12823          	sw	a5,48(sp)
   125a4:	00072b03          	lw	s6,0(a4)
   125a8:	00000813          	li	a6,0
   125ac:	002de613          	or	a2,s11,2
   125b0:	00200793          	li	a5,2
   125b4:	07800893          	li	a7,120
   125b8:	ac1ff06f          	j	12078 <_vfprintf_r+0x4e4>
   125bc:	020df793          	and	a5,s11,32
   125c0:	16078ae3          	beqz	a5,12f34 <_vfprintf_r+0x13a0>
   125c4:	00c12783          	lw	a5,12(sp)
   125c8:	00412683          	lw	a3,4(sp)
   125cc:	0007a783          	lw	a5,0(a5)
   125d0:	41f6d713          	sra	a4,a3,0x1f
   125d4:	00d7a023          	sw	a3,0(a5)
   125d8:	00e7a223          	sw	a4,4(a5)
   125dc:	00c12783          	lw	a5,12(sp)
   125e0:	00090d13          	mv	s10,s2
   125e4:	00478793          	add	a5,a5,4
   125e8:	00f12623          	sw	a5,12(sp)
   125ec:	8e5ff06f          	j	11ed0 <_vfprintf_r+0x33c>
   125f0:	00094883          	lbu	a7,0(s2)
   125f4:	06c00793          	li	a5,108
   125f8:	22f882e3          	beq	a7,a5,1301c <_vfprintf_r+0x1488>
   125fc:	010ded93          	or	s11,s11,16
   12600:	f38ff06f          	j	11d38 <_vfprintf_r+0x1a4>
   12604:	00094883          	lbu	a7,0(s2)
   12608:	06800793          	li	a5,104
   1260c:	20f880e3          	beq	a7,a5,1300c <_vfprintf_r+0x1478>
   12610:	040ded93          	or	s11,s11,64
   12614:	f24ff06f          	j	11d38 <_vfprintf_r+0x1a4>
   12618:	00094883          	lbu	a7,0(s2)
   1261c:	008ded93          	or	s11,s11,8
   12620:	f18ff06f          	j	11d38 <_vfprintf_r+0x1a4>
   12624:	00094883          	lbu	a7,0(s2)
   12628:	001ded93          	or	s11,s11,1
   1262c:	f0cff06f          	j	11d38 <_vfprintf_r+0x1a4>
   12630:	0a714783          	lbu	a5,167(sp)
   12634:	00094883          	lbu	a7,0(s2)
   12638:	f0079063          	bnez	a5,11d38 <_vfprintf_r+0x1a4>
   1263c:	02000793          	li	a5,32
   12640:	0af103a3          	sb	a5,167(sp)
   12644:	ef4ff06f          	j	11d38 <_vfprintf_r+0x1a4>
   12648:	00094883          	lbu	a7,0(s2)
   1264c:	080ded93          	or	s11,s11,128
   12650:	ee8ff06f          	j	11d38 <_vfprintf_r+0x1a4>
   12654:	00094883          	lbu	a7,0(s2)
   12658:	02a00793          	li	a5,42
   1265c:	00190693          	add	a3,s2,1
   12660:	00f89463          	bne	a7,a5,12668 <_vfprintf_r+0xad4>
   12664:	56d0106f          	j	143d0 <_vfprintf_r+0x283c>
   12668:	fd088793          	add	a5,a7,-48
   1266c:	00900713          	li	a4,9
   12670:	00000a13          	li	s4,0
   12674:	00900613          	li	a2,9
   12678:	02f76463          	bltu	a4,a5,126a0 <_vfprintf_r+0xb0c>
   1267c:	0006c883          	lbu	a7,0(a3)
   12680:	002a1713          	sll	a4,s4,0x2
   12684:	01470a33          	add	s4,a4,s4
   12688:	001a1a13          	sll	s4,s4,0x1
   1268c:	00fa0a33          	add	s4,s4,a5
   12690:	fd088793          	add	a5,a7,-48
   12694:	00168693          	add	a3,a3,1
   12698:	fef672e3          	bgeu	a2,a5,1267c <_vfprintf_r+0xae8>
   1269c:	0c0a48e3          	bltz	s4,12f6c <_vfprintf_r+0x13d8>
   126a0:	00068913          	mv	s2,a3
   126a4:	e98ff06f          	j	11d3c <_vfprintf_r+0x1a8>
   126a8:	06500713          	li	a4,101
   126ac:	b91750e3          	bge	a4,a7,1222c <_vfprintf_r+0x698>
   126b0:	0d012703          	lw	a4,208(sp)
   126b4:	08010593          	add	a1,sp,128
   126b8:	09010513          	add	a0,sp,144
   126bc:	08e12823          	sw	a4,144(sp)
   126c0:	0d412703          	lw	a4,212(sp)
   126c4:	02c12a23          	sw	a2,52(sp)
   126c8:	08012023          	sw	zero,128(sp)
   126cc:	08e12a23          	sw	a4,148(sp)
   126d0:	0d812703          	lw	a4,216(sp)
   126d4:	08012223          	sw	zero,132(sp)
   126d8:	08012423          	sw	zero,136(sp)
   126dc:	08e12c23          	sw	a4,152(sp)
   126e0:	0dc12703          	lw	a4,220(sp)
   126e4:	08012623          	sw	zero,140(sp)
   126e8:	08e12e23          	sw	a4,156(sp)
   126ec:	6c80c0ef          	jal	1edb4 <__eqtf2>
   126f0:	03412603          	lw	a2,52(sp)
   126f4:	54051463          	bnez	a0,12c3c <_vfprintf_r+0x10a8>
   126f8:	0c812783          	lw	a5,200(sp)
   126fc:	00022737          	lui	a4,0x22
   12700:	06470713          	add	a4,a4,100 # 22064 <__clzsi2+0x138>
   12704:	00e42023          	sw	a4,0(s0)
   12708:	00160613          	add	a2,a2,1
   1270c:	00100713          	li	a4,1
   12710:	00178793          	add	a5,a5,1
   12714:	00e42223          	sw	a4,4(s0)
   12718:	0cc12623          	sw	a2,204(sp)
   1271c:	0cf12423          	sw	a5,200(sp)
   12720:	00700713          	li	a4,7
   12724:	00840413          	add	s0,s0,8
   12728:	5ef744e3          	blt	a4,a5,13510 <_vfprintf_r+0x197c>
   1272c:	0ac12783          	lw	a5,172(sp)
   12730:	01812703          	lw	a4,24(sp)
   12734:	74e7dc63          	bge	a5,a4,12e8c <_vfprintf_r+0x12f8>
   12738:	02c12783          	lw	a5,44(sp)
   1273c:	02812703          	lw	a4,40(sp)
   12740:	00840413          	add	s0,s0,8
   12744:	fef42c23          	sw	a5,-8(s0)
   12748:	0c812783          	lw	a5,200(sp)
   1274c:	00e60633          	add	a2,a2,a4
   12750:	fee42e23          	sw	a4,-4(s0)
   12754:	00178793          	add	a5,a5,1
   12758:	0cc12623          	sw	a2,204(sp)
   1275c:	0cf12423          	sw	a5,200(sp)
   12760:	00700713          	li	a4,7
   12764:	08f744e3          	blt	a4,a5,12fec <_vfprintf_r+0x1458>
   12768:	01812783          	lw	a5,24(sp)
   1276c:	fff78a13          	add	s4,a5,-1
   12770:	f1405a63          	blez	s4,11e84 <_vfprintf_r+0x2f0>
   12774:	00022837          	lui	a6,0x22
   12778:	01000713          	li	a4,16
   1277c:	0c812783          	lw	a5,200(sp)
   12780:	33480813          	add	a6,a6,820 # 22334 <zeroes.0>
   12784:	5b475ae3          	bge	a4,s4,13538 <_vfprintf_r+0x19a4>
   12788:	01212a23          	sw	s2,20(sp)
   1278c:	01000b13          	li	s6,16
   12790:	00700d13          	li	s10,7
   12794:	00080913          	mv	s2,a6
   12798:	00c0006f          	j	127a4 <_vfprintf_r+0xc10>
   1279c:	ff0a0a13          	add	s4,s4,-16
   127a0:	594b58e3          	bge	s6,s4,13530 <_vfprintf_r+0x199c>
   127a4:	01060613          	add	a2,a2,16
   127a8:	00178793          	add	a5,a5,1
   127ac:	01242023          	sw	s2,0(s0)
   127b0:	01642223          	sw	s6,4(s0)
   127b4:	0cc12623          	sw	a2,204(sp)
   127b8:	0cf12423          	sw	a5,200(sp)
   127bc:	00840413          	add	s0,s0,8
   127c0:	fcfd5ee3          	bge	s10,a5,1279c <_vfprintf_r+0xc08>
   127c4:	0c410613          	add	a2,sp,196
   127c8:	00048593          	mv	a1,s1
   127cc:	000b8513          	mv	a0,s7
   127d0:	655010ef          	jal	14624 <__sprint_r>
   127d4:	24051e63          	bnez	a0,12a30 <_vfprintf_r+0xe9c>
   127d8:	0cc12603          	lw	a2,204(sp)
   127dc:	0c812783          	lw	a5,200(sp)
   127e0:	00098413          	mv	s0,s3
   127e4:	fb9ff06f          	j	1279c <_vfprintf_r+0xc08>
   127e8:	00100693          	li	a3,1
   127ec:	00d79463          	bne	a5,a3,127f4 <_vfprintf_r+0xc60>
   127f0:	1f90106f          	j	141e8 <_vfprintf_r+0x2654>
   127f4:	00200693          	li	a3,2
   127f8:	000d8613          	mv	a2,s11
   127fc:	bed79ce3          	bne	a5,a3,123f4 <_vfprintf_r+0x860>
   12800:	03012683          	lw	a3,48(sp)
   12804:	19010d13          	add	s10,sp,400
   12808:	00fb7793          	and	a5,s6,15
   1280c:	00f687b3          	add	a5,a3,a5
   12810:	0007c703          	lbu	a4,0(a5)
   12814:	004b5b13          	srl	s6,s6,0x4
   12818:	01c81793          	sll	a5,a6,0x1c
   1281c:	0167eb33          	or	s6,a5,s6
   12820:	00485813          	srl	a6,a6,0x4
   12824:	feed0fa3          	sb	a4,-1(s10)
   12828:	010b67b3          	or	a5,s6,a6
   1282c:	fffd0d13          	add	s10,s10,-1
   12830:	fc079ce3          	bnez	a5,12808 <_vfprintf_r+0xc74>
   12834:	19010793          	add	a5,sp,400
   12838:	41a78b33          	sub	s6,a5,s10
   1283c:	00060d93          	mv	s11,a2
   12840:	fdcff06f          	j	1201c <_vfprintf_r+0x488>
   12844:	418c8733          	sub	a4,s9,s8
   12848:	e0e05263          	blez	a4,11e4c <_vfprintf_r+0x2b8>
   1284c:	00022837          	lui	a6,0x22
   12850:	01000513          	li	a0,16
   12854:	0c812583          	lw	a1,200(sp)
   12858:	33480813          	add	a6,a6,820 # 22334 <zeroes.0>
   1285c:	08e55863          	bge	a0,a4,128ec <_vfprintf_r+0xd58>
   12860:	03212a23          	sw	s2,52(sp)
   12864:	00040793          	mv	a5,s0
   12868:	01000e93          	li	t4,16
   1286c:	00700f93          	li	t6,7
   12870:	05112423          	sw	a7,72(sp)
   12874:	00070413          	mv	s0,a4
   12878:	00080913          	mv	s2,a6
   1287c:	00c0006f          	j	12888 <_vfprintf_r+0xcf4>
   12880:	ff040413          	add	s0,s0,-16
   12884:	048eda63          	bge	t4,s0,128d8 <_vfprintf_r+0xd44>
   12888:	01060613          	add	a2,a2,16
   1288c:	00158593          	add	a1,a1,1 # 2001 <exit-0xe09f>
   12890:	0127a023          	sw	s2,0(a5)
   12894:	01d7a223          	sw	t4,4(a5)
   12898:	0cc12623          	sw	a2,204(sp)
   1289c:	0cb12423          	sw	a1,200(sp)
   128a0:	00878793          	add	a5,a5,8
   128a4:	fcbfdee3          	bge	t6,a1,12880 <_vfprintf_r+0xcec>
   128a8:	0c410613          	add	a2,sp,196
   128ac:	00048593          	mv	a1,s1
   128b0:	000b8513          	mv	a0,s7
   128b4:	571010ef          	jal	14624 <__sprint_r>
   128b8:	16051c63          	bnez	a0,12a30 <_vfprintf_r+0xe9c>
   128bc:	01000e93          	li	t4,16
   128c0:	ff040413          	add	s0,s0,-16
   128c4:	0cc12603          	lw	a2,204(sp)
   128c8:	0c812583          	lw	a1,200(sp)
   128cc:	00098793          	mv	a5,s3
   128d0:	00700f93          	li	t6,7
   128d4:	fa8ecae3          	blt	t4,s0,12888 <_vfprintf_r+0xcf4>
   128d8:	00090813          	mv	a6,s2
   128dc:	04812883          	lw	a7,72(sp)
   128e0:	03412903          	lw	s2,52(sp)
   128e4:	00040713          	mv	a4,s0
   128e8:	00078413          	mv	s0,a5
   128ec:	00e60633          	add	a2,a2,a4
   128f0:	00158593          	add	a1,a1,1
   128f4:	00e42223          	sw	a4,4(s0)
   128f8:	01042023          	sw	a6,0(s0)
   128fc:	0cc12623          	sw	a2,204(sp)
   12900:	0cb12423          	sw	a1,200(sp)
   12904:	00700713          	li	a4,7
   12908:	00840413          	add	s0,s0,8
   1290c:	d4b75063          	bge	a4,a1,11e4c <_vfprintf_r+0x2b8>
   12910:	0c410613          	add	a2,sp,196
   12914:	00048593          	mv	a1,s1
   12918:	000b8513          	mv	a0,s7
   1291c:	03112a23          	sw	a7,52(sp)
   12920:	505010ef          	jal	14624 <__sprint_r>
   12924:	10051663          	bnez	a0,12a30 <_vfprintf_r+0xe9c>
   12928:	0cc12603          	lw	a2,204(sp)
   1292c:	03412883          	lw	a7,52(sp)
   12930:	00098413          	mv	s0,s3
   12934:	d18ff06f          	j	11e4c <_vfprintf_r+0x2b8>
   12938:	00022837          	lui	a6,0x22
   1293c:	01000713          	li	a4,16
   12940:	0c812583          	lw	a1,200(sp)
   12944:	33480813          	add	a6,a6,820 # 22334 <zeroes.0>
   12948:	09475463          	bge	a4,s4,129d0 <_vfprintf_r+0xe3c>
   1294c:	00040793          	mv	a5,s0
   12950:	01000713          	li	a4,16
   12954:	000a0413          	mv	s0,s4
   12958:	00700e93          	li	t4,7
   1295c:	03112a23          	sw	a7,52(sp)
   12960:	000a8a13          	mv	s4,s5
   12964:	00c0006f          	j	12970 <_vfprintf_r+0xddc>
   12968:	ff040413          	add	s0,s0,-16
   1296c:	04875a63          	bge	a4,s0,129c0 <_vfprintf_r+0xe2c>
   12970:	01060613          	add	a2,a2,16
   12974:	00158593          	add	a1,a1,1
   12978:	0157a023          	sw	s5,0(a5)
   1297c:	00e7a223          	sw	a4,4(a5)
   12980:	0cc12623          	sw	a2,204(sp)
   12984:	0cb12423          	sw	a1,200(sp)
   12988:	00878793          	add	a5,a5,8
   1298c:	fcbedee3          	bge	t4,a1,12968 <_vfprintf_r+0xdd4>
   12990:	0c410613          	add	a2,sp,196
   12994:	00048593          	mv	a1,s1
   12998:	000b8513          	mv	a0,s7
   1299c:	489010ef          	jal	14624 <__sprint_r>
   129a0:	08051863          	bnez	a0,12a30 <_vfprintf_r+0xe9c>
   129a4:	01000713          	li	a4,16
   129a8:	ff040413          	add	s0,s0,-16
   129ac:	0cc12603          	lw	a2,204(sp)
   129b0:	0c812583          	lw	a1,200(sp)
   129b4:	00098793          	mv	a5,s3
   129b8:	00700e93          	li	t4,7
   129bc:	fa874ae3          	blt	a4,s0,12970 <_vfprintf_r+0xddc>
   129c0:	03412883          	lw	a7,52(sp)
   129c4:	000a0813          	mv	a6,s4
   129c8:	00040a13          	mv	s4,s0
   129cc:	00078413          	mv	s0,a5
   129d0:	01460633          	add	a2,a2,s4
   129d4:	00158593          	add	a1,a1,1
   129d8:	01042023          	sw	a6,0(s0)
   129dc:	01442223          	sw	s4,4(s0)
   129e0:	0cc12623          	sw	a2,204(sp)
   129e4:	0cb12423          	sw	a1,200(sp)
   129e8:	00700713          	li	a4,7
   129ec:	00840413          	add	s0,s0,8
   129f0:	c6b75263          	bge	a4,a1,11e54 <_vfprintf_r+0x2c0>
   129f4:	0c410613          	add	a2,sp,196
   129f8:	00048593          	mv	a1,s1
   129fc:	000b8513          	mv	a0,s7
   12a00:	03112a23          	sw	a7,52(sp)
   12a04:	421010ef          	jal	14624 <__sprint_r>
   12a08:	02051463          	bnez	a0,12a30 <_vfprintf_r+0xe9c>
   12a0c:	0cc12603          	lw	a2,204(sp)
   12a10:	03412883          	lw	a7,52(sp)
   12a14:	00098413          	mv	s0,s3
   12a18:	c3cff06f          	j	11e54 <_vfprintf_r+0x2c0>
   12a1c:	0c410613          	add	a2,sp,196
   12a20:	00048593          	mv	a1,s1
   12a24:	000b8513          	mv	a0,s7
   12a28:	3fd010ef          	jal	14624 <__sprint_r>
   12a2c:	c8050263          	beqz	a0,11eb0 <_vfprintf_r+0x31c>
   12a30:	00812583          	lw	a1,8(sp)
   12a34:	ca058863          	beqz	a1,11ee4 <_vfprintf_r+0x350>
   12a38:	02412503          	lw	a0,36(sp)
   12a3c:	e90fe0ef          	jal	110cc <_free_r>
   12a40:	ca4ff06f          	j	11ee4 <_vfprintf_r+0x350>
   12a44:	000d8613          	mv	a2,s11
   12a48:	99dff06f          	j	123e4 <_vfprintf_r+0x850>
   12a4c:	00022837          	lui	a6,0x22
   12a50:	01000513          	li	a0,16
   12a54:	0c812583          	lw	a1,200(sp)
   12a58:	34480813          	add	a6,a6,836 # 22344 <blanks.1>
   12a5c:	0ae55063          	bge	a0,a4,12afc <_vfprintf_r+0xf68>
   12a60:	05212623          	sw	s2,76(sp)
   12a64:	00040793          	mv	a5,s0
   12a68:	01000e93          	li	t4,16
   12a6c:	00700393          	li	t2,7
   12a70:	02512a23          	sw	t0,52(sp)
   12a74:	05f12423          	sw	t6,72(sp)
   12a78:	05112823          	sw	a7,80(sp)
   12a7c:	00070413          	mv	s0,a4
   12a80:	00080913          	mv	s2,a6
   12a84:	00c0006f          	j	12a90 <_vfprintf_r+0xefc>
   12a88:	ff040413          	add	s0,s0,-16
   12a8c:	048eda63          	bge	t4,s0,12ae0 <_vfprintf_r+0xf4c>
   12a90:	01060613          	add	a2,a2,16
   12a94:	00158593          	add	a1,a1,1
   12a98:	0127a023          	sw	s2,0(a5)
   12a9c:	01d7a223          	sw	t4,4(a5)
   12aa0:	0cc12623          	sw	a2,204(sp)
   12aa4:	0cb12423          	sw	a1,200(sp)
   12aa8:	00878793          	add	a5,a5,8
   12aac:	fcb3dee3          	bge	t2,a1,12a88 <_vfprintf_r+0xef4>
   12ab0:	0c410613          	add	a2,sp,196
   12ab4:	00048593          	mv	a1,s1
   12ab8:	000b8513          	mv	a0,s7
   12abc:	369010ef          	jal	14624 <__sprint_r>
   12ac0:	f60518e3          	bnez	a0,12a30 <_vfprintf_r+0xe9c>
   12ac4:	01000e93          	li	t4,16
   12ac8:	ff040413          	add	s0,s0,-16
   12acc:	0cc12603          	lw	a2,204(sp)
   12ad0:	0c812583          	lw	a1,200(sp)
   12ad4:	00098793          	mv	a5,s3
   12ad8:	00700393          	li	t2,7
   12adc:	fa8ecae3          	blt	t4,s0,12a90 <_vfprintf_r+0xefc>
   12ae0:	00090813          	mv	a6,s2
   12ae4:	03412283          	lw	t0,52(sp)
   12ae8:	04812f83          	lw	t6,72(sp)
   12aec:	05012883          	lw	a7,80(sp)
   12af0:	04c12903          	lw	s2,76(sp)
   12af4:	00040713          	mv	a4,s0
   12af8:	00078413          	mv	s0,a5
   12afc:	00e60633          	add	a2,a2,a4
   12b00:	00158593          	add	a1,a1,1
   12b04:	00e42223          	sw	a4,4(s0)
   12b08:	01042023          	sw	a6,0(s0)
   12b0c:	0cc12623          	sw	a2,204(sp)
   12b10:	0cb12423          	sw	a1,200(sp)
   12b14:	00700713          	li	a4,7
   12b18:	00840413          	add	s0,s0,8
   12b1c:	aab75e63          	bge	a4,a1,11dd8 <_vfprintf_r+0x244>
   12b20:	0c410613          	add	a2,sp,196
   12b24:	00048593          	mv	a1,s1
   12b28:	000b8513          	mv	a0,s7
   12b2c:	05112623          	sw	a7,76(sp)
   12b30:	05f12423          	sw	t6,72(sp)
   12b34:	02512a23          	sw	t0,52(sp)
   12b38:	2ed010ef          	jal	14624 <__sprint_r>
   12b3c:	ee051ae3          	bnez	a0,12a30 <_vfprintf_r+0xe9c>
   12b40:	0cc12603          	lw	a2,204(sp)
   12b44:	04c12883          	lw	a7,76(sp)
   12b48:	04812f83          	lw	t6,72(sp)
   12b4c:	03412283          	lw	t0,52(sp)
   12b50:	00098413          	mv	s0,s3
   12b54:	a84ff06f          	j	11dd8 <_vfprintf_r+0x244>
   12b58:	0c410613          	add	a2,sp,196
   12b5c:	00048593          	mv	a1,s1
   12b60:	000b8513          	mv	a0,s7
   12b64:	05112423          	sw	a7,72(sp)
   12b68:	03f12a23          	sw	t6,52(sp)
   12b6c:	2b9010ef          	jal	14624 <__sprint_r>
   12b70:	ec0510e3          	bnez	a0,12a30 <_vfprintf_r+0xe9c>
   12b74:	0cc12603          	lw	a2,204(sp)
   12b78:	04812883          	lw	a7,72(sp)
   12b7c:	03412f83          	lw	t6,52(sp)
   12b80:	00098413          	mv	s0,s3
   12b84:	ac0ff06f          	j	11e44 <_vfprintf_r+0x2b0>
   12b88:	00022837          	lui	a6,0x22
   12b8c:	34480813          	add	a6,a6,836 # 22344 <blanks.1>
   12b90:	01000713          	li	a4,16
   12b94:	0c812783          	lw	a5,200(sp)
   12b98:	01000b13          	li	s6,16
   12b9c:	00700d13          	li	s10,7
   12ba0:	00080d93          	mv	s11,a6
   12ba4:	01474863          	blt	a4,s4,12bb4 <_vfprintf_r+0x1020>
   12ba8:	0580006f          	j	12c00 <_vfprintf_r+0x106c>
   12bac:	ff0a0a13          	add	s4,s4,-16
   12bb0:	054b5663          	bge	s6,s4,12bfc <_vfprintf_r+0x1068>
   12bb4:	01060613          	add	a2,a2,16
   12bb8:	00178793          	add	a5,a5,1
   12bbc:	01b42023          	sw	s11,0(s0)
   12bc0:	01642223          	sw	s6,4(s0)
   12bc4:	0cc12623          	sw	a2,204(sp)
   12bc8:	0cf12423          	sw	a5,200(sp)
   12bcc:	00840413          	add	s0,s0,8
   12bd0:	fcfd5ee3          	bge	s10,a5,12bac <_vfprintf_r+0x1018>
   12bd4:	0c410613          	add	a2,sp,196
   12bd8:	00048593          	mv	a1,s1
   12bdc:	000b8513          	mv	a0,s7
   12be0:	245010ef          	jal	14624 <__sprint_r>
   12be4:	e40516e3          	bnez	a0,12a30 <_vfprintf_r+0xe9c>
   12be8:	ff0a0a13          	add	s4,s4,-16
   12bec:	0cc12603          	lw	a2,204(sp)
   12bf0:	0c812783          	lw	a5,200(sp)
   12bf4:	00098413          	mv	s0,s3
   12bf8:	fb4b4ee3          	blt	s6,s4,12bb4 <_vfprintf_r+0x1020>
   12bfc:	000d8813          	mv	a6,s11
   12c00:	01460633          	add	a2,a2,s4
   12c04:	00178793          	add	a5,a5,1
   12c08:	01042023          	sw	a6,0(s0)
   12c0c:	01442223          	sw	s4,4(s0)
   12c10:	0cc12623          	sw	a2,204(sp)
   12c14:	0cf12423          	sw	a5,200(sp)
   12c18:	00700713          	li	a4,7
   12c1c:	a6f75c63          	bge	a4,a5,11e94 <_vfprintf_r+0x300>
   12c20:	0c410613          	add	a2,sp,196
   12c24:	00048593          	mv	a1,s1
   12c28:	000b8513          	mv	a0,s7
   12c2c:	1f9010ef          	jal	14624 <__sprint_r>
   12c30:	e00510e3          	bnez	a0,12a30 <_vfprintf_r+0xe9c>
   12c34:	0cc12603          	lw	a2,204(sp)
   12c38:	a5cff06f          	j	11e94 <_vfprintf_r+0x300>
   12c3c:	0ac12503          	lw	a0,172(sp)
   12c40:	04a052e3          	blez	a0,13484 <_vfprintf_r+0x18f0>
   12c44:	01412783          	lw	a5,20(sp)
   12c48:	01812703          	lw	a4,24(sp)
   12c4c:	00078a13          	mv	s4,a5
   12c50:	30f74863          	blt	a4,a5,12f60 <_vfprintf_r+0x13cc>
   12c54:	03405663          	blez	s4,12c80 <_vfprintf_r+0x10ec>
   12c58:	0c812703          	lw	a4,200(sp)
   12c5c:	01460633          	add	a2,a2,s4
   12c60:	01a42023          	sw	s10,0(s0)
   12c64:	00170713          	add	a4,a4,1
   12c68:	01442223          	sw	s4,4(s0)
   12c6c:	0cc12623          	sw	a2,204(sp)
   12c70:	0ce12423          	sw	a4,200(sp)
   12c74:	00700593          	li	a1,7
   12c78:	00840413          	add	s0,s0,8
   12c7c:	56e5c0e3          	blt	a1,a4,139dc <_vfprintf_r+0x1e48>
   12c80:	fffa4713          	not	a4,s4
   12c84:	01412783          	lw	a5,20(sp)
   12c88:	41f75713          	sra	a4,a4,0x1f
   12c8c:	00ea7a33          	and	s4,s4,a4
   12c90:	41478a33          	sub	s4,a5,s4
   12c94:	3b404c63          	bgtz	s4,1304c <_vfprintf_r+0x14b8>
   12c98:	01412783          	lw	a5,20(sp)
   12c9c:	400df713          	and	a4,s11,1024
   12ca0:	00fd0a33          	add	s4,s10,a5
   12ca4:	280714e3          	bnez	a4,1372c <_vfprintf_r+0x1b98>
   12ca8:	0ac12583          	lw	a1,172(sp)
   12cac:	01812783          	lw	a5,24(sp)
   12cb0:	40f5ca63          	blt	a1,a5,130c4 <_vfprintf_r+0x1530>
   12cb4:	001df713          	and	a4,s11,1
   12cb8:	40071663          	bnez	a4,130c4 <_vfprintf_r+0x1530>
   12cbc:	01812703          	lw	a4,24(sp)
   12cc0:	00ed07b3          	add	a5,s10,a4
   12cc4:	40b705b3          	sub	a1,a4,a1
   12cc8:	41478b33          	sub	s6,a5,s4
   12ccc:	0165d463          	bge	a1,s6,12cd4 <_vfprintf_r+0x1140>
   12cd0:	00058b13          	mv	s6,a1
   12cd4:	03605863          	blez	s6,12d04 <_vfprintf_r+0x1170>
   12cd8:	0c812703          	lw	a4,200(sp)
   12cdc:	01660633          	add	a2,a2,s6
   12ce0:	01442023          	sw	s4,0(s0)
   12ce4:	00170713          	add	a4,a4,1
   12ce8:	01642223          	sw	s6,4(s0)
   12cec:	0cc12623          	sw	a2,204(sp)
   12cf0:	0ce12423          	sw	a4,200(sp)
   12cf4:	00700793          	li	a5,7
   12cf8:	00840413          	add	s0,s0,8
   12cfc:	00e7d463          	bge	a5,a4,12d04 <_vfprintf_r+0x1170>
   12d00:	3380106f          	j	14038 <_vfprintf_r+0x24a4>
   12d04:	fffb4713          	not	a4,s6
   12d08:	41f75713          	sra	a4,a4,0x1f
   12d0c:	00eb77b3          	and	a5,s6,a4
   12d10:	40f58a33          	sub	s4,a1,a5
   12d14:	97405863          	blez	s4,11e84 <_vfprintf_r+0x2f0>
   12d18:	00022837          	lui	a6,0x22
   12d1c:	01000713          	li	a4,16
   12d20:	0c812783          	lw	a5,200(sp)
   12d24:	33480813          	add	a6,a6,820 # 22334 <zeroes.0>
   12d28:	014758e3          	bge	a4,s4,13538 <_vfprintf_r+0x19a4>
   12d2c:	01212a23          	sw	s2,20(sp)
   12d30:	01000b13          	li	s6,16
   12d34:	00700d13          	li	s10,7
   12d38:	00080913          	mv	s2,a6
   12d3c:	00c0006f          	j	12d48 <_vfprintf_r+0x11b4>
   12d40:	ff0a0a13          	add	s4,s4,-16
   12d44:	7f4b5663          	bge	s6,s4,13530 <_vfprintf_r+0x199c>
   12d48:	01060613          	add	a2,a2,16
   12d4c:	00178793          	add	a5,a5,1
   12d50:	01242023          	sw	s2,0(s0)
   12d54:	01642223          	sw	s6,4(s0)
   12d58:	0cc12623          	sw	a2,204(sp)
   12d5c:	0cf12423          	sw	a5,200(sp)
   12d60:	00840413          	add	s0,s0,8
   12d64:	fcfd5ee3          	bge	s10,a5,12d40 <_vfprintf_r+0x11ac>
   12d68:	0c410613          	add	a2,sp,196
   12d6c:	00048593          	mv	a1,s1
   12d70:	000b8513          	mv	a0,s7
   12d74:	0b1010ef          	jal	14624 <__sprint_r>
   12d78:	ca051ce3          	bnez	a0,12a30 <_vfprintf_r+0xe9c>
   12d7c:	0cc12603          	lw	a2,204(sp)
   12d80:	0c812783          	lw	a5,200(sp)
   12d84:	00098413          	mv	s0,s3
   12d88:	fb9ff06f          	j	12d40 <_vfprintf_r+0x11ac>
   12d8c:	001df593          	and	a1,s11,1
   12d90:	ca059e63          	bnez	a1,1224c <_vfprintf_r+0x6b8>
   12d94:	00e42223          	sw	a4,4(s0)
   12d98:	0cc12623          	sw	a2,204(sp)
   12d9c:	0d412423          	sw	s4,200(sp)
   12da0:	00700793          	li	a5,7
   12da4:	d747d663          	bge	a5,s4,12310 <_vfprintf_r+0x77c>
   12da8:	0c410613          	add	a2,sp,196
   12dac:	00048593          	mv	a1,s1
   12db0:	000b8513          	mv	a0,s7
   12db4:	071010ef          	jal	14624 <__sprint_r>
   12db8:	c6051ce3          	bnez	a0,12a30 <_vfprintf_r+0xe9c>
   12dbc:	0cc12603          	lw	a2,204(sp)
   12dc0:	0c812a03          	lw	s4,200(sp)
   12dc4:	00098b13          	mv	s6,s3
   12dc8:	d48ff06f          	j	12310 <_vfprintf_r+0x77c>
   12dcc:	01812703          	lw	a4,24(sp)
   12dd0:	00100793          	li	a5,1
   12dd4:	d2e7de63          	bge	a5,a4,12310 <_vfprintf_r+0x77c>
   12dd8:	00022837          	lui	a6,0x22
   12ddc:	01100793          	li	a5,17
   12de0:	33480813          	add	a6,a6,820 # 22334 <zeroes.0>
   12de4:	0ce7d6e3          	bge	a5,a4,136b0 <_vfprintf_r+0x1b1c>
   12de8:	01212a23          	sw	s2,20(sp)
   12dec:	01000793          	li	a5,16
   12df0:	00700d13          	li	s10,7
   12df4:	00080913          	mv	s2,a6
   12df8:	00c0006f          	j	12e04 <_vfprintf_r+0x1270>
   12dfc:	ff040413          	add	s0,s0,-16
   12e00:	0a87d4e3          	bge	a5,s0,136a8 <_vfprintf_r+0x1b14>
   12e04:	01060613          	add	a2,a2,16
   12e08:	001a0a13          	add	s4,s4,1
   12e0c:	012b2023          	sw	s2,0(s6)
   12e10:	00fb2223          	sw	a5,4(s6)
   12e14:	0cc12623          	sw	a2,204(sp)
   12e18:	0d412423          	sw	s4,200(sp)
   12e1c:	008b0b13          	add	s6,s6,8
   12e20:	fd4d5ee3          	bge	s10,s4,12dfc <_vfprintf_r+0x1268>
   12e24:	0c410613          	add	a2,sp,196
   12e28:	00048593          	mv	a1,s1
   12e2c:	000b8513          	mv	a0,s7
   12e30:	7f4010ef          	jal	14624 <__sprint_r>
   12e34:	be051ee3          	bnez	a0,12a30 <_vfprintf_r+0xe9c>
   12e38:	0cc12603          	lw	a2,204(sp)
   12e3c:	0c812a03          	lw	s4,200(sp)
   12e40:	00098b13          	mv	s6,s3
   12e44:	01000793          	li	a5,16
   12e48:	fb5ff06f          	j	12dfc <_vfprintf_r+0x1268>
   12e4c:	00c12683          	lw	a3,12(sp)
   12e50:	01067793          	and	a5,a2,16
   12e54:	0006a703          	lw	a4,0(a3)
   12e58:	00468693          	add	a3,a3,4
   12e5c:	00d12623          	sw	a3,12(sp)
   12e60:	04079863          	bnez	a5,12eb0 <_vfprintf_r+0x131c>
   12e64:	04067793          	and	a5,a2,64
   12e68:	04078063          	beqz	a5,12ea8 <_vfprintf_r+0x1314>
   12e6c:	01071b13          	sll	s6,a4,0x10
   12e70:	010b5b13          	srl	s6,s6,0x10
   12e74:	00000813          	li	a6,0
   12e78:	00100793          	li	a5,1
   12e7c:	9fcff06f          	j	12078 <_vfprintf_r+0x4e4>
   12e80:	00000b13          	li	s6,0
   12e84:	19010d13          	add	s10,sp,400
   12e88:	994ff06f          	j	1201c <_vfprintf_r+0x488>
   12e8c:	001df793          	and	a5,s11,1
   12e90:	00079463          	bnez	a5,12e98 <_vfprintf_r+0x1304>
   12e94:	ff1fe06f          	j	11e84 <_vfprintf_r+0x2f0>
   12e98:	8a1ff06f          	j	12738 <_vfprintf_r+0xba4>
   12e9c:	00094883          	lbu	a7,0(s2)
   12ea0:	00f12623          	sw	a5,12(sp)
   12ea4:	e95fe06f          	j	11d38 <_vfprintf_r+0x1a4>
   12ea8:	20067793          	and	a5,a2,512
   12eac:	360798e3          	bnez	a5,13a1c <_vfprintf_r+0x1e88>
   12eb0:	00070b13          	mv	s6,a4
   12eb4:	00000813          	li	a6,0
   12eb8:	00100793          	li	a5,1
   12ebc:	9bcff06f          	j	12078 <_vfprintf_r+0x4e4>
   12ec0:	200df793          	and	a5,s11,512
   12ec4:	360794e3          	bnez	a5,13a2c <_vfprintf_r+0x1e98>
   12ec8:	41f75813          	sra	a6,a4,0x1f
   12ecc:	00070b13          	mv	s6,a4
   12ed0:	00080793          	mv	a5,a6
   12ed4:	920ff06f          	j	11ff4 <_vfprintf_r+0x460>
   12ed8:	200df793          	and	a5,s11,512
   12edc:	360798e3          	bnez	a5,13a4c <_vfprintf_r+0x1eb8>
   12ee0:	00070b13          	mv	s6,a4
   12ee4:	00000813          	li	a6,0
   12ee8:	988ff06f          	j	12070 <_vfprintf_r+0x4dc>
   12eec:	00c12783          	lw	a5,12(sp)
   12ef0:	0007a703          	lw	a4,0(a5)
   12ef4:	00478793          	add	a5,a5,4
   12ef8:	00f12623          	sw	a5,12(sp)
   12efc:	00072583          	lw	a1,0(a4)
   12f00:	00472603          	lw	a2,4(a4)
   12f04:	00872683          	lw	a3,8(a4)
   12f08:	00c72703          	lw	a4,12(a4)
   12f0c:	a18ff06f          	j	12124 <_vfprintf_r+0x590>
   12f10:	03812783          	lw	a5,56(sp)
   12f14:	00094883          	lbu	a7,0(s2)
   12f18:	00079463          	bnez	a5,12f20 <_vfprintf_r+0x138c>
   12f1c:	e1dfe06f          	j	11d38 <_vfprintf_r+0x1a4>
   12f20:	0007c783          	lbu	a5,0(a5)
   12f24:	00079463          	bnez	a5,12f2c <_vfprintf_r+0x1398>
   12f28:	e11fe06f          	j	11d38 <_vfprintf_r+0x1a4>
   12f2c:	400ded93          	or	s11,s11,1024
   12f30:	e09fe06f          	j	11d38 <_vfprintf_r+0x1a4>
   12f34:	010df793          	and	a5,s11,16
   12f38:	6a079663          	bnez	a5,135e4 <_vfprintf_r+0x1a50>
   12f3c:	040df793          	and	a5,s11,64
   12f40:	2c0794e3          	bnez	a5,13a08 <_vfprintf_r+0x1e74>
   12f44:	200dfe13          	and	t3,s11,512
   12f48:	680e0e63          	beqz	t3,135e4 <_vfprintf_r+0x1a50>
   12f4c:	00c12783          	lw	a5,12(sp)
   12f50:	00412703          	lw	a4,4(sp)
   12f54:	0007a783          	lw	a5,0(a5)
   12f58:	00e78023          	sb	a4,0(a5)
   12f5c:	e80ff06f          	j	125dc <_vfprintf_r+0xa48>
   12f60:	00070a13          	mv	s4,a4
   12f64:	cf404ae3          	bgtz	s4,12c58 <_vfprintf_r+0x10c4>
   12f68:	d19ff06f          	j	12c80 <_vfprintf_r+0x10ec>
   12f6c:	fff00a13          	li	s4,-1
   12f70:	00068913          	mv	s2,a3
   12f74:	dc9fe06f          	j	11d3c <_vfprintf_r+0x1a8>
   12f78:	000227b7          	lui	a5,0x22
   12f7c:	04878793          	add	a5,a5,72 # 22048 <__clzsi2+0x11c>
   12f80:	02f12823          	sw	a5,48(sp)
   12f84:	020df793          	and	a5,s11,32
   12f88:	3a078463          	beqz	a5,13330 <_vfprintf_r+0x179c>
   12f8c:	00c12783          	lw	a5,12(sp)
   12f90:	00778c13          	add	s8,a5,7
   12f94:	ff8c7c13          	and	s8,s8,-8
   12f98:	000c2b03          	lw	s6,0(s8)
   12f9c:	004c2803          	lw	a6,4(s8)
   12fa0:	008c0793          	add	a5,s8,8
   12fa4:	00f12623          	sw	a5,12(sp)
   12fa8:	001df793          	and	a5,s11,1
   12fac:	00078e63          	beqz	a5,12fc8 <_vfprintf_r+0x1434>
   12fb0:	010b67b3          	or	a5,s6,a6
   12fb4:	00078a63          	beqz	a5,12fc8 <_vfprintf_r+0x1434>
   12fb8:	03000793          	li	a5,48
   12fbc:	0af10423          	sb	a5,168(sp)
   12fc0:	0b1104a3          	sb	a7,169(sp)
   12fc4:	002ded93          	or	s11,s11,2
   12fc8:	bffdf613          	and	a2,s11,-1025
   12fcc:	00200793          	li	a5,2
   12fd0:	8a8ff06f          	j	12078 <_vfprintf_r+0x4e4>
   12fd4:	000d8613          	mv	a2,s11
   12fd8:	d6cff06f          	j	12544 <_vfprintf_r+0x9b0>
   12fdc:	000227b7          	lui	a5,0x22
   12fe0:	03478793          	add	a5,a5,52 # 22034 <__clzsi2+0x108>
   12fe4:	02f12823          	sw	a5,48(sp)
   12fe8:	f9dff06f          	j	12f84 <_vfprintf_r+0x13f0>
   12fec:	0c410613          	add	a2,sp,196
   12ff0:	00048593          	mv	a1,s1
   12ff4:	000b8513          	mv	a0,s7
   12ff8:	62c010ef          	jal	14624 <__sprint_r>
   12ffc:	a2051ae3          	bnez	a0,12a30 <_vfprintf_r+0xe9c>
   13000:	0cc12603          	lw	a2,204(sp)
   13004:	00098413          	mv	s0,s3
   13008:	f60ff06f          	j	12768 <_vfprintf_r+0xbd4>
   1300c:	00194883          	lbu	a7,1(s2)
   13010:	200ded93          	or	s11,s11,512
   13014:	00190913          	add	s2,s2,1
   13018:	d21fe06f          	j	11d38 <_vfprintf_r+0x1a4>
   1301c:	00194883          	lbu	a7,1(s2)
   13020:	020ded93          	or	s11,s11,32
   13024:	00190913          	add	s2,s2,1
   13028:	d11fe06f          	j	11d38 <_vfprintf_r+0x1a4>
   1302c:	00600793          	li	a5,6
   13030:	000a0b13          	mv	s6,s4
   13034:	1d47e6e3          	bltu	a5,s4,13a00 <_vfprintf_r+0x1e6c>
   13038:	000227b7          	lui	a5,0x22
   1303c:	000b0c13          	mv	s8,s6
   13040:	01012623          	sw	a6,12(sp)
   13044:	05c78d13          	add	s10,a5,92 # 2205c <__clzsi2+0x130>
   13048:	d5dfe06f          	j	11da4 <_vfprintf_r+0x210>
   1304c:	00022837          	lui	a6,0x22
   13050:	01000593          	li	a1,16
   13054:	0c812703          	lw	a4,200(sp)
   13058:	33480813          	add	a6,a6,820 # 22334 <zeroes.0>
   1305c:	6945d663          	bge	a1,s4,136e8 <_vfprintf_r+0x1b54>
   13060:	03212a23          	sw	s2,52(sp)
   13064:	01000893          	li	a7,16
   13068:	00700b13          	li	s6,7
   1306c:	00080913          	mv	s2,a6
   13070:	00c0006f          	j	1307c <_vfprintf_r+0x14e8>
   13074:	ff0a0a13          	add	s4,s4,-16
   13078:	6748d463          	bge	a7,s4,136e0 <_vfprintf_r+0x1b4c>
   1307c:	01060613          	add	a2,a2,16
   13080:	00170713          	add	a4,a4,1
   13084:	01242023          	sw	s2,0(s0)
   13088:	01142223          	sw	a7,4(s0)
   1308c:	0cc12623          	sw	a2,204(sp)
   13090:	0ce12423          	sw	a4,200(sp)
   13094:	00840413          	add	s0,s0,8
   13098:	fceb5ee3          	bge	s6,a4,13074 <_vfprintf_r+0x14e0>
   1309c:	0c410613          	add	a2,sp,196
   130a0:	00048593          	mv	a1,s1
   130a4:	000b8513          	mv	a0,s7
   130a8:	57c010ef          	jal	14624 <__sprint_r>
   130ac:	980512e3          	bnez	a0,12a30 <_vfprintf_r+0xe9c>
   130b0:	0cc12603          	lw	a2,204(sp)
   130b4:	0c812703          	lw	a4,200(sp)
   130b8:	00098413          	mv	s0,s3
   130bc:	01000893          	li	a7,16
   130c0:	fb5ff06f          	j	13074 <_vfprintf_r+0x14e0>
   130c4:	02c12703          	lw	a4,44(sp)
   130c8:	02812783          	lw	a5,40(sp)
   130cc:	00700513          	li	a0,7
   130d0:	00e42023          	sw	a4,0(s0)
   130d4:	0c812703          	lw	a4,200(sp)
   130d8:	00f60633          	add	a2,a2,a5
   130dc:	00f42223          	sw	a5,4(s0)
   130e0:	00170713          	add	a4,a4,1
   130e4:	0cc12623          	sw	a2,204(sp)
   130e8:	0ce12423          	sw	a4,200(sp)
   130ec:	00840413          	add	s0,s0,8
   130f0:	bce556e3          	bge	a0,a4,12cbc <_vfprintf_r+0x1128>
   130f4:	0c410613          	add	a2,sp,196
   130f8:	00048593          	mv	a1,s1
   130fc:	000b8513          	mv	a0,s7
   13100:	524010ef          	jal	14624 <__sprint_r>
   13104:	920516e3          	bnez	a0,12a30 <_vfprintf_r+0xe9c>
   13108:	0ac12583          	lw	a1,172(sp)
   1310c:	0cc12603          	lw	a2,204(sp)
   13110:	00098413          	mv	s0,s3
   13114:	ba9ff06f          	j	12cbc <_vfprintf_r+0x1128>
   13118:	07800793          	li	a5,120
   1311c:	03000713          	li	a4,48
   13120:	0ae10423          	sb	a4,168(sp)
   13124:	0af104a3          	sb	a5,169(sp)
   13128:	06300713          	li	a4,99
   1312c:	00012423          	sw	zero,8(sp)
   13130:	002ded93          	or	s11,s11,2
   13134:	12c10d13          	add	s10,sp,300
   13138:	87475463          	bge	a4,s4,121a0 <_vfprintf_r+0x60c>
   1313c:	001a0593          	add	a1,s4,1
   13140:	000b8513          	mv	a0,s7
   13144:	01112423          	sw	a7,8(sp)
   13148:	a88fe0ef          	jal	113d0 <_malloc_r>
   1314c:	00812883          	lw	a7,8(sp)
   13150:	00050d13          	mv	s10,a0
   13154:	00051463          	bnez	a0,1315c <_vfprintf_r+0x15c8>
   13158:	2b40106f          	j	1440c <_vfprintf_r+0x2878>
   1315c:	00a12423          	sw	a0,8(sp)
   13160:	840ff06f          	j	121a0 <_vfprintf_r+0x60c>
   13164:	09010b13          	add	s6,sp,144
   13168:	0ac10713          	add	a4,sp,172
   1316c:	0bc10813          	add	a6,sp,188
   13170:	0b010793          	add	a5,sp,176
   13174:	000a0693          	mv	a3,s4
   13178:	00200613          	li	a2,2
   1317c:	000b0593          	mv	a1,s6
   13180:	000b8513          	mv	a0,s7
   13184:	03112023          	sw	a7,32(sp)
   13188:	09f12823          	sw	t6,144(sp)
   1318c:	01f12e23          	sw	t6,28(sp)
   13190:	09e12a23          	sw	t5,148(sp)
   13194:	01e12c23          	sw	t5,24(sp)
   13198:	09d12c23          	sw	t4,152(sp)
   1319c:	01d12a23          	sw	t4,20(sp)
   131a0:	09812e23          	sw	s8,156(sp)
   131a4:	621030ef          	jal	16fc4 <_ldtoa_r>
   131a8:	001df713          	and	a4,s11,1
   131ac:	01412e83          	lw	t4,20(sp)
   131b0:	01812f03          	lw	t5,24(sp)
   131b4:	01c12f83          	lw	t6,28(sp)
   131b8:	02012883          	lw	a7,32(sp)
   131bc:	00050d13          	mv	s10,a0
   131c0:	0e0714e3          	bnez	a4,13aa8 <_vfprintf_r+0x1f14>
   131c4:	0ac12783          	lw	a5,172(sp)
   131c8:	00f12a23          	sw	a5,20(sp)
   131cc:	0bc12783          	lw	a5,188(sp)
   131d0:	40a787b3          	sub	a5,a5,a0
   131d4:	00f12c23          	sw	a5,24(sp)
   131d8:	01412783          	lw	a5,20(sp)
   131dc:	ffd00713          	li	a4,-3
   131e0:	00e7c463          	blt	a5,a4,131e8 <_vfprintf_r+0x1654>
   131e4:	56fa5ae3          	bge	s4,a5,13f58 <_vfprintf_r+0x23c4>
   131e8:	01412783          	lw	a5,20(sp)
   131ec:	ffe88893          	add	a7,a7,-2
   131f0:	fff78a13          	add	s4,a5,-1
   131f4:	0b412623          	sw	s4,172(sp)
   131f8:	0ff8f693          	zext.b	a3,a7
   131fc:	00000613          	li	a2,0
   13200:	0ad10a23          	sb	a3,180(sp)
   13204:	02b00693          	li	a3,43
   13208:	000a5a63          	bgez	s4,1321c <_vfprintf_r+0x1688>
   1320c:	01412783          	lw	a5,20(sp)
   13210:	00100713          	li	a4,1
   13214:	02d00693          	li	a3,45
   13218:	40f70a33          	sub	s4,a4,a5
   1321c:	0ad10aa3          	sb	a3,181(sp)
   13220:	00900693          	li	a3,9
   13224:	0146c463          	blt	a3,s4,1322c <_vfprintf_r+0x1698>
   13228:	0180106f          	j	14240 <_vfprintf_r+0x26ac>
   1322c:	0c310613          	add	a2,sp,195
   13230:	00812a23          	sw	s0,20(sp)
   13234:	00088b13          	mv	s6,a7
   13238:	00060413          	mv	s0,a2
   1323c:	00912e23          	sw	s1,28(sp)
   13240:	00a00593          	li	a1,10
   13244:	000a0513          	mv	a0,s4
   13248:	4b50e0ef          	jal	21efc <__modsi3>
   1324c:	03050793          	add	a5,a0,48
   13250:	00040c13          	mv	s8,s0
   13254:	fefc0fa3          	sb	a5,-1(s8)
   13258:	000a0513          	mv	a0,s4
   1325c:	00a00593          	li	a1,10
   13260:	4190e0ef          	jal	21e78 <__divsi3>
   13264:	000a0493          	mv	s1,s4
   13268:	06300793          	li	a5,99
   1326c:	fff40413          	add	s0,s0,-1
   13270:	00050a13          	mv	s4,a0
   13274:	fc97c6e3          	blt	a5,s1,13240 <_vfprintf_r+0x16ac>
   13278:	00040613          	mv	a2,s0
   1327c:	03050713          	add	a4,a0,48
   13280:	ffec0693          	add	a3,s8,-2
   13284:	fee60fa3          	sb	a4,-1(a2)
   13288:	0c310793          	add	a5,sp,195
   1328c:	01412403          	lw	s0,20(sp)
   13290:	01c12483          	lw	s1,28(sp)
   13294:	000b0893          	mv	a7,s6
   13298:	00f6e463          	bltu	a3,a5,132a0 <_vfprintf_r+0x170c>
   1329c:	1280106f          	j	143c4 <_vfprintf_r+0x2830>
   132a0:	0b610613          	add	a2,sp,182
   132a4:	0006c783          	lbu	a5,0(a3)
   132a8:	00168693          	add	a3,a3,1
   132ac:	00160613          	add	a2,a2,1
   132b0:	fef60fa3          	sb	a5,-1(a2)
   132b4:	0c310793          	add	a5,sp,195
   132b8:	fef696e3          	bne	a3,a5,132a4 <_vfprintf_r+0x1710>
   132bc:	19010793          	add	a5,sp,400
   132c0:	41878733          	sub	a4,a5,s8
   132c4:	f3770793          	add	a5,a4,-201
   132c8:	02f12e23          	sw	a5,60(sp)
   132cc:	01812783          	lw	a5,24(sp)
   132d0:	03c12683          	lw	a3,60(sp)
   132d4:	00100713          	li	a4,1
   132d8:	00d78b33          	add	s6,a5,a3
   132dc:	00f74463          	blt	a4,a5,132e4 <_vfprintf_r+0x1750>
   132e0:	79d0006f          	j	1427c <_vfprintf_r+0x26e8>
   132e4:	02812783          	lw	a5,40(sp)
   132e8:	00fb0b33          	add	s6,s6,a5
   132ec:	fffb4693          	not	a3,s6
   132f0:	bffdfe13          	and	t3,s11,-1025
   132f4:	41f6d693          	sra	a3,a3,0x1f
   132f8:	100e6793          	or	a5,t3,256
   132fc:	04f12423          	sw	a5,72(sp)
   13300:	00db7c33          	and	s8,s6,a3
   13304:	02012023          	sw	zero,32(sp)
   13308:	00012e23          	sw	zero,28(sp)
   1330c:	00012a23          	sw	zero,20(sp)
   13310:	03412783          	lw	a5,52(sp)
   13314:	420786e3          	beqz	a5,13f40 <_vfprintf_r+0x23ac>
   13318:	02d00713          	li	a4,45
   1331c:	04812d83          	lw	s11,72(sp)
   13320:	0ae103a3          	sb	a4,167(sp)
   13324:	00000a13          	li	s4,0
   13328:	001c0c13          	add	s8,s8,1
   1332c:	a8dfe06f          	j	11db8 <_vfprintf_r+0x224>
   13330:	00c12683          	lw	a3,12(sp)
   13334:	010df793          	and	a5,s11,16
   13338:	0006a703          	lw	a4,0(a3)
   1333c:	00468693          	add	a3,a3,4
   13340:	00d12623          	sw	a3,12(sp)
   13344:	06079663          	bnez	a5,133b0 <_vfprintf_r+0x181c>
   13348:	040df793          	and	a5,s11,64
   1334c:	04078e63          	beqz	a5,133a8 <_vfprintf_r+0x1814>
   13350:	01071b13          	sll	s6,a4,0x10
   13354:	010b5b13          	srl	s6,s6,0x10
   13358:	00000813          	li	a6,0
   1335c:	c4dff06f          	j	12fa8 <_vfprintf_r+0x1414>
   13360:	0c410613          	add	a2,sp,196
   13364:	00048593          	mv	a1,s1
   13368:	000b8513          	mv	a0,s7
   1336c:	2b8010ef          	jal	14624 <__sprint_r>
   13370:	ec051063          	bnez	a0,12a30 <_vfprintf_r+0xe9c>
   13374:	0cc12603          	lw	a2,204(sp)
   13378:	0c812a03          	lw	s4,200(sp)
   1337c:	00098b13          	mv	s6,s3
   13380:	ee9fe06f          	j	12268 <_vfprintf_r+0x6d4>
   13384:	0c410613          	add	a2,sp,196
   13388:	00048593          	mv	a1,s1
   1338c:	000b8513          	mv	a0,s7
   13390:	294010ef          	jal	14624 <__sprint_r>
   13394:	e8051e63          	bnez	a0,12a30 <_vfprintf_r+0xe9c>
   13398:	0cc12603          	lw	a2,204(sp)
   1339c:	0c812a03          	lw	s4,200(sp)
   133a0:	00098b13          	mv	s6,s3
   133a4:	ef5fe06f          	j	12298 <_vfprintf_r+0x704>
   133a8:	200df793          	and	a5,s11,512
   133ac:	68079a63          	bnez	a5,13a40 <_vfprintf_r+0x1eac>
   133b0:	00070b13          	mv	s6,a4
   133b4:	00000813          	li	a6,0
   133b8:	bf1ff06f          	j	12fa8 <_vfprintf_r+0x1414>
   133bc:	19010c13          	add	s8,sp,400
   133c0:	01212423          	sw	s2,8(sp)
   133c4:	02812023          	sw	s0,32(sp)
   133c8:	02912a23          	sw	s1,52(sp)
   133cc:	03812403          	lw	s0,56(sp)
   133d0:	40067d93          	and	s11,a2,1024
   133d4:	00000d13          	li	s10,0
   133d8:	01112a23          	sw	a7,20(sp)
   133dc:	00c12e23          	sw	a2,28(sp)
   133e0:	000c0493          	mv	s1,s8
   133e4:	00080913          	mv	s2,a6
   133e8:	0280006f          	j	13410 <_vfprintf_r+0x187c>
   133ec:	00a00613          	li	a2,10
   133f0:	00000693          	li	a3,0
   133f4:	000b0513          	mv	a0,s6
   133f8:	00090593          	mv	a1,s2
   133fc:	5ed080ef          	jal	1c1e8 <__udivdi3>
   13400:	3e0902e3          	beqz	s2,13fe4 <_vfprintf_r+0x2450>
   13404:	00050b13          	mv	s6,a0
   13408:	00058913          	mv	s2,a1
   1340c:	000c0493          	mv	s1,s8
   13410:	00a00613          	li	a2,10
   13414:	00000693          	li	a3,0
   13418:	000b0513          	mv	a0,s6
   1341c:	00090593          	mv	a1,s2
   13420:	38c090ef          	jal	1c7ac <__umoddi3>
   13424:	03050513          	add	a0,a0,48
   13428:	fea48fa3          	sb	a0,-1(s1)
   1342c:	fff48c13          	add	s8,s1,-1
   13430:	001d0d13          	add	s10,s10,1
   13434:	fa0d8ce3          	beqz	s11,133ec <_vfprintf_r+0x1858>
   13438:	00044783          	lbu	a5,0(s0)
   1343c:	fafd18e3          	bne	s10,a5,133ec <_vfprintf_r+0x1858>
   13440:	0ff00793          	li	a5,255
   13444:	fafd04e3          	beq	s10,a5,133ec <_vfprintf_r+0x1858>
   13448:	52091063          	bnez	s2,13968 <_vfprintf_r+0x1dd4>
   1344c:	00900793          	li	a5,9
   13450:	5167ec63          	bltu	a5,s6,13968 <_vfprintf_r+0x1dd4>
   13454:	01c12603          	lw	a2,28(sp)
   13458:	01a12c23          	sw	s10,24(sp)
   1345c:	19010793          	add	a5,sp,400
   13460:	000c0d13          	mv	s10,s8
   13464:	02812c23          	sw	s0,56(sp)
   13468:	00812903          	lw	s2,8(sp)
   1346c:	01412883          	lw	a7,20(sp)
   13470:	02012403          	lw	s0,32(sp)
   13474:	03412483          	lw	s1,52(sp)
   13478:	41a78b33          	sub	s6,a5,s10
   1347c:	00060d93          	mv	s11,a2
   13480:	b9dfe06f          	j	1201c <_vfprintf_r+0x488>
   13484:	0c812703          	lw	a4,200(sp)
   13488:	000225b7          	lui	a1,0x22
   1348c:	06458593          	add	a1,a1,100 # 22064 <__clzsi2+0x138>
   13490:	00b42023          	sw	a1,0(s0)
   13494:	00160613          	add	a2,a2,1
   13498:	00100593          	li	a1,1
   1349c:	00170713          	add	a4,a4,1
   134a0:	00b42223          	sw	a1,4(s0)
   134a4:	0cc12623          	sw	a2,204(sp)
   134a8:	0ce12423          	sw	a4,200(sp)
   134ac:	00700593          	li	a1,7
   134b0:	00840413          	add	s0,s0,8
   134b4:	4ee5ca63          	blt	a1,a4,139a8 <_vfprintf_r+0x1e14>
   134b8:	14051063          	bnez	a0,135f8 <_vfprintf_r+0x1a64>
   134bc:	01812783          	lw	a5,24(sp)
   134c0:	001df713          	and	a4,s11,1
   134c4:	00f76733          	or	a4,a4,a5
   134c8:	00071463          	bnez	a4,134d0 <_vfprintf_r+0x193c>
   134cc:	9b9fe06f          	j	11e84 <_vfprintf_r+0x2f0>
   134d0:	02c12703          	lw	a4,44(sp)
   134d4:	02812783          	lw	a5,40(sp)
   134d8:	00700593          	li	a1,7
   134dc:	00e42023          	sw	a4,0(s0)
   134e0:	0c812703          	lw	a4,200(sp)
   134e4:	00c78633          	add	a2,a5,a2
   134e8:	00f42223          	sw	a5,4(s0)
   134ec:	00170713          	add	a4,a4,1
   134f0:	0cc12623          	sw	a2,204(sp)
   134f4:	0ce12423          	sw	a4,200(sp)
   134f8:	58e5c263          	blt	a1,a4,13a7c <_vfprintf_r+0x1ee8>
   134fc:	00840413          	add	s0,s0,8
   13500:	12c0006f          	j	1362c <_vfprintf_r+0x1a98>
   13504:	02412503          	lw	a0,36(sp)
   13508:	904fd0ef          	jal	1060c <__sinit>
   1350c:	ee8fe06f          	j	11bf4 <_vfprintf_r+0x60>
   13510:	0c410613          	add	a2,sp,196
   13514:	00048593          	mv	a1,s1
   13518:	000b8513          	mv	a0,s7
   1351c:	108010ef          	jal	14624 <__sprint_r>
   13520:	d0051863          	bnez	a0,12a30 <_vfprintf_r+0xe9c>
   13524:	0cc12603          	lw	a2,204(sp)
   13528:	00098413          	mv	s0,s3
   1352c:	a00ff06f          	j	1272c <_vfprintf_r+0xb98>
   13530:	00090813          	mv	a6,s2
   13534:	01412903          	lw	s2,20(sp)
   13538:	01042023          	sw	a6,0(s0)
   1353c:	01442223          	sw	s4,4(s0)
   13540:	01460633          	add	a2,a2,s4
   13544:	00178793          	add	a5,a5,1
   13548:	0cc12623          	sw	a2,204(sp)
   1354c:	0cf12423          	sw	a5,200(sp)
   13550:	00700713          	li	a4,7
   13554:	00f74463          	blt	a4,a5,1355c <_vfprintf_r+0x19c8>
   13558:	929fe06f          	j	11e80 <_vfprintf_r+0x2ec>
   1355c:	de1fe06f          	j	1233c <_vfprintf_r+0x7a8>
   13560:	0d012783          	lw	a5,208(sp)
   13564:	08010593          	add	a1,sp,128
   13568:	09010513          	add	a0,sp,144
   1356c:	08f12823          	sw	a5,144(sp)
   13570:	0d412783          	lw	a5,212(sp)
   13574:	08012023          	sw	zero,128(sp)
   13578:	08012223          	sw	zero,132(sp)
   1357c:	08f12a23          	sw	a5,148(sp)
   13580:	0d812783          	lw	a5,216(sp)
   13584:	08012423          	sw	zero,136(sp)
   13588:	08012623          	sw	zero,140(sp)
   1358c:	08f12c23          	sw	a5,152(sp)
   13590:	0dc12783          	lw	a5,220(sp)
   13594:	08f12e23          	sw	a5,156(sp)
   13598:	2190b0ef          	jal	1efb0 <__letf2>
   1359c:	00812883          	lw	a7,8(sp)
   135a0:	240548e3          	bltz	a0,13ff0 <_vfprintf_r+0x245c>
   135a4:	0a714703          	lbu	a4,167(sp)
   135a8:	04700793          	li	a5,71
   135ac:	4317d263          	bge	a5,a7,139d0 <_vfprintf_r+0x1e3c>
   135b0:	000227b7          	lui	a5,0x22
   135b4:	02878d13          	add	s10,a5,40 # 22028 <__clzsi2+0xfc>
   135b8:	00012423          	sw	zero,8(sp)
   135bc:	02012023          	sw	zero,32(sp)
   135c0:	00012e23          	sw	zero,28(sp)
   135c4:	00012a23          	sw	zero,20(sp)
   135c8:	f7fdfd93          	and	s11,s11,-129
   135cc:	00300c13          	li	s8,3
   135d0:	00300b13          	li	s6,3
   135d4:	00000a13          	li	s4,0
   135d8:	00070463          	beqz	a4,135e0 <_vfprintf_r+0x1a4c>
   135dc:	a65fe06f          	j	12040 <_vfprintf_r+0x4ac>
   135e0:	fd8fe06f          	j	11db8 <_vfprintf_r+0x224>
   135e4:	00c12783          	lw	a5,12(sp)
   135e8:	00412703          	lw	a4,4(sp)
   135ec:	0007a783          	lw	a5,0(a5)
   135f0:	00e7a023          	sw	a4,0(a5)
   135f4:	fe9fe06f          	j	125dc <_vfprintf_r+0xa48>
   135f8:	02c12703          	lw	a4,44(sp)
   135fc:	02812783          	lw	a5,40(sp)
   13600:	00700593          	li	a1,7
   13604:	00e42023          	sw	a4,0(s0)
   13608:	0c812703          	lw	a4,200(sp)
   1360c:	00c78633          	add	a2,a5,a2
   13610:	00f42223          	sw	a5,4(s0)
   13614:	00170713          	add	a4,a4,1
   13618:	0cc12623          	sw	a2,204(sp)
   1361c:	0ce12423          	sw	a4,200(sp)
   13620:	00840413          	add	s0,s0,8
   13624:	44e5cc63          	blt	a1,a4,13a7c <_vfprintf_r+0x1ee8>
   13628:	340542e3          	bltz	a0,1416c <_vfprintf_r+0x25d8>
   1362c:	01812783          	lw	a5,24(sp)
   13630:	00170713          	add	a4,a4,1
   13634:	01a42023          	sw	s10,0(s0)
   13638:	00c78633          	add	a2,a5,a2
   1363c:	00f42223          	sw	a5,4(s0)
   13640:	0cc12623          	sw	a2,204(sp)
   13644:	0ce12423          	sw	a4,200(sp)
   13648:	00700793          	li	a5,7
   1364c:	00e7c463          	blt	a5,a4,13654 <_vfprintf_r+0x1ac0>
   13650:	831fe06f          	j	11e80 <_vfprintf_r+0x2ec>
   13654:	ce9fe06f          	j	1233c <_vfprintf_r+0x7a8>
   13658:	000d0513          	mv	a0,s10
   1365c:	01012423          	sw	a6,8(sp)
   13660:	03112a23          	sw	a7,52(sp)
   13664:	f5cfd0ef          	jal	10dc0 <strlen>
   13668:	00812803          	lw	a6,8(sp)
   1366c:	0a714703          	lbu	a4,167(sp)
   13670:	fff54693          	not	a3,a0
   13674:	41f6d693          	sra	a3,a3,0x1f
   13678:	01012623          	sw	a6,12(sp)
   1367c:	00012423          	sw	zero,8(sp)
   13680:	02012023          	sw	zero,32(sp)
   13684:	00012e23          	sw	zero,28(sp)
   13688:	00012a23          	sw	zero,20(sp)
   1368c:	03412883          	lw	a7,52(sp)
   13690:	00050b13          	mv	s6,a0
   13694:	00d57c33          	and	s8,a0,a3
   13698:	00000a13          	li	s4,0
   1369c:	00070463          	beqz	a4,136a4 <_vfprintf_r+0x1b10>
   136a0:	9a1fe06f          	j	12040 <_vfprintf_r+0x4ac>
   136a4:	f14fe06f          	j	11db8 <_vfprintf_r+0x224>
   136a8:	00090813          	mv	a6,s2
   136ac:	01412903          	lw	s2,20(sp)
   136b0:	00860633          	add	a2,a2,s0
   136b4:	001a0a13          	add	s4,s4,1
   136b8:	010b2023          	sw	a6,0(s6)
   136bc:	c3dfe06f          	j	122f8 <_vfprintf_r+0x764>
   136c0:	0dc12783          	lw	a5,220(sp)
   136c4:	3807ca63          	bltz	a5,13a58 <_vfprintf_r+0x1ec4>
   136c8:	0a714703          	lbu	a4,167(sp)
   136cc:	04700793          	li	a5,71
   136d0:	1517cee3          	blt	a5,a7,1402c <_vfprintf_r+0x2498>
   136d4:	000227b7          	lui	a5,0x22
   136d8:	02c78d13          	add	s10,a5,44 # 2202c <__clzsi2+0x100>
   136dc:	eddff06f          	j	135b8 <_vfprintf_r+0x1a24>
   136e0:	00090813          	mv	a6,s2
   136e4:	03412903          	lw	s2,52(sp)
   136e8:	01460633          	add	a2,a2,s4
   136ec:	00170713          	add	a4,a4,1
   136f0:	01042023          	sw	a6,0(s0)
   136f4:	01442223          	sw	s4,4(s0)
   136f8:	0cc12623          	sw	a2,204(sp)
   136fc:	0ce12423          	sw	a4,200(sp)
   13700:	00700593          	li	a1,7
   13704:	00840413          	add	s0,s0,8
   13708:	d8e5d863          	bge	a1,a4,12c98 <_vfprintf_r+0x1104>
   1370c:	0c410613          	add	a2,sp,196
   13710:	00048593          	mv	a1,s1
   13714:	000b8513          	mv	a0,s7
   13718:	70d000ef          	jal	14624 <__sprint_r>
   1371c:	b0051a63          	bnez	a0,12a30 <_vfprintf_r+0xe9c>
   13720:	0cc12603          	lw	a2,204(sp)
   13724:	00098413          	mv	s0,s3
   13728:	d70ff06f          	j	12c98 <_vfprintf_r+0x1104>
   1372c:	01812783          	lw	a5,24(sp)
   13730:	01c12b03          	lw	s6,28(sp)
   13734:	000228b7          	lui	a7,0x22
   13738:	00fd07b3          	add	a5,s10,a5
   1373c:	03212a23          	sw	s2,52(sp)
   13740:	05912623          	sw	s9,76(sp)
   13744:	01812e23          	sw	s8,28(sp)
   13748:	05a12823          	sw	s10,80(sp)
   1374c:	05b12423          	sw	s11,72(sp)
   13750:	000a0c93          	mv	s9,s4
   13754:	00040693          	mv	a3,s0
   13758:	04012a03          	lw	s4,64(sp)
   1375c:	04412403          	lw	s0,68(sp)
   13760:	03812c03          	lw	s8,56(sp)
   13764:	02012d03          	lw	s10,32(sp)
   13768:	00700813          	li	a6,7
   1376c:	01000713          	li	a4,16
   13770:	33488893          	add	a7,a7,820 # 22334 <zeroes.0>
   13774:	00078913          	mv	s2,a5
   13778:	09605463          	blez	s6,13800 <_vfprintf_r+0x1c6c>
   1377c:	17a05e63          	blez	s10,138f8 <_vfprintf_r+0x1d64>
   13780:	fffd0d13          	add	s10,s10,-1
   13784:	0c812783          	lw	a5,200(sp)
   13788:	01460633          	add	a2,a2,s4
   1378c:	0086a023          	sw	s0,0(a3)
   13790:	00178793          	add	a5,a5,1
   13794:	0146a223          	sw	s4,4(a3)
   13798:	0cc12623          	sw	a2,204(sp)
   1379c:	0cf12423          	sw	a5,200(sp)
   137a0:	00868693          	add	a3,a3,8
   137a4:	16f84063          	blt	a6,a5,13904 <_vfprintf_r+0x1d70>
   137a8:	000c4583          	lbu	a1,0(s8)
   137ac:	41990db3          	sub	s11,s2,s9
   137b0:	01b5d463          	bge	a1,s11,137b8 <_vfprintf_r+0x1c24>
   137b4:	00058d93          	mv	s11,a1
   137b8:	03b05663          	blez	s11,137e4 <_vfprintf_r+0x1c50>
   137bc:	0c812583          	lw	a1,200(sp)
   137c0:	01b60633          	add	a2,a2,s11
   137c4:	0196a023          	sw	s9,0(a3)
   137c8:	00158593          	add	a1,a1,1
   137cc:	01b6a223          	sw	s11,4(a3)
   137d0:	0cc12623          	sw	a2,204(sp)
   137d4:	0cb12423          	sw	a1,200(sp)
   137d8:	14b84e63          	blt	a6,a1,13934 <_vfprintf_r+0x1da0>
   137dc:	000c4583          	lbu	a1,0(s8)
   137e0:	00868693          	add	a3,a3,8
   137e4:	fffdc513          	not	a0,s11
   137e8:	41f55513          	sra	a0,a0,0x1f
   137ec:	00adf7b3          	and	a5,s11,a0
   137f0:	40f58db3          	sub	s11,a1,a5
   137f4:	05b04263          	bgtz	s11,13838 <_vfprintf_r+0x1ca4>
   137f8:	00bc8cb3          	add	s9,s9,a1
   137fc:	f96040e3          	bgtz	s6,1377c <_vfprintf_r+0x1be8>
   13800:	f9a040e3          	bgtz	s10,13780 <_vfprintf_r+0x1bec>
   13804:	05012d03          	lw	s10,80(sp)
   13808:	01812783          	lw	a5,24(sp)
   1380c:	03812c23          	sw	s8,56(sp)
   13810:	000c8a13          	mv	s4,s9
   13814:	00fd0733          	add	a4,s10,a5
   13818:	03412903          	lw	s2,52(sp)
   1381c:	04812d83          	lw	s11,72(sp)
   13820:	04c12c83          	lw	s9,76(sp)
   13824:	01c12c03          	lw	s8,28(sp)
   13828:	00068413          	mv	s0,a3
   1382c:	c7477e63          	bgeu	a4,s4,12ca8 <_vfprintf_r+0x1114>
   13830:	00070a13          	mv	s4,a4
   13834:	c74ff06f          	j	12ca8 <_vfprintf_r+0x1114>
   13838:	00022fb7          	lui	t6,0x22
   1383c:	0c812583          	lw	a1,200(sp)
   13840:	334f8f93          	add	t6,t6,820 # 22334 <zeroes.0>
   13844:	09b75463          	bge	a4,s11,138cc <_vfprintf_r+0x1d38>
   13848:	00812a23          	sw	s0,20(sp)
   1384c:	000d8413          	mv	s0,s11
   13850:	00090d93          	mv	s11,s2
   13854:	00088913          	mv	s2,a7
   13858:	00c0006f          	j	13864 <_vfprintf_r+0x1cd0>
   1385c:	ff040413          	add	s0,s0,-16
   13860:	04875e63          	bge	a4,s0,138bc <_vfprintf_r+0x1d28>
   13864:	01060613          	add	a2,a2,16
   13868:	00158593          	add	a1,a1,1
   1386c:	0116a023          	sw	a7,0(a3)
   13870:	00e6a223          	sw	a4,4(a3)
   13874:	0cc12623          	sw	a2,204(sp)
   13878:	0cb12423          	sw	a1,200(sp)
   1387c:	00868693          	add	a3,a3,8
   13880:	fcb85ee3          	bge	a6,a1,1385c <_vfprintf_r+0x1cc8>
   13884:	0c410613          	add	a2,sp,196
   13888:	00048593          	mv	a1,s1
   1388c:	000b8513          	mv	a0,s7
   13890:	595000ef          	jal	14624 <__sprint_r>
   13894:	98051e63          	bnez	a0,12a30 <_vfprintf_r+0xe9c>
   13898:	000227b7          	lui	a5,0x22
   1389c:	01000713          	li	a4,16
   138a0:	ff040413          	add	s0,s0,-16
   138a4:	0cc12603          	lw	a2,204(sp)
   138a8:	0c812583          	lw	a1,200(sp)
   138ac:	00098693          	mv	a3,s3
   138b0:	33478893          	add	a7,a5,820 # 22334 <zeroes.0>
   138b4:	00700813          	li	a6,7
   138b8:	fa8746e3          	blt	a4,s0,13864 <_vfprintf_r+0x1cd0>
   138bc:	00090f93          	mv	t6,s2
   138c0:	000d8913          	mv	s2,s11
   138c4:	00040d93          	mv	s11,s0
   138c8:	01412403          	lw	s0,20(sp)
   138cc:	01b60633          	add	a2,a2,s11
   138d0:	00158593          	add	a1,a1,1
   138d4:	01f6a023          	sw	t6,0(a3)
   138d8:	01b6a223          	sw	s11,4(a3)
   138dc:	0cc12623          	sw	a2,204(sp)
   138e0:	0cb12423          	sw	a1,200(sp)
   138e4:	6cb84263          	blt	a6,a1,13fa8 <_vfprintf_r+0x2414>
   138e8:	000c4583          	lbu	a1,0(s8)
   138ec:	00868693          	add	a3,a3,8
   138f0:	00bc8cb3          	add	s9,s9,a1
   138f4:	f09ff06f          	j	137fc <_vfprintf_r+0x1c68>
   138f8:	fffc0c13          	add	s8,s8,-1
   138fc:	fffb0b13          	add	s6,s6,-1
   13900:	e85ff06f          	j	13784 <_vfprintf_r+0x1bf0>
   13904:	0c410613          	add	a2,sp,196
   13908:	00048593          	mv	a1,s1
   1390c:	000b8513          	mv	a0,s7
   13910:	515000ef          	jal	14624 <__sprint_r>
   13914:	90051e63          	bnez	a0,12a30 <_vfprintf_r+0xe9c>
   13918:	000227b7          	lui	a5,0x22
   1391c:	0cc12603          	lw	a2,204(sp)
   13920:	00098693          	mv	a3,s3
   13924:	33478893          	add	a7,a5,820 # 22334 <zeroes.0>
   13928:	01000713          	li	a4,16
   1392c:	00700813          	li	a6,7
   13930:	e79ff06f          	j	137a8 <_vfprintf_r+0x1c14>
   13934:	0c410613          	add	a2,sp,196
   13938:	00048593          	mv	a1,s1
   1393c:	000b8513          	mv	a0,s7
   13940:	4e5000ef          	jal	14624 <__sprint_r>
   13944:	8e051663          	bnez	a0,12a30 <_vfprintf_r+0xe9c>
   13948:	000227b7          	lui	a5,0x22
   1394c:	000c4583          	lbu	a1,0(s8)
   13950:	0cc12603          	lw	a2,204(sp)
   13954:	00098693          	mv	a3,s3
   13958:	33478893          	add	a7,a5,820 # 22334 <zeroes.0>
   1395c:	01000713          	li	a4,16
   13960:	00700813          	li	a6,7
   13964:	e81ff06f          	j	137e4 <_vfprintf_r+0x1c50>
   13968:	04012783          	lw	a5,64(sp)
   1396c:	04412583          	lw	a1,68(sp)
   13970:	00000d13          	li	s10,0
   13974:	40fc0c33          	sub	s8,s8,a5
   13978:	00078613          	mv	a2,a5
   1397c:	000c0513          	mv	a0,s8
   13980:	579020ef          	jal	166f8 <strncpy>
   13984:	00144783          	lbu	a5,1(s0)
   13988:	00a00613          	li	a2,10
   1398c:	00000693          	li	a3,0
   13990:	00f037b3          	snez	a5,a5
   13994:	000b0513          	mv	a0,s6
   13998:	00090593          	mv	a1,s2
   1399c:	00f40433          	add	s0,s0,a5
   139a0:	049080ef          	jal	1c1e8 <__udivdi3>
   139a4:	a61ff06f          	j	13404 <_vfprintf_r+0x1870>
   139a8:	0c410613          	add	a2,sp,196
   139ac:	00048593          	mv	a1,s1
   139b0:	000b8513          	mv	a0,s7
   139b4:	471000ef          	jal	14624 <__sprint_r>
   139b8:	00050463          	beqz	a0,139c0 <_vfprintf_r+0x1e2c>
   139bc:	874ff06f          	j	12a30 <_vfprintf_r+0xe9c>
   139c0:	0ac12503          	lw	a0,172(sp)
   139c4:	0cc12603          	lw	a2,204(sp)
   139c8:	00098413          	mv	s0,s3
   139cc:	aedff06f          	j	134b8 <_vfprintf_r+0x1924>
   139d0:	000227b7          	lui	a5,0x22
   139d4:	02478d13          	add	s10,a5,36 # 22024 <__clzsi2+0xf8>
   139d8:	be1ff06f          	j	135b8 <_vfprintf_r+0x1a24>
   139dc:	0c410613          	add	a2,sp,196
   139e0:	00048593          	mv	a1,s1
   139e4:	000b8513          	mv	a0,s7
   139e8:	43d000ef          	jal	14624 <__sprint_r>
   139ec:	00050463          	beqz	a0,139f4 <_vfprintf_r+0x1e60>
   139f0:	840ff06f          	j	12a30 <_vfprintf_r+0xe9c>
   139f4:	0cc12603          	lw	a2,204(sp)
   139f8:	00098413          	mv	s0,s3
   139fc:	a84ff06f          	j	12c80 <_vfprintf_r+0x10ec>
   13a00:	00600b13          	li	s6,6
   13a04:	e34ff06f          	j	13038 <_vfprintf_r+0x14a4>
   13a08:	00c12783          	lw	a5,12(sp)
   13a0c:	00412703          	lw	a4,4(sp)
   13a10:	0007a783          	lw	a5,0(a5)
   13a14:	00e79023          	sh	a4,0(a5)
   13a18:	bc5fe06f          	j	125dc <_vfprintf_r+0xa48>
   13a1c:	0ff77b13          	zext.b	s6,a4
   13a20:	00000813          	li	a6,0
   13a24:	00100793          	li	a5,1
   13a28:	e50fe06f          	j	12078 <_vfprintf_r+0x4e4>
   13a2c:	01871b13          	sll	s6,a4,0x18
   13a30:	418b5b13          	sra	s6,s6,0x18
   13a34:	41fb5813          	sra	a6,s6,0x1f
   13a38:	00080793          	mv	a5,a6
   13a3c:	db8fe06f          	j	11ff4 <_vfprintf_r+0x460>
   13a40:	0ff77b13          	zext.b	s6,a4
   13a44:	00000813          	li	a6,0
   13a48:	d60ff06f          	j	12fa8 <_vfprintf_r+0x1414>
   13a4c:	0ff77b13          	zext.b	s6,a4
   13a50:	00000813          	li	a6,0
   13a54:	e1cfe06f          	j	12070 <_vfprintf_r+0x4dc>
   13a58:	02d00793          	li	a5,45
   13a5c:	0af103a3          	sb	a5,167(sp)
   13a60:	02d00713          	li	a4,45
   13a64:	c69ff06f          	j	136cc <_vfprintf_r+0x1b38>
   13a68:	02412503          	lw	a0,36(sp)
   13a6c:	0c410613          	add	a2,sp,196
   13a70:	00048593          	mv	a1,s1
   13a74:	3b1000ef          	jal	14624 <__sprint_r>
   13a78:	c6cfe06f          	j	11ee4 <_vfprintf_r+0x350>
   13a7c:	0c410613          	add	a2,sp,196
   13a80:	00048593          	mv	a1,s1
   13a84:	000b8513          	mv	a0,s7
   13a88:	39d000ef          	jal	14624 <__sprint_r>
   13a8c:	00050463          	beqz	a0,13a94 <_vfprintf_r+0x1f00>
   13a90:	fa1fe06f          	j	12a30 <_vfprintf_r+0xe9c>
   13a94:	0ac12503          	lw	a0,172(sp)
   13a98:	0cc12603          	lw	a2,204(sp)
   13a9c:	0c812703          	lw	a4,200(sp)
   13aa0:	00098413          	mv	s0,s3
   13aa4:	b85ff06f          	j	13628 <_vfprintf_r+0x1a94>
   13aa8:	01450733          	add	a4,a0,s4
   13aac:	04700613          	li	a2,71
   13ab0:	08010593          	add	a1,sp,128
   13ab4:	000b0513          	mv	a0,s6
   13ab8:	00e12e23          	sw	a4,28(sp)
   13abc:	00c12c23          	sw	a2,24(sp)
   13ac0:	01112a23          	sw	a7,20(sp)
   13ac4:	09f12823          	sw	t6,144(sp)
   13ac8:	09e12a23          	sw	t5,148(sp)
   13acc:	09d12c23          	sw	t4,152(sp)
   13ad0:	09812e23          	sw	s8,156(sp)
   13ad4:	08012023          	sw	zero,128(sp)
   13ad8:	08012223          	sw	zero,132(sp)
   13adc:	08012423          	sw	zero,136(sp)
   13ae0:	08012623          	sw	zero,140(sp)
   13ae4:	2d00b0ef          	jal	1edb4 <__eqtf2>
   13ae8:	01412883          	lw	a7,20(sp)
   13aec:	01812603          	lw	a2,24(sp)
   13af0:	01c12703          	lw	a4,28(sp)
   13af4:	56050a63          	beqz	a0,14068 <_vfprintf_r+0x24d4>
   13af8:	0bc12783          	lw	a5,188(sp)
   13afc:	00e7fe63          	bgeu	a5,a4,13b18 <_vfprintf_r+0x1f84>
   13b00:	03000593          	li	a1,48
   13b04:	00178693          	add	a3,a5,1
   13b08:	0ad12e23          	sw	a3,188(sp)
   13b0c:	00b78023          	sb	a1,0(a5)
   13b10:	0bc12783          	lw	a5,188(sp)
   13b14:	fee7e8e3          	bltu	a5,a4,13b04 <_vfprintf_r+0x1f70>
   13b18:	0ac12703          	lw	a4,172(sp)
   13b1c:	00e12a23          	sw	a4,20(sp)
   13b20:	41a787b3          	sub	a5,a5,s10
   13b24:	04700713          	li	a4,71
   13b28:	00f12c23          	sw	a5,24(sp)
   13b2c:	eae60663          	beq	a2,a4,131d8 <_vfprintf_r+0x1644>
   13b30:	04600713          	li	a4,70
   13b34:	5ce60a63          	beq	a2,a4,14108 <_vfprintf_r+0x2574>
   13b38:	01412783          	lw	a5,20(sp)
   13b3c:	fff78a13          	add	s4,a5,-1
   13b40:	eb4ff06f          	j	131f4 <_vfprintf_r+0x1660>
   13b44:	001a0693          	add	a3,s4,1
   13b48:	00200613          	li	a2,2
   13b4c:	09010b13          	add	s6,sp,144
   13b50:	0ac10713          	add	a4,sp,172
   13b54:	000b0593          	mv	a1,s6
   13b58:	0bc10813          	add	a6,sp,188
   13b5c:	0b010793          	add	a5,sp,176
   13b60:	000b8513          	mv	a0,s7
   13b64:	05112623          	sw	a7,76(sp)
   13b68:	02d12023          	sw	a3,32(sp)
   13b6c:	09f12823          	sw	t6,144(sp)
   13b70:	01f12e23          	sw	t6,28(sp)
   13b74:	09e12a23          	sw	t5,148(sp)
   13b78:	01e12c23          	sw	t5,24(sp)
   13b7c:	09d12c23          	sw	t4,152(sp)
   13b80:	01d12a23          	sw	t4,20(sp)
   13b84:	09812e23          	sw	s8,156(sp)
   13b88:	43c030ef          	jal	16fc4 <_ldtoa_r>
   13b8c:	04c12883          	lw	a7,76(sp)
   13b90:	02012683          	lw	a3,32(sp)
   13b94:	04600593          	li	a1,70
   13b98:	fdf8f613          	and	a2,a7,-33
   13b9c:	01412e83          	lw	t4,20(sp)
   13ba0:	01812f03          	lw	t5,24(sp)
   13ba4:	01c12f83          	lw	t6,28(sp)
   13ba8:	00050d13          	mv	s10,a0
   13bac:	00d50733          	add	a4,a0,a3
   13bb0:	04b618e3          	bne	a2,a1,14400 <_vfprintf_r+0x286c>
   13bb4:	000d4503          	lbu	a0,0(s10)
   13bb8:	03000593          	li	a1,48
   13bbc:	4cb50463          	beq	a0,a1,14084 <_vfprintf_r+0x24f0>
   13bc0:	0ac12683          	lw	a3,172(sp)
   13bc4:	08010593          	add	a1,sp,128
   13bc8:	00d70733          	add	a4,a4,a3
   13bcc:	ee9ff06f          	j	13ab4 <_vfprintf_r+0x1f20>
   13bd0:	09010b13          	add	s6,sp,144
   13bd4:	08010593          	add	a1,sp,128
   13bd8:	0ac10613          	add	a2,sp,172
   13bdc:	000b0513          	mv	a0,s6
   13be0:	05112423          	sw	a7,72(sp)
   13be4:	09f12023          	sw	t6,128(sp)
   13be8:	09e12223          	sw	t5,132(sp)
   13bec:	09d12423          	sw	t4,136(sp)
   13bf0:	00b12a23          	sw	a1,20(sp)
   13bf4:	09812623          	sw	s8,140(sp)
   13bf8:	1b0030ef          	jal	16da8 <frexpl>
   13bfc:	09012703          	lw	a4,144(sp)
   13c00:	01412583          	lw	a1,20(sp)
   13c04:	07010613          	add	a2,sp,112
   13c08:	08e12023          	sw	a4,128(sp)
   13c0c:	09412703          	lw	a4,148(sp)
   13c10:	000b0513          	mv	a0,s6
   13c14:	06012823          	sw	zero,112(sp)
   13c18:	08e12223          	sw	a4,132(sp)
   13c1c:	09812703          	lw	a4,152(sp)
   13c20:	06012a23          	sw	zero,116(sp)
   13c24:	06012c23          	sw	zero,120(sp)
   13c28:	08e12423          	sw	a4,136(sp)
   13c2c:	09c12703          	lw	a4,156(sp)
   13c30:	08e12623          	sw	a4,140(sp)
   13c34:	3ffc0737          	lui	a4,0x3ffc0
   13c38:	06e12e23          	sw	a4,124(sp)
   13c3c:	4a40b0ef          	jal	1f0e0 <__multf3>
   13c40:	01412583          	lw	a1,20(sp)
   13c44:	09012f03          	lw	t5,144(sp)
   13c48:	09412e83          	lw	t4,148(sp)
   13c4c:	09812803          	lw	a6,152(sp)
   13c50:	09c12603          	lw	a2,156(sp)
   13c54:	000b0513          	mv	a0,s6
   13c58:	02b12e23          	sw	a1,60(sp)
   13c5c:	03e12023          	sw	t5,32(sp)
   13c60:	01d12e23          	sw	t4,28(sp)
   13c64:	01012c23          	sw	a6,24(sp)
   13c68:	00c12a23          	sw	a2,20(sp)
   13c6c:	08012023          	sw	zero,128(sp)
   13c70:	08012223          	sw	zero,132(sp)
   13c74:	08012423          	sw	zero,136(sp)
   13c78:	08012623          	sw	zero,140(sp)
   13c7c:	1380b0ef          	jal	1edb4 <__eqtf2>
   13c80:	01412603          	lw	a2,20(sp)
   13c84:	01812803          	lw	a6,24(sp)
   13c88:	01c12e83          	lw	t4,28(sp)
   13c8c:	02012f03          	lw	t5,32(sp)
   13c90:	03c12583          	lw	a1,60(sp)
   13c94:	04812883          	lw	a7,72(sp)
   13c98:	00051663          	bnez	a0,13ca4 <_vfprintf_r+0x2110>
   13c9c:	00100713          	li	a4,1
   13ca0:	0ae12623          	sw	a4,172(sp)
   13ca4:	06100713          	li	a4,97
   13ca8:	6ce88263          	beq	a7,a4,1436c <_vfprintf_r+0x27d8>
   13cac:	00022737          	lui	a4,0x22
   13cb0:	04870793          	add	a5,a4,72 # 22048 <__clzsi2+0x11c>
   13cb4:	00f12a23          	sw	a5,20(sp)
   13cb8:	01212c23          	sw	s2,24(sp)
   13cbc:	03912e23          	sw	s9,60(sp)
   13cc0:	04812423          	sw	s0,72(sp)
   13cc4:	000d0913          	mv	s2,s10
   13cc8:	05712623          	sw	s7,76(sp)
   13ccc:	04912823          	sw	s1,80(sp)
   13cd0:	05a12a23          	sw	s10,84(sp)
   13cd4:	01412483          	lw	s1,20(sp)
   13cd8:	fffa0a13          	add	s4,s4,-1
   13cdc:	01112e23          	sw	a7,28(sp)
   13ce0:	03b12023          	sw	s11,32(sp)
   13ce4:	000f0b93          	mv	s7,t5
   13ce8:	000e8c13          	mv	s8,t4
   13cec:	00080c93          	mv	s9,a6
   13cf0:	00060d13          	mv	s10,a2
   13cf4:	00058413          	mv	s0,a1
   13cf8:	03c0006f          	j	13d34 <_vfprintf_r+0x21a0>
   13cfc:	00040593          	mv	a1,s0
   13d00:	000b0513          	mv	a0,s6
   13d04:	09712823          	sw	s7,144(sp)
   13d08:	09812a23          	sw	s8,148(sp)
   13d0c:	09912c23          	sw	s9,152(sp)
   13d10:	09a12e23          	sw	s10,156(sp)
   13d14:	08012023          	sw	zero,128(sp)
   13d18:	08012223          	sw	zero,132(sp)
   13d1c:	08012423          	sw	zero,136(sp)
   13d20:	08012623          	sw	zero,140(sp)
   13d24:	fffa0d93          	add	s11,s4,-1
   13d28:	08c0b0ef          	jal	1edb4 <__eqtf2>
   13d2c:	5e050463          	beqz	a0,14314 <_vfprintf_r+0x2780>
   13d30:	000d8a13          	mv	s4,s11
   13d34:	400307b7          	lui	a5,0x40030
   13d38:	07010613          	add	a2,sp,112
   13d3c:	00040593          	mv	a1,s0
   13d40:	000b0513          	mv	a0,s6
   13d44:	06f12e23          	sw	a5,124(sp)
   13d48:	09712023          	sw	s7,128(sp)
   13d4c:	09812223          	sw	s8,132(sp)
   13d50:	09912423          	sw	s9,136(sp)
   13d54:	09a12623          	sw	s10,140(sp)
   13d58:	06012823          	sw	zero,112(sp)
   13d5c:	06012a23          	sw	zero,116(sp)
   13d60:	06012c23          	sw	zero,120(sp)
   13d64:	37c0b0ef          	jal	1f0e0 <__multf3>
   13d68:	000b0513          	mv	a0,s6
   13d6c:	4950d0ef          	jal	21a00 <__fixtfsi>
   13d70:	00050593          	mv	a1,a0
   13d74:	00050d93          	mv	s11,a0
   13d78:	000b0513          	mv	a0,s6
   13d7c:	09012d03          	lw	s10,144(sp)
   13d80:	09412c83          	lw	s9,148(sp)
   13d84:	09812c03          	lw	s8,152(sp)
   13d88:	09c12b83          	lw	s7,156(sp)
   13d8c:	56d0d0ef          	jal	21af8 <__floatsitf>
   13d90:	09012683          	lw	a3,144(sp)
   13d94:	06010613          	add	a2,sp,96
   13d98:	07010593          	add	a1,sp,112
   13d9c:	06d12023          	sw	a3,96(sp)
   13da0:	09412683          	lw	a3,148(sp)
   13da4:	00040513          	mv	a0,s0
   13da8:	07a12823          	sw	s10,112(sp)
   13dac:	06d12223          	sw	a3,100(sp)
   13db0:	09812683          	lw	a3,152(sp)
   13db4:	07912a23          	sw	s9,116(sp)
   13db8:	07812c23          	sw	s8,120(sp)
   13dbc:	06d12423          	sw	a3,104(sp)
   13dc0:	09c12683          	lw	a3,156(sp)
   13dc4:	07712e23          	sw	s7,124(sp)
   13dc8:	06d12623          	sw	a3,108(sp)
   13dcc:	6c80c0ef          	jal	20494 <__subtf3>
   13dd0:	01b486b3          	add	a3,s1,s11
   13dd4:	0006c683          	lbu	a3,0(a3)
   13dd8:	00090f93          	mv	t6,s2
   13ddc:	00190913          	add	s2,s2,1
   13de0:	08012b83          	lw	s7,128(sp)
   13de4:	08412c03          	lw	s8,132(sp)
   13de8:	08812c83          	lw	s9,136(sp)
   13dec:	08c12d03          	lw	s10,140(sp)
   13df0:	fff00793          	li	a5,-1
   13df4:	fed90fa3          	sb	a3,-1(s2)
   13df8:	f0fa12e3          	bne	s4,a5,13cfc <_vfprintf_r+0x2168>
   13dfc:	000b8f13          	mv	t5,s7
   13e00:	000c0e93          	mv	t4,s8
   13e04:	000c8813          	mv	a6,s9
   13e08:	000d0613          	mv	a2,s10
   13e0c:	00040593          	mv	a1,s0
   13e10:	3ffe0a37          	lui	s4,0x3ffe0
   13e14:	000b0513          	mv	a0,s6
   13e18:	05f12e23          	sw	t6,92(sp)
   13e1c:	05b12c23          	sw	s11,88(sp)
   13e20:	05012483          	lw	s1,80(sp)
   13e24:	02012d83          	lw	s11,32(sp)
   13e28:	04c12b83          	lw	s7,76(sp)
   13e2c:	03c12c83          	lw	s9,60(sp)
   13e30:	04812403          	lw	s0,72(sp)
   13e34:	09e12823          	sw	t5,144(sp)
   13e38:	05e12823          	sw	t5,80(sp)
   13e3c:	09d12a23          	sw	t4,148(sp)
   13e40:	05d12623          	sw	t4,76(sp)
   13e44:	09012c23          	sw	a6,152(sp)
   13e48:	05012423          	sw	a6,72(sp)
   13e4c:	08c12e23          	sw	a2,156(sp)
   13e50:	02c12e23          	sw	a2,60(sp)
   13e54:	08012023          	sw	zero,128(sp)
   13e58:	08012223          	sw	zero,132(sp)
   13e5c:	08012423          	sw	zero,136(sp)
   13e60:	09412623          	sw	s4,140(sp)
   13e64:	02b12023          	sw	a1,32(sp)
   13e68:	0180b0ef          	jal	1ee80 <__getf2>
   13e6c:	00090c13          	mv	s8,s2
   13e70:	05412d03          	lw	s10,84(sp)
   13e74:	01812903          	lw	s2,24(sp)
   13e78:	01c12883          	lw	a7,28(sp)
   13e7c:	05c12f83          	lw	t6,92(sp)
   13e80:	02a04663          	bgtz	a0,13eac <_vfprintf_r+0x2318>
   13e84:	02012583          	lw	a1,32(sp)
   13e88:	000b0513          	mv	a0,s6
   13e8c:	01f12c23          	sw	t6,24(sp)
   13e90:	7250a0ef          	jal	1edb4 <__eqtf2>
   13e94:	01c12883          	lw	a7,28(sp)
   13e98:	04051e63          	bnez	a0,13ef4 <_vfprintf_r+0x2360>
   13e9c:	05812783          	lw	a5,88(sp)
   13ea0:	01812f83          	lw	t6,24(sp)
   13ea4:	0017f693          	and	a3,a5,1
   13ea8:	04068663          	beqz	a3,13ef4 <_vfprintf_r+0x2360>
   13eac:	01412783          	lw	a5,20(sp)
   13eb0:	0bf12e23          	sw	t6,188(sp)
   13eb4:	fffc4603          	lbu	a2,-1(s8)
   13eb8:	00f7c583          	lbu	a1,15(a5) # 4003000f <__BSS_END__+0x4000c437>
   13ebc:	000c0693          	mv	a3,s8
   13ec0:	02b61063          	bne	a2,a1,13ee0 <_vfprintf_r+0x234c>
   13ec4:	03000513          	li	a0,48
   13ec8:	fea68fa3          	sb	a0,-1(a3)
   13ecc:	0bc12683          	lw	a3,188(sp)
   13ed0:	fff68793          	add	a5,a3,-1
   13ed4:	0af12e23          	sw	a5,188(sp)
   13ed8:	fff6c603          	lbu	a2,-1(a3)
   13edc:	fec586e3          	beq	a1,a2,13ec8 <_vfprintf_r+0x2334>
   13ee0:	00160593          	add	a1,a2,1
   13ee4:	03900513          	li	a0,57
   13ee8:	0ff5f593          	zext.b	a1,a1
   13eec:	04a60463          	beq	a2,a0,13f34 <_vfprintf_r+0x23a0>
   13ef0:	feb68fa3          	sb	a1,-1(a3)
   13ef4:	0ac12783          	lw	a5,172(sp)
   13ef8:	41ac0733          	sub	a4,s8,s10
   13efc:	06100613          	li	a2,97
   13f00:	fff78a13          	add	s4,a5,-1
   13f04:	00f12a23          	sw	a5,20(sp)
   13f08:	00e12c23          	sw	a4,24(sp)
   13f0c:	0b412623          	sw	s4,172(sp)
   13f10:	07000693          	li	a3,112
   13f14:	00c88663          	beq	a7,a2,13f20 <_vfprintf_r+0x238c>
   13f18:	05000693          	li	a3,80
   13f1c:	04100893          	li	a7,65
   13f20:	00100613          	li	a2,1
   13f24:	adcff06f          	j	13200 <_vfprintf_r+0x166c>
   13f28:	000a0693          	mv	a3,s4
   13f2c:	00300613          	li	a2,3
   13f30:	c1dff06f          	j	13b4c <_vfprintf_r+0x1fb8>
   13f34:	01412783          	lw	a5,20(sp)
   13f38:	00a7c583          	lbu	a1,10(a5)
   13f3c:	fb5ff06f          	j	13ef0 <_vfprintf_r+0x235c>
   13f40:	0a714703          	lbu	a4,167(sp)
   13f44:	04812d83          	lw	s11,72(sp)
   13f48:	00000a13          	li	s4,0
   13f4c:	00070463          	beqz	a4,13f54 <_vfprintf_r+0x23c0>
   13f50:	8f0fe06f          	j	12040 <_vfprintf_r+0x4ac>
   13f54:	e65fd06f          	j	11db8 <_vfprintf_r+0x224>
   13f58:	01812783          	lw	a5,24(sp)
   13f5c:	01412703          	lw	a4,20(sp)
   13f60:	1cf74e63          	blt	a4,a5,1413c <_vfprintf_r+0x25a8>
   13f64:	01412783          	lw	a5,20(sp)
   13f68:	001df713          	and	a4,s11,1
   13f6c:	00078b13          	mv	s6,a5
   13f70:	00070663          	beqz	a4,13f7c <_vfprintf_r+0x23e8>
   13f74:	02812703          	lw	a4,40(sp)
   13f78:	00e78b33          	add	s6,a5,a4
   13f7c:	400dfe13          	and	t3,s11,1024
   13f80:	000e0663          	beqz	t3,13f8c <_vfprintf_r+0x23f8>
   13f84:	01412783          	lw	a5,20(sp)
   13f88:	30f04263          	bgtz	a5,1428c <_vfprintf_r+0x26f8>
   13f8c:	fffb4693          	not	a3,s6
   13f90:	41f6d693          	sra	a3,a3,0x1f
   13f94:	00db7c33          	and	s8,s6,a3
   13f98:	06700893          	li	a7,103
   13f9c:	02012023          	sw	zero,32(sp)
   13fa0:	00012e23          	sw	zero,28(sp)
   13fa4:	b6cff06f          	j	13310 <_vfprintf_r+0x177c>
   13fa8:	0c410613          	add	a2,sp,196
   13fac:	00048593          	mv	a1,s1
   13fb0:	000b8513          	mv	a0,s7
   13fb4:	670000ef          	jal	14624 <__sprint_r>
   13fb8:	00050463          	beqz	a0,13fc0 <_vfprintf_r+0x242c>
   13fbc:	a75fe06f          	j	12a30 <_vfprintf_r+0xe9c>
   13fc0:	000c4583          	lbu	a1,0(s8)
   13fc4:	000227b7          	lui	a5,0x22
   13fc8:	0cc12603          	lw	a2,204(sp)
   13fcc:	00098693          	mv	a3,s3
   13fd0:	33478893          	add	a7,a5,820 # 22334 <zeroes.0>
   13fd4:	01000713          	li	a4,16
   13fd8:	00700813          	li	a6,7
   13fdc:	00bc8cb3          	add	s9,s9,a1
   13fe0:	81dff06f          	j	137fc <_vfprintf_r+0x1c68>
   13fe4:	00900793          	li	a5,9
   13fe8:	c167ee63          	bltu	a5,s6,13404 <_vfprintf_r+0x1870>
   13fec:	c68ff06f          	j	13454 <_vfprintf_r+0x18c0>
   13ff0:	02d00793          	li	a5,45
   13ff4:	0af103a3          	sb	a5,167(sp)
   13ff8:	02d00713          	li	a4,45
   13ffc:	dacff06f          	j	135a8 <_vfprintf_r+0x1a14>
   14000:	0a714703          	lbu	a4,167(sp)
   14004:	01012623          	sw	a6,12(sp)
   14008:	02012023          	sw	zero,32(sp)
   1400c:	00012e23          	sw	zero,28(sp)
   14010:	00012a23          	sw	zero,20(sp)
   14014:	000a0c13          	mv	s8,s4
   14018:	000a0b13          	mv	s6,s4
   1401c:	00000a13          	li	s4,0
   14020:	00070463          	beqz	a4,14028 <_vfprintf_r+0x2494>
   14024:	81cfe06f          	j	12040 <_vfprintf_r+0x4ac>
   14028:	d91fd06f          	j	11db8 <_vfprintf_r+0x224>
   1402c:	000227b7          	lui	a5,0x22
   14030:	03078d13          	add	s10,a5,48 # 22030 <__clzsi2+0x104>
   14034:	d84ff06f          	j	135b8 <_vfprintf_r+0x1a24>
   14038:	0c410613          	add	a2,sp,196
   1403c:	00048593          	mv	a1,s1
   14040:	000b8513          	mv	a0,s7
   14044:	5e0000ef          	jal	14624 <__sprint_r>
   14048:	00050463          	beqz	a0,14050 <_vfprintf_r+0x24bc>
   1404c:	9e5fe06f          	j	12a30 <_vfprintf_r+0xe9c>
   14050:	0ac12583          	lw	a1,172(sp)
   14054:	01812783          	lw	a5,24(sp)
   14058:	0cc12603          	lw	a2,204(sp)
   1405c:	00098413          	mv	s0,s3
   14060:	40b785b3          	sub	a1,a5,a1
   14064:	ca1fe06f          	j	12d04 <_vfprintf_r+0x1170>
   14068:	0ac12783          	lw	a5,172(sp)
   1406c:	00f12a23          	sw	a5,20(sp)
   14070:	00070793          	mv	a5,a4
   14074:	aadff06f          	j	13b20 <_vfprintf_r+0x1f8c>
   14078:	fff00793          	li	a5,-1
   1407c:	00f12223          	sw	a5,4(sp)
   14080:	e99fd06f          	j	11f18 <_vfprintf_r+0x384>
   14084:	08010593          	add	a1,sp,128
   14088:	000b0513          	mv	a0,s6
   1408c:	04e12c23          	sw	a4,88(sp)
   14090:	04c12a23          	sw	a2,84(sp)
   14094:	05112823          	sw	a7,80(sp)
   14098:	04d12623          	sw	a3,76(sp)
   1409c:	09f12823          	sw	t6,144(sp)
   140a0:	03f12023          	sw	t6,32(sp)
   140a4:	09e12a23          	sw	t5,148(sp)
   140a8:	01e12e23          	sw	t5,28(sp)
   140ac:	09d12c23          	sw	t4,152(sp)
   140b0:	01d12c23          	sw	t4,24(sp)
   140b4:	00b12a23          	sw	a1,20(sp)
   140b8:	09812e23          	sw	s8,156(sp)
   140bc:	08012023          	sw	zero,128(sp)
   140c0:	08012223          	sw	zero,132(sp)
   140c4:	08012423          	sw	zero,136(sp)
   140c8:	08012623          	sw	zero,140(sp)
   140cc:	4e90a0ef          	jal	1edb4 <__eqtf2>
   140d0:	01412583          	lw	a1,20(sp)
   140d4:	01812e83          	lw	t4,24(sp)
   140d8:	01c12f03          	lw	t5,28(sp)
   140dc:	02012f83          	lw	t6,32(sp)
   140e0:	04c12683          	lw	a3,76(sp)
   140e4:	05012883          	lw	a7,80(sp)
   140e8:	05412603          	lw	a2,84(sp)
   140ec:	05812703          	lw	a4,88(sp)
   140f0:	28051663          	bnez	a0,1437c <_vfprintf_r+0x27e8>
   140f4:	0ac12783          	lw	a5,172(sp)
   140f8:	00f70733          	add	a4,a4,a5
   140fc:	00f12a23          	sw	a5,20(sp)
   14100:	41a707b3          	sub	a5,a4,s10
   14104:	00f12c23          	sw	a5,24(sp)
   14108:	01412783          	lw	a5,20(sp)
   1410c:	001df713          	and	a4,s11,1
   14110:	01476733          	or	a4,a4,s4
   14114:	26f05e63          	blez	a5,14390 <_vfprintf_r+0x27fc>
   14118:	24071063          	bnez	a4,14358 <_vfprintf_r+0x27c4>
   1411c:	01412b03          	lw	s6,20(sp)
   14120:	06600893          	li	a7,102
   14124:	400dfe13          	and	t3,s11,1024
   14128:	160e1463          	bnez	t3,14290 <_vfprintf_r+0x26fc>
   1412c:	fffb4693          	not	a3,s6
   14130:	41f6d693          	sra	a3,a3,0x1f
   14134:	00db7c33          	and	s8,s6,a3
   14138:	e65ff06f          	j	13f9c <_vfprintf_r+0x2408>
   1413c:	01812783          	lw	a5,24(sp)
   14140:	02812703          	lw	a4,40(sp)
   14144:	06700893          	li	a7,103
   14148:	00e78b33          	add	s6,a5,a4
   1414c:	01412783          	lw	a5,20(sp)
   14150:	fcf04ae3          	bgtz	a5,14124 <_vfprintf_r+0x2590>
   14154:	40fb0f33          	sub	t5,s6,a5
   14158:	001f0b13          	add	s6,t5,1
   1415c:	fffb4693          	not	a3,s6
   14160:	41f6d693          	sra	a3,a3,0x1f
   14164:	00db7c33          	and	s8,s6,a3
   14168:	e35ff06f          	j	13f9c <_vfprintf_r+0x2408>
   1416c:	00022837          	lui	a6,0x22
   14170:	ff000593          	li	a1,-16
   14174:	40a00a33          	neg	s4,a0
   14178:	33480813          	add	a6,a6,820 # 22334 <zeroes.0>
   1417c:	06b55e63          	bge	a0,a1,141f8 <_vfprintf_r+0x2664>
   14180:	01212a23          	sw	s2,20(sp)
   14184:	01000b13          	li	s6,16
   14188:	00700893          	li	a7,7
   1418c:	00080913          	mv	s2,a6
   14190:	00c0006f          	j	1419c <_vfprintf_r+0x2608>
   14194:	ff0a0a13          	add	s4,s4,-16 # 3ffdfff0 <__BSS_END__+0x3ffbc418>
   14198:	054b5c63          	bge	s6,s4,141f0 <_vfprintf_r+0x265c>
   1419c:	01060613          	add	a2,a2,16
   141a0:	00170713          	add	a4,a4,1
   141a4:	01242023          	sw	s2,0(s0)
   141a8:	01642223          	sw	s6,4(s0)
   141ac:	0cc12623          	sw	a2,204(sp)
   141b0:	0ce12423          	sw	a4,200(sp)
   141b4:	00840413          	add	s0,s0,8
   141b8:	fce8dee3          	bge	a7,a4,14194 <_vfprintf_r+0x2600>
   141bc:	0c410613          	add	a2,sp,196
   141c0:	00048593          	mv	a1,s1
   141c4:	000b8513          	mv	a0,s7
   141c8:	45c000ef          	jal	14624 <__sprint_r>
   141cc:	00050463          	beqz	a0,141d4 <_vfprintf_r+0x2640>
   141d0:	861fe06f          	j	12a30 <_vfprintf_r+0xe9c>
   141d4:	0cc12603          	lw	a2,204(sp)
   141d8:	0c812703          	lw	a4,200(sp)
   141dc:	00098413          	mv	s0,s3
   141e0:	00700893          	li	a7,7
   141e4:	fb1ff06f          	j	14194 <_vfprintf_r+0x2600>
   141e8:	000d8613          	mv	a2,s11
   141ec:	b18fe06f          	j	12504 <_vfprintf_r+0x970>
   141f0:	00090813          	mv	a6,s2
   141f4:	01412903          	lw	s2,20(sp)
   141f8:	01460633          	add	a2,a2,s4
   141fc:	00170713          	add	a4,a4,1
   14200:	01042023          	sw	a6,0(s0)
   14204:	01442223          	sw	s4,4(s0)
   14208:	0cc12623          	sw	a2,204(sp)
   1420c:	0ce12423          	sw	a4,200(sp)
   14210:	00700593          	li	a1,7
   14214:	aee5d463          	bge	a1,a4,134fc <_vfprintf_r+0x1968>
   14218:	0c410613          	add	a2,sp,196
   1421c:	00048593          	mv	a1,s1
   14220:	000b8513          	mv	a0,s7
   14224:	400000ef          	jal	14624 <__sprint_r>
   14228:	00050463          	beqz	a0,14230 <_vfprintf_r+0x269c>
   1422c:	805fe06f          	j	12a30 <_vfprintf_r+0xe9c>
   14230:	0cc12603          	lw	a2,204(sp)
   14234:	0c812703          	lw	a4,200(sp)
   14238:	00098413          	mv	s0,s3
   1423c:	bf0ff06f          	j	1362c <_vfprintf_r+0x1a98>
   14240:	0b610693          	add	a3,sp,182
   14244:	00061863          	bnez	a2,14254 <_vfprintf_r+0x26c0>
   14248:	03000693          	li	a3,48
   1424c:	0ad10b23          	sb	a3,182(sp)
   14250:	0b710693          	add	a3,sp,183
   14254:	19010793          	add	a5,sp,400
   14258:	40f68633          	sub	a2,a3,a5
   1425c:	030a0713          	add	a4,s4,48
   14260:	0dd60793          	add	a5,a2,221
   14264:	00e68023          	sb	a4,0(a3)
   14268:	02f12e23          	sw	a5,60(sp)
   1426c:	860ff06f          	j	132cc <_vfprintf_r+0x1738>
   14270:	00012423          	sw	zero,8(sp)
   14274:	00600a13          	li	s4,6
   14278:	f29fd06f          	j	121a0 <_vfprintf_r+0x60c>
   1427c:	001df713          	and	a4,s11,1
   14280:	00071463          	bnez	a4,14288 <_vfprintf_r+0x26f4>
   14284:	868ff06f          	j	132ec <_vfprintf_r+0x1758>
   14288:	85cff06f          	j	132e4 <_vfprintf_r+0x1750>
   1428c:	06700893          	li	a7,103
   14290:	03812603          	lw	a2,56(sp)
   14294:	0ff00693          	li	a3,255
   14298:	00064703          	lbu	a4,0(a2)
   1429c:	14d70c63          	beq	a4,a3,143f4 <_vfprintf_r+0x2860>
   142a0:	01412783          	lw	a5,20(sp)
   142a4:	00000513          	li	a0,0
   142a8:	00000593          	li	a1,0
   142ac:	00f75e63          	bge	a4,a5,142c8 <_vfprintf_r+0x2734>
   142b0:	40e787b3          	sub	a5,a5,a4
   142b4:	00164703          	lbu	a4,1(a2)
   142b8:	04070863          	beqz	a4,14308 <_vfprintf_r+0x2774>
   142bc:	00158593          	add	a1,a1,1
   142c0:	00160613          	add	a2,a2,1
   142c4:	fed714e3          	bne	a4,a3,142ac <_vfprintf_r+0x2718>
   142c8:	02c12c23          	sw	a2,56(sp)
   142cc:	00b12e23          	sw	a1,28(sp)
   142d0:	02a12023          	sw	a0,32(sp)
   142d4:	00f12a23          	sw	a5,20(sp)
   142d8:	02012783          	lw	a5,32(sp)
   142dc:	01c12703          	lw	a4,28(sp)
   142e0:	04012583          	lw	a1,64(sp)
   142e4:	05112623          	sw	a7,76(sp)
   142e8:	00e78533          	add	a0,a5,a4
   142ec:	3690d0ef          	jal	21e54 <__mulsi3>
   142f0:	01650b33          	add	s6,a0,s6
   142f4:	fffb4693          	not	a3,s6
   142f8:	41f6d693          	sra	a3,a3,0x1f
   142fc:	04c12883          	lw	a7,76(sp)
   14300:	00db7c33          	and	s8,s6,a3
   14304:	80cff06f          	j	13310 <_vfprintf_r+0x177c>
   14308:	00064703          	lbu	a4,0(a2)
   1430c:	00150513          	add	a0,a0,1
   14310:	fb5ff06f          	j	142c4 <_vfprintf_r+0x2730>
   14314:	00090c13          	mv	s8,s2
   14318:	001a0693          	add	a3,s4,1
   1431c:	01c12883          	lw	a7,28(sp)
   14320:	02012d83          	lw	s11,32(sp)
   14324:	03c12c83          	lw	s9,60(sp)
   14328:	04812403          	lw	s0,72(sp)
   1432c:	01812903          	lw	s2,24(sp)
   14330:	04c12b83          	lw	s7,76(sp)
   14334:	05012483          	lw	s1,80(sp)
   14338:	05412d03          	lw	s10,84(sp)
   1433c:	00dc06b3          	add	a3,s8,a3
   14340:	03000613          	li	a2,48
   14344:	ba0a48e3          	bltz	s4,13ef4 <_vfprintf_r+0x2360>
   14348:	001c0c13          	add	s8,s8,1
   1434c:	fecc0fa3          	sb	a2,-1(s8)
   14350:	ff869ce3          	bne	a3,s8,14348 <_vfprintf_r+0x27b4>
   14354:	ba1ff06f          	j	13ef4 <_vfprintf_r+0x2360>
   14358:	02812703          	lw	a4,40(sp)
   1435c:	06600893          	li	a7,102
   14360:	00ea0f33          	add	t5,s4,a4
   14364:	00ff0b33          	add	s6,t5,a5
   14368:	dbdff06f          	j	14124 <_vfprintf_r+0x2590>
   1436c:	00022737          	lui	a4,0x22
   14370:	03470793          	add	a5,a4,52 # 22034 <__clzsi2+0x108>
   14374:	00f12a23          	sw	a5,20(sp)
   14378:	941ff06f          	j	13cb8 <_vfprintf_r+0x2124>
   1437c:	00100513          	li	a0,1
   14380:	40d506b3          	sub	a3,a0,a3
   14384:	0ad12623          	sw	a3,172(sp)
   14388:	00d70733          	add	a4,a4,a3
   1438c:	f28ff06f          	j	13ab4 <_vfprintf_r+0x1f20>
   14390:	00071a63          	bnez	a4,143a4 <_vfprintf_r+0x2810>
   14394:	00100c13          	li	s8,1
   14398:	06600893          	li	a7,102
   1439c:	00100b13          	li	s6,1
   143a0:	bfdff06f          	j	13f9c <_vfprintf_r+0x2408>
   143a4:	02812783          	lw	a5,40(sp)
   143a8:	06600893          	li	a7,102
   143ac:	00178f13          	add	t5,a5,1
   143b0:	014f0b33          	add	s6,t5,s4
   143b4:	fffb4693          	not	a3,s6
   143b8:	41f6d693          	sra	a3,a3,0x1f
   143bc:	00db7c33          	and	s8,s6,a3
   143c0:	bddff06f          	j	13f9c <_vfprintf_r+0x2408>
   143c4:	00200793          	li	a5,2
   143c8:	02f12e23          	sw	a5,60(sp)
   143cc:	f01fe06f          	j	132cc <_vfprintf_r+0x1738>
   143d0:	00c12783          	lw	a5,12(sp)
   143d4:	0007aa03          	lw	s4,0(a5)
   143d8:	00478793          	add	a5,a5,4
   143dc:	000a5463          	bgez	s4,143e4 <_vfprintf_r+0x2850>
   143e0:	fff00a13          	li	s4,-1
   143e4:	00194883          	lbu	a7,1(s2)
   143e8:	00f12623          	sw	a5,12(sp)
   143ec:	00068913          	mv	s2,a3
   143f0:	949fd06f          	j	11d38 <_vfprintf_r+0x1a4>
   143f4:	02012023          	sw	zero,32(sp)
   143f8:	00012e23          	sw	zero,28(sp)
   143fc:	eddff06f          	j	142d8 <_vfprintf_r+0x2744>
   14400:	04500613          	li	a2,69
   14404:	08010593          	add	a1,sp,128
   14408:	eacff06f          	j	13ab4 <_vfprintf_r+0x1f20>
   1440c:	00c4d783          	lhu	a5,12(s1)
   14410:	0407e793          	or	a5,a5,64
   14414:	00f49623          	sh	a5,12(s1)
   14418:	acdfd06f          	j	11ee4 <_vfprintf_r+0x350>

0001441c <vfprintf>:
   1441c:	00050793          	mv	a5,a0
   14420:	f101a503          	lw	a0,-240(gp) # 23820 <_impure_ptr>
   14424:	00060693          	mv	a3,a2
   14428:	00058613          	mv	a2,a1
   1442c:	00078593          	mv	a1,a5
   14430:	f64fd06f          	j	11b94 <_vfprintf_r>

00014434 <__sbprintf>:
   14434:	b8010113          	add	sp,sp,-1152
   14438:	00c59783          	lh	a5,12(a1)
   1443c:	00e5d703          	lhu	a4,14(a1)
   14440:	46812c23          	sw	s0,1144(sp)
   14444:	00058413          	mv	s0,a1
   14448:	000105b7          	lui	a1,0x10
   1444c:	ffd58593          	add	a1,a1,-3 # fffd <exit-0xa3>
   14450:	06442e03          	lw	t3,100(s0)
   14454:	01c42303          	lw	t1,28(s0)
   14458:	02442883          	lw	a7,36(s0)
   1445c:	01071713          	sll	a4,a4,0x10
   14460:	00b7f7b3          	and	a5,a5,a1
   14464:	00e7e7b3          	or	a5,a5,a4
   14468:	40000813          	li	a6,1024
   1446c:	00f12a23          	sw	a5,20(sp)
   14470:	00810593          	add	a1,sp,8
   14474:	07010793          	add	a5,sp,112
   14478:	46912a23          	sw	s1,1140(sp)
   1447c:	47212823          	sw	s2,1136(sp)
   14480:	46112e23          	sw	ra,1148(sp)
   14484:	00050913          	mv	s2,a0
   14488:	07c12623          	sw	t3,108(sp)
   1448c:	02612223          	sw	t1,36(sp)
   14490:	03112623          	sw	a7,44(sp)
   14494:	00f12423          	sw	a5,8(sp)
   14498:	00f12c23          	sw	a5,24(sp)
   1449c:	01012823          	sw	a6,16(sp)
   144a0:	01012e23          	sw	a6,28(sp)
   144a4:	02012023          	sw	zero,32(sp)
   144a8:	eecfd0ef          	jal	11b94 <_vfprintf_r>
   144ac:	00050493          	mv	s1,a0
   144b0:	02055c63          	bgez	a0,144e8 <__sbprintf+0xb4>
   144b4:	01415783          	lhu	a5,20(sp)
   144b8:	0407f793          	and	a5,a5,64
   144bc:	00078863          	beqz	a5,144cc <__sbprintf+0x98>
   144c0:	00c45783          	lhu	a5,12(s0)
   144c4:	0407e793          	or	a5,a5,64
   144c8:	00f41623          	sh	a5,12(s0)
   144cc:	47c12083          	lw	ra,1148(sp)
   144d0:	47812403          	lw	s0,1144(sp)
   144d4:	47012903          	lw	s2,1136(sp)
   144d8:	00048513          	mv	a0,s1
   144dc:	47412483          	lw	s1,1140(sp)
   144e0:	48010113          	add	sp,sp,1152
   144e4:	00008067          	ret
   144e8:	00810593          	add	a1,sp,8
   144ec:	00090513          	mv	a0,s2
   144f0:	071010ef          	jal	15d60 <_fflush_r>
   144f4:	fc0500e3          	beqz	a0,144b4 <__sbprintf+0x80>
   144f8:	fff00493          	li	s1,-1
   144fc:	fb9ff06f          	j	144b4 <__sbprintf+0x80>

00014500 <__sprint_r.part.0>:
   14500:	0645a783          	lw	a5,100(a1)
   14504:	fd010113          	add	sp,sp,-48
   14508:	01612823          	sw	s6,16(sp)
   1450c:	02112623          	sw	ra,44(sp)
   14510:	01279713          	sll	a4,a5,0x12
   14514:	00060b13          	mv	s6,a2
   14518:	0e075863          	bgez	a4,14608 <__sprint_r.part.0+0x108>
   1451c:	00862783          	lw	a5,8(a2)
   14520:	03212023          	sw	s2,32(sp)
   14524:	01312e23          	sw	s3,28(sp)
   14528:	01512a23          	sw	s5,20(sp)
   1452c:	01712623          	sw	s7,12(sp)
   14530:	00058913          	mv	s2,a1
   14534:	00062b83          	lw	s7,0(a2)
   14538:	00050993          	mv	s3,a0
   1453c:	fff00a93          	li	s5,-1
   14540:	0a078863          	beqz	a5,145f0 <__sprint_r.part.0+0xf0>
   14544:	02812423          	sw	s0,40(sp)
   14548:	02912223          	sw	s1,36(sp)
   1454c:	01412c23          	sw	s4,24(sp)
   14550:	01812423          	sw	s8,8(sp)
   14554:	004bac03          	lw	s8,4(s7)
   14558:	000ba403          	lw	s0,0(s7)
   1455c:	002c5a13          	srl	s4,s8,0x2
   14560:	060a0663          	beqz	s4,145cc <__sprint_r.part.0+0xcc>
   14564:	00000493          	li	s1,0
   14568:	00c0006f          	j	14574 <__sprint_r.part.0+0x74>
   1456c:	00440413          	add	s0,s0,4
   14570:	049a0c63          	beq	s4,s1,145c8 <__sprint_r.part.0+0xc8>
   14574:	00042583          	lw	a1,0(s0)
   14578:	00090613          	mv	a2,s2
   1457c:	00098513          	mv	a0,s3
   14580:	00c020ef          	jal	1658c <_fputwc_r>
   14584:	00148493          	add	s1,s1,1
   14588:	ff5512e3          	bne	a0,s5,1456c <__sprint_r.part.0+0x6c>
   1458c:	02812403          	lw	s0,40(sp)
   14590:	02412483          	lw	s1,36(sp)
   14594:	02012903          	lw	s2,32(sp)
   14598:	01c12983          	lw	s3,28(sp)
   1459c:	01812a03          	lw	s4,24(sp)
   145a0:	01412a83          	lw	s5,20(sp)
   145a4:	00c12b83          	lw	s7,12(sp)
   145a8:	00812c03          	lw	s8,8(sp)
   145ac:	fff00513          	li	a0,-1
   145b0:	02c12083          	lw	ra,44(sp)
   145b4:	000b2423          	sw	zero,8(s6)
   145b8:	000b2223          	sw	zero,4(s6)
   145bc:	01012b03          	lw	s6,16(sp)
   145c0:	03010113          	add	sp,sp,48
   145c4:	00008067          	ret
   145c8:	008b2783          	lw	a5,8(s6)
   145cc:	ffcc7c13          	and	s8,s8,-4
   145d0:	418787b3          	sub	a5,a5,s8
   145d4:	00fb2423          	sw	a5,8(s6)
   145d8:	008b8b93          	add	s7,s7,8
   145dc:	f6079ce3          	bnez	a5,14554 <__sprint_r.part.0+0x54>
   145e0:	02812403          	lw	s0,40(sp)
   145e4:	02412483          	lw	s1,36(sp)
   145e8:	01812a03          	lw	s4,24(sp)
   145ec:	00812c03          	lw	s8,8(sp)
   145f0:	02012903          	lw	s2,32(sp)
   145f4:	01c12983          	lw	s3,28(sp)
   145f8:	01412a83          	lw	s5,20(sp)
   145fc:	00c12b83          	lw	s7,12(sp)
   14600:	00000513          	li	a0,0
   14604:	fadff06f          	j	145b0 <__sprint_r.part.0+0xb0>
   14608:	03d010ef          	jal	15e44 <__sfvwrite_r>
   1460c:	02c12083          	lw	ra,44(sp)
   14610:	000b2423          	sw	zero,8(s6)
   14614:	000b2223          	sw	zero,4(s6)
   14618:	01012b03          	lw	s6,16(sp)
   1461c:	03010113          	add	sp,sp,48
   14620:	00008067          	ret

00014624 <__sprint_r>:
   14624:	00862703          	lw	a4,8(a2)
   14628:	00070463          	beqz	a4,14630 <__sprint_r+0xc>
   1462c:	ed5ff06f          	j	14500 <__sprint_r.part.0>
   14630:	00062223          	sw	zero,4(a2)
   14634:	00000513          	li	a0,0
   14638:	00008067          	ret

0001463c <_vfiprintf_r>:
   1463c:	ed010113          	add	sp,sp,-304
   14640:	13212023          	sw	s2,288(sp)
   14644:	11312e23          	sw	s3,284(sp)
   14648:	11412c23          	sw	s4,280(sp)
   1464c:	11812423          	sw	s8,264(sp)
   14650:	12112623          	sw	ra,300(sp)
   14654:	11612823          	sw	s6,272(sp)
   14658:	00050a13          	mv	s4,a0
   1465c:	00058913          	mv	s2,a1
   14660:	00060c13          	mv	s8,a2
   14664:	00068993          	mv	s3,a3
   14668:	00050863          	beqz	a0,14678 <_vfiprintf_r+0x3c>
   1466c:	03452783          	lw	a5,52(a0)
   14670:	00079463          	bnez	a5,14678 <_vfiprintf_r+0x3c>
   14674:	16c0106f          	j	157e0 <_vfiprintf_r+0x11a4>
   14678:	00c91783          	lh	a5,12(s2)
   1467c:	01279713          	sll	a4,a5,0x12
   14680:	02074663          	bltz	a4,146ac <_vfiprintf_r+0x70>
   14684:	06492703          	lw	a4,100(s2)
   14688:	00002637          	lui	a2,0x2
   1468c:	ffffe6b7          	lui	a3,0xffffe
   14690:	00c7e7b3          	or	a5,a5,a2
   14694:	fff68693          	add	a3,a3,-1 # ffffdfff <__BSS_END__+0xfffda427>
   14698:	01079793          	sll	a5,a5,0x10
   1469c:	4107d793          	sra	a5,a5,0x10
   146a0:	00d77733          	and	a4,a4,a3
   146a4:	00f91623          	sh	a5,12(s2)
   146a8:	06e92223          	sw	a4,100(s2)
   146ac:	0087f713          	and	a4,a5,8
   146b0:	14070463          	beqz	a4,147f8 <_vfiprintf_r+0x1bc>
   146b4:	01092703          	lw	a4,16(s2)
   146b8:	14070063          	beqz	a4,147f8 <_vfiprintf_r+0x1bc>
   146bc:	01a7f793          	and	a5,a5,26
   146c0:	00a00713          	li	a4,10
   146c4:	14e78c63          	beq	a5,a4,1481c <_vfiprintf_r+0x1e0>
   146c8:	000227b7          	lui	a5,0x22
   146cc:	12912223          	sw	s1,292(sp)
   146d0:	11512a23          	sw	s5,276(sp)
   146d4:	04c10493          	add	s1,sp,76
   146d8:	00000b13          	li	s6,0
   146dc:	35478793          	add	a5,a5,852 # 22354 <blanks.1+0x10>
   146e0:	00022ab7          	lui	s5,0x22
   146e4:	12812423          	sw	s0,296(sp)
   146e8:	11912223          	sw	s9,260(sp)
   146ec:	11712623          	sw	s7,268(sp)
   146f0:	11a12023          	sw	s10,256(sp)
   146f4:	0fb12e23          	sw	s11,252(sp)
   146f8:	04912023          	sw	s1,64(sp)
   146fc:	04012423          	sw	zero,72(sp)
   14700:	04012223          	sw	zero,68(sp)
   14704:	00048713          	mv	a4,s1
   14708:	00012223          	sw	zero,4(sp)
   1470c:	00012c23          	sw	zero,24(sp)
   14710:	00012e23          	sw	zero,28(sp)
   14714:	02012023          	sw	zero,32(sp)
   14718:	00f12023          	sw	a5,0(sp)
   1471c:	01000413          	li	s0,16
   14720:	4c0a8a93          	add	s5,s5,1216 # 224c0 <zeroes.0>
   14724:	000b0c93          	mv	s9,s6
   14728:	00098813          	mv	a6,s3
   1472c:	000c4783          	lbu	a5,0(s8)
   14730:	34078263          	beqz	a5,14a74 <_vfiprintf_r+0x438>
   14734:	000c0b93          	mv	s7,s8
   14738:	02500693          	li	a3,37
   1473c:	36d78c63          	beq	a5,a3,14ab4 <_vfiprintf_r+0x478>
   14740:	001bc783          	lbu	a5,1(s7)
   14744:	001b8b93          	add	s7,s7,1
   14748:	fe079ae3          	bnez	a5,1473c <_vfiprintf_r+0x100>
   1474c:	418b89b3          	sub	s3,s7,s8
   14750:	338b8263          	beq	s7,s8,14a74 <_vfiprintf_r+0x438>
   14754:	04812683          	lw	a3,72(sp)
   14758:	04412783          	lw	a5,68(sp)
   1475c:	01872023          	sw	s8,0(a4)
   14760:	00d986b3          	add	a3,s3,a3
   14764:	00178793          	add	a5,a5,1
   14768:	01372223          	sw	s3,4(a4)
   1476c:	04d12423          	sw	a3,72(sp)
   14770:	04f12223          	sw	a5,68(sp)
   14774:	00700613          	li	a2,7
   14778:	00870713          	add	a4,a4,8
   1477c:	02f65463          	bge	a2,a5,147a4 <_vfiprintf_r+0x168>
   14780:	4e0688e3          	beqz	a3,15470 <_vfiprintf_r+0xe34>
   14784:	04010613          	add	a2,sp,64
   14788:	00090593          	mv	a1,s2
   1478c:	000a0513          	mv	a0,s4
   14790:	01012423          	sw	a6,8(sp)
   14794:	d6dff0ef          	jal	14500 <__sprint_r.part.0>
   14798:	00812803          	lw	a6,8(sp)
   1479c:	0c051a63          	bnez	a0,14870 <_vfiprintf_r+0x234>
   147a0:	00048713          	mv	a4,s1
   147a4:	000bc783          	lbu	a5,0(s7)
   147a8:	013c8cb3          	add	s9,s9,s3
   147ac:	2c078463          	beqz	a5,14a74 <_vfiprintf_r+0x438>
   147b0:	00000313          	li	t1,0
   147b4:	001bc783          	lbu	a5,1(s7)
   147b8:	001b8c13          	add	s8,s7,1
   147bc:	02010da3          	sb	zero,59(sp)
   147c0:	fff00d13          	li	s10,-1
   147c4:	00000b13          	li	s6,0
   147c8:	05a00993          	li	s3,90
   147cc:	00030b93          	mv	s7,t1
   147d0:	00070d93          	mv	s11,a4
   147d4:	001c0c13          	add	s8,s8,1
   147d8:	00078613          	mv	a2,a5
   147dc:	fe060693          	add	a3,a2,-32 # 1fe0 <exit-0xe0c0>
   147e0:	10d9ec63          	bltu	s3,a3,148f8 <_vfiprintf_r+0x2bc>
   147e4:	00012783          	lw	a5,0(sp)
   147e8:	00269693          	sll	a3,a3,0x2
   147ec:	00f686b3          	add	a3,a3,a5
   147f0:	0006a783          	lw	a5,0(a3)
   147f4:	00078067          	jr	a5
   147f8:	00090593          	mv	a1,s2
   147fc:	000a0513          	mv	a0,s4
   14800:	359010ef          	jal	16358 <__swsetup_r>
   14804:	00050463          	beqz	a0,1480c <_vfiprintf_r+0x1d0>
   14808:	0f00106f          	j	158f8 <_vfiprintf_r+0x12bc>
   1480c:	00c91783          	lh	a5,12(s2)
   14810:	00a00713          	li	a4,10
   14814:	01a7f793          	and	a5,a5,26
   14818:	eae798e3          	bne	a5,a4,146c8 <_vfiprintf_r+0x8c>
   1481c:	00e91783          	lh	a5,14(s2)
   14820:	ea07c4e3          	bltz	a5,146c8 <_vfiprintf_r+0x8c>
   14824:	12c12083          	lw	ra,300(sp)
   14828:	11012b03          	lw	s6,272(sp)
   1482c:	00098693          	mv	a3,s3
   14830:	000c0613          	mv	a2,s8
   14834:	11c12983          	lw	s3,284(sp)
   14838:	10812c03          	lw	s8,264(sp)
   1483c:	00090593          	mv	a1,s2
   14840:	000a0513          	mv	a0,s4
   14844:	12012903          	lw	s2,288(sp)
   14848:	11812a03          	lw	s4,280(sp)
   1484c:	13010113          	add	sp,sp,304
   14850:	0e40106f          	j	15934 <__sbprintf>
   14854:	04010613          	add	a2,sp,64
   14858:	00090593          	mv	a1,s2
   1485c:	000a0513          	mv	a0,s4
   14860:	01012423          	sw	a6,8(sp)
   14864:	c9dff0ef          	jal	14500 <__sprint_r.part.0>
   14868:	00812803          	lw	a6,8(sp)
   1486c:	1e050c63          	beqz	a0,14a64 <_vfiprintf_r+0x428>
   14870:	000c8b13          	mv	s6,s9
   14874:	00c95783          	lhu	a5,12(s2)
   14878:	12812403          	lw	s0,296(sp)
   1487c:	12412483          	lw	s1,292(sp)
   14880:	0407f793          	and	a5,a5,64
   14884:	11412a83          	lw	s5,276(sp)
   14888:	10c12b83          	lw	s7,268(sp)
   1488c:	10412c83          	lw	s9,260(sp)
   14890:	10012d03          	lw	s10,256(sp)
   14894:	0fc12d83          	lw	s11,252(sp)
   14898:	00078463          	beqz	a5,148a0 <_vfiprintf_r+0x264>
   1489c:	05c0106f          	j	158f8 <_vfiprintf_r+0x12bc>
   148a0:	12c12083          	lw	ra,300(sp)
   148a4:	12012903          	lw	s2,288(sp)
   148a8:	11c12983          	lw	s3,284(sp)
   148ac:	11812a03          	lw	s4,280(sp)
   148b0:	10812c03          	lw	s8,264(sp)
   148b4:	000b0513          	mv	a0,s6
   148b8:	11012b03          	lw	s6,272(sp)
   148bc:	13010113          	add	sp,sp,304
   148c0:	00008067          	ret
   148c4:	00000b13          	li	s6,0
   148c8:	fd060793          	add	a5,a2,-48
   148cc:	00900593          	li	a1,9
   148d0:	000c4603          	lbu	a2,0(s8)
   148d4:	002b1693          	sll	a3,s6,0x2
   148d8:	01668b33          	add	s6,a3,s6
   148dc:	001b1b13          	sll	s6,s6,0x1
   148e0:	01678b33          	add	s6,a5,s6
   148e4:	fd060793          	add	a5,a2,-48
   148e8:	001c0c13          	add	s8,s8,1
   148ec:	fef5f2e3          	bgeu	a1,a5,148d0 <_vfiprintf_r+0x294>
   148f0:	fe060693          	add	a3,a2,-32
   148f4:	eed9f8e3          	bgeu	s3,a3,147e4 <_vfiprintf_r+0x1a8>
   148f8:	000b8313          	mv	t1,s7
   148fc:	000d8713          	mv	a4,s11
   14900:	16060a63          	beqz	a2,14a74 <_vfiprintf_r+0x438>
   14904:	08c10623          	sb	a2,140(sp)
   14908:	02010da3          	sb	zero,59(sp)
   1490c:	00100d93          	li	s11,1
   14910:	00100e93          	li	t4,1
   14914:	08c10b93          	add	s7,sp,140
   14918:	00000d13          	li	s10,0
   1491c:	00000f93          	li	t6,0
   14920:	04412683          	lw	a3,68(sp)
   14924:	08437293          	and	t0,t1,132
   14928:	04812783          	lw	a5,72(sp)
   1492c:	00168613          	add	a2,a3,1
   14930:	00060593          	mv	a1,a2
   14934:	00029663          	bnez	t0,14940 <_vfiprintf_r+0x304>
   14938:	41bb09b3          	sub	s3,s6,s11
   1493c:	1f3044e3          	bgtz	s3,15324 <_vfiprintf_r+0xce8>
   14940:	03b14603          	lbu	a2,59(sp)
   14944:	02060a63          	beqz	a2,14978 <_vfiprintf_r+0x33c>
   14948:	03b10693          	add	a3,sp,59
   1494c:	00178793          	add	a5,a5,1
   14950:	00d72023          	sw	a3,0(a4)
   14954:	00100693          	li	a3,1
   14958:	00d72223          	sw	a3,4(a4)
   1495c:	04f12423          	sw	a5,72(sp)
   14960:	04b12223          	sw	a1,68(sp)
   14964:	00700693          	li	a3,7
   14968:	0eb6c2e3          	blt	a3,a1,1524c <_vfiprintf_r+0xc10>
   1496c:	00058693          	mv	a3,a1
   14970:	00870713          	add	a4,a4,8
   14974:	00158593          	add	a1,a1,1
   14978:	060f8863          	beqz	t6,149e8 <_vfiprintf_r+0x3ac>
   1497c:	03c10693          	add	a3,sp,60
   14980:	00278793          	add	a5,a5,2
   14984:	00d72023          	sw	a3,0(a4)
   14988:	00200693          	li	a3,2
   1498c:	00d72223          	sw	a3,4(a4)
   14990:	04f12423          	sw	a5,72(sp)
   14994:	04b12223          	sw	a1,68(sp)
   14998:	00700693          	li	a3,7
   1499c:	12b6d0e3          	bge	a3,a1,152bc <_vfiprintf_r+0xc80>
   149a0:	360784e3          	beqz	a5,15508 <_vfiprintf_r+0xecc>
   149a4:	04010613          	add	a2,sp,64
   149a8:	00090593          	mv	a1,s2
   149ac:	000a0513          	mv	a0,s4
   149b0:	01012a23          	sw	a6,20(sp)
   149b4:	01d12823          	sw	t4,16(sp)
   149b8:	00512623          	sw	t0,12(sp)
   149bc:	00612423          	sw	t1,8(sp)
   149c0:	b41ff0ef          	jal	14500 <__sprint_r.part.0>
   149c4:	ea0516e3          	bnez	a0,14870 <_vfiprintf_r+0x234>
   149c8:	04412683          	lw	a3,68(sp)
   149cc:	04812783          	lw	a5,72(sp)
   149d0:	01412803          	lw	a6,20(sp)
   149d4:	01012e83          	lw	t4,16(sp)
   149d8:	00c12283          	lw	t0,12(sp)
   149dc:	00812303          	lw	t1,8(sp)
   149e0:	00048713          	mv	a4,s1
   149e4:	00168593          	add	a1,a3,1
   149e8:	08000613          	li	a2,128
   149ec:	64c28e63          	beq	t0,a2,15048 <_vfiprintf_r+0xa0c>
   149f0:	41dd0d33          	sub	s10,s10,t4
   149f4:	77a04663          	bgtz	s10,15160 <_vfiprintf_r+0xb24>
   149f8:	00fe87b3          	add	a5,t4,a5
   149fc:	01772023          	sw	s7,0(a4)
   14a00:	01d72223          	sw	t4,4(a4)
   14a04:	04f12423          	sw	a5,72(sp)
   14a08:	04b12223          	sw	a1,68(sp)
   14a0c:	00700693          	li	a3,7
   14a10:	62b6d063          	bge	a3,a1,15030 <_vfiprintf_r+0x9f4>
   14a14:	0a078863          	beqz	a5,14ac4 <_vfiprintf_r+0x488>
   14a18:	04010613          	add	a2,sp,64
   14a1c:	00090593          	mv	a1,s2
   14a20:	000a0513          	mv	a0,s4
   14a24:	01012623          	sw	a6,12(sp)
   14a28:	00612423          	sw	t1,8(sp)
   14a2c:	ad5ff0ef          	jal	14500 <__sprint_r.part.0>
   14a30:	e40510e3          	bnez	a0,14870 <_vfiprintf_r+0x234>
   14a34:	04812783          	lw	a5,72(sp)
   14a38:	00c12803          	lw	a6,12(sp)
   14a3c:	00812303          	lw	t1,8(sp)
   14a40:	00048713          	mv	a4,s1
   14a44:	00437313          	and	t1,t1,4
   14a48:	00030663          	beqz	t1,14a54 <_vfiprintf_r+0x418>
   14a4c:	41bb09b3          	sub	s3,s6,s11
   14a50:	09304663          	bgtz	s3,14adc <_vfiprintf_r+0x4a0>
   14a54:	01bb5463          	bge	s6,s11,14a5c <_vfiprintf_r+0x420>
   14a58:	000d8b13          	mv	s6,s11
   14a5c:	016c8cb3          	add	s9,s9,s6
   14a60:	de079ae3          	bnez	a5,14854 <_vfiprintf_r+0x218>
   14a64:	000c4783          	lbu	a5,0(s8)
   14a68:	04012223          	sw	zero,68(sp)
   14a6c:	00048713          	mv	a4,s1
   14a70:	cc0792e3          	bnez	a5,14734 <_vfiprintf_r+0xf8>
   14a74:	04812783          	lw	a5,72(sp)
   14a78:	000c8b13          	mv	s6,s9
   14a7c:	de078ce3          	beqz	a5,14874 <_vfiprintf_r+0x238>
   14a80:	04010613          	add	a2,sp,64
   14a84:	00090593          	mv	a1,s2
   14a88:	000a0513          	mv	a0,s4
   14a8c:	a75ff0ef          	jal	14500 <__sprint_r.part.0>
   14a90:	de5ff06f          	j	14874 <_vfiprintf_r+0x238>
   14a94:	00082b03          	lw	s6,0(a6)
   14a98:	00480813          	add	a6,a6,4
   14a9c:	200b4a63          	bltz	s6,14cb0 <_vfiprintf_r+0x674>
   14aa0:	000c4783          	lbu	a5,0(s8)
   14aa4:	d31ff06f          	j	147d4 <_vfiprintf_r+0x198>
   14aa8:	000c4783          	lbu	a5,0(s8)
   14aac:	020beb93          	or	s7,s7,32
   14ab0:	d25ff06f          	j	147d4 <_vfiprintf_r+0x198>
   14ab4:	418b89b3          	sub	s3,s7,s8
   14ab8:	c98b9ee3          	bne	s7,s8,14754 <_vfiprintf_r+0x118>
   14abc:	000bc783          	lbu	a5,0(s7)
   14ac0:	cedff06f          	j	147ac <_vfiprintf_r+0x170>
   14ac4:	04012223          	sw	zero,68(sp)
   14ac8:	00437313          	and	t1,t1,4
   14acc:	140308e3          	beqz	t1,1541c <_vfiprintf_r+0xde0>
   14ad0:	41bb09b3          	sub	s3,s6,s11
   14ad4:	153054e3          	blez	s3,1541c <_vfiprintf_r+0xde0>
   14ad8:	00048713          	mv	a4,s1
   14adc:	01000693          	li	a3,16
   14ae0:	04412603          	lw	a2,68(sp)
   14ae4:	5f36dae3          	bge	a3,s3,158d8 <_vfiprintf_r+0x129c>
   14ae8:	00022e37          	lui	t3,0x22
   14aec:	4d0e0e13          	add	t3,t3,1232 # 224d0 <blanks.1>
   14af0:	01612423          	sw	s6,8(sp)
   14af4:	01000b93          	li	s7,16
   14af8:	00700d13          	li	s10,7
   14afc:	01012623          	sw	a6,12(sp)
   14b00:	000e0b13          	mv	s6,t3
   14b04:	0180006f          	j	14b1c <_vfiprintf_r+0x4e0>
   14b08:	00260593          	add	a1,a2,2
   14b0c:	00870713          	add	a4,a4,8
   14b10:	00068613          	mv	a2,a3
   14b14:	ff098993          	add	s3,s3,-16
   14b18:	053bd863          	bge	s7,s3,14b68 <_vfiprintf_r+0x52c>
   14b1c:	01078793          	add	a5,a5,16
   14b20:	00160693          	add	a3,a2,1
   14b24:	01672023          	sw	s6,0(a4)
   14b28:	01772223          	sw	s7,4(a4)
   14b2c:	04f12423          	sw	a5,72(sp)
   14b30:	04d12223          	sw	a3,68(sp)
   14b34:	fcdd5ae3          	bge	s10,a3,14b08 <_vfiprintf_r+0x4cc>
   14b38:	50078063          	beqz	a5,15038 <_vfiprintf_r+0x9fc>
   14b3c:	04010613          	add	a2,sp,64
   14b40:	00090593          	mv	a1,s2
   14b44:	000a0513          	mv	a0,s4
   14b48:	9b9ff0ef          	jal	14500 <__sprint_r.part.0>
   14b4c:	d20512e3          	bnez	a0,14870 <_vfiprintf_r+0x234>
   14b50:	04412603          	lw	a2,68(sp)
   14b54:	ff098993          	add	s3,s3,-16
   14b58:	04812783          	lw	a5,72(sp)
   14b5c:	00048713          	mv	a4,s1
   14b60:	00160593          	add	a1,a2,1
   14b64:	fb3bcce3          	blt	s7,s3,14b1c <_vfiprintf_r+0x4e0>
   14b68:	000b0e13          	mv	t3,s6
   14b6c:	00c12803          	lw	a6,12(sp)
   14b70:	00812b03          	lw	s6,8(sp)
   14b74:	013787b3          	add	a5,a5,s3
   14b78:	01c72023          	sw	t3,0(a4)
   14b7c:	01372223          	sw	s3,4(a4)
   14b80:	04f12423          	sw	a5,72(sp)
   14b84:	04b12223          	sw	a1,68(sp)
   14b88:	00700713          	li	a4,7
   14b8c:	ecb754e3          	bge	a4,a1,14a54 <_vfiprintf_r+0x418>
   14b90:	080786e3          	beqz	a5,1541c <_vfiprintf_r+0xde0>
   14b94:	04010613          	add	a2,sp,64
   14b98:	00090593          	mv	a1,s2
   14b9c:	000a0513          	mv	a0,s4
   14ba0:	01012423          	sw	a6,8(sp)
   14ba4:	95dff0ef          	jal	14500 <__sprint_r.part.0>
   14ba8:	cc0514e3          	bnez	a0,14870 <_vfiprintf_r+0x234>
   14bac:	04812783          	lw	a5,72(sp)
   14bb0:	00812803          	lw	a6,8(sp)
   14bb4:	ea1ff06f          	j	14a54 <_vfiprintf_r+0x418>
   14bb8:	000b8313          	mv	t1,s7
   14bbc:	00082b83          	lw	s7,0(a6)
   14bc0:	02010da3          	sb	zero,59(sp)
   14bc4:	000d8713          	mv	a4,s11
   14bc8:	00480993          	add	s3,a6,4
   14bcc:	440b86e3          	beqz	s7,15818 <_vfiprintf_r+0x11dc>
   14bd0:	01b12623          	sw	s11,12(sp)
   14bd4:	00612423          	sw	t1,8(sp)
   14bd8:	360d46e3          	bltz	s10,15744 <_vfiprintf_r+0x1108>
   14bdc:	000d0613          	mv	a2,s10
   14be0:	00000593          	li	a1,0
   14be4:	000b8513          	mv	a0,s7
   14be8:	24d010ef          	jal	16634 <memchr>
   14bec:	00812303          	lw	t1,8(sp)
   14bf0:	00c12703          	lw	a4,12(sp)
   14bf4:	000d0e93          	mv	t4,s10
   14bf8:	00050463          	beqz	a0,14c00 <_vfiprintf_r+0x5c4>
   14bfc:	41750eb3          	sub	t4,a0,s7
   14c00:	03b14783          	lbu	a5,59(sp)
   14c04:	fffecd93          	not	s11,t4
   14c08:	41fddd93          	sra	s11,s11,0x1f
   14c0c:	01befdb3          	and	s11,t4,s11
   14c10:	00098813          	mv	a6,s3
   14c14:	00000d13          	li	s10,0
   14c18:	00000f93          	li	t6,0
   14c1c:	d00782e3          	beqz	a5,14920 <_vfiprintf_r+0x2e4>
   14c20:	001d8d93          	add	s11,s11,1
   14c24:	00237f93          	and	t6,t1,2
   14c28:	ce0f8ce3          	beqz	t6,14920 <_vfiprintf_r+0x2e4>
   14c2c:	002d8d93          	add	s11,s11,2
   14c30:	00200f93          	li	t6,2
   14c34:	cedff06f          	j	14920 <_vfiprintf_r+0x2e4>
   14c38:	00082783          	lw	a5,0(a6)
   14c3c:	000b8313          	mv	t1,s7
   14c40:	000d8713          	mv	a4,s11
   14c44:	02010da3          	sb	zero,59(sp)
   14c48:	00480813          	add	a6,a6,4
   14c4c:	08f10623          	sb	a5,140(sp)
   14c50:	00100d93          	li	s11,1
   14c54:	00100e93          	li	t4,1
   14c58:	08c10b93          	add	s7,sp,140
   14c5c:	cbdff06f          	j	14918 <_vfiprintf_r+0x2dc>
   14c60:	000b8313          	mv	t1,s7
   14c64:	02037793          	and	a5,t1,32
   14c68:	000d8713          	mv	a4,s11
   14c6c:	24078a63          	beqz	a5,14ec0 <_vfiprintf_r+0x884>
   14c70:	00780813          	add	a6,a6,7
   14c74:	ff887813          	and	a6,a6,-8
   14c78:	00482683          	lw	a3,4(a6)
   14c7c:	00082983          	lw	s3,0(a6)
   14c80:	00880813          	add	a6,a6,8
   14c84:	00068d93          	mv	s11,a3
   14c88:	0c06c063          	bltz	a3,14d48 <_vfiprintf_r+0x70c>
   14c8c:	0c0d4e63          	bltz	s10,14d68 <_vfiprintf_r+0x72c>
   14c90:	01b9e6b3          	or	a3,s3,s11
   14c94:	f7f37313          	and	t1,t1,-129
   14c98:	0c069863          	bnez	a3,14d68 <_vfiprintf_r+0x72c>
   14c9c:	420d12e3          	bnez	s10,158c0 <_vfiprintf_r+0x1284>
   14ca0:	00000d93          	li	s11,0
   14ca4:	00000e93          	li	t4,0
   14ca8:	0f010b93          	add	s7,sp,240
   14cac:	0e80006f          	j	14d94 <_vfiprintf_r+0x758>
   14cb0:	41600b33          	neg	s6,s6
   14cb4:	000c4783          	lbu	a5,0(s8)
   14cb8:	004beb93          	or	s7,s7,4
   14cbc:	b19ff06f          	j	147d4 <_vfiprintf_r+0x198>
   14cc0:	02b00693          	li	a3,43
   14cc4:	000c4783          	lbu	a5,0(s8)
   14cc8:	02d10da3          	sb	a3,59(sp)
   14ccc:	b09ff06f          	j	147d4 <_vfiprintf_r+0x198>
   14cd0:	000c4783          	lbu	a5,0(s8)
   14cd4:	06800693          	li	a3,104
   14cd8:	32d780e3          	beq	a5,a3,157f8 <_vfiprintf_r+0x11bc>
   14cdc:	040beb93          	or	s7,s7,64
   14ce0:	af5ff06f          	j	147d4 <_vfiprintf_r+0x198>
   14ce4:	000d8713          	mv	a4,s11
   14ce8:	010bee93          	or	t4,s7,16
   14cec:	020ef793          	and	a5,t4,32
   14cf0:	7a078263          	beqz	a5,15494 <_vfiprintf_r+0xe58>
   14cf4:	00780813          	add	a6,a6,7
   14cf8:	ff887813          	and	a6,a6,-8
   14cfc:	00082983          	lw	s3,0(a6)
   14d00:	00482d83          	lw	s11,4(a6)
   14d04:	00880813          	add	a6,a6,8
   14d08:	02010da3          	sb	zero,59(sp)
   14d0c:	000e8313          	mv	t1,t4
   14d10:	040d4c63          	bltz	s10,14d68 <_vfiprintf_r+0x72c>
   14d14:	01b9e6b3          	or	a3,s3,s11
   14d18:	f7fef313          	and	t1,t4,-129
   14d1c:	00100793          	li	a5,1
   14d20:	04069463          	bnez	a3,14d68 <_vfiprintf_r+0x72c>
   14d24:	0c0d1663          	bnez	s10,14df0 <_vfiprintf_r+0x7b4>
   14d28:	f6079ce3          	bnez	a5,14ca0 <_vfiprintf_r+0x664>
   14d2c:	001efe93          	and	t4,t4,1
   14d30:	100e82e3          	beqz	t4,15634 <_vfiprintf_r+0xff8>
   14d34:	03000793          	li	a5,48
   14d38:	0ef107a3          	sb	a5,239(sp)
   14d3c:	000e8d93          	mv	s11,t4
   14d40:	0ef10b93          	add	s7,sp,239
   14d44:	0500006f          	j	14d94 <_vfiprintf_r+0x758>
   14d48:	02d00613          	li	a2,45
   14d4c:	013036b3          	snez	a3,s3
   14d50:	41b00e33          	neg	t3,s11
   14d54:	02c10da3          	sb	a2,59(sp)
   14d58:	40de0db3          	sub	s11,t3,a3
   14d5c:	413009b3          	neg	s3,s3
   14d60:	000d4463          	bltz	s10,14d68 <_vfiprintf_r+0x72c>
   14d64:	f7f37313          	and	t1,t1,-129
   14d68:	000d92e3          	bnez	s11,1556c <_vfiprintf_r+0xf30>
   14d6c:	00900693          	li	a3,9
   14d70:	7f36ee63          	bltu	a3,s3,1556c <_vfiprintf_r+0xf30>
   14d74:	03098793          	add	a5,s3,48
   14d78:	0ff7f793          	zext.b	a5,a5
   14d7c:	0ef107a3          	sb	a5,239(sp)
   14d80:	000d0d93          	mv	s11,s10
   14d84:	01a04463          	bgtz	s10,14d8c <_vfiprintf_r+0x750>
   14d88:	00100d93          	li	s11,1
   14d8c:	00100e93          	li	t4,1
   14d90:	0ef10b93          	add	s7,sp,239
   14d94:	03b14783          	lbu	a5,59(sp)
   14d98:	e80794e3          	bnez	a5,14c20 <_vfiprintf_r+0x5e4>
   14d9c:	e89ff06f          	j	14c24 <_vfiprintf_r+0x5e8>
   14da0:	000086b7          	lui	a3,0x8
   14da4:	83068693          	add	a3,a3,-2000 # 7830 <exit-0x8870>
   14da8:	02d11e23          	sh	a3,60(sp)
   14dac:	000226b7          	lui	a3,0x22
   14db0:	03468693          	add	a3,a3,52 # 22034 <__clzsi2+0x108>
   14db4:	00082783          	lw	a5,0(a6)
   14db8:	000d8713          	mv	a4,s11
   14dbc:	00000593          	li	a1,0
   14dc0:	002be313          	or	t1,s7,2
   14dc4:	00480813          	add	a6,a6,4
   14dc8:	00d12223          	sw	a3,4(sp)
   14dcc:	02010da3          	sb	zero,59(sp)
   14dd0:	500d4463          	bltz	s10,152d8 <_vfiprintf_r+0xc9c>
   14dd4:	00b7e6b3          	or	a3,a5,a1
   14dd8:	f7f37613          	and	a2,t1,-129
   14ddc:	4e069863          	bnez	a3,152cc <_vfiprintf_r+0xc90>
   14de0:	00030e93          	mv	t4,t1
   14de4:	00200793          	li	a5,2
   14de8:	00060313          	mv	t1,a2
   14dec:	f20d0ee3          	beqz	s10,14d28 <_vfiprintf_r+0x6ec>
   14df0:	00100693          	li	a3,1
   14df4:	2cd786e3          	beq	a5,a3,158c0 <_vfiprintf_r+0x1284>
   14df8:	00200693          	li	a3,2
   14dfc:	22d78ee3          	beq	a5,a3,15838 <_vfiprintf_r+0x11fc>
   14e00:	00000793          	li	a5,0
   14e04:	00000593          	li	a1,0
   14e08:	0f010b93          	add	s7,sp,240
   14e0c:	01d59613          	sll	a2,a1,0x1d
   14e10:	0077f693          	and	a3,a5,7
   14e14:	0037d793          	srl	a5,a5,0x3
   14e18:	03068693          	add	a3,a3,48
   14e1c:	00f667b3          	or	a5,a2,a5
   14e20:	0035d593          	srl	a1,a1,0x3
   14e24:	fedb8fa3          	sb	a3,-1(s7)
   14e28:	00b7e633          	or	a2,a5,a1
   14e2c:	000b8513          	mv	a0,s7
   14e30:	fffb8b93          	add	s7,s7,-1
   14e34:	fc061ce3          	bnez	a2,14e0c <_vfiprintf_r+0x7d0>
   14e38:	00137793          	and	a5,t1,1
   14e3c:	4c078863          	beqz	a5,1530c <_vfiprintf_r+0xcd0>
   14e40:	03000793          	li	a5,48
   14e44:	4cf68463          	beq	a3,a5,1530c <_vfiprintf_r+0xcd0>
   14e48:	ffe50513          	add	a0,a0,-2
   14e4c:	fefb8fa3          	sb	a5,-1(s7)
   14e50:	0f010793          	add	a5,sp,240
   14e54:	40a78eb3          	sub	t4,a5,a0
   14e58:	000d0d93          	mv	s11,s10
   14e5c:	01dd4ee3          	blt	s10,t4,15678 <_vfiprintf_r+0x103c>
   14e60:	00050b93          	mv	s7,a0
   14e64:	f31ff06f          	j	14d94 <_vfiprintf_r+0x758>
   14e68:	020bf793          	and	a5,s7,32
   14e6c:	000d8713          	mv	a4,s11
   14e70:	7e079063          	bnez	a5,15650 <_vfiprintf_r+0x1014>
   14e74:	010bf793          	and	a5,s7,16
   14e78:	180798e3          	bnez	a5,15808 <_vfiprintf_r+0x11cc>
   14e7c:	040bf793          	and	a5,s7,64
   14e80:	1e079ce3          	bnez	a5,15878 <_vfiprintf_r+0x123c>
   14e84:	200bf313          	and	t1,s7,512
   14e88:	180300e3          	beqz	t1,15808 <_vfiprintf_r+0x11cc>
   14e8c:	00082783          	lw	a5,0(a6)
   14e90:	00480813          	add	a6,a6,4
   14e94:	01978023          	sb	s9,0(a5)
   14e98:	895ff06f          	j	1472c <_vfiprintf_r+0xf0>
   14e9c:	000c4783          	lbu	a5,0(s8)
   14ea0:	06c00693          	li	a3,108
   14ea4:	14d782e3          	beq	a5,a3,157e8 <_vfiprintf_r+0x11ac>
   14ea8:	010beb93          	or	s7,s7,16
   14eac:	929ff06f          	j	147d4 <_vfiprintf_r+0x198>
   14eb0:	010be313          	or	t1,s7,16
   14eb4:	02037793          	and	a5,t1,32
   14eb8:	000d8713          	mv	a4,s11
   14ebc:	da079ae3          	bnez	a5,14c70 <_vfiprintf_r+0x634>
   14ec0:	01037693          	and	a3,t1,16
   14ec4:	00082783          	lw	a5,0(a6)
   14ec8:	00480813          	add	a6,a6,4
   14ecc:	5a069c63          	bnez	a3,15484 <_vfiprintf_r+0xe48>
   14ed0:	04037693          	and	a3,t1,64
   14ed4:	5a068463          	beqz	a3,1547c <_vfiprintf_r+0xe40>
   14ed8:	01079993          	sll	s3,a5,0x10
   14edc:	4109d993          	sra	s3,s3,0x10
   14ee0:	41f9dd93          	sra	s11,s3,0x1f
   14ee4:	000d8693          	mv	a3,s11
   14ee8:	da1ff06f          	j	14c88 <_vfiprintf_r+0x64c>
   14eec:	000d8713          	mv	a4,s11
   14ef0:	010be693          	or	a3,s7,16
   14ef4:	0206f793          	and	a5,a3,32
   14ef8:	5c078c63          	beqz	a5,154d0 <_vfiprintf_r+0xe94>
   14efc:	00780813          	add	a6,a6,7
   14f00:	ff887813          	and	a6,a6,-8
   14f04:	00082783          	lw	a5,0(a6)
   14f08:	00482583          	lw	a1,4(a6)
   14f0c:	00880813          	add	a6,a6,8
   14f10:	02010da3          	sb	zero,59(sp)
   14f14:	bff6f313          	and	t1,a3,-1025
   14f18:	ee0d48e3          	bltz	s10,14e08 <_vfiprintf_r+0x7cc>
   14f1c:	00b7e633          	or	a2,a5,a1
   14f20:	b7f6f693          	and	a3,a3,-1153
   14f24:	0a0616e3          	bnez	a2,157d0 <_vfiprintf_r+0x1194>
   14f28:	00030e93          	mv	t4,t1
   14f2c:	00000793          	li	a5,0
   14f30:	00068313          	mv	t1,a3
   14f34:	df1ff06f          	j	14d24 <_vfiprintf_r+0x6e8>
   14f38:	000a0513          	mv	a0,s4
   14f3c:	01012423          	sw	a6,8(sp)
   14f40:	175010ef          	jal	168b4 <_localeconv_r>
   14f44:	00452783          	lw	a5,4(a0)
   14f48:	00078513          	mv	a0,a5
   14f4c:	02f12023          	sw	a5,32(sp)
   14f50:	e71fb0ef          	jal	10dc0 <strlen>
   14f54:	00050793          	mv	a5,a0
   14f58:	000a0513          	mv	a0,s4
   14f5c:	00f12e23          	sw	a5,28(sp)
   14f60:	155010ef          	jal	168b4 <_localeconv_r>
   14f64:	00852703          	lw	a4,8(a0)
   14f68:	01c12783          	lw	a5,28(sp)
   14f6c:	00812803          	lw	a6,8(sp)
   14f70:	00e12c23          	sw	a4,24(sp)
   14f74:	b20786e3          	beqz	a5,14aa0 <_vfiprintf_r+0x464>
   14f78:	01812703          	lw	a4,24(sp)
   14f7c:	000c4783          	lbu	a5,0(s8)
   14f80:	84070ae3          	beqz	a4,147d4 <_vfiprintf_r+0x198>
   14f84:	00074683          	lbu	a3,0(a4)
   14f88:	840686e3          	beqz	a3,147d4 <_vfiprintf_r+0x198>
   14f8c:	400beb93          	or	s7,s7,1024
   14f90:	845ff06f          	j	147d4 <_vfiprintf_r+0x198>
   14f94:	000c4783          	lbu	a5,0(s8)
   14f98:	080beb93          	or	s7,s7,128
   14f9c:	839ff06f          	j	147d4 <_vfiprintf_r+0x198>
   14fa0:	000c4603          	lbu	a2,0(s8)
   14fa4:	02a00793          	li	a5,42
   14fa8:	001c0593          	add	a1,s8,1
   14fac:	14f60ae3          	beq	a2,a5,15900 <_vfiprintf_r+0x12c4>
   14fb0:	fd060793          	add	a5,a2,-48
   14fb4:	00900693          	li	a3,9
   14fb8:	00000d13          	li	s10,0
   14fbc:	00900513          	li	a0,9
   14fc0:	02f6e463          	bltu	a3,a5,14fe8 <_vfiprintf_r+0x9ac>
   14fc4:	0005c603          	lbu	a2,0(a1)
   14fc8:	002d1693          	sll	a3,s10,0x2
   14fcc:	01a68d33          	add	s10,a3,s10
   14fd0:	001d1d13          	sll	s10,s10,0x1
   14fd4:	00fd0d33          	add	s10,s10,a5
   14fd8:	fd060793          	add	a5,a2,-48
   14fdc:	00158593          	add	a1,a1,1
   14fe0:	fef572e3          	bgeu	a0,a5,14fc4 <_vfiprintf_r+0x988>
   14fe4:	6a0d4063          	bltz	s10,15684 <_vfiprintf_r+0x1048>
   14fe8:	00058c13          	mv	s8,a1
   14fec:	ff0ff06f          	j	147dc <_vfiprintf_r+0x1a0>
   14ff0:	000c4783          	lbu	a5,0(s8)
   14ff4:	001beb93          	or	s7,s7,1
   14ff8:	fdcff06f          	j	147d4 <_vfiprintf_r+0x198>
   14ffc:	03b14683          	lbu	a3,59(sp)
   15000:	000c4783          	lbu	a5,0(s8)
   15004:	fc069863          	bnez	a3,147d4 <_vfiprintf_r+0x198>
   15008:	02000693          	li	a3,32
   1500c:	02d10da3          	sb	a3,59(sp)
   15010:	fc4ff06f          	j	147d4 <_vfiprintf_r+0x198>
   15014:	00100713          	li	a4,1
   15018:	04e12223          	sw	a4,68(sp)
   1501c:	000e8793          	mv	a5,t4
   15020:	05712623          	sw	s7,76(sp)
   15024:	05d12823          	sw	t4,80(sp)
   15028:	05d12423          	sw	t4,72(sp)
   1502c:	00048713          	mv	a4,s1
   15030:	00870713          	add	a4,a4,8
   15034:	a11ff06f          	j	14a44 <_vfiprintf_r+0x408>
   15038:	00100593          	li	a1,1
   1503c:	00000613          	li	a2,0
   15040:	00048713          	mv	a4,s1
   15044:	ad1ff06f          	j	14b14 <_vfiprintf_r+0x4d8>
   15048:	41bb09b3          	sub	s3,s6,s11
   1504c:	9b3052e3          	blez	s3,149f0 <_vfiprintf_r+0x3b4>
   15050:	01000613          	li	a2,16
   15054:	09365ae3          	bge	a2,s3,158e8 <_vfiprintf_r+0x12ac>
   15058:	00022e37          	lui	t3,0x22
   1505c:	4c0e0e13          	add	t3,t3,1216 # 224c0 <zeroes.0>
   15060:	01612823          	sw	s6,16(sp)
   15064:	01000f13          	li	t5,16
   15068:	00700f93          	li	t6,7
   1506c:	00612423          	sw	t1,8(sp)
   15070:	01d12623          	sw	t4,12(sp)
   15074:	01012a23          	sw	a6,20(sp)
   15078:	000e0b13          	mv	s6,t3
   1507c:	0180006f          	j	15094 <_vfiprintf_r+0xa58>
   15080:	00268513          	add	a0,a3,2
   15084:	00870713          	add	a4,a4,8
   15088:	00060693          	mv	a3,a2
   1508c:	ff098993          	add	s3,s3,-16
   15090:	053f5c63          	bge	t5,s3,150e8 <_vfiprintf_r+0xaac>
   15094:	01078793          	add	a5,a5,16
   15098:	00168613          	add	a2,a3,1
   1509c:	01672023          	sw	s6,0(a4)
   150a0:	01e72223          	sw	t5,4(a4)
   150a4:	04f12423          	sw	a5,72(sp)
   150a8:	04c12223          	sw	a2,68(sp)
   150ac:	fccfdae3          	bge	t6,a2,15080 <_vfiprintf_r+0xa44>
   150b0:	18078663          	beqz	a5,1523c <_vfiprintf_r+0xc00>
   150b4:	04010613          	add	a2,sp,64
   150b8:	00090593          	mv	a1,s2
   150bc:	000a0513          	mv	a0,s4
   150c0:	c40ff0ef          	jal	14500 <__sprint_r.part.0>
   150c4:	fa051663          	bnez	a0,14870 <_vfiprintf_r+0x234>
   150c8:	04412683          	lw	a3,68(sp)
   150cc:	01000f13          	li	t5,16
   150d0:	ff098993          	add	s3,s3,-16
   150d4:	04812783          	lw	a5,72(sp)
   150d8:	00048713          	mv	a4,s1
   150dc:	00168513          	add	a0,a3,1
   150e0:	00700f93          	li	t6,7
   150e4:	fb3f48e3          	blt	t5,s3,15094 <_vfiprintf_r+0xa58>
   150e8:	000b0e13          	mv	t3,s6
   150ec:	00812303          	lw	t1,8(sp)
   150f0:	00c12e83          	lw	t4,12(sp)
   150f4:	01412803          	lw	a6,20(sp)
   150f8:	01012b03          	lw	s6,16(sp)
   150fc:	013787b3          	add	a5,a5,s3
   15100:	01c72023          	sw	t3,0(a4)
   15104:	01372223          	sw	s3,4(a4)
   15108:	04f12423          	sw	a5,72(sp)
   1510c:	04a12223          	sw	a0,68(sp)
   15110:	00700693          	li	a3,7
   15114:	52a6d663          	bge	a3,a0,15640 <_vfiprintf_r+0x1004>
   15118:	72078663          	beqz	a5,15844 <_vfiprintf_r+0x1208>
   1511c:	04010613          	add	a2,sp,64
   15120:	00090593          	mv	a1,s2
   15124:	000a0513          	mv	a0,s4
   15128:	01012823          	sw	a6,16(sp)
   1512c:	01d12623          	sw	t4,12(sp)
   15130:	00612423          	sw	t1,8(sp)
   15134:	bccff0ef          	jal	14500 <__sprint_r.part.0>
   15138:	f2051c63          	bnez	a0,14870 <_vfiprintf_r+0x234>
   1513c:	00c12e83          	lw	t4,12(sp)
   15140:	04412683          	lw	a3,68(sp)
   15144:	04812783          	lw	a5,72(sp)
   15148:	41dd0d33          	sub	s10,s10,t4
   1514c:	01012803          	lw	a6,16(sp)
   15150:	00812303          	lw	t1,8(sp)
   15154:	00048713          	mv	a4,s1
   15158:	00168593          	add	a1,a3,1
   1515c:	89a05ee3          	blez	s10,149f8 <_vfiprintf_r+0x3bc>
   15160:	00022e37          	lui	t3,0x22
   15164:	4c0e0e13          	add	t3,t3,1216 # 224c0 <zeroes.0>
   15168:	09a45e63          	bge	s0,s10,15204 <_vfiprintf_r+0xbc8>
   1516c:	01612823          	sw	s6,16(sp)
   15170:	00700993          	li	s3,7
   15174:	000d0b13          	mv	s6,s10
   15178:	00612423          	sw	t1,8(sp)
   1517c:	01d12623          	sw	t4,12(sp)
   15180:	01012a23          	sw	a6,20(sp)
   15184:	000a8d13          	mv	s10,s5
   15188:	0180006f          	j	151a0 <_vfiprintf_r+0xb64>
   1518c:	00268593          	add	a1,a3,2
   15190:	00870713          	add	a4,a4,8
   15194:	00060693          	mv	a3,a2
   15198:	ff0b0b13          	add	s6,s6,-16
   1519c:	05645863          	bge	s0,s6,151ec <_vfiprintf_r+0xbb0>
   151a0:	01078793          	add	a5,a5,16
   151a4:	00168613          	add	a2,a3,1
   151a8:	01572023          	sw	s5,0(a4)
   151ac:	00872223          	sw	s0,4(a4)
   151b0:	04f12423          	sw	a5,72(sp)
   151b4:	04c12223          	sw	a2,68(sp)
   151b8:	fcc9dae3          	bge	s3,a2,1518c <_vfiprintf_r+0xb50>
   151bc:	06078863          	beqz	a5,1522c <_vfiprintf_r+0xbf0>
   151c0:	04010613          	add	a2,sp,64
   151c4:	00090593          	mv	a1,s2
   151c8:	000a0513          	mv	a0,s4
   151cc:	b34ff0ef          	jal	14500 <__sprint_r.part.0>
   151d0:	ea051063          	bnez	a0,14870 <_vfiprintf_r+0x234>
   151d4:	04412683          	lw	a3,68(sp)
   151d8:	ff0b0b13          	add	s6,s6,-16
   151dc:	04812783          	lw	a5,72(sp)
   151e0:	00048713          	mv	a4,s1
   151e4:	00168593          	add	a1,a3,1
   151e8:	fb644ce3          	blt	s0,s6,151a0 <_vfiprintf_r+0xb64>
   151ec:	000d0e13          	mv	t3,s10
   151f0:	00812303          	lw	t1,8(sp)
   151f4:	000b0d13          	mv	s10,s6
   151f8:	00c12e83          	lw	t4,12(sp)
   151fc:	01412803          	lw	a6,20(sp)
   15200:	01012b03          	lw	s6,16(sp)
   15204:	01a787b3          	add	a5,a5,s10
   15208:	01c72023          	sw	t3,0(a4)
   1520c:	01a72223          	sw	s10,4(a4)
   15210:	04f12423          	sw	a5,72(sp)
   15214:	04b12223          	sw	a1,68(sp)
   15218:	00700693          	li	a3,7
   1521c:	20b6c863          	blt	a3,a1,1542c <_vfiprintf_r+0xdf0>
   15220:	00870713          	add	a4,a4,8
   15224:	00158593          	add	a1,a1,1
   15228:	fd0ff06f          	j	149f8 <_vfiprintf_r+0x3bc>
   1522c:	00100593          	li	a1,1
   15230:	00000693          	li	a3,0
   15234:	00048713          	mv	a4,s1
   15238:	f61ff06f          	j	15198 <_vfiprintf_r+0xb5c>
   1523c:	00100513          	li	a0,1
   15240:	00000693          	li	a3,0
   15244:	00048713          	mv	a4,s1
   15248:	e45ff06f          	j	1508c <_vfiprintf_r+0xa50>
   1524c:	04078a63          	beqz	a5,152a0 <_vfiprintf_r+0xc64>
   15250:	04010613          	add	a2,sp,64
   15254:	00090593          	mv	a1,s2
   15258:	000a0513          	mv	a0,s4
   1525c:	03012223          	sw	a6,36(sp)
   15260:	01d12a23          	sw	t4,20(sp)
   15264:	00512823          	sw	t0,16(sp)
   15268:	01f12623          	sw	t6,12(sp)
   1526c:	00612423          	sw	t1,8(sp)
   15270:	a90ff0ef          	jal	14500 <__sprint_r.part.0>
   15274:	de051e63          	bnez	a0,14870 <_vfiprintf_r+0x234>
   15278:	04412683          	lw	a3,68(sp)
   1527c:	04812783          	lw	a5,72(sp)
   15280:	02412803          	lw	a6,36(sp)
   15284:	01412e83          	lw	t4,20(sp)
   15288:	01012283          	lw	t0,16(sp)
   1528c:	00c12f83          	lw	t6,12(sp)
   15290:	00812303          	lw	t1,8(sp)
   15294:	00048713          	mv	a4,s1
   15298:	00168593          	add	a1,a3,1
   1529c:	edcff06f          	j	14978 <_vfiprintf_r+0x33c>
   152a0:	3c0f8463          	beqz	t6,15668 <_vfiprintf_r+0x102c>
   152a4:	03c10793          	add	a5,sp,60
   152a8:	04f12623          	sw	a5,76(sp)
   152ac:	00200793          	li	a5,2
   152b0:	04f12823          	sw	a5,80(sp)
   152b4:	00100593          	li	a1,1
   152b8:	00048713          	mv	a4,s1
   152bc:	00058693          	mv	a3,a1
   152c0:	00870713          	add	a4,a4,8
   152c4:	00158593          	add	a1,a1,1
   152c8:	f20ff06f          	j	149e8 <_vfiprintf_r+0x3ac>
   152cc:	00200693          	li	a3,2
   152d0:	00060313          	mv	t1,a2
   152d4:	b2068ae3          	beqz	a3,14e08 <_vfiprintf_r+0x7cc>
   152d8:	00412503          	lw	a0,4(sp)
   152dc:	0f010b93          	add	s7,sp,240
   152e0:	00f7f693          	and	a3,a5,15
   152e4:	00d506b3          	add	a3,a0,a3
   152e8:	0006c603          	lbu	a2,0(a3)
   152ec:	0047d793          	srl	a5,a5,0x4
   152f0:	01c59693          	sll	a3,a1,0x1c
   152f4:	00f6e7b3          	or	a5,a3,a5
   152f8:	0045d593          	srl	a1,a1,0x4
   152fc:	fecb8fa3          	sb	a2,-1(s7)
   15300:	00b7e6b3          	or	a3,a5,a1
   15304:	fffb8b93          	add	s7,s7,-1
   15308:	fc069ce3          	bnez	a3,152e0 <_vfiprintf_r+0xca4>
   1530c:	0f010793          	add	a5,sp,240
   15310:	41778eb3          	sub	t4,a5,s7
   15314:	000d0d93          	mv	s11,s10
   15318:	a7dd5ee3          	bge	s10,t4,14d94 <_vfiprintf_r+0x758>
   1531c:	000e8d93          	mv	s11,t4
   15320:	a75ff06f          	j	14d94 <_vfiprintf_r+0x758>
   15324:	01000593          	li	a1,16
   15328:	5b35d063          	bge	a1,s3,158c8 <_vfiprintf_r+0x128c>
   1532c:	00022e37          	lui	t3,0x22
   15330:	4d0e0e13          	add	t3,t3,1232 # 224d0 <blanks.1>
   15334:	03612223          	sw	s6,36(sp)
   15338:	01000f13          	li	t5,16
   1533c:	00700393          	li	t2,7
   15340:	00612423          	sw	t1,8(sp)
   15344:	01f12623          	sw	t6,12(sp)
   15348:	00512823          	sw	t0,16(sp)
   1534c:	01d12a23          	sw	t4,20(sp)
   15350:	03012423          	sw	a6,40(sp)
   15354:	000e0b13          	mv	s6,t3
   15358:	01c0006f          	j	15374 <_vfiprintf_r+0xd38>
   1535c:	00268513          	add	a0,a3,2
   15360:	00870713          	add	a4,a4,8
   15364:	00060693          	mv	a3,a2
   15368:	ff098993          	add	s3,s3,-16
   1536c:	053f5c63          	bge	t5,s3,153c4 <_vfiprintf_r+0xd88>
   15370:	00168613          	add	a2,a3,1
   15374:	01078793          	add	a5,a5,16
   15378:	01672023          	sw	s6,0(a4)
   1537c:	01e72223          	sw	t5,4(a4)
   15380:	04f12423          	sw	a5,72(sp)
   15384:	04c12223          	sw	a2,68(sp)
   15388:	fcc3dae3          	bge	t2,a2,1535c <_vfiprintf_r+0xd20>
   1538c:	08078063          	beqz	a5,1540c <_vfiprintf_r+0xdd0>
   15390:	04010613          	add	a2,sp,64
   15394:	00090593          	mv	a1,s2
   15398:	000a0513          	mv	a0,s4
   1539c:	964ff0ef          	jal	14500 <__sprint_r.part.0>
   153a0:	cc051863          	bnez	a0,14870 <_vfiprintf_r+0x234>
   153a4:	04412683          	lw	a3,68(sp)
   153a8:	01000f13          	li	t5,16
   153ac:	ff098993          	add	s3,s3,-16
   153b0:	04812783          	lw	a5,72(sp)
   153b4:	00048713          	mv	a4,s1
   153b8:	00168513          	add	a0,a3,1
   153bc:	00700393          	li	t2,7
   153c0:	fb3f48e3          	blt	t5,s3,15370 <_vfiprintf_r+0xd34>
   153c4:	000b0e13          	mv	t3,s6
   153c8:	00812303          	lw	t1,8(sp)
   153cc:	00c12f83          	lw	t6,12(sp)
   153d0:	01012283          	lw	t0,16(sp)
   153d4:	01412e83          	lw	t4,20(sp)
   153d8:	02812803          	lw	a6,40(sp)
   153dc:	02412b03          	lw	s6,36(sp)
   153e0:	013787b3          	add	a5,a5,s3
   153e4:	01c72023          	sw	t3,0(a4)
   153e8:	01372223          	sw	s3,4(a4)
   153ec:	04f12423          	sw	a5,72(sp)
   153f0:	04a12223          	sw	a0,68(sp)
   153f4:	00700693          	li	a3,7
   153f8:	12a6c063          	blt	a3,a0,15518 <_vfiprintf_r+0xedc>
   153fc:	00870713          	add	a4,a4,8
   15400:	00150593          	add	a1,a0,1
   15404:	00050693          	mv	a3,a0
   15408:	d38ff06f          	j	14940 <_vfiprintf_r+0x304>
   1540c:	00000693          	li	a3,0
   15410:	00100513          	li	a0,1
   15414:	00048713          	mv	a4,s1
   15418:	f51ff06f          	j	15368 <_vfiprintf_r+0xd2c>
   1541c:	01bb5463          	bge	s6,s11,15424 <_vfiprintf_r+0xde8>
   15420:	000d8b13          	mv	s6,s11
   15424:	016c8cb3          	add	s9,s9,s6
   15428:	e3cff06f          	j	14a64 <_vfiprintf_r+0x428>
   1542c:	be0784e3          	beqz	a5,15014 <_vfiprintf_r+0x9d8>
   15430:	04010613          	add	a2,sp,64
   15434:	00090593          	mv	a1,s2
   15438:	000a0513          	mv	a0,s4
   1543c:	01012823          	sw	a6,16(sp)
   15440:	01d12623          	sw	t4,12(sp)
   15444:	00612423          	sw	t1,8(sp)
   15448:	8b8ff0ef          	jal	14500 <__sprint_r.part.0>
   1544c:	c2051263          	bnez	a0,14870 <_vfiprintf_r+0x234>
   15450:	04412583          	lw	a1,68(sp)
   15454:	04812783          	lw	a5,72(sp)
   15458:	01012803          	lw	a6,16(sp)
   1545c:	00c12e83          	lw	t4,12(sp)
   15460:	00812303          	lw	t1,8(sp)
   15464:	00048713          	mv	a4,s1
   15468:	00158593          	add	a1,a1,1
   1546c:	d8cff06f          	j	149f8 <_vfiprintf_r+0x3bc>
   15470:	04012223          	sw	zero,68(sp)
   15474:	00048713          	mv	a4,s1
   15478:	b2cff06f          	j	147a4 <_vfiprintf_r+0x168>
   1547c:	20037693          	and	a3,t1,512
   15480:	40069a63          	bnez	a3,15894 <_vfiprintf_r+0x1258>
   15484:	41f7dd93          	sra	s11,a5,0x1f
   15488:	00078993          	mv	s3,a5
   1548c:	000d8693          	mv	a3,s11
   15490:	ff8ff06f          	j	14c88 <_vfiprintf_r+0x64c>
   15494:	010ef693          	and	a3,t4,16
   15498:	00082783          	lw	a5,0(a6)
   1549c:	00480813          	add	a6,a6,4
   154a0:	02069263          	bnez	a3,154c4 <_vfiprintf_r+0xe88>
   154a4:	040ef693          	and	a3,t4,64
   154a8:	00068a63          	beqz	a3,154bc <_vfiprintf_r+0xe80>
   154ac:	01079993          	sll	s3,a5,0x10
   154b0:	0109d993          	srl	s3,s3,0x10
   154b4:	00000d93          	li	s11,0
   154b8:	851ff06f          	j	14d08 <_vfiprintf_r+0x6cc>
   154bc:	200ef693          	and	a3,t4,512
   154c0:	3e069463          	bnez	a3,158a8 <_vfiprintf_r+0x126c>
   154c4:	00078993          	mv	s3,a5
   154c8:	00000d93          	li	s11,0
   154cc:	83dff06f          	j	14d08 <_vfiprintf_r+0x6cc>
   154d0:	0106f613          	and	a2,a3,16
   154d4:	00082783          	lw	a5,0(a6)
   154d8:	00480813          	add	a6,a6,4
   154dc:	02061263          	bnez	a2,15500 <_vfiprintf_r+0xec4>
   154e0:	0406f613          	and	a2,a3,64
   154e4:	00060a63          	beqz	a2,154f8 <_vfiprintf_r+0xebc>
   154e8:	01079793          	sll	a5,a5,0x10
   154ec:	0107d793          	srl	a5,a5,0x10
   154f0:	00000593          	li	a1,0
   154f4:	a1dff06f          	j	14f10 <_vfiprintf_r+0x8d4>
   154f8:	2006f613          	and	a2,a3,512
   154fc:	38061663          	bnez	a2,15888 <_vfiprintf_r+0x124c>
   15500:	00000593          	li	a1,0
   15504:	a0dff06f          	j	14f10 <_vfiprintf_r+0x8d4>
   15508:	00100593          	li	a1,1
   1550c:	00000693          	li	a3,0
   15510:	00048713          	mv	a4,s1
   15514:	cd4ff06f          	j	149e8 <_vfiprintf_r+0x3ac>
   15518:	24078263          	beqz	a5,1575c <_vfiprintf_r+0x1120>
   1551c:	04010613          	add	a2,sp,64
   15520:	00090593          	mv	a1,s2
   15524:	000a0513          	mv	a0,s4
   15528:	03012223          	sw	a6,36(sp)
   1552c:	01d12a23          	sw	t4,20(sp)
   15530:	00512823          	sw	t0,16(sp)
   15534:	01f12623          	sw	t6,12(sp)
   15538:	00612423          	sw	t1,8(sp)
   1553c:	fc5fe0ef          	jal	14500 <__sprint_r.part.0>
   15540:	b2051863          	bnez	a0,14870 <_vfiprintf_r+0x234>
   15544:	04412683          	lw	a3,68(sp)
   15548:	04812783          	lw	a5,72(sp)
   1554c:	02412803          	lw	a6,36(sp)
   15550:	01412e83          	lw	t4,20(sp)
   15554:	01012283          	lw	t0,16(sp)
   15558:	00c12f83          	lw	t6,12(sp)
   1555c:	00812303          	lw	t1,8(sp)
   15560:	00048713          	mv	a4,s1
   15564:	00168593          	add	a1,a3,1
   15568:	bd8ff06f          	j	14940 <_vfiprintf_r+0x304>
   1556c:	40037793          	and	a5,t1,1024
   15570:	00000693          	li	a3,0
   15574:	0f010e93          	add	t4,sp,240
   15578:	01612623          	sw	s6,12(sp)
   1557c:	01a12823          	sw	s10,16(sp)
   15580:	03912223          	sw	s9,36(sp)
   15584:	03212423          	sw	s2,40(sp)
   15588:	01812d03          	lw	s10,24(sp)
   1558c:	00612423          	sw	t1,8(sp)
   15590:	00068b13          	mv	s6,a3
   15594:	00e12a23          	sw	a4,20(sp)
   15598:	00078c93          	mv	s9,a5
   1559c:	000e8913          	mv	s2,t4
   155a0:	03012623          	sw	a6,44(sp)
   155a4:	0280006f          	j	155cc <_vfiprintf_r+0xf90>
   155a8:	00a00613          	li	a2,10
