
build/oob-pointer-arithmetic:     file format elf32-littleriscv


Disassembly of section .text:

000100a0 <exit>:
   100a0:	ff010113          	add	sp,sp,-16
   100a4:	00000593          	li	a1,0
   100a8:	00812423          	sw	s0,8(sp)
   100ac:	00112623          	sw	ra,12(sp)
   100b0:	00050413          	mv	s0,a0
   100b4:	599000ef          	jal	10e4c <__call_exitprocs>
   100b8:	f1c1a783          	lw	a5,-228(gp) # 2382c <__stdio_exit_handler>
   100bc:	00078463          	beqz	a5,100c4 <exit+0x24>
   100c0:	000780e7          	jalr	a5
   100c4:	00040513          	mv	a0,s0
   100c8:	3190b0ef          	jal	1bbe0 <_exit>

000100cc <register_fini>:
   100cc:	00000793          	li	a5,0
   100d0:	00078863          	beqz	a5,100e0 <register_fini+0x14>
   100d4:	00017537          	lui	a0,0x17
   100d8:	92050513          	add	a0,a0,-1760 # 16920 <__libc_fini_array>
   100dc:	6a50006f          	j	10f80 <atexit>
   100e0:	00008067          	ret

000100e4 <init_semihosting>:
   100e4:	ff010113          	add	sp,sp,-16
   100e8:	00812423          	sw	s0,8(sp)
   100ec:	24818413          	add	s0,gp,584 # 23b58 <fdtable>
   100f0:	00112623          	sw	ra,12(sp)
   100f4:	00912223          	sw	s1,4(sp)
   100f8:	24818793          	add	a5,gp,584 # 23b58 <fdtable>
   100fc:	08040693          	add	a3,s0,128
   10100:	fff00713          	li	a4,-1
   10104:	00e7a023          	sw	a4,0(a5)
   10108:	00878793          	add	a5,a5,8
   1010c:	fed79ce3          	bne	a5,a3,10104 <init_semihosting+0x20>
   10110:	000224b7          	lui	s1,0x22
   10114:	00000593          	li	a1,0
   10118:	12c48513          	add	a0,s1,300 # 2212c <__clzsi2+0x200>
   1011c:	5b50b0ef          	jal	1bed0 <_open>
   10120:	00050793          	mv	a5,a0
   10124:	60100593          	li	a1,1537
   10128:	12c48513          	add	a0,s1,300
   1012c:	00f42023          	sw	a5,0(s0)
   10130:	00042223          	sw	zero,4(s0)
   10134:	59d0b0ef          	jal	1bed0 <_open>
   10138:	00050793          	mv	a5,a0
   1013c:	20900593          	li	a1,521
   10140:	12c48513          	add	a0,s1,300
   10144:	00f42423          	sw	a5,8(s0)
   10148:	00042623          	sw	zero,12(s0)
   1014c:	5850b0ef          	jal	1bed0 <_open>
   10150:	00c12083          	lw	ra,12(sp)
   10154:	00a42823          	sw	a0,16(s0)
   10158:	00042a23          	sw	zero,20(s0)
   1015c:	00812403          	lw	s0,8(sp)
   10160:	00412483          	lw	s1,4(sp)
   10164:	01010113          	add	sp,sp,16
   10168:	00008067          	ret

0001016c <_start>:
   1016c:	00013197          	auipc	gp,0x13
   10170:	7a418193          	add	gp,gp,1956 # 23910 <__global_pointer$>
   10174:	f1c18513          	add	a0,gp,-228 # 2382c <__stdio_exit_handler>
   10178:	2c818613          	add	a2,gp,712 # 23bd8 <__BSS_END__>
   1017c:	40a60633          	sub	a2,a2,a0
   10180:	00000593          	li	a1,0
   10184:	361000ef          	jal	10ce4 <memset>
   10188:	00001517          	auipc	a0,0x1
   1018c:	df850513          	add	a0,a0,-520 # 10f80 <atexit>
   10190:	00050863          	beqz	a0,101a0 <_start+0x34>
   10194:	00006517          	auipc	a0,0x6
   10198:	78c50513          	add	a0,a0,1932 # 16920 <__libc_fini_array>
   1019c:	5e5000ef          	jal	10f80 <atexit>
   101a0:	2a9000ef          	jal	10c48 <__libc_init_array>
   101a4:	00012503          	lw	a0,0(sp)
   101a8:	00410593          	add	a1,sp,4
   101ac:	00000613          	li	a2,0
   101b0:	090000ef          	jal	10240 <main>
   101b4:	eedff06f          	j	100a0 <exit>

000101b8 <__do_global_dtors_aux>:
   101b8:	ff010113          	add	sp,sp,-16
   101bc:	00812423          	sw	s0,8(sp)
   101c0:	f3c1c783          	lbu	a5,-196(gp) # 2384c <completed.1>
   101c4:	00112623          	sw	ra,12(sp)
   101c8:	02079263          	bnez	a5,101ec <__do_global_dtors_aux+0x34>
   101cc:	00000793          	li	a5,0
   101d0:	00078a63          	beqz	a5,101e4 <__do_global_dtors_aux+0x2c>
   101d4:	00023537          	lui	a0,0x23
   101d8:	00050513          	mv	a0,a0
   101dc:	00000097          	auipc	ra,0x0
   101e0:	000000e7          	jalr	zero # 0 <exit-0x100a0>
   101e4:	00100793          	li	a5,1
   101e8:	f2f18e23          	sb	a5,-196(gp) # 2384c <completed.1>
   101ec:	00c12083          	lw	ra,12(sp)
   101f0:	00812403          	lw	s0,8(sp)
   101f4:	01010113          	add	sp,sp,16
   101f8:	00008067          	ret

000101fc <frame_dummy>:
   101fc:	00000793          	li	a5,0
   10200:	00078c63          	beqz	a5,10218 <frame_dummy+0x1c>
   10204:	00023537          	lui	a0,0x23
   10208:	f4018593          	add	a1,gp,-192 # 23850 <object.0>
   1020c:	00050513          	mv	a0,a0
   10210:	00000317          	auipc	t1,0x0
   10214:	00000067          	jr	zero # 0 <exit-0x100a0>
   10218:	00008067          	ret

0001021c <_ZL20__gthread_key_deletei>:
   1021c:	fe010113          	add	sp,sp,-32
   10220:	00812e23          	sw	s0,28(sp)
   10224:	02010413          	add	s0,sp,32
   10228:	fea42623          	sw	a0,-20(s0)
   1022c:	00000793          	li	a5,0
   10230:	00078513          	mv	a0,a5
   10234:	01c12403          	lw	s0,28(sp)
   10238:	02010113          	add	sp,sp,32
   1023c:	00008067          	ret

00010240 <main>:
{
   10240:	fd010113          	add	sp,sp,-48
   10244:	02112623          	sw	ra,44(sp)
   10248:	02812423          	sw	s0,40(sp)
   1024c:	03010413          	add	s0,sp,48
    printf("Testing Out-Of-Bounds Pointer Arithmetic (C++)...\n");
   10250:	000227b7          	lui	a5,0x22
   10254:	f7878513          	add	a0,a5,-136 # 21f78 <__clzsi2+0x4c>
   10258:	620000ef          	jal	10878 <puts>
    int arr[4] = {100, 200, 300, 400};
   1025c:	000227b7          	lui	a5,0x22
   10260:	01078793          	add	a5,a5,16 # 22010 <__clzsi2+0xe4>
   10264:	0007a603          	lw	a2,0(a5)
   10268:	0047a683          	lw	a3,4(a5)
   1026c:	0087a703          	lw	a4,8(a5)
   10270:	00c7a783          	lw	a5,12(a5)
   10274:	fcc42c23          	sw	a2,-40(s0)
   10278:	fcd42e23          	sw	a3,-36(s0)
   1027c:	fee42023          	sw	a4,-32(s0)
   10280:	fef42223          	sw	a5,-28(s0)
    printf("Array base: %p\n", static_cast<const void*>(arr));
   10284:	fd840793          	add	a5,s0,-40
   10288:	00078593          	mv	a1,a5
   1028c:	000227b7          	lui	a5,0x22
   10290:	fac78513          	add	a0,a5,-84 # 21fac <__clzsi2+0x80>
   10294:	4c8000ef          	jal	1075c <printf>
    printf("Array end: %p\n", static_cast<const void*>(arr + 4));
   10298:	fd840793          	add	a5,s0,-40
   1029c:	01078793          	add	a5,a5,16
   102a0:	00078593          	mv	a1,a5
   102a4:	000227b7          	lui	a5,0x22
   102a8:	fbc78513          	add	a0,a5,-68 # 21fbc <__clzsi2+0x90>
   102ac:	4b0000ef          	jal	1075c <printf>
    int* p = arr + 10;
   102b0:	fd840793          	add	a5,s0,-40
   102b4:	02878793          	add	a5,a5,40
   102b8:	fef42623          	sw	a5,-20(s0)
    printf("Pointer moved to arr + 10: %p\n", static_cast<const void*>(p));
   102bc:	fec42583          	lw	a1,-20(s0)
   102c0:	000227b7          	lui	a5,0x22
   102c4:	fcc78513          	add	a0,a5,-52 # 21fcc <__clzsi2+0xa0>
   102c8:	494000ef          	jal	1075c <printf>
    int val = *p;
   102cc:	fec42783          	lw	a5,-20(s0)
   102d0:	0007a783          	lw	a5,0(a5)
   102d4:	fef42423          	sw	a5,-24(s0)
    printf("Read value: %d (UB on normal HW)\n", val);
   102d8:	fe842583          	lw	a1,-24(s0)
   102dc:	000227b7          	lui	a5,0x22
   102e0:	fec78513          	add	a0,a5,-20 # 21fec <__clzsi2+0xc0>
   102e4:	478000ef          	jal	1075c <printf>
    return 0;
   102e8:	00000793          	li	a5,0
}
   102ec:	00078513          	mv	a0,a5
   102f0:	02c12083          	lw	ra,44(sp)
   102f4:	02812403          	lw	s0,40(sp)
   102f8:	03010113          	add	sp,sp,48
   102fc:	00008067          	ret

00010300 <__fp_lock>:
   10300:	00000513          	li	a0,0
   10304:	00008067          	ret

00010308 <stdio_exit_handler>:
   10308:	00023637          	lui	a2,0x23
   1030c:	000165b7          	lui	a1,0x16
   10310:	00023537          	lui	a0,0x23
   10314:	11060613          	add	a2,a2,272 # 23110 <__sglue>
   10318:	a0058593          	add	a1,a1,-1536 # 15a00 <_fclose_r>
   1031c:	12050513          	add	a0,a0,288 # 23120 <_impure_data>
   10320:	3480006f          	j	10668 <_fwalk_sglue>

00010324 <cleanup_stdio>:
   10324:	00452583          	lw	a1,4(a0)
   10328:	ff010113          	add	sp,sp,-16
   1032c:	00812423          	sw	s0,8(sp)
   10330:	00112623          	sw	ra,12(sp)
   10334:	f5818793          	add	a5,gp,-168 # 23868 <__sf>
   10338:	00050413          	mv	s0,a0
   1033c:	00f58463          	beq	a1,a5,10344 <cleanup_stdio+0x20>
   10340:	6c0050ef          	jal	15a00 <_fclose_r>
   10344:	00842583          	lw	a1,8(s0)
   10348:	fc018793          	add	a5,gp,-64 # 238d0 <__sf+0x68>
   1034c:	00f58663          	beq	a1,a5,10358 <cleanup_stdio+0x34>
   10350:	00040513          	mv	a0,s0
   10354:	6ac050ef          	jal	15a00 <_fclose_r>
   10358:	00c42583          	lw	a1,12(s0)
   1035c:	02818793          	add	a5,gp,40 # 23938 <__global_pointer$+0x28>
   10360:	00f58c63          	beq	a1,a5,10378 <cleanup_stdio+0x54>
   10364:	00040513          	mv	a0,s0
   10368:	00812403          	lw	s0,8(sp)
   1036c:	00c12083          	lw	ra,12(sp)
   10370:	01010113          	add	sp,sp,16
   10374:	68c0506f          	j	15a00 <_fclose_r>
   10378:	00c12083          	lw	ra,12(sp)
   1037c:	00812403          	lw	s0,8(sp)
   10380:	01010113          	add	sp,sp,16
   10384:	00008067          	ret

00010388 <__fp_unlock>:
   10388:	00000513          	li	a0,0
   1038c:	00008067          	ret

00010390 <global_stdio_init.part.0>:
   10390:	fe010113          	add	sp,sp,-32
   10394:	000107b7          	lui	a5,0x10
   10398:	00812c23          	sw	s0,24(sp)
   1039c:	30878793          	add	a5,a5,776 # 10308 <stdio_exit_handler>
   103a0:	f5818413          	add	s0,gp,-168 # 23868 <__sf>
   103a4:	00112e23          	sw	ra,28(sp)
   103a8:	00912a23          	sw	s1,20(sp)
   103ac:	01212823          	sw	s2,16(sp)
   103b0:	01312623          	sw	s3,12(sp)
   103b4:	01412423          	sw	s4,8(sp)
   103b8:	f0f1ae23          	sw	a5,-228(gp) # 2382c <__stdio_exit_handler>
   103bc:	00800613          	li	a2,8
   103c0:	00400793          	li	a5,4
   103c4:	00000593          	li	a1,0
   103c8:	fb418513          	add	a0,gp,-76 # 238c4 <__sf+0x5c>
   103cc:	00f42623          	sw	a5,12(s0)
   103d0:	00042023          	sw	zero,0(s0)
   103d4:	00042223          	sw	zero,4(s0)
   103d8:	00042423          	sw	zero,8(s0)
   103dc:	06042223          	sw	zero,100(s0)
   103e0:	00042823          	sw	zero,16(s0)
   103e4:	00042a23          	sw	zero,20(s0)
   103e8:	00042c23          	sw	zero,24(s0)
   103ec:	0f9000ef          	jal	10ce4 <memset>
   103f0:	000107b7          	lui	a5,0x10
   103f4:	00011a37          	lui	s4,0x11
   103f8:	000119b7          	lui	s3,0x11
   103fc:	00011937          	lui	s2,0x11
   10400:	000114b7          	lui	s1,0x11
   10404:	884a0a13          	add	s4,s4,-1916 # 10884 <__sread>
   10408:	8e898993          	add	s3,s3,-1816 # 108e8 <__swrite>
   1040c:	97090913          	add	s2,s2,-1680 # 10970 <__sseek>
   10410:	9e848493          	add	s1,s1,-1560 # 109e8 <__sclose>
   10414:	00978793          	add	a5,a5,9 # 10009 <exit-0x97>
   10418:	00800613          	li	a2,8
   1041c:	00000593          	li	a1,0
   10420:	01c18513          	add	a0,gp,28 # 2392c <__global_pointer$+0x1c>
   10424:	03442023          	sw	s4,32(s0)
   10428:	03342223          	sw	s3,36(s0)
   1042c:	03242423          	sw	s2,40(s0)
   10430:	02942623          	sw	s1,44(s0)
   10434:	06f42a23          	sw	a5,116(s0)
   10438:	00842e23          	sw	s0,28(s0)
   1043c:	06042423          	sw	zero,104(s0)
   10440:	06042623          	sw	zero,108(s0)
   10444:	06042823          	sw	zero,112(s0)
   10448:	0c042623          	sw	zero,204(s0)
   1044c:	06042c23          	sw	zero,120(s0)
   10450:	06042e23          	sw	zero,124(s0)
   10454:	08042023          	sw	zero,128(s0)
   10458:	08d000ef          	jal	10ce4 <memset>
   1045c:	000207b7          	lui	a5,0x20
   10460:	01278793          	add	a5,a5,18 # 20012 <__multf3+0xf32>
   10464:	fc018713          	add	a4,gp,-64 # 238d0 <__sf+0x68>
   10468:	00800613          	li	a2,8
   1046c:	00000593          	li	a1,0
   10470:	08418513          	add	a0,gp,132 # 23994 <__global_pointer$+0x84>
   10474:	09442423          	sw	s4,136(s0)
   10478:	09342623          	sw	s3,140(s0)
   1047c:	09242823          	sw	s2,144(s0)
   10480:	08942a23          	sw	s1,148(s0)
   10484:	0cf42e23          	sw	a5,220(s0)
   10488:	08e42223          	sw	a4,132(s0)
   1048c:	0c042823          	sw	zero,208(s0)
   10490:	0c042a23          	sw	zero,212(s0)
   10494:	0c042c23          	sw	zero,216(s0)
   10498:	12042a23          	sw	zero,308(s0)
   1049c:	0e042023          	sw	zero,224(s0)
   104a0:	0e042223          	sw	zero,228(s0)
   104a4:	0e042423          	sw	zero,232(s0)
   104a8:	03d000ef          	jal	10ce4 <memset>
   104ac:	02818793          	add	a5,gp,40 # 23938 <__global_pointer$+0x28>
   104b0:	0f442823          	sw	s4,240(s0)
   104b4:	0f342a23          	sw	s3,244(s0)
   104b8:	0f242c23          	sw	s2,248(s0)
   104bc:	0e942e23          	sw	s1,252(s0)
   104c0:	01c12083          	lw	ra,28(sp)
   104c4:	0ef42623          	sw	a5,236(s0)
   104c8:	01812403          	lw	s0,24(sp)
   104cc:	01412483          	lw	s1,20(sp)
   104d0:	01012903          	lw	s2,16(sp)
   104d4:	00c12983          	lw	s3,12(sp)
   104d8:	00812a03          	lw	s4,8(sp)
   104dc:	02010113          	add	sp,sp,32
   104e0:	00008067          	ret

000104e4 <__sfp>:
   104e4:	f1c1a783          	lw	a5,-228(gp) # 2382c <__stdio_exit_handler>
   104e8:	fe010113          	add	sp,sp,-32
   104ec:	01312623          	sw	s3,12(sp)
   104f0:	00112e23          	sw	ra,28(sp)
   104f4:	00812c23          	sw	s0,24(sp)
   104f8:	00912a23          	sw	s1,20(sp)
   104fc:	01212823          	sw	s2,16(sp)
   10500:	00050993          	mv	s3,a0
   10504:	0e078863          	beqz	a5,105f4 <__sfp+0x110>
   10508:	00023937          	lui	s2,0x23
   1050c:	11090913          	add	s2,s2,272 # 23110 <__sglue>
   10510:	fff00493          	li	s1,-1
   10514:	00492783          	lw	a5,4(s2)
   10518:	00892403          	lw	s0,8(s2)
   1051c:	fff78793          	add	a5,a5,-1
   10520:	0007d863          	bgez	a5,10530 <__sfp+0x4c>
   10524:	0800006f          	j	105a4 <__sfp+0xc0>
   10528:	06840413          	add	s0,s0,104
   1052c:	06978c63          	beq	a5,s1,105a4 <__sfp+0xc0>
   10530:	00c41703          	lh	a4,12(s0)
   10534:	fff78793          	add	a5,a5,-1
   10538:	fe0718e3          	bnez	a4,10528 <__sfp+0x44>
   1053c:	ffff07b7          	lui	a5,0xffff0
   10540:	00178793          	add	a5,a5,1 # ffff0001 <__BSS_END__+0xfffcc429>
   10544:	00f42623          	sw	a5,12(s0)
   10548:	06042223          	sw	zero,100(s0)
   1054c:	00042023          	sw	zero,0(s0)
   10550:	00042423          	sw	zero,8(s0)
   10554:	00042223          	sw	zero,4(s0)
   10558:	00042823          	sw	zero,16(s0)
   1055c:	00042a23          	sw	zero,20(s0)
   10560:	00042c23          	sw	zero,24(s0)
   10564:	00800613          	li	a2,8
   10568:	00000593          	li	a1,0
   1056c:	05c40513          	add	a0,s0,92
   10570:	774000ef          	jal	10ce4 <memset>
   10574:	02042823          	sw	zero,48(s0)
   10578:	02042a23          	sw	zero,52(s0)
   1057c:	04042223          	sw	zero,68(s0)
   10580:	04042423          	sw	zero,72(s0)
   10584:	01c12083          	lw	ra,28(sp)
   10588:	00040513          	mv	a0,s0
   1058c:	01812403          	lw	s0,24(sp)
   10590:	01412483          	lw	s1,20(sp)
   10594:	01012903          	lw	s2,16(sp)
   10598:	00c12983          	lw	s3,12(sp)
   1059c:	02010113          	add	sp,sp,32
   105a0:	00008067          	ret
   105a4:	00092403          	lw	s0,0(s2)
   105a8:	00040663          	beqz	s0,105b4 <__sfp+0xd0>
   105ac:	00040913          	mv	s2,s0
   105b0:	f65ff06f          	j	10514 <__sfp+0x30>
   105b4:	1ac00593          	li	a1,428
   105b8:	00098513          	mv	a0,s3
   105bc:	615000ef          	jal	113d0 <_malloc_r>
   105c0:	00050413          	mv	s0,a0
   105c4:	02050c63          	beqz	a0,105fc <__sfp+0x118>
   105c8:	00c50513          	add	a0,a0,12
   105cc:	00400793          	li	a5,4
   105d0:	00042023          	sw	zero,0(s0)
   105d4:	00f42223          	sw	a5,4(s0)
   105d8:	00a42423          	sw	a0,8(s0)
   105dc:	1a000613          	li	a2,416
   105e0:	00000593          	li	a1,0
   105e4:	700000ef          	jal	10ce4 <memset>
   105e8:	00892023          	sw	s0,0(s2)
   105ec:	00040913          	mv	s2,s0
   105f0:	f25ff06f          	j	10514 <__sfp+0x30>
   105f4:	d9dff0ef          	jal	10390 <global_stdio_init.part.0>
   105f8:	f11ff06f          	j	10508 <__sfp+0x24>
   105fc:	00092023          	sw	zero,0(s2)
   10600:	00c00793          	li	a5,12
   10604:	00f9a023          	sw	a5,0(s3)
   10608:	f7dff06f          	j	10584 <__sfp+0xa0>

0001060c <__sinit>:
   1060c:	03452783          	lw	a5,52(a0)
   10610:	00078463          	beqz	a5,10618 <__sinit+0xc>
   10614:	00008067          	ret
   10618:	f1c1a703          	lw	a4,-228(gp) # 2382c <__stdio_exit_handler>
   1061c:	000107b7          	lui	a5,0x10
   10620:	32478793          	add	a5,a5,804 # 10324 <cleanup_stdio>
   10624:	02f52a23          	sw	a5,52(a0)
   10628:	fe0716e3          	bnez	a4,10614 <__sinit+0x8>
   1062c:	d65ff06f          	j	10390 <global_stdio_init.part.0>

00010630 <__sfp_lock_acquire>:
   10630:	00008067          	ret

00010634 <__sfp_lock_release>:
   10634:	00008067          	ret

00010638 <__fp_lock_all>:
   10638:	00023637          	lui	a2,0x23
   1063c:	000105b7          	lui	a1,0x10
   10640:	11060613          	add	a2,a2,272 # 23110 <__sglue>
   10644:	30058593          	add	a1,a1,768 # 10300 <__fp_lock>
   10648:	00000513          	li	a0,0
   1064c:	01c0006f          	j	10668 <_fwalk_sglue>

00010650 <__fp_unlock_all>:
   10650:	00023637          	lui	a2,0x23
   10654:	000105b7          	lui	a1,0x10
   10658:	11060613          	add	a2,a2,272 # 23110 <__sglue>
   1065c:	38858593          	add	a1,a1,904 # 10388 <__fp_unlock>
   10660:	00000513          	li	a0,0
   10664:	0040006f          	j	10668 <_fwalk_sglue>

00010668 <_fwalk_sglue>:
   10668:	fd010113          	add	sp,sp,-48
   1066c:	03212023          	sw	s2,32(sp)
   10670:	01312e23          	sw	s3,28(sp)
   10674:	01412c23          	sw	s4,24(sp)
   10678:	01512a23          	sw	s5,20(sp)
   1067c:	01612823          	sw	s6,16(sp)
   10680:	01712623          	sw	s7,12(sp)
   10684:	02112623          	sw	ra,44(sp)
   10688:	02812423          	sw	s0,40(sp)
   1068c:	02912223          	sw	s1,36(sp)
   10690:	00050b13          	mv	s6,a0
   10694:	00058b93          	mv	s7,a1
   10698:	00060a93          	mv	s5,a2
   1069c:	00000a13          	li	s4,0
   106a0:	00100993          	li	s3,1
   106a4:	fff00913          	li	s2,-1
   106a8:	004aa483          	lw	s1,4(s5)
   106ac:	008aa403          	lw	s0,8(s5)
   106b0:	fff48493          	add	s1,s1,-1
   106b4:	0204c863          	bltz	s1,106e4 <_fwalk_sglue+0x7c>
   106b8:	00c45783          	lhu	a5,12(s0)
   106bc:	00f9fe63          	bgeu	s3,a5,106d8 <_fwalk_sglue+0x70>
   106c0:	00e41783          	lh	a5,14(s0)
   106c4:	00040593          	mv	a1,s0
   106c8:	000b0513          	mv	a0,s6
   106cc:	01278663          	beq	a5,s2,106d8 <_fwalk_sglue+0x70>
   106d0:	000b80e7          	jalr	s7
   106d4:	00aa6a33          	or	s4,s4,a0
   106d8:	fff48493          	add	s1,s1,-1
   106dc:	06840413          	add	s0,s0,104
   106e0:	fd249ce3          	bne	s1,s2,106b8 <_fwalk_sglue+0x50>
   106e4:	000aaa83          	lw	s5,0(s5)
   106e8:	fc0a90e3          	bnez	s5,106a8 <_fwalk_sglue+0x40>
   106ec:	02c12083          	lw	ra,44(sp)
   106f0:	02812403          	lw	s0,40(sp)
   106f4:	02412483          	lw	s1,36(sp)
   106f8:	02012903          	lw	s2,32(sp)
   106fc:	01c12983          	lw	s3,28(sp)
   10700:	01412a83          	lw	s5,20(sp)
   10704:	01012b03          	lw	s6,16(sp)
   10708:	00c12b83          	lw	s7,12(sp)
   1070c:	000a0513          	mv	a0,s4
   10710:	01812a03          	lw	s4,24(sp)
   10714:	03010113          	add	sp,sp,48
   10718:	00008067          	ret

0001071c <_printf_r>:
   1071c:	fc010113          	add	sp,sp,-64
   10720:	02c12423          	sw	a2,40(sp)
   10724:	02d12623          	sw	a3,44(sp)
   10728:	02e12823          	sw	a4,48(sp)
   1072c:	02f12a23          	sw	a5,52(sp)
   10730:	03012c23          	sw	a6,56(sp)
   10734:	03112e23          	sw	a7,60(sp)
   10738:	00058613          	mv	a2,a1
   1073c:	00852583          	lw	a1,8(a0)
   10740:	02810693          	add	a3,sp,40
   10744:	00112e23          	sw	ra,28(sp)
   10748:	00d12623          	sw	a3,12(sp)
   1074c:	448010ef          	jal	11b94 <_vfprintf_r>
   10750:	01c12083          	lw	ra,28(sp)
   10754:	04010113          	add	sp,sp,64
   10758:	00008067          	ret

0001075c <printf>:
   1075c:	f101a303          	lw	t1,-240(gp) # 23820 <_impure_ptr>
   10760:	fc010113          	add	sp,sp,-64
   10764:	02c12423          	sw	a2,40(sp)
   10768:	02d12623          	sw	a3,44(sp)
   1076c:	02b12223          	sw	a1,36(sp)
   10770:	02e12823          	sw	a4,48(sp)
   10774:	02f12a23          	sw	a5,52(sp)
   10778:	03012c23          	sw	a6,56(sp)
   1077c:	03112e23          	sw	a7,60(sp)
   10780:	00832583          	lw	a1,8(t1) # 10218 <frame_dummy+0x1c>
   10784:	02410693          	add	a3,sp,36
   10788:	00050613          	mv	a2,a0
   1078c:	00030513          	mv	a0,t1
   10790:	00112e23          	sw	ra,28(sp)
   10794:	00d12623          	sw	a3,12(sp)
   10798:	3fc010ef          	jal	11b94 <_vfprintf_r>
   1079c:	01c12083          	lw	ra,28(sp)
   107a0:	04010113          	add	sp,sp,64
   107a4:	00008067          	ret

000107a8 <_puts_r>:
   107a8:	fc010113          	add	sp,sp,-64
   107ac:	02812c23          	sw	s0,56(sp)
   107b0:	00050413          	mv	s0,a0
   107b4:	00058513          	mv	a0,a1
   107b8:	02912a23          	sw	s1,52(sp)
   107bc:	02112e23          	sw	ra,60(sp)
   107c0:	00058493          	mv	s1,a1
   107c4:	5fc000ef          	jal	10dc0 <strlen>
   107c8:	000227b7          	lui	a5,0x22
   107cc:	02078793          	add	a5,a5,32 # 22020 <__clzsi2+0xf4>
   107d0:	02f12423          	sw	a5,40(sp)
   107d4:	00100793          	li	a5,1
   107d8:	02f12623          	sw	a5,44(sp)
   107dc:	03442703          	lw	a4,52(s0)
   107e0:	02010793          	add	a5,sp,32
   107e4:	00150693          	add	a3,a0,1
   107e8:	00f12a23          	sw	a5,20(sp)
   107ec:	00200793          	li	a5,2
   107f0:	02912023          	sw	s1,32(sp)
   107f4:	02a12223          	sw	a0,36(sp)
   107f8:	00d12e23          	sw	a3,28(sp)
   107fc:	00f12c23          	sw	a5,24(sp)
   10800:	00842583          	lw	a1,8(s0)
   10804:	06070063          	beqz	a4,10864 <_puts_r+0xbc>
   10808:	00c59783          	lh	a5,12(a1)
   1080c:	01279713          	sll	a4,a5,0x12
   10810:	02074263          	bltz	a4,10834 <_puts_r+0x8c>
   10814:	0645a703          	lw	a4,100(a1)
   10818:	ffffe6b7          	lui	a3,0xffffe
   1081c:	fff68693          	add	a3,a3,-1 # ffffdfff <__BSS_END__+0xfffda427>
   10820:	00002637          	lui	a2,0x2
   10824:	00c7e7b3          	or	a5,a5,a2
   10828:	00d77733          	and	a4,a4,a3
   1082c:	00f59623          	sh	a5,12(a1)
   10830:	06e5a223          	sw	a4,100(a1)
   10834:	01410613          	add	a2,sp,20
   10838:	00040513          	mv	a0,s0
   1083c:	608050ef          	jal	15e44 <__sfvwrite_r>
   10840:	03c12083          	lw	ra,60(sp)
   10844:	03812403          	lw	s0,56(sp)
   10848:	00153513          	seqz	a0,a0
   1084c:	40a00533          	neg	a0,a0
   10850:	00b57513          	and	a0,a0,11
   10854:	03412483          	lw	s1,52(sp)
   10858:	fff50513          	add	a0,a0,-1
   1085c:	04010113          	add	sp,sp,64
   10860:	00008067          	ret
   10864:	00040513          	mv	a0,s0
   10868:	00b12623          	sw	a1,12(sp)
   1086c:	da1ff0ef          	jal	1060c <__sinit>
   10870:	00c12583          	lw	a1,12(sp)
   10874:	f95ff06f          	j	10808 <_puts_r+0x60>

00010878 <puts>:
   10878:	00050593          	mv	a1,a0
   1087c:	f101a503          	lw	a0,-240(gp) # 23820 <_impure_ptr>
   10880:	f29ff06f          	j	107a8 <_puts_r>

00010884 <__sread>:
   10884:	ff010113          	add	sp,sp,-16
   10888:	00812423          	sw	s0,8(sp)
   1088c:	00058413          	mv	s0,a1
   10890:	00e59583          	lh	a1,14(a1)
   10894:	00112623          	sw	ra,12(sp)
   10898:	2e0000ef          	jal	10b78 <_read_r>
   1089c:	02054063          	bltz	a0,108bc <__sread+0x38>
   108a0:	05042783          	lw	a5,80(s0)
   108a4:	00c12083          	lw	ra,12(sp)
   108a8:	00a787b3          	add	a5,a5,a0
   108ac:	04f42823          	sw	a5,80(s0)
   108b0:	00812403          	lw	s0,8(sp)
   108b4:	01010113          	add	sp,sp,16
   108b8:	00008067          	ret
   108bc:	00c45783          	lhu	a5,12(s0)
   108c0:	fffff737          	lui	a4,0xfffff
   108c4:	fff70713          	add	a4,a4,-1 # ffffefff <__BSS_END__+0xfffdb427>
   108c8:	00e7f7b3          	and	a5,a5,a4
   108cc:	00c12083          	lw	ra,12(sp)
   108d0:	00f41623          	sh	a5,12(s0)
   108d4:	00812403          	lw	s0,8(sp)
   108d8:	01010113          	add	sp,sp,16
   108dc:	00008067          	ret

000108e0 <__seofread>:
   108e0:	00000513          	li	a0,0
   108e4:	00008067          	ret

000108e8 <__swrite>:
   108e8:	00c59783          	lh	a5,12(a1)
   108ec:	fe010113          	add	sp,sp,-32
   108f0:	00812c23          	sw	s0,24(sp)
   108f4:	00912a23          	sw	s1,20(sp)
   108f8:	01212823          	sw	s2,16(sp)
   108fc:	01312623          	sw	s3,12(sp)
   10900:	00112e23          	sw	ra,28(sp)
   10904:	1007f713          	and	a4,a5,256
   10908:	00058413          	mv	s0,a1
   1090c:	00050493          	mv	s1,a0
   10910:	00060913          	mv	s2,a2
   10914:	00068993          	mv	s3,a3
   10918:	04071063          	bnez	a4,10958 <__swrite+0x70>
   1091c:	fffff737          	lui	a4,0xfffff
   10920:	fff70713          	add	a4,a4,-1 # ffffefff <__BSS_END__+0xfffdb427>
   10924:	00e7f7b3          	and	a5,a5,a4
   10928:	00e41583          	lh	a1,14(s0)
   1092c:	00f41623          	sh	a5,12(s0)
   10930:	01812403          	lw	s0,24(sp)
   10934:	01c12083          	lw	ra,28(sp)
   10938:	00098693          	mv	a3,s3
   1093c:	00090613          	mv	a2,s2
   10940:	00c12983          	lw	s3,12(sp)
   10944:	01012903          	lw	s2,16(sp)
   10948:	00048513          	mv	a0,s1
   1094c:	01412483          	lw	s1,20(sp)
   10950:	02010113          	add	sp,sp,32
   10954:	28c0006f          	j	10be0 <_write_r>
   10958:	00e59583          	lh	a1,14(a1)
   1095c:	00200693          	li	a3,2
   10960:	00000613          	li	a2,0
   10964:	1ac000ef          	jal	10b10 <_lseek_r>
   10968:	00c41783          	lh	a5,12(s0)
   1096c:	fb1ff06f          	j	1091c <__swrite+0x34>

00010970 <__sseek>:
   10970:	ff010113          	add	sp,sp,-16
   10974:	00812423          	sw	s0,8(sp)
   10978:	00058413          	mv	s0,a1
   1097c:	00e59583          	lh	a1,14(a1)
   10980:	00112623          	sw	ra,12(sp)
   10984:	18c000ef          	jal	10b10 <_lseek_r>
   10988:	fff00793          	li	a5,-1
   1098c:	02f50863          	beq	a0,a5,109bc <__sseek+0x4c>
   10990:	00c45783          	lhu	a5,12(s0)
   10994:	00001737          	lui	a4,0x1
   10998:	00c12083          	lw	ra,12(sp)
   1099c:	00e7e7b3          	or	a5,a5,a4
   109a0:	01079793          	sll	a5,a5,0x10
   109a4:	4107d793          	sra	a5,a5,0x10
   109a8:	04a42823          	sw	a0,80(s0)
   109ac:	00f41623          	sh	a5,12(s0)
   109b0:	00812403          	lw	s0,8(sp)
   109b4:	01010113          	add	sp,sp,16
   109b8:	00008067          	ret
   109bc:	00c45783          	lhu	a5,12(s0)
   109c0:	fffff737          	lui	a4,0xfffff
   109c4:	fff70713          	add	a4,a4,-1 # ffffefff <__BSS_END__+0xfffdb427>
   109c8:	00e7f7b3          	and	a5,a5,a4
   109cc:	01079793          	sll	a5,a5,0x10
   109d0:	4107d793          	sra	a5,a5,0x10
   109d4:	00c12083          	lw	ra,12(sp)
   109d8:	00f41623          	sh	a5,12(s0)
   109dc:	00812403          	lw	s0,8(sp)
   109e0:	01010113          	add	sp,sp,16
   109e4:	00008067          	ret

000109e8 <__sclose>:
   109e8:	00e59583          	lh	a1,14(a1)
   109ec:	0040006f          	j	109f0 <_close_r>

000109f0 <_close_r>:
   109f0:	ff010113          	add	sp,sp,-16
   109f4:	00812423          	sw	s0,8(sp)
   109f8:	00912223          	sw	s1,4(sp)
   109fc:	00050413          	mv	s0,a0
   10a00:	00058513          	mv	a0,a1
   10a04:	00112623          	sw	ra,12(sp)
   10a08:	f201a023          	sw	zero,-224(gp) # 23830 <errno>
   10a0c:	1440b0ef          	jal	1bb50 <_close>
   10a10:	fff00793          	li	a5,-1
   10a14:	00f50c63          	beq	a0,a5,10a2c <_close_r+0x3c>
   10a18:	00c12083          	lw	ra,12(sp)
   10a1c:	00812403          	lw	s0,8(sp)
   10a20:	00412483          	lw	s1,4(sp)
   10a24:	01010113          	add	sp,sp,16
   10a28:	00008067          	ret
   10a2c:	f201a783          	lw	a5,-224(gp) # 23830 <errno>
   10a30:	fe0784e3          	beqz	a5,10a18 <_close_r+0x28>
   10a34:	00c12083          	lw	ra,12(sp)
   10a38:	00f42023          	sw	a5,0(s0)
   10a3c:	00812403          	lw	s0,8(sp)
   10a40:	00412483          	lw	s1,4(sp)
   10a44:	01010113          	add	sp,sp,16
   10a48:	00008067          	ret

00010a4c <_reclaim_reent>:
   10a4c:	f101a783          	lw	a5,-240(gp) # 23820 <_impure_ptr>
   10a50:	0aa78e63          	beq	a5,a0,10b0c <_reclaim_reent+0xc0>
   10a54:	04452583          	lw	a1,68(a0)
   10a58:	fe010113          	add	sp,sp,-32
   10a5c:	00912a23          	sw	s1,20(sp)
   10a60:	00112e23          	sw	ra,28(sp)
   10a64:	00050493          	mv	s1,a0
   10a68:	04058c63          	beqz	a1,10ac0 <_reclaim_reent+0x74>
   10a6c:	01212823          	sw	s2,16(sp)
   10a70:	01312623          	sw	s3,12(sp)
   10a74:	00812c23          	sw	s0,24(sp)
   10a78:	00000913          	li	s2,0
   10a7c:	08000993          	li	s3,128
   10a80:	012587b3          	add	a5,a1,s2
   10a84:	0007a403          	lw	s0,0(a5)
   10a88:	00040e63          	beqz	s0,10aa4 <_reclaim_reent+0x58>
   10a8c:	00040593          	mv	a1,s0
   10a90:	00042403          	lw	s0,0(s0)
   10a94:	00048513          	mv	a0,s1
   10a98:	634000ef          	jal	110cc <_free_r>
   10a9c:	fe0418e3          	bnez	s0,10a8c <_reclaim_reent+0x40>
   10aa0:	0444a583          	lw	a1,68(s1)
   10aa4:	00490913          	add	s2,s2,4
   10aa8:	fd391ce3          	bne	s2,s3,10a80 <_reclaim_reent+0x34>
   10aac:	00048513          	mv	a0,s1
   10ab0:	61c000ef          	jal	110cc <_free_r>
   10ab4:	01812403          	lw	s0,24(sp)
   10ab8:	01012903          	lw	s2,16(sp)
   10abc:	00c12983          	lw	s3,12(sp)
   10ac0:	0384a583          	lw	a1,56(s1)
   10ac4:	00058663          	beqz	a1,10ad0 <_reclaim_reent+0x84>
   10ac8:	00048513          	mv	a0,s1
   10acc:	600000ef          	jal	110cc <_free_r>
   10ad0:	04c4a583          	lw	a1,76(s1)
   10ad4:	00058663          	beqz	a1,10ae0 <_reclaim_reent+0x94>
   10ad8:	00048513          	mv	a0,s1
   10adc:	5f0000ef          	jal	110cc <_free_r>
   10ae0:	0344a783          	lw	a5,52(s1)
   10ae4:	00078c63          	beqz	a5,10afc <_reclaim_reent+0xb0>
   10ae8:	01c12083          	lw	ra,28(sp)
   10aec:	00048513          	mv	a0,s1
   10af0:	01412483          	lw	s1,20(sp)
   10af4:	02010113          	add	sp,sp,32
   10af8:	00078067          	jr	a5
   10afc:	01c12083          	lw	ra,28(sp)
   10b00:	01412483          	lw	s1,20(sp)
   10b04:	02010113          	add	sp,sp,32
   10b08:	00008067          	ret
   10b0c:	00008067          	ret

00010b10 <_lseek_r>:
   10b10:	ff010113          	add	sp,sp,-16
   10b14:	00058713          	mv	a4,a1
   10b18:	00812423          	sw	s0,8(sp)
   10b1c:	00912223          	sw	s1,4(sp)
   10b20:	00060593          	mv	a1,a2
   10b24:	00050413          	mv	s0,a0
   10b28:	00068613          	mv	a2,a3
   10b2c:	00070513          	mv	a0,a4
   10b30:	00112623          	sw	ra,12(sp)
   10b34:	f201a023          	sw	zero,-224(gp) # 23830 <errno>
   10b38:	2680b0ef          	jal	1bda0 <_lseek>
   10b3c:	fff00793          	li	a5,-1
   10b40:	00f50c63          	beq	a0,a5,10b58 <_lseek_r+0x48>
   10b44:	00c12083          	lw	ra,12(sp)
   10b48:	00812403          	lw	s0,8(sp)
   10b4c:	00412483          	lw	s1,4(sp)
   10b50:	01010113          	add	sp,sp,16
   10b54:	00008067          	ret
   10b58:	f201a783          	lw	a5,-224(gp) # 23830 <errno>
   10b5c:	fe0784e3          	beqz	a5,10b44 <_lseek_r+0x34>
   10b60:	00c12083          	lw	ra,12(sp)
   10b64:	00f42023          	sw	a5,0(s0)
   10b68:	00812403          	lw	s0,8(sp)
   10b6c:	00412483          	lw	s1,4(sp)
   10b70:	01010113          	add	sp,sp,16
   10b74:	00008067          	ret

00010b78 <_read_r>:
   10b78:	ff010113          	add	sp,sp,-16
   10b7c:	00058713          	mv	a4,a1
   10b80:	00812423          	sw	s0,8(sp)
   10b84:	00912223          	sw	s1,4(sp)
   10b88:	00060593          	mv	a1,a2
   10b8c:	00050413          	mv	s0,a0
   10b90:	00068613          	mv	a2,a3
   10b94:	00070513          	mv	a0,a4
   10b98:	00112623          	sw	ra,12(sp)
   10b9c:	f201a023          	sw	zero,-224(gp) # 23830 <errno>
   10ba0:	4300b0ef          	jal	1bfd0 <_read>
   10ba4:	fff00793          	li	a5,-1
   10ba8:	00f50c63          	beq	a0,a5,10bc0 <_read_r+0x48>
   10bac:	00c12083          	lw	ra,12(sp)
   10bb0:	00812403          	lw	s0,8(sp)
   10bb4:	00412483          	lw	s1,4(sp)
   10bb8:	01010113          	add	sp,sp,16
   10bbc:	00008067          	ret
   10bc0:	f201a783          	lw	a5,-224(gp) # 23830 <errno>
   10bc4:	fe0784e3          	beqz	a5,10bac <_read_r+0x34>
   10bc8:	00c12083          	lw	ra,12(sp)
   10bcc:	00f42023          	sw	a5,0(s0)
   10bd0:	00812403          	lw	s0,8(sp)
   10bd4:	00412483          	lw	s1,4(sp)
   10bd8:	01010113          	add	sp,sp,16
   10bdc:	00008067          	ret

00010be0 <_write_r>:
   10be0:	ff010113          	add	sp,sp,-16
   10be4:	00058713          	mv	a4,a1
   10be8:	00812423          	sw	s0,8(sp)
   10bec:	00912223          	sw	s1,4(sp)
   10bf0:	00060593          	mv	a1,a2
   10bf4:	00050413          	mv	s0,a0
   10bf8:	00068613          	mv	a2,a3
   10bfc:	00070513          	mv	a0,a4
   10c00:	00112623          	sw	ra,12(sp)
   10c04:	f201a023          	sw	zero,-224(gp) # 23830 <errno>
   10c08:	5480b0ef          	jal	1c150 <_write>
   10c0c:	fff00793          	li	a5,-1
   10c10:	00f50c63          	beq	a0,a5,10c28 <_write_r+0x48>
   10c14:	00c12083          	lw	ra,12(sp)
   10c18:	00812403          	lw	s0,8(sp)
   10c1c:	00412483          	lw	s1,4(sp)
   10c20:	01010113          	add	sp,sp,16
   10c24:	00008067          	ret
   10c28:	f201a783          	lw	a5,-224(gp) # 23830 <errno>
   10c2c:	fe0784e3          	beqz	a5,10c14 <_write_r+0x34>
   10c30:	00c12083          	lw	ra,12(sp)
   10c34:	00f42023          	sw	a5,0(s0)
   10c38:	00812403          	lw	s0,8(sp)
   10c3c:	00412483          	lw	s1,4(sp)
   10c40:	01010113          	add	sp,sp,16
   10c44:	00008067          	ret

00010c48 <__libc_init_array>:
   10c48:	ff010113          	add	sp,sp,-16
   10c4c:	00812423          	sw	s0,8(sp)
   10c50:	000237b7          	lui	a5,0x23
   10c54:	00023437          	lui	s0,0x23
   10c58:	01212023          	sw	s2,0(sp)
   10c5c:	10078793          	add	a5,a5,256 # 23100 <__init_array_start>
   10c60:	10040713          	add	a4,s0,256 # 23100 <__init_array_start>
   10c64:	00112623          	sw	ra,12(sp)
   10c68:	00912223          	sw	s1,4(sp)
   10c6c:	40e78933          	sub	s2,a5,a4
   10c70:	02e78263          	beq	a5,a4,10c94 <__libc_init_array+0x4c>
   10c74:	40295913          	sra	s2,s2,0x2
   10c78:	10040413          	add	s0,s0,256
   10c7c:	00000493          	li	s1,0
   10c80:	00042783          	lw	a5,0(s0)
   10c84:	00148493          	add	s1,s1,1
   10c88:	00440413          	add	s0,s0,4
   10c8c:	000780e7          	jalr	a5
   10c90:	ff24e8e3          	bltu	s1,s2,10c80 <__libc_init_array+0x38>
   10c94:	00023437          	lui	s0,0x23
   10c98:	000237b7          	lui	a5,0x23
   10c9c:	10c78793          	add	a5,a5,268 # 2310c <__do_global_dtors_aux_fini_array_entry>
   10ca0:	10040713          	add	a4,s0,256 # 23100 <__init_array_start>
   10ca4:	40e78933          	sub	s2,a5,a4
   10ca8:	40295913          	sra	s2,s2,0x2
   10cac:	02e78063          	beq	a5,a4,10ccc <__libc_init_array+0x84>
   10cb0:	10040413          	add	s0,s0,256
   10cb4:	00000493          	li	s1,0
   10cb8:	00042783          	lw	a5,0(s0)
   10cbc:	00148493          	add	s1,s1,1
   10cc0:	00440413          	add	s0,s0,4
   10cc4:	000780e7          	jalr	a5
   10cc8:	ff24e8e3          	bltu	s1,s2,10cb8 <__libc_init_array+0x70>
   10ccc:	00c12083          	lw	ra,12(sp)
   10cd0:	00812403          	lw	s0,8(sp)
   10cd4:	00412483          	lw	s1,4(sp)
   10cd8:	00012903          	lw	s2,0(sp)
   10cdc:	01010113          	add	sp,sp,16
   10ce0:	00008067          	ret

00010ce4 <memset>:
   10ce4:	00f00313          	li	t1,15
   10ce8:	00050713          	mv	a4,a0
   10cec:	02c37e63          	bgeu	t1,a2,10d28 <memset+0x44>
   10cf0:	00f77793          	and	a5,a4,15
   10cf4:	0a079063          	bnez	a5,10d94 <memset+0xb0>
   10cf8:	08059263          	bnez	a1,10d7c <memset+0x98>
   10cfc:	ff067693          	and	a3,a2,-16
   10d00:	00f67613          	and	a2,a2,15
   10d04:	00e686b3          	add	a3,a3,a4
   10d08:	00b72023          	sw	a1,0(a4)
   10d0c:	00b72223          	sw	a1,4(a4)
   10d10:	00b72423          	sw	a1,8(a4)
   10d14:	00b72623          	sw	a1,12(a4)
   10d18:	01070713          	add	a4,a4,16
   10d1c:	fed766e3          	bltu	a4,a3,10d08 <memset+0x24>
   10d20:	00061463          	bnez	a2,10d28 <memset+0x44>
   10d24:	00008067          	ret
   10d28:	40c306b3          	sub	a3,t1,a2
   10d2c:	00269693          	sll	a3,a3,0x2
   10d30:	00000297          	auipc	t0,0x0
   10d34:	005686b3          	add	a3,a3,t0
   10d38:	00c68067          	jr	12(a3)
   10d3c:	00b70723          	sb	a1,14(a4)
   10d40:	00b706a3          	sb	a1,13(a4)
   10d44:	00b70623          	sb	a1,12(a4)
   10d48:	00b705a3          	sb	a1,11(a4)
   10d4c:	00b70523          	sb	a1,10(a4)
   10d50:	00b704a3          	sb	a1,9(a4)
   10d54:	00b70423          	sb	a1,8(a4)
   10d58:	00b703a3          	sb	a1,7(a4)
   10d5c:	00b70323          	sb	a1,6(a4)
   10d60:	00b702a3          	sb	a1,5(a4)
   10d64:	00b70223          	sb	a1,4(a4)
   10d68:	00b701a3          	sb	a1,3(a4)
   10d6c:	00b70123          	sb	a1,2(a4)
   10d70:	00b700a3          	sb	a1,1(a4)
   10d74:	00b70023          	sb	a1,0(a4)
   10d78:	00008067          	ret
   10d7c:	0ff5f593          	zext.b	a1,a1
   10d80:	00859693          	sll	a3,a1,0x8
   10d84:	00d5e5b3          	or	a1,a1,a3
   10d88:	01059693          	sll	a3,a1,0x10
   10d8c:	00d5e5b3          	or	a1,a1,a3
   10d90:	f6dff06f          	j	10cfc <memset+0x18>
   10d94:	00279693          	sll	a3,a5,0x2
   10d98:	00000297          	auipc	t0,0x0
   10d9c:	005686b3          	add	a3,a3,t0
   10da0:	00008293          	mv	t0,ra
   10da4:	fa0680e7          	jalr	-96(a3)
   10da8:	00028093          	mv	ra,t0
   10dac:	ff078793          	add	a5,a5,-16
   10db0:	40f70733          	sub	a4,a4,a5
   10db4:	00f60633          	add	a2,a2,a5
   10db8:	f6c378e3          	bgeu	t1,a2,10d28 <memset+0x44>
   10dbc:	f3dff06f          	j	10cf8 <memset+0x14>

00010dc0 <strlen>:
   10dc0:	00357793          	and	a5,a0,3
   10dc4:	00050713          	mv	a4,a0
   10dc8:	04079c63          	bnez	a5,10e20 <strlen+0x60>
   10dcc:	7f7f86b7          	lui	a3,0x7f7f8
   10dd0:	f7f68693          	add	a3,a3,-129 # 7f7f7f7f <__BSS_END__+0x7f7d43a7>
   10dd4:	fff00593          	li	a1,-1
   10dd8:	00072603          	lw	a2,0(a4)
   10ddc:	00470713          	add	a4,a4,4
   10de0:	00d677b3          	and	a5,a2,a3
   10de4:	00d787b3          	add	a5,a5,a3
   10de8:	00c7e7b3          	or	a5,a5,a2
   10dec:	00d7e7b3          	or	a5,a5,a3
   10df0:	feb784e3          	beq	a5,a1,10dd8 <strlen+0x18>
   10df4:	ffc74683          	lbu	a3,-4(a4)
   10df8:	40a707b3          	sub	a5,a4,a0
   10dfc:	04068463          	beqz	a3,10e44 <strlen+0x84>
   10e00:	ffd74683          	lbu	a3,-3(a4)
   10e04:	02068c63          	beqz	a3,10e3c <strlen+0x7c>
   10e08:	ffe74503          	lbu	a0,-2(a4)
   10e0c:	00a03533          	snez	a0,a0
   10e10:	00f50533          	add	a0,a0,a5
   10e14:	ffe50513          	add	a0,a0,-2
   10e18:	00008067          	ret
   10e1c:	fa0688e3          	beqz	a3,10dcc <strlen+0xc>
   10e20:	00074783          	lbu	a5,0(a4)
   10e24:	00170713          	add	a4,a4,1
   10e28:	00377693          	and	a3,a4,3
   10e2c:	fe0798e3          	bnez	a5,10e1c <strlen+0x5c>
   10e30:	40a70733          	sub	a4,a4,a0
   10e34:	fff70513          	add	a0,a4,-1
   10e38:	00008067          	ret
   10e3c:	ffd78513          	add	a0,a5,-3
   10e40:	00008067          	ret
   10e44:	ffc78513          	add	a0,a5,-4
   10e48:	00008067          	ret

00010e4c <__call_exitprocs>:
   10e4c:	fd010113          	add	sp,sp,-48
   10e50:	01412c23          	sw	s4,24(sp)
   10e54:	03212023          	sw	s2,32(sp)
   10e58:	f241a903          	lw	s2,-220(gp) # 23834 <__atexit>
   10e5c:	02112623          	sw	ra,44(sp)
   10e60:	0a090863          	beqz	s2,10f10 <__call_exitprocs+0xc4>
   10e64:	01312e23          	sw	s3,28(sp)
   10e68:	01512a23          	sw	s5,20(sp)
   10e6c:	01612823          	sw	s6,16(sp)
   10e70:	01712623          	sw	s7,12(sp)
   10e74:	02812423          	sw	s0,40(sp)
   10e78:	02912223          	sw	s1,36(sp)
   10e7c:	01812423          	sw	s8,8(sp)
   10e80:	00050b13          	mv	s6,a0
   10e84:	00058b93          	mv	s7,a1
   10e88:	fff00993          	li	s3,-1
   10e8c:	00100a93          	li	s5,1
   10e90:	00492483          	lw	s1,4(s2)
   10e94:	fff48413          	add	s0,s1,-1
   10e98:	04044e63          	bltz	s0,10ef4 <__call_exitprocs+0xa8>
   10e9c:	00249493          	sll	s1,s1,0x2
   10ea0:	009904b3          	add	s1,s2,s1
   10ea4:	080b9063          	bnez	s7,10f24 <__call_exitprocs+0xd8>
   10ea8:	00492783          	lw	a5,4(s2)
   10eac:	0044a683          	lw	a3,4(s1)
   10eb0:	fff78793          	add	a5,a5,-1
   10eb4:	0a878c63          	beq	a5,s0,10f6c <__call_exitprocs+0x120>
   10eb8:	0004a223          	sw	zero,4(s1)
   10ebc:	02068663          	beqz	a3,10ee8 <__call_exitprocs+0x9c>
   10ec0:	18892783          	lw	a5,392(s2)
   10ec4:	008a9733          	sll	a4,s5,s0
   10ec8:	00492c03          	lw	s8,4(s2)
   10ecc:	00f777b3          	and	a5,a4,a5
   10ed0:	06079663          	bnez	a5,10f3c <__call_exitprocs+0xf0>
   10ed4:	000680e7          	jalr	a3
   10ed8:	00492703          	lw	a4,4(s2)
   10edc:	f241a783          	lw	a5,-220(gp) # 23834 <__atexit>
   10ee0:	09871063          	bne	a4,s8,10f60 <__call_exitprocs+0x114>
   10ee4:	07279e63          	bne	a5,s2,10f60 <__call_exitprocs+0x114>
   10ee8:	fff40413          	add	s0,s0,-1
   10eec:	ffc48493          	add	s1,s1,-4
   10ef0:	fb341ae3          	bne	s0,s3,10ea4 <__call_exitprocs+0x58>
   10ef4:	02812403          	lw	s0,40(sp)
   10ef8:	02412483          	lw	s1,36(sp)
   10efc:	01c12983          	lw	s3,28(sp)
   10f00:	01412a83          	lw	s5,20(sp)
   10f04:	01012b03          	lw	s6,16(sp)
   10f08:	00c12b83          	lw	s7,12(sp)
   10f0c:	00812c03          	lw	s8,8(sp)
   10f10:	02c12083          	lw	ra,44(sp)
   10f14:	02012903          	lw	s2,32(sp)
   10f18:	01812a03          	lw	s4,24(sp)
   10f1c:	03010113          	add	sp,sp,48
   10f20:	00008067          	ret
   10f24:	1044a783          	lw	a5,260(s1)
   10f28:	f97780e3          	beq	a5,s7,10ea8 <__call_exitprocs+0x5c>
   10f2c:	fff40413          	add	s0,s0,-1
   10f30:	ffc48493          	add	s1,s1,-4
   10f34:	ff3418e3          	bne	s0,s3,10f24 <__call_exitprocs+0xd8>
   10f38:	fbdff06f          	j	10ef4 <__call_exitprocs+0xa8>
   10f3c:	18c92783          	lw	a5,396(s2)
   10f40:	0844a583          	lw	a1,132(s1)
   10f44:	00f77733          	and	a4,a4,a5
   10f48:	02071663          	bnez	a4,10f74 <__call_exitprocs+0x128>
   10f4c:	000b0513          	mv	a0,s6
   10f50:	000680e7          	jalr	a3
   10f54:	00492703          	lw	a4,4(s2)
   10f58:	f241a783          	lw	a5,-220(gp) # 23834 <__atexit>
   10f5c:	f98704e3          	beq	a4,s8,10ee4 <__call_exitprocs+0x98>
   10f60:	f8078ae3          	beqz	a5,10ef4 <__call_exitprocs+0xa8>
   10f64:	00078913          	mv	s2,a5
   10f68:	f29ff06f          	j	10e90 <__call_exitprocs+0x44>
   10f6c:	00892223          	sw	s0,4(s2)
   10f70:	f4dff06f          	j	10ebc <__call_exitprocs+0x70>
   10f74:	00058513          	mv	a0,a1
   10f78:	000680e7          	jalr	a3
   10f7c:	f5dff06f          	j	10ed8 <__call_exitprocs+0x8c>

00010f80 <atexit>:
   10f80:	00050593          	mv	a1,a0
   10f84:	00000693          	li	a3,0
   10f88:	00000613          	li	a2,0
   10f8c:	00000513          	li	a0,0
   10f90:	79d0506f          	j	16f2c <__register_exitproc>

00010f94 <_malloc_trim_r>:
   10f94:	fe010113          	add	sp,sp,-32
   10f98:	01312623          	sw	s3,12(sp)
   10f9c:	000239b7          	lui	s3,0x23
   10fa0:	00812c23          	sw	s0,24(sp)
   10fa4:	00912a23          	sw	s1,20(sp)
   10fa8:	01212823          	sw	s2,16(sp)
   10fac:	01412423          	sw	s4,8(sp)
   10fb0:	00112e23          	sw	ra,28(sp)
   10fb4:	00058a13          	mv	s4,a1
   10fb8:	00050913          	mv	s2,a0
   10fbc:	24098993          	add	s3,s3,576 # 23240 <__malloc_av_>
   10fc0:	3cd000ef          	jal	11b8c <__malloc_lock>
   10fc4:	0089a703          	lw	a4,8(s3)
   10fc8:	000017b7          	lui	a5,0x1
   10fcc:	fef78793          	add	a5,a5,-17 # fef <exit-0xf0b1>
   10fd0:	00472483          	lw	s1,4(a4)
   10fd4:	00001737          	lui	a4,0x1
   10fd8:	ffc4f493          	and	s1,s1,-4
   10fdc:	00f48433          	add	s0,s1,a5
   10fe0:	41440433          	sub	s0,s0,s4
   10fe4:	00c45413          	srl	s0,s0,0xc
   10fe8:	fff40413          	add	s0,s0,-1
   10fec:	00c41413          	sll	s0,s0,0xc
   10ff0:	00e44e63          	blt	s0,a4,1100c <_malloc_trim_r+0x78>
   10ff4:	00000593          	li	a1,0
   10ff8:	00090513          	mv	a0,s2
   10ffc:	0c9050ef          	jal	168c4 <_sbrk_r>
   11000:	0089a783          	lw	a5,8(s3)
   11004:	009787b3          	add	a5,a5,s1
   11008:	02f50863          	beq	a0,a5,11038 <_malloc_trim_r+0xa4>
   1100c:	00090513          	mv	a0,s2
   11010:	381000ef          	jal	11b90 <__malloc_unlock>
   11014:	01c12083          	lw	ra,28(sp)
   11018:	01812403          	lw	s0,24(sp)
   1101c:	01412483          	lw	s1,20(sp)
   11020:	01012903          	lw	s2,16(sp)
   11024:	00c12983          	lw	s3,12(sp)
   11028:	00812a03          	lw	s4,8(sp)
   1102c:	00000513          	li	a0,0
   11030:	02010113          	add	sp,sp,32
   11034:	00008067          	ret
   11038:	408005b3          	neg	a1,s0
   1103c:	00090513          	mv	a0,s2
   11040:	085050ef          	jal	168c4 <_sbrk_r>
   11044:	fff00793          	li	a5,-1
   11048:	04f50863          	beq	a0,a5,11098 <_malloc_trim_r+0x104>
   1104c:	09018793          	add	a5,gp,144 # 239a0 <__malloc_current_mallinfo>
   11050:	0007a703          	lw	a4,0(a5)
   11054:	0089a683          	lw	a3,8(s3)
   11058:	408484b3          	sub	s1,s1,s0
   1105c:	0014e493          	or	s1,s1,1
   11060:	40870733          	sub	a4,a4,s0
   11064:	00090513          	mv	a0,s2
   11068:	0096a223          	sw	s1,4(a3)
   1106c:	00e7a023          	sw	a4,0(a5)
   11070:	321000ef          	jal	11b90 <__malloc_unlock>
   11074:	01c12083          	lw	ra,28(sp)
   11078:	01812403          	lw	s0,24(sp)
   1107c:	01412483          	lw	s1,20(sp)
   11080:	01012903          	lw	s2,16(sp)
   11084:	00c12983          	lw	s3,12(sp)
   11088:	00812a03          	lw	s4,8(sp)
   1108c:	00100513          	li	a0,1
   11090:	02010113          	add	sp,sp,32
   11094:	00008067          	ret
   11098:	00000593          	li	a1,0
   1109c:	00090513          	mv	a0,s2
   110a0:	025050ef          	jal	168c4 <_sbrk_r>
   110a4:	0089a703          	lw	a4,8(s3)
   110a8:	00f00693          	li	a3,15
   110ac:	40e507b3          	sub	a5,a0,a4
   110b0:	f4f6dee3          	bge	a3,a5,1100c <_malloc_trim_r+0x78>
   110b4:	f141a683          	lw	a3,-236(gp) # 23824 <__malloc_sbrk_base>
   110b8:	0017e793          	or	a5,a5,1
   110bc:	00f72223          	sw	a5,4(a4) # 1004 <exit-0xf09c>
   110c0:	40d50533          	sub	a0,a0,a3
   110c4:	08a1a823          	sw	a0,144(gp) # 239a0 <__malloc_current_mallinfo>
   110c8:	f45ff06f          	j	1100c <_malloc_trim_r+0x78>

000110cc <_free_r>:
   110cc:	18058263          	beqz	a1,11250 <_free_r+0x184>
   110d0:	ff010113          	add	sp,sp,-16
   110d4:	00812423          	sw	s0,8(sp)
   110d8:	00912223          	sw	s1,4(sp)
   110dc:	00058413          	mv	s0,a1
   110e0:	00050493          	mv	s1,a0
   110e4:	00112623          	sw	ra,12(sp)
   110e8:	2a5000ef          	jal	11b8c <__malloc_lock>
   110ec:	ffc42503          	lw	a0,-4(s0)
   110f0:	ff840713          	add	a4,s0,-8
   110f4:	000235b7          	lui	a1,0x23
   110f8:	ffe57793          	and	a5,a0,-2
   110fc:	00f70633          	add	a2,a4,a5
   11100:	24058593          	add	a1,a1,576 # 23240 <__malloc_av_>
   11104:	00462683          	lw	a3,4(a2) # 2004 <exit-0xe09c>
   11108:	0085a803          	lw	a6,8(a1)
   1110c:	ffc6f693          	and	a3,a3,-4
   11110:	1ac80263          	beq	a6,a2,112b4 <_free_r+0x1e8>
   11114:	00d62223          	sw	a3,4(a2)
   11118:	00157513          	and	a0,a0,1
   1111c:	00d60833          	add	a6,a2,a3
   11120:	0a051063          	bnez	a0,111c0 <_free_r+0xf4>
   11124:	ff842303          	lw	t1,-8(s0)
   11128:	00482803          	lw	a6,4(a6)
   1112c:	00023537          	lui	a0,0x23
   11130:	40670733          	sub	a4,a4,t1
   11134:	00872883          	lw	a7,8(a4)
   11138:	24850513          	add	a0,a0,584 # 23248 <__malloc_av_+0x8>
   1113c:	006787b3          	add	a5,a5,t1
   11140:	00187813          	and	a6,a6,1
   11144:	14a88263          	beq	a7,a0,11288 <_free_r+0x1bc>
   11148:	00c72303          	lw	t1,12(a4)
   1114c:	0068a623          	sw	t1,12(a7)
   11150:	01132423          	sw	a7,8(t1)
   11154:	1a080663          	beqz	a6,11300 <_free_r+0x234>
   11158:	0017e693          	or	a3,a5,1
   1115c:	00d72223          	sw	a3,4(a4)
   11160:	00f62023          	sw	a5,0(a2)
   11164:	1ff00693          	li	a3,511
   11168:	06f6ec63          	bltu	a3,a5,111e0 <_free_r+0x114>
   1116c:	ff87f693          	and	a3,a5,-8
   11170:	00868693          	add	a3,a3,8
   11174:	0045a503          	lw	a0,4(a1)
   11178:	00d586b3          	add	a3,a1,a3
   1117c:	0006a603          	lw	a2,0(a3)
   11180:	0057d813          	srl	a6,a5,0x5
   11184:	00100793          	li	a5,1
   11188:	010797b3          	sll	a5,a5,a6
   1118c:	00a7e7b3          	or	a5,a5,a0
   11190:	ff868513          	add	a0,a3,-8
   11194:	00a72623          	sw	a0,12(a4)
   11198:	00c72423          	sw	a2,8(a4)
   1119c:	00f5a223          	sw	a5,4(a1)
   111a0:	00e6a023          	sw	a4,0(a3)
   111a4:	00e62623          	sw	a4,12(a2)
   111a8:	00812403          	lw	s0,8(sp)
   111ac:	00c12083          	lw	ra,12(sp)
   111b0:	00048513          	mv	a0,s1
   111b4:	00412483          	lw	s1,4(sp)
   111b8:	01010113          	add	sp,sp,16
   111bc:	1d50006f          	j	11b90 <__malloc_unlock>
   111c0:	00482503          	lw	a0,4(a6)
   111c4:	00157513          	and	a0,a0,1
   111c8:	08050663          	beqz	a0,11254 <_free_r+0x188>
   111cc:	0017e693          	or	a3,a5,1
   111d0:	fed42e23          	sw	a3,-4(s0)
   111d4:	00f62023          	sw	a5,0(a2)
   111d8:	1ff00693          	li	a3,511
   111dc:	f8f6f8e3          	bgeu	a3,a5,1116c <_free_r+0xa0>
   111e0:	0097d693          	srl	a3,a5,0x9
   111e4:	00400613          	li	a2,4
   111e8:	12d66063          	bltu	a2,a3,11308 <_free_r+0x23c>
   111ec:	0067d693          	srl	a3,a5,0x6
   111f0:	03968513          	add	a0,a3,57
   111f4:	03868613          	add	a2,a3,56
   111f8:	00351513          	sll	a0,a0,0x3
   111fc:	00a58533          	add	a0,a1,a0
   11200:	00052683          	lw	a3,0(a0)
   11204:	ff850513          	add	a0,a0,-8
   11208:	00d51863          	bne	a0,a3,11218 <_free_r+0x14c>
   1120c:	1540006f          	j	11360 <_free_r+0x294>
   11210:	0086a683          	lw	a3,8(a3)
   11214:	00d50863          	beq	a0,a3,11224 <_free_r+0x158>
   11218:	0046a603          	lw	a2,4(a3)
   1121c:	ffc67613          	and	a2,a2,-4
   11220:	fec7e8e3          	bltu	a5,a2,11210 <_free_r+0x144>
   11224:	00c6a503          	lw	a0,12(a3)
   11228:	00a72623          	sw	a0,12(a4)
   1122c:	00d72423          	sw	a3,8(a4)
   11230:	00812403          	lw	s0,8(sp)
   11234:	00e52423          	sw	a4,8(a0)
   11238:	00c12083          	lw	ra,12(sp)
   1123c:	00048513          	mv	a0,s1
   11240:	00412483          	lw	s1,4(sp)
   11244:	00e6a623          	sw	a4,12(a3)
   11248:	01010113          	add	sp,sp,16
   1124c:	1450006f          	j	11b90 <__malloc_unlock>
   11250:	00008067          	ret
   11254:	00023537          	lui	a0,0x23
   11258:	00d787b3          	add	a5,a5,a3
   1125c:	24850513          	add	a0,a0,584 # 23248 <__malloc_av_+0x8>
   11260:	00862683          	lw	a3,8(a2)
   11264:	0ca68c63          	beq	a3,a0,1133c <_free_r+0x270>
   11268:	00c62803          	lw	a6,12(a2)
   1126c:	0017e513          	or	a0,a5,1
   11270:	00f70633          	add	a2,a4,a5
   11274:	0106a623          	sw	a6,12(a3)
   11278:	00d82423          	sw	a3,8(a6)
   1127c:	00a72223          	sw	a0,4(a4)
   11280:	00f62023          	sw	a5,0(a2)
   11284:	ee1ff06f          	j	11164 <_free_r+0x98>
   11288:	12081c63          	bnez	a6,113c0 <_free_r+0x2f4>
   1128c:	00862583          	lw	a1,8(a2)
   11290:	00c62603          	lw	a2,12(a2)
   11294:	00f686b3          	add	a3,a3,a5
   11298:	0016e793          	or	a5,a3,1
   1129c:	00c5a623          	sw	a2,12(a1)
   112a0:	00b62423          	sw	a1,8(a2)
   112a4:	00f72223          	sw	a5,4(a4)
   112a8:	00d70733          	add	a4,a4,a3
   112ac:	00d72023          	sw	a3,0(a4)
   112b0:	ef9ff06f          	j	111a8 <_free_r+0xdc>
   112b4:	00157513          	and	a0,a0,1
   112b8:	00d786b3          	add	a3,a5,a3
   112bc:	02051063          	bnez	a0,112dc <_free_r+0x210>
   112c0:	ff842503          	lw	a0,-8(s0)
   112c4:	40a70733          	sub	a4,a4,a0
   112c8:	00c72783          	lw	a5,12(a4)
   112cc:	00872603          	lw	a2,8(a4)
   112d0:	00a686b3          	add	a3,a3,a0
   112d4:	00f62623          	sw	a5,12(a2)
   112d8:	00c7a423          	sw	a2,8(a5)
   112dc:	0016e613          	or	a2,a3,1
   112e0:	f181a783          	lw	a5,-232(gp) # 23828 <__malloc_trim_threshold>
   112e4:	00c72223          	sw	a2,4(a4)
   112e8:	00e5a423          	sw	a4,8(a1)
   112ec:	eaf6eee3          	bltu	a3,a5,111a8 <_free_r+0xdc>
   112f0:	f301a583          	lw	a1,-208(gp) # 23840 <__malloc_top_pad>
   112f4:	00048513          	mv	a0,s1
   112f8:	c9dff0ef          	jal	10f94 <_malloc_trim_r>
   112fc:	eadff06f          	j	111a8 <_free_r+0xdc>
   11300:	00d787b3          	add	a5,a5,a3
   11304:	f5dff06f          	j	11260 <_free_r+0x194>
   11308:	01400613          	li	a2,20
   1130c:	02d67063          	bgeu	a2,a3,1132c <_free_r+0x260>
   11310:	05400613          	li	a2,84
   11314:	06d66463          	bltu	a2,a3,1137c <_free_r+0x2b0>
   11318:	00c7d693          	srl	a3,a5,0xc
   1131c:	06f68513          	add	a0,a3,111
   11320:	06e68613          	add	a2,a3,110
   11324:	00351513          	sll	a0,a0,0x3
   11328:	ed5ff06f          	j	111fc <_free_r+0x130>
   1132c:	05c68513          	add	a0,a3,92
   11330:	05b68613          	add	a2,a3,91
   11334:	00351513          	sll	a0,a0,0x3
   11338:	ec5ff06f          	j	111fc <_free_r+0x130>
   1133c:	00e5aa23          	sw	a4,20(a1)
   11340:	00e5a823          	sw	a4,16(a1)
   11344:	0017e693          	or	a3,a5,1
   11348:	00a72623          	sw	a0,12(a4)
   1134c:	00a72423          	sw	a0,8(a4)
   11350:	00d72223          	sw	a3,4(a4)
   11354:	00f70733          	add	a4,a4,a5
   11358:	00f72023          	sw	a5,0(a4)
   1135c:	e4dff06f          	j	111a8 <_free_r+0xdc>
   11360:	0045a803          	lw	a6,4(a1)
   11364:	40265613          	sra	a2,a2,0x2
   11368:	00100793          	li	a5,1
   1136c:	00c797b3          	sll	a5,a5,a2
   11370:	0107e7b3          	or	a5,a5,a6
   11374:	00f5a223          	sw	a5,4(a1)
   11378:	eb1ff06f          	j	11228 <_free_r+0x15c>
   1137c:	15400613          	li	a2,340
   11380:	00d66c63          	bltu	a2,a3,11398 <_free_r+0x2cc>
   11384:	00f7d693          	srl	a3,a5,0xf
   11388:	07868513          	add	a0,a3,120
   1138c:	07768613          	add	a2,a3,119
   11390:	00351513          	sll	a0,a0,0x3
   11394:	e69ff06f          	j	111fc <_free_r+0x130>
   11398:	55400613          	li	a2,1364
   1139c:	00d66c63          	bltu	a2,a3,113b4 <_free_r+0x2e8>
   113a0:	0127d693          	srl	a3,a5,0x12
   113a4:	07d68513          	add	a0,a3,125
   113a8:	07c68613          	add	a2,a3,124
   113ac:	00351513          	sll	a0,a0,0x3
   113b0:	e4dff06f          	j	111fc <_free_r+0x130>
   113b4:	3f800513          	li	a0,1016
   113b8:	07e00613          	li	a2,126
   113bc:	e41ff06f          	j	111fc <_free_r+0x130>
   113c0:	0017e693          	or	a3,a5,1
   113c4:	00d72223          	sw	a3,4(a4)
   113c8:	00f62023          	sw	a5,0(a2)
   113cc:	dddff06f          	j	111a8 <_free_r+0xdc>

000113d0 <_malloc_r>:
   113d0:	fd010113          	add	sp,sp,-48
   113d4:	01312e23          	sw	s3,28(sp)
   113d8:	02112623          	sw	ra,44(sp)
   113dc:	02812423          	sw	s0,40(sp)
   113e0:	02912223          	sw	s1,36(sp)
   113e4:	03212023          	sw	s2,32(sp)
   113e8:	00b58793          	add	a5,a1,11
   113ec:	01600713          	li	a4,22
   113f0:	00050993          	mv	s3,a0
   113f4:	08f76263          	bltu	a4,a5,11478 <_malloc_r+0xa8>
   113f8:	01000793          	li	a5,16
   113fc:	20b7e663          	bltu	a5,a1,11608 <_malloc_r+0x238>
   11400:	78c000ef          	jal	11b8c <__malloc_lock>
   11404:	01800793          	li	a5,24
   11408:	00200593          	li	a1,2
   1140c:	01000493          	li	s1,16
   11410:	00023937          	lui	s2,0x23
   11414:	24090913          	add	s2,s2,576 # 23240 <__malloc_av_>
   11418:	00f907b3          	add	a5,s2,a5
   1141c:	0047a403          	lw	s0,4(a5)
   11420:	ff878713          	add	a4,a5,-8
   11424:	34e40463          	beq	s0,a4,1176c <_malloc_r+0x39c>
   11428:	00442783          	lw	a5,4(s0)
   1142c:	00c42683          	lw	a3,12(s0)
   11430:	00842603          	lw	a2,8(s0)
   11434:	ffc7f793          	and	a5,a5,-4
   11438:	00f407b3          	add	a5,s0,a5
   1143c:	0047a703          	lw	a4,4(a5)
   11440:	00d62623          	sw	a3,12(a2)
   11444:	00c6a423          	sw	a2,8(a3)
   11448:	00176713          	or	a4,a4,1
   1144c:	00098513          	mv	a0,s3
   11450:	00e7a223          	sw	a4,4(a5)
   11454:	73c000ef          	jal	11b90 <__malloc_unlock>
   11458:	00840513          	add	a0,s0,8
   1145c:	02c12083          	lw	ra,44(sp)
   11460:	02812403          	lw	s0,40(sp)
   11464:	02412483          	lw	s1,36(sp)
   11468:	02012903          	lw	s2,32(sp)
   1146c:	01c12983          	lw	s3,28(sp)
   11470:	03010113          	add	sp,sp,48
   11474:	00008067          	ret
   11478:	ff87f493          	and	s1,a5,-8
   1147c:	1807c663          	bltz	a5,11608 <_malloc_r+0x238>
   11480:	18b4e463          	bltu	s1,a1,11608 <_malloc_r+0x238>
   11484:	708000ef          	jal	11b8c <__malloc_lock>
   11488:	1f700793          	li	a5,503
   1148c:	3e97fa63          	bgeu	a5,s1,11880 <_malloc_r+0x4b0>
   11490:	0094d793          	srl	a5,s1,0x9
   11494:	18078263          	beqz	a5,11618 <_malloc_r+0x248>
   11498:	00400713          	li	a4,4
   1149c:	34f76063          	bltu	a4,a5,117dc <_malloc_r+0x40c>
   114a0:	0064d793          	srl	a5,s1,0x6
   114a4:	03978593          	add	a1,a5,57
   114a8:	03878813          	add	a6,a5,56
   114ac:	00359613          	sll	a2,a1,0x3
   114b0:	00023937          	lui	s2,0x23
   114b4:	24090913          	add	s2,s2,576 # 23240 <__malloc_av_>
   114b8:	00c90633          	add	a2,s2,a2
   114bc:	00462403          	lw	s0,4(a2)
   114c0:	ff860613          	add	a2,a2,-8
   114c4:	02860863          	beq	a2,s0,114f4 <_malloc_r+0x124>
   114c8:	00f00513          	li	a0,15
   114cc:	0140006f          	j	114e0 <_malloc_r+0x110>
   114d0:	00c42683          	lw	a3,12(s0)
   114d4:	28075863          	bgez	a4,11764 <_malloc_r+0x394>
   114d8:	00d60e63          	beq	a2,a3,114f4 <_malloc_r+0x124>
   114dc:	00068413          	mv	s0,a3
   114e0:	00442783          	lw	a5,4(s0)
   114e4:	ffc7f793          	and	a5,a5,-4
   114e8:	40978733          	sub	a4,a5,s1
   114ec:	fee552e3          	bge	a0,a4,114d0 <_malloc_r+0x100>
   114f0:	00080593          	mv	a1,a6
   114f4:	01092403          	lw	s0,16(s2)
   114f8:	00023837          	lui	a6,0x23
   114fc:	24880813          	add	a6,a6,584 # 23248 <__malloc_av_+0x8>
   11500:	25040e63          	beq	s0,a6,1175c <_malloc_r+0x38c>
   11504:	00442783          	lw	a5,4(s0)
   11508:	00f00693          	li	a3,15
   1150c:	ffc7f793          	and	a5,a5,-4
   11510:	40978733          	sub	a4,a5,s1
   11514:	36e6cc63          	blt	a3,a4,1188c <_malloc_r+0x4bc>
   11518:	01092a23          	sw	a6,20(s2)
   1151c:	01092823          	sw	a6,16(s2)
   11520:	34075063          	bgez	a4,11860 <_malloc_r+0x490>
   11524:	1ff00713          	li	a4,511
   11528:	00492503          	lw	a0,4(s2)
   1152c:	24f76863          	bltu	a4,a5,1177c <_malloc_r+0x3ac>
   11530:	ff87f713          	and	a4,a5,-8
   11534:	00870713          	add	a4,a4,8
   11538:	00e90733          	add	a4,s2,a4
   1153c:	00072683          	lw	a3,0(a4)
   11540:	0057d613          	srl	a2,a5,0x5
   11544:	00100793          	li	a5,1
   11548:	00c797b3          	sll	a5,a5,a2
   1154c:	00f56533          	or	a0,a0,a5
   11550:	ff870793          	add	a5,a4,-8
   11554:	00f42623          	sw	a5,12(s0)
   11558:	00d42423          	sw	a3,8(s0)
   1155c:	00a92223          	sw	a0,4(s2)
   11560:	00872023          	sw	s0,0(a4)
   11564:	0086a623          	sw	s0,12(a3)
   11568:	4025d793          	sra	a5,a1,0x2
   1156c:	00100613          	li	a2,1
   11570:	00f61633          	sll	a2,a2,a5
   11574:	0ac56a63          	bltu	a0,a2,11628 <_malloc_r+0x258>
   11578:	00a677b3          	and	a5,a2,a0
   1157c:	02079463          	bnez	a5,115a4 <_malloc_r+0x1d4>
   11580:	00161613          	sll	a2,a2,0x1
   11584:	ffc5f593          	and	a1,a1,-4
   11588:	00a677b3          	and	a5,a2,a0
   1158c:	00458593          	add	a1,a1,4
   11590:	00079a63          	bnez	a5,115a4 <_malloc_r+0x1d4>
   11594:	00161613          	sll	a2,a2,0x1
   11598:	00a677b3          	and	a5,a2,a0
   1159c:	00458593          	add	a1,a1,4
   115a0:	fe078ae3          	beqz	a5,11594 <_malloc_r+0x1c4>
   115a4:	00f00893          	li	a7,15
   115a8:	00359313          	sll	t1,a1,0x3
   115ac:	00690333          	add	t1,s2,t1
   115b0:	00030513          	mv	a0,t1
   115b4:	00c52783          	lw	a5,12(a0)
   115b8:	00058e13          	mv	t3,a1
   115bc:	24f50263          	beq	a0,a5,11800 <_malloc_r+0x430>
   115c0:	0047a703          	lw	a4,4(a5)
   115c4:	00078413          	mv	s0,a5
   115c8:	00c7a783          	lw	a5,12(a5)
   115cc:	ffc77713          	and	a4,a4,-4
   115d0:	409706b3          	sub	a3,a4,s1
   115d4:	24d8c263          	blt	a7,a3,11818 <_malloc_r+0x448>
   115d8:	fe06c2e3          	bltz	a3,115bc <_malloc_r+0x1ec>
   115dc:	00e40733          	add	a4,s0,a4
   115e0:	00472683          	lw	a3,4(a4)
   115e4:	00842603          	lw	a2,8(s0)
   115e8:	00098513          	mv	a0,s3
   115ec:	0016e693          	or	a3,a3,1
   115f0:	00d72223          	sw	a3,4(a4)
   115f4:	00f62623          	sw	a5,12(a2)
   115f8:	00c7a423          	sw	a2,8(a5)
   115fc:	594000ef          	jal	11b90 <__malloc_unlock>
   11600:	00840513          	add	a0,s0,8
   11604:	e59ff06f          	j	1145c <_malloc_r+0x8c>
   11608:	00c00793          	li	a5,12
   1160c:	00f9a023          	sw	a5,0(s3)
   11610:	00000513          	li	a0,0
   11614:	e49ff06f          	j	1145c <_malloc_r+0x8c>
   11618:	20000613          	li	a2,512
   1161c:	04000593          	li	a1,64
   11620:	03f00813          	li	a6,63
   11624:	e8dff06f          	j	114b0 <_malloc_r+0xe0>
   11628:	00892403          	lw	s0,8(s2)
   1162c:	01612823          	sw	s6,16(sp)
   11630:	00442783          	lw	a5,4(s0)
   11634:	ffc7fb13          	and	s6,a5,-4
   11638:	009b6863          	bltu	s6,s1,11648 <_malloc_r+0x278>
   1163c:	409b0733          	sub	a4,s6,s1
   11640:	00f00793          	li	a5,15
   11644:	0ce7ca63          	blt	a5,a4,11718 <_malloc_r+0x348>
   11648:	01912223          	sw	s9,4(sp)
   1164c:	01512a23          	sw	s5,20(sp)
   11650:	f141a703          	lw	a4,-236(gp) # 23824 <__malloc_sbrk_base>
   11654:	f301aa83          	lw	s5,-208(gp) # 23840 <__malloc_top_pad>
   11658:	01412c23          	sw	s4,24(sp)
   1165c:	01712623          	sw	s7,12(sp)
   11660:	fff00793          	li	a5,-1
   11664:	01640a33          	add	s4,s0,s6
   11668:	01548ab3          	add	s5,s1,s5
   1166c:	3cf70663          	beq	a4,a5,11a38 <_malloc_r+0x668>
   11670:	000017b7          	lui	a5,0x1
   11674:	00f78793          	add	a5,a5,15 # 100f <exit-0xf091>
   11678:	00fa8ab3          	add	s5,s5,a5
   1167c:	fffff7b7          	lui	a5,0xfffff
   11680:	00fafab3          	and	s5,s5,a5
   11684:	000a8593          	mv	a1,s5
   11688:	00098513          	mv	a0,s3
   1168c:	238050ef          	jal	168c4 <_sbrk_r>
   11690:	fff00793          	li	a5,-1
   11694:	00050b93          	mv	s7,a0
   11698:	44f50a63          	beq	a0,a5,11aec <_malloc_r+0x71c>
   1169c:	01812423          	sw	s8,8(sp)
   116a0:	23456e63          	bltu	a0,s4,118dc <_malloc_r+0x50c>
   116a4:	09018c13          	add	s8,gp,144 # 239a0 <__malloc_current_mallinfo>
   116a8:	000c2583          	lw	a1,0(s8)
   116ac:	00ba85b3          	add	a1,s5,a1
   116b0:	00bc2023          	sw	a1,0(s8)
   116b4:	00058713          	mv	a4,a1
   116b8:	2aaa1663          	bne	s4,a0,11964 <_malloc_r+0x594>
   116bc:	01451793          	sll	a5,a0,0x14
   116c0:	2a079263          	bnez	a5,11964 <_malloc_r+0x594>
   116c4:	00892b83          	lw	s7,8(s2)
   116c8:	015b07b3          	add	a5,s6,s5
   116cc:	0017e793          	or	a5,a5,1
   116d0:	00fba223          	sw	a5,4(s7)
   116d4:	f2c1a683          	lw	a3,-212(gp) # 2383c <__malloc_max_sbrked_mem>
   116d8:	00b6f463          	bgeu	a3,a1,116e0 <_malloc_r+0x310>
   116dc:	f2b1a623          	sw	a1,-212(gp) # 2383c <__malloc_max_sbrked_mem>
   116e0:	f281a683          	lw	a3,-216(gp) # 23838 <__malloc_max_total_mem>
   116e4:	00b6f463          	bgeu	a3,a1,116ec <_malloc_r+0x31c>
   116e8:	f2b1a423          	sw	a1,-216(gp) # 23838 <__malloc_max_total_mem>
   116ec:	00812c03          	lw	s8,8(sp)
   116f0:	000b8413          	mv	s0,s7
   116f4:	ffc7f793          	and	a5,a5,-4
   116f8:	40978733          	sub	a4,a5,s1
   116fc:	3897ea63          	bltu	a5,s1,11a90 <_malloc_r+0x6c0>
   11700:	00f00793          	li	a5,15
   11704:	38e7d663          	bge	a5,a4,11a90 <_malloc_r+0x6c0>
   11708:	01812a03          	lw	s4,24(sp)
   1170c:	01412a83          	lw	s5,20(sp)
   11710:	00c12b83          	lw	s7,12(sp)
   11714:	00412c83          	lw	s9,4(sp)
   11718:	0014e793          	or	a5,s1,1
   1171c:	00f42223          	sw	a5,4(s0)
   11720:	009404b3          	add	s1,s0,s1
   11724:	00992423          	sw	s1,8(s2)
   11728:	00176713          	or	a4,a4,1
   1172c:	00098513          	mv	a0,s3
   11730:	00e4a223          	sw	a4,4(s1)
   11734:	45c000ef          	jal	11b90 <__malloc_unlock>
   11738:	02c12083          	lw	ra,44(sp)
   1173c:	00840513          	add	a0,s0,8
   11740:	02812403          	lw	s0,40(sp)
   11744:	01012b03          	lw	s6,16(sp)
   11748:	02412483          	lw	s1,36(sp)
   1174c:	02012903          	lw	s2,32(sp)
   11750:	01c12983          	lw	s3,28(sp)
   11754:	03010113          	add	sp,sp,48
   11758:	00008067          	ret
   1175c:	00492503          	lw	a0,4(s2)
   11760:	e09ff06f          	j	11568 <_malloc_r+0x198>
   11764:	00842603          	lw	a2,8(s0)
   11768:	cd1ff06f          	j	11438 <_malloc_r+0x68>
   1176c:	00c7a403          	lw	s0,12(a5) # fffff00c <__BSS_END__+0xfffdb434>
   11770:	00258593          	add	a1,a1,2
   11774:	d88780e3          	beq	a5,s0,114f4 <_malloc_r+0x124>
   11778:	cb1ff06f          	j	11428 <_malloc_r+0x58>
   1177c:	0097d713          	srl	a4,a5,0x9
   11780:	00400693          	li	a3,4
   11784:	14e6f263          	bgeu	a3,a4,118c8 <_malloc_r+0x4f8>
   11788:	01400693          	li	a3,20
   1178c:	32e6e463          	bltu	a3,a4,11ab4 <_malloc_r+0x6e4>
   11790:	05c70613          	add	a2,a4,92
   11794:	05b70693          	add	a3,a4,91
   11798:	00361613          	sll	a2,a2,0x3
   1179c:	00c90633          	add	a2,s2,a2
   117a0:	00062703          	lw	a4,0(a2)
   117a4:	ff860613          	add	a2,a2,-8
   117a8:	00e61863          	bne	a2,a4,117b8 <_malloc_r+0x3e8>
   117ac:	2940006f          	j	11a40 <_malloc_r+0x670>
   117b0:	00872703          	lw	a4,8(a4)
   117b4:	00e60863          	beq	a2,a4,117c4 <_malloc_r+0x3f4>
   117b8:	00472683          	lw	a3,4(a4)
   117bc:	ffc6f693          	and	a3,a3,-4
   117c0:	fed7e8e3          	bltu	a5,a3,117b0 <_malloc_r+0x3e0>
   117c4:	00c72603          	lw	a2,12(a4)
   117c8:	00c42623          	sw	a2,12(s0)
   117cc:	00e42423          	sw	a4,8(s0)
   117d0:	00862423          	sw	s0,8(a2)
   117d4:	00872623          	sw	s0,12(a4)
   117d8:	d91ff06f          	j	11568 <_malloc_r+0x198>
   117dc:	01400713          	li	a4,20
   117e0:	10f77863          	bgeu	a4,a5,118f0 <_malloc_r+0x520>
   117e4:	05400713          	li	a4,84
   117e8:	2ef76463          	bltu	a4,a5,11ad0 <_malloc_r+0x700>
   117ec:	00c4d793          	srl	a5,s1,0xc
   117f0:	06f78593          	add	a1,a5,111
   117f4:	06e78813          	add	a6,a5,110
   117f8:	00359613          	sll	a2,a1,0x3
   117fc:	cb5ff06f          	j	114b0 <_malloc_r+0xe0>
   11800:	001e0e13          	add	t3,t3,1
   11804:	003e7793          	and	a5,t3,3
   11808:	00850513          	add	a0,a0,8
   1180c:	10078063          	beqz	a5,1190c <_malloc_r+0x53c>
   11810:	00c52783          	lw	a5,12(a0)
   11814:	da9ff06f          	j	115bc <_malloc_r+0x1ec>
   11818:	00842603          	lw	a2,8(s0)
   1181c:	0014e593          	or	a1,s1,1
   11820:	00b42223          	sw	a1,4(s0)
   11824:	00f62623          	sw	a5,12(a2)
   11828:	00c7a423          	sw	a2,8(a5)
   1182c:	009404b3          	add	s1,s0,s1
   11830:	00992a23          	sw	s1,20(s2)
   11834:	00992823          	sw	s1,16(s2)
   11838:	0016e793          	or	a5,a3,1
   1183c:	0104a623          	sw	a6,12(s1)
   11840:	0104a423          	sw	a6,8(s1)
   11844:	00f4a223          	sw	a5,4(s1)
   11848:	00e40733          	add	a4,s0,a4
   1184c:	00098513          	mv	a0,s3
   11850:	00d72023          	sw	a3,0(a4)
   11854:	33c000ef          	jal	11b90 <__malloc_unlock>
   11858:	00840513          	add	a0,s0,8
   1185c:	c01ff06f          	j	1145c <_malloc_r+0x8c>
   11860:	00f407b3          	add	a5,s0,a5
   11864:	0047a703          	lw	a4,4(a5)
   11868:	00098513          	mv	a0,s3
   1186c:	00176713          	or	a4,a4,1
   11870:	00e7a223          	sw	a4,4(a5)
   11874:	31c000ef          	jal	11b90 <__malloc_unlock>
   11878:	00840513          	add	a0,s0,8
   1187c:	be1ff06f          	j	1145c <_malloc_r+0x8c>
   11880:	0034d593          	srl	a1,s1,0x3
   11884:	00848793          	add	a5,s1,8
   11888:	b89ff06f          	j	11410 <_malloc_r+0x40>
   1188c:	0014e693          	or	a3,s1,1
   11890:	00d42223          	sw	a3,4(s0)
   11894:	009404b3          	add	s1,s0,s1
   11898:	00992a23          	sw	s1,20(s2)
   1189c:	00992823          	sw	s1,16(s2)
   118a0:	00176693          	or	a3,a4,1
   118a4:	0104a623          	sw	a6,12(s1)
   118a8:	0104a423          	sw	a6,8(s1)
   118ac:	00d4a223          	sw	a3,4(s1)
   118b0:	00f407b3          	add	a5,s0,a5
   118b4:	00098513          	mv	a0,s3
   118b8:	00e7a023          	sw	a4,0(a5)
   118bc:	2d4000ef          	jal	11b90 <__malloc_unlock>
   118c0:	00840513          	add	a0,s0,8
   118c4:	b99ff06f          	j	1145c <_malloc_r+0x8c>
   118c8:	0067d713          	srl	a4,a5,0x6
   118cc:	03970613          	add	a2,a4,57
   118d0:	03870693          	add	a3,a4,56
   118d4:	00361613          	sll	a2,a2,0x3
   118d8:	ec5ff06f          	j	1179c <_malloc_r+0x3cc>
   118dc:	07240c63          	beq	s0,s2,11954 <_malloc_r+0x584>
   118e0:	00892403          	lw	s0,8(s2)
   118e4:	00812c03          	lw	s8,8(sp)
   118e8:	00442783          	lw	a5,4(s0)
   118ec:	e09ff06f          	j	116f4 <_malloc_r+0x324>
   118f0:	05c78593          	add	a1,a5,92
   118f4:	05b78813          	add	a6,a5,91
   118f8:	00359613          	sll	a2,a1,0x3
   118fc:	bb5ff06f          	j	114b0 <_malloc_r+0xe0>
   11900:	00832783          	lw	a5,8(t1)
   11904:	fff58593          	add	a1,a1,-1
   11908:	26679e63          	bne	a5,t1,11b84 <_malloc_r+0x7b4>
   1190c:	0035f793          	and	a5,a1,3
   11910:	ff830313          	add	t1,t1,-8
   11914:	fe0796e3          	bnez	a5,11900 <_malloc_r+0x530>
   11918:	00492703          	lw	a4,4(s2)
   1191c:	fff64793          	not	a5,a2
   11920:	00e7f7b3          	and	a5,a5,a4
   11924:	00f92223          	sw	a5,4(s2)
   11928:	00161613          	sll	a2,a2,0x1
   1192c:	cec7eee3          	bltu	a5,a2,11628 <_malloc_r+0x258>
   11930:	ce060ce3          	beqz	a2,11628 <_malloc_r+0x258>
   11934:	00f67733          	and	a4,a2,a5
   11938:	00071a63          	bnez	a4,1194c <_malloc_r+0x57c>
   1193c:	00161613          	sll	a2,a2,0x1
   11940:	00f67733          	and	a4,a2,a5
   11944:	004e0e13          	add	t3,t3,4
   11948:	fe070ae3          	beqz	a4,1193c <_malloc_r+0x56c>
   1194c:	000e0593          	mv	a1,t3
   11950:	c59ff06f          	j	115a8 <_malloc_r+0x1d8>
   11954:	09018c13          	add	s8,gp,144 # 239a0 <__malloc_current_mallinfo>
   11958:	000c2703          	lw	a4,0(s8)
   1195c:	00ea8733          	add	a4,s5,a4
   11960:	00ec2023          	sw	a4,0(s8)
   11964:	f141a683          	lw	a3,-236(gp) # 23824 <__malloc_sbrk_base>
   11968:	fff00793          	li	a5,-1
   1196c:	18f68663          	beq	a3,a5,11af8 <_malloc_r+0x728>
   11970:	414b87b3          	sub	a5,s7,s4
   11974:	00e787b3          	add	a5,a5,a4
   11978:	00fc2023          	sw	a5,0(s8)
   1197c:	007bfc93          	and	s9,s7,7
   11980:	0c0c8c63          	beqz	s9,11a58 <_malloc_r+0x688>
   11984:	419b8bb3          	sub	s7,s7,s9
   11988:	000017b7          	lui	a5,0x1
   1198c:	00878793          	add	a5,a5,8 # 1008 <exit-0xf098>
   11990:	008b8b93          	add	s7,s7,8
   11994:	419785b3          	sub	a1,a5,s9
   11998:	015b8ab3          	add	s5,s7,s5
   1199c:	415585b3          	sub	a1,a1,s5
   119a0:	01459593          	sll	a1,a1,0x14
   119a4:	0145da13          	srl	s4,a1,0x14
   119a8:	000a0593          	mv	a1,s4
   119ac:	00098513          	mv	a0,s3
   119b0:	715040ef          	jal	168c4 <_sbrk_r>
   119b4:	fff00793          	li	a5,-1
   119b8:	18f50063          	beq	a0,a5,11b38 <_malloc_r+0x768>
   119bc:	41750533          	sub	a0,a0,s7
   119c0:	01450ab3          	add	s5,a0,s4
   119c4:	000c2703          	lw	a4,0(s8)
   119c8:	01792423          	sw	s7,8(s2)
   119cc:	001ae793          	or	a5,s5,1
   119d0:	00ea05b3          	add	a1,s4,a4
   119d4:	00bc2023          	sw	a1,0(s8)
   119d8:	00fba223          	sw	a5,4(s7)
   119dc:	cf240ce3          	beq	s0,s2,116d4 <_malloc_r+0x304>
   119e0:	00f00693          	li	a3,15
   119e4:	0b66f063          	bgeu	a3,s6,11a84 <_malloc_r+0x6b4>
   119e8:	00442703          	lw	a4,4(s0)
   119ec:	ff4b0793          	add	a5,s6,-12
   119f0:	ff87f793          	and	a5,a5,-8
   119f4:	00177713          	and	a4,a4,1
   119f8:	00f76733          	or	a4,a4,a5
   119fc:	00e42223          	sw	a4,4(s0)
   11a00:	00500613          	li	a2,5
   11a04:	00f40733          	add	a4,s0,a5
   11a08:	00c72223          	sw	a2,4(a4)
   11a0c:	00c72423          	sw	a2,8(a4)
   11a10:	00f6e663          	bltu	a3,a5,11a1c <_malloc_r+0x64c>
   11a14:	004ba783          	lw	a5,4(s7)
   11a18:	cbdff06f          	j	116d4 <_malloc_r+0x304>
   11a1c:	00840593          	add	a1,s0,8
   11a20:	00098513          	mv	a0,s3
   11a24:	ea8ff0ef          	jal	110cc <_free_r>
   11a28:	00892b83          	lw	s7,8(s2)
   11a2c:	000c2583          	lw	a1,0(s8)
   11a30:	004ba783          	lw	a5,4(s7)
   11a34:	ca1ff06f          	j	116d4 <_malloc_r+0x304>
   11a38:	010a8a93          	add	s5,s5,16
   11a3c:	c49ff06f          	j	11684 <_malloc_r+0x2b4>
   11a40:	4026d693          	sra	a3,a3,0x2
   11a44:	00100793          	li	a5,1
   11a48:	00d797b3          	sll	a5,a5,a3
   11a4c:	00f56533          	or	a0,a0,a5
   11a50:	00a92223          	sw	a0,4(s2)
   11a54:	d75ff06f          	j	117c8 <_malloc_r+0x3f8>
   11a58:	015b85b3          	add	a1,s7,s5
   11a5c:	40b005b3          	neg	a1,a1
   11a60:	01459593          	sll	a1,a1,0x14
   11a64:	0145da13          	srl	s4,a1,0x14
   11a68:	000a0593          	mv	a1,s4
   11a6c:	00098513          	mv	a0,s3
   11a70:	655040ef          	jal	168c4 <_sbrk_r>
   11a74:	fff00793          	li	a5,-1
   11a78:	f4f512e3          	bne	a0,a5,119bc <_malloc_r+0x5ec>
   11a7c:	00000a13          	li	s4,0
   11a80:	f45ff06f          	j	119c4 <_malloc_r+0x5f4>
   11a84:	00812c03          	lw	s8,8(sp)
   11a88:	00100793          	li	a5,1
   11a8c:	00fba223          	sw	a5,4(s7)
   11a90:	00098513          	mv	a0,s3
   11a94:	0fc000ef          	jal	11b90 <__malloc_unlock>
   11a98:	00000513          	li	a0,0
   11a9c:	01812a03          	lw	s4,24(sp)
   11aa0:	01412a83          	lw	s5,20(sp)
   11aa4:	01012b03          	lw	s6,16(sp)
   11aa8:	00c12b83          	lw	s7,12(sp)
   11aac:	00412c83          	lw	s9,4(sp)
   11ab0:	9adff06f          	j	1145c <_malloc_r+0x8c>
   11ab4:	05400693          	li	a3,84
   11ab8:	04e6e463          	bltu	a3,a4,11b00 <_malloc_r+0x730>
   11abc:	00c7d713          	srl	a4,a5,0xc
   11ac0:	06f70613          	add	a2,a4,111
   11ac4:	06e70693          	add	a3,a4,110
   11ac8:	00361613          	sll	a2,a2,0x3
   11acc:	cd1ff06f          	j	1179c <_malloc_r+0x3cc>
   11ad0:	15400713          	li	a4,340
   11ad4:	04f76463          	bltu	a4,a5,11b1c <_malloc_r+0x74c>
   11ad8:	00f4d793          	srl	a5,s1,0xf
   11adc:	07878593          	add	a1,a5,120
   11ae0:	07778813          	add	a6,a5,119
   11ae4:	00359613          	sll	a2,a1,0x3
   11ae8:	9c9ff06f          	j	114b0 <_malloc_r+0xe0>
   11aec:	00892403          	lw	s0,8(s2)
   11af0:	00442783          	lw	a5,4(s0)
   11af4:	c01ff06f          	j	116f4 <_malloc_r+0x324>
   11af8:	f171aa23          	sw	s7,-236(gp) # 23824 <__malloc_sbrk_base>
   11afc:	e81ff06f          	j	1197c <_malloc_r+0x5ac>
   11b00:	15400693          	li	a3,340
   11b04:	04e6e463          	bltu	a3,a4,11b4c <_malloc_r+0x77c>
   11b08:	00f7d713          	srl	a4,a5,0xf
   11b0c:	07870613          	add	a2,a4,120
   11b10:	07770693          	add	a3,a4,119
   11b14:	00361613          	sll	a2,a2,0x3
   11b18:	c85ff06f          	j	1179c <_malloc_r+0x3cc>
   11b1c:	55400713          	li	a4,1364
   11b20:	04f76463          	bltu	a4,a5,11b68 <_malloc_r+0x798>
   11b24:	0124d793          	srl	a5,s1,0x12
   11b28:	07d78593          	add	a1,a5,125
   11b2c:	07c78813          	add	a6,a5,124
   11b30:	00359613          	sll	a2,a1,0x3
   11b34:	97dff06f          	j	114b0 <_malloc_r+0xe0>
   11b38:	ff8c8c93          	add	s9,s9,-8
   11b3c:	019a8ab3          	add	s5,s5,s9
   11b40:	417a8ab3          	sub	s5,s5,s7
   11b44:	00000a13          	li	s4,0
   11b48:	e7dff06f          	j	119c4 <_malloc_r+0x5f4>
   11b4c:	55400693          	li	a3,1364
   11b50:	02e6e463          	bltu	a3,a4,11b78 <_malloc_r+0x7a8>
   11b54:	0127d713          	srl	a4,a5,0x12
   11b58:	07d70613          	add	a2,a4,125
   11b5c:	07c70693          	add	a3,a4,124
   11b60:	00361613          	sll	a2,a2,0x3
   11b64:	c39ff06f          	j	1179c <_malloc_r+0x3cc>
   11b68:	3f800613          	li	a2,1016
   11b6c:	07f00593          	li	a1,127
   11b70:	07e00813          	li	a6,126
   11b74:	93dff06f          	j	114b0 <_malloc_r+0xe0>
   11b78:	3f800613          	li	a2,1016
   11b7c:	07e00693          	li	a3,126
   11b80:	c1dff06f          	j	1179c <_malloc_r+0x3cc>
   11b84:	00492783          	lw	a5,4(s2)
   11b88:	da1ff06f          	j	11928 <_malloc_r+0x558>

00011b8c <__malloc_lock>:
   11b8c:	00008067          	ret

00011b90 <__malloc_unlock>:
   11b90:	00008067          	ret

00011b94 <_vfprintf_r>:
   11b94:	e3010113          	add	sp,sp,-464
   11b98:	1c112623          	sw	ra,460(sp)
   11b9c:	1c812423          	sw	s0,456(sp)
   11ba0:	1c912223          	sw	s1,452(sp)
   11ba4:	1b612823          	sw	s6,432(sp)
   11ba8:	00058493          	mv	s1,a1
   11bac:	00060b13          	mv	s6,a2
   11bb0:	00d12623          	sw	a3,12(sp)
   11bb4:	00050413          	mv	s0,a0
   11bb8:	02a12223          	sw	a0,36(sp)
   11bbc:	4f9040ef          	jal	168b4 <_localeconv_r>
   11bc0:	00052703          	lw	a4,0(a0)
   11bc4:	00070513          	mv	a0,a4
   11bc8:	02e12623          	sw	a4,44(sp)
   11bcc:	9f4ff0ef          	jal	10dc0 <strlen>
   11bd0:	02a12423          	sw	a0,40(sp)
   11bd4:	0c012823          	sw	zero,208(sp)
   11bd8:	0c012a23          	sw	zero,212(sp)
   11bdc:	0c012c23          	sw	zero,216(sp)
   11be0:	0c012e23          	sw	zero,220(sp)
   11be4:	00040863          	beqz	s0,11bf4 <_vfprintf_r+0x60>
   11be8:	03442703          	lw	a4,52(s0)
   11bec:	00071463          	bnez	a4,11bf4 <_vfprintf_r+0x60>
   11bf0:	1150106f          	j	13504 <_vfprintf_r+0x1970>
   11bf4:	00c49703          	lh	a4,12(s1)
   11bf8:	01271693          	sll	a3,a4,0x12
   11bfc:	0206c663          	bltz	a3,11c28 <_vfprintf_r+0x94>
   11c00:	0644a683          	lw	a3,100(s1)
   11c04:	000025b7          	lui	a1,0x2
   11c08:	ffffe637          	lui	a2,0xffffe
   11c0c:	00b76733          	or	a4,a4,a1
   11c10:	fff60613          	add	a2,a2,-1 # ffffdfff <__BSS_END__+0xfffda427>
   11c14:	01071713          	sll	a4,a4,0x10
   11c18:	41075713          	sra	a4,a4,0x10
   11c1c:	00c6f6b3          	and	a3,a3,a2
   11c20:	00e49623          	sh	a4,12(s1)
   11c24:	06d4a223          	sw	a3,100(s1)
   11c28:	00877693          	and	a3,a4,8
   11c2c:	30068463          	beqz	a3,11f34 <_vfprintf_r+0x3a0>
   11c30:	0104a683          	lw	a3,16(s1)
   11c34:	30068063          	beqz	a3,11f34 <_vfprintf_r+0x3a0>
   11c38:	01a77713          	and	a4,a4,26
   11c3c:	00a00693          	li	a3,10
   11c40:	30d70c63          	beq	a4,a3,11f58 <_vfprintf_r+0x3c4>
   11c44:	1b312e23          	sw	s3,444(sp)
   11c48:	1b512a23          	sw	s5,436(sp)
   11c4c:	1b712623          	sw	s7,428(sp)
   11c50:	1ba12023          	sw	s10,416(sp)
   11c54:	00022737          	lui	a4,0x22
   11c58:	1d212023          	sw	s2,448(sp)
   11c5c:	1b412c23          	sw	s4,440(sp)
   11c60:	1b812423          	sw	s8,424(sp)
   11c64:	1b912223          	sw	s9,420(sp)
   11c68:	19b12e23          	sw	s11,412(sp)
   11c6c:	000b0d13          	mv	s10,s6
   11c70:	13070793          	add	a5,a4,304 # 22130 <__clzsi2+0x204>
   11c74:	000d4703          	lbu	a4,0(s10)
   11c78:	0ec10993          	add	s3,sp,236
   11c7c:	00022ab7          	lui	s5,0x22
   11c80:	0d312223          	sw	s3,196(sp)
   11c84:	0c012623          	sw	zero,204(sp)
   11c88:	0c012423          	sw	zero,200(sp)
   11c8c:	00012c23          	sw	zero,24(sp)
   11c90:	02012823          	sw	zero,48(sp)
   11c94:	02012e23          	sw	zero,60(sp)
   11c98:	02012c23          	sw	zero,56(sp)
   11c9c:	04012023          	sw	zero,64(sp)
   11ca0:	04012223          	sw	zero,68(sp)
   11ca4:	00012223          	sw	zero,4(sp)
   11ca8:	00f12823          	sw	a5,16(sp)
   11cac:	02412b83          	lw	s7,36(sp)
   11cb0:	00098413          	mv	s0,s3
   11cb4:	334a8a93          	add	s5,s5,820 # 22334 <zeroes.0>
   11cb8:	22070063          	beqz	a4,11ed8 <_vfprintf_r+0x344>
   11cbc:	000d0913          	mv	s2,s10
   11cc0:	02500693          	li	a3,37
   11cc4:	3ed70863          	beq	a4,a3,120b4 <_vfprintf_r+0x520>
   11cc8:	00194703          	lbu	a4,1(s2)
   11ccc:	00190913          	add	s2,s2,1
   11cd0:	fe071ae3          	bnez	a4,11cc4 <_vfprintf_r+0x130>
   11cd4:	41a90a33          	sub	s4,s2,s10
   11cd8:	21a90063          	beq	s2,s10,11ed8 <_vfprintf_r+0x344>
   11cdc:	0cc12683          	lw	a3,204(sp)
   11ce0:	0c812703          	lw	a4,200(sp)
   11ce4:	01a42023          	sw	s10,0(s0)
   11ce8:	014686b3          	add	a3,a3,s4
   11cec:	00170713          	add	a4,a4,1
   11cf0:	01442223          	sw	s4,4(s0)
   11cf4:	0cd12623          	sw	a3,204(sp)
   11cf8:	0ce12423          	sw	a4,200(sp)
   11cfc:	00700693          	li	a3,7
   11d00:	00840413          	add	s0,s0,8
   11d04:	3ce6c063          	blt	a3,a4,120c4 <_vfprintf_r+0x530>
   11d08:	00412783          	lw	a5,4(sp)
   11d0c:	00094703          	lbu	a4,0(s2)
   11d10:	014787b3          	add	a5,a5,s4
   11d14:	00f12223          	sw	a5,4(sp)
   11d18:	1c070063          	beqz	a4,11ed8 <_vfprintf_r+0x344>
   11d1c:	00194883          	lbu	a7,1(s2)
   11d20:	0a0103a3          	sb	zero,167(sp)
   11d24:	00190913          	add	s2,s2,1
   11d28:	fff00a13          	li	s4,-1
   11d2c:	00000c93          	li	s9,0
   11d30:	00000d93          	li	s11,0
   11d34:	05a00b13          	li	s6,90
   11d38:	00190913          	add	s2,s2,1
   11d3c:	fe088793          	add	a5,a7,-32
   11d40:	04fb6663          	bltu	s6,a5,11d8c <_vfprintf_r+0x1f8>
   11d44:	01012703          	lw	a4,16(sp)
   11d48:	00279793          	sll	a5,a5,0x2
   11d4c:	00e787b3          	add	a5,a5,a4
   11d50:	0007a783          	lw	a5,0(a5)
   11d54:	00078067          	jr	a5
   11d58:	00000c93          	li	s9,0
   11d5c:	fd088793          	add	a5,a7,-48
   11d60:	00900693          	li	a3,9
   11d64:	00094883          	lbu	a7,0(s2)
   11d68:	002c9713          	sll	a4,s9,0x2
   11d6c:	01970cb3          	add	s9,a4,s9
   11d70:	001c9c93          	sll	s9,s9,0x1
   11d74:	01978cb3          	add	s9,a5,s9
   11d78:	fd088793          	add	a5,a7,-48
   11d7c:	00190913          	add	s2,s2,1
   11d80:	fef6f2e3          	bgeu	a3,a5,11d64 <_vfprintf_r+0x1d0>
   11d84:	fe088793          	add	a5,a7,-32
   11d88:	fafb7ee3          	bgeu	s6,a5,11d44 <_vfprintf_r+0x1b0>
   11d8c:	14088663          	beqz	a7,11ed8 <_vfprintf_r+0x344>
   11d90:	13110623          	sb	a7,300(sp)
   11d94:	0a0103a3          	sb	zero,167(sp)
   11d98:	00100c13          	li	s8,1
   11d9c:	00100b13          	li	s6,1
   11da0:	12c10d13          	add	s10,sp,300
   11da4:	00012423          	sw	zero,8(sp)
   11da8:	00000a13          	li	s4,0
   11dac:	02012023          	sw	zero,32(sp)
   11db0:	00012e23          	sw	zero,28(sp)
   11db4:	00012a23          	sw	zero,20(sp)
   11db8:	002df293          	and	t0,s11,2
   11dbc:	00028463          	beqz	t0,11dc4 <_vfprintf_r+0x230>
   11dc0:	002c0c13          	add	s8,s8,2
   11dc4:	084dff93          	and	t6,s11,132
   11dc8:	0cc12603          	lw	a2,204(sp)
   11dcc:	000f9663          	bnez	t6,11dd8 <_vfprintf_r+0x244>
   11dd0:	418c8733          	sub	a4,s9,s8
   11dd4:	46e04ce3          	bgtz	a4,12a4c <_vfprintf_r+0xeb8>
   11dd8:	0a714703          	lbu	a4,167(sp)
   11ddc:	02070a63          	beqz	a4,11e10 <_vfprintf_r+0x27c>
   11de0:	0c812703          	lw	a4,200(sp)
   11de4:	0a710593          	add	a1,sp,167
   11de8:	00b42023          	sw	a1,0(s0)
   11dec:	00160613          	add	a2,a2,1
   11df0:	00100593          	li	a1,1
   11df4:	00170713          	add	a4,a4,1
   11df8:	00b42223          	sw	a1,4(s0)
   11dfc:	0cc12623          	sw	a2,204(sp)
   11e00:	0ce12423          	sw	a4,200(sp)
   11e04:	00700593          	li	a1,7
   11e08:	00840413          	add	s0,s0,8
   11e0c:	3ee5c463          	blt	a1,a4,121f4 <_vfprintf_r+0x660>
   11e10:	02028a63          	beqz	t0,11e44 <_vfprintf_r+0x2b0>
   11e14:	0c812703          	lw	a4,200(sp)
   11e18:	00200593          	li	a1,2
   11e1c:	00260613          	add	a2,a2,2
   11e20:	00170713          	add	a4,a4,1
   11e24:	0a810793          	add	a5,sp,168
   11e28:	00b42223          	sw	a1,4(s0)
   11e2c:	00f42023          	sw	a5,0(s0)
   11e30:	0cc12623          	sw	a2,204(sp)
   11e34:	0ce12423          	sw	a4,200(sp)
   11e38:	00700593          	li	a1,7
   11e3c:	00840413          	add	s0,s0,8
   11e40:	50e5cce3          	blt	a1,a4,12b58 <_vfprintf_r+0xfc4>
   11e44:	08000713          	li	a4,128
   11e48:	1eef8ee3          	beq	t6,a4,12844 <_vfprintf_r+0xcb0>
   11e4c:	416a0a33          	sub	s4,s4,s6
   11e50:	2f4044e3          	bgtz	s4,12938 <_vfprintf_r+0xda4>
   11e54:	100df713          	and	a4,s11,256
   11e58:	040718e3          	bnez	a4,126a8 <_vfprintf_r+0xb14>
   11e5c:	0c812783          	lw	a5,200(sp)
   11e60:	01660633          	add	a2,a2,s6
   11e64:	01a42023          	sw	s10,0(s0)
   11e68:	00178793          	add	a5,a5,1
   11e6c:	01642223          	sw	s6,4(s0)
   11e70:	0cc12623          	sw	a2,204(sp)
   11e74:	0cf12423          	sw	a5,200(sp)
   11e78:	00700713          	li	a4,7
   11e7c:	4cf74063          	blt	a4,a5,1233c <_vfprintf_r+0x7a8>
   11e80:	00840413          	add	s0,s0,8
   11e84:	004dfe13          	and	t3,s11,4
   11e88:	000e0663          	beqz	t3,11e94 <_vfprintf_r+0x300>
   11e8c:	418c8a33          	sub	s4,s9,s8
   11e90:	4f404ce3          	bgtz	s4,12b88 <_vfprintf_r+0xff4>
   11e94:	000c8313          	mv	t1,s9
   11e98:	018cd463          	bge	s9,s8,11ea0 <_vfprintf_r+0x30c>
   11e9c:	000c0313          	mv	t1,s8
   11ea0:	00412783          	lw	a5,4(sp)
   11ea4:	006787b3          	add	a5,a5,t1
   11ea8:	00f12223          	sw	a5,4(sp)
   11eac:	360618e3          	bnez	a2,12a1c <_vfprintf_r+0xe88>
   11eb0:	00812783          	lw	a5,8(sp)
   11eb4:	0c012423          	sw	zero,200(sp)
   11eb8:	00078863          	beqz	a5,11ec8 <_vfprintf_r+0x334>
   11ebc:	00812583          	lw	a1,8(sp)
   11ec0:	000b8513          	mv	a0,s7
   11ec4:	a08ff0ef          	jal	110cc <_free_r>
   11ec8:	00098413          	mv	s0,s3
   11ecc:	00090d13          	mv	s10,s2
   11ed0:	000d4703          	lbu	a4,0(s10)
   11ed4:	de0714e3          	bnez	a4,11cbc <_vfprintf_r+0x128>
   11ed8:	0cc12783          	lw	a5,204(sp)
   11edc:	00078463          	beqz	a5,11ee4 <_vfprintf_r+0x350>
   11ee0:	3890106f          	j	13a68 <_vfprintf_r+0x1ed4>
   11ee4:	00c4d783          	lhu	a5,12(s1)
   11ee8:	1c012903          	lw	s2,448(sp)
   11eec:	1bc12983          	lw	s3,444(sp)
   11ef0:	0407f793          	and	a5,a5,64
   11ef4:	1b812a03          	lw	s4,440(sp)
   11ef8:	1b412a83          	lw	s5,436(sp)
   11efc:	1ac12b83          	lw	s7,428(sp)
   11f00:	1a812c03          	lw	s8,424(sp)
   11f04:	1a412c83          	lw	s9,420(sp)
   11f08:	1a012d03          	lw	s10,416(sp)
   11f0c:	19c12d83          	lw	s11,412(sp)
   11f10:	00078463          	beqz	a5,11f18 <_vfprintf_r+0x384>
   11f14:	1640206f          	j	14078 <_vfprintf_r+0x24e4>
   11f18:	1cc12083          	lw	ra,460(sp)
   11f1c:	1c812403          	lw	s0,456(sp)
   11f20:	00412503          	lw	a0,4(sp)
   11f24:	1c412483          	lw	s1,452(sp)
   11f28:	1b012b03          	lw	s6,432(sp)
   11f2c:	1d010113          	add	sp,sp,464
   11f30:	00008067          	ret
   11f34:	02412503          	lw	a0,36(sp)
   11f38:	00048593          	mv	a1,s1
   11f3c:	41c040ef          	jal	16358 <__swsetup_r>
   11f40:	00050463          	beqz	a0,11f48 <_vfprintf_r+0x3b4>
   11f44:	1340206f          	j	14078 <_vfprintf_r+0x24e4>
   11f48:	00c49703          	lh	a4,12(s1)
   11f4c:	00a00693          	li	a3,10
   11f50:	01a77713          	and	a4,a4,26
   11f54:	ced718e3          	bne	a4,a3,11c44 <_vfprintf_r+0xb0>
   11f58:	00e49703          	lh	a4,14(s1)
   11f5c:	ce0744e3          	bltz	a4,11c44 <_vfprintf_r+0xb0>
   11f60:	00c12683          	lw	a3,12(sp)
   11f64:	02412503          	lw	a0,36(sp)
   11f68:	000b0613          	mv	a2,s6
   11f6c:	00048593          	mv	a1,s1
   11f70:	4c4020ef          	jal	14434 <__sbprintf>
   11f74:	00a12223          	sw	a0,4(sp)
   11f78:	fa1ff06f          	j	11f18 <_vfprintf_r+0x384>
   11f7c:	000b8513          	mv	a0,s7
   11f80:	135040ef          	jal	168b4 <_localeconv_r>
   11f84:	00452783          	lw	a5,4(a0)
   11f88:	00078513          	mv	a0,a5
   11f8c:	04f12223          	sw	a5,68(sp)
   11f90:	e31fe0ef          	jal	10dc0 <strlen>
   11f94:	00050793          	mv	a5,a0
   11f98:	000b8513          	mv	a0,s7
   11f9c:	00078c13          	mv	s8,a5
   11fa0:	04f12023          	sw	a5,64(sp)
   11fa4:	111040ef          	jal	168b4 <_localeconv_r>
   11fa8:	00852703          	lw	a4,8(a0)
   11fac:	02e12c23          	sw	a4,56(sp)
   11fb0:	760c10e3          	bnez	s8,12f10 <_vfprintf_r+0x137c>
   11fb4:	00094883          	lbu	a7,0(s2)
   11fb8:	d81ff06f          	j	11d38 <_vfprintf_r+0x1a4>
   11fbc:	00094883          	lbu	a7,0(s2)
   11fc0:	020ded93          	or	s11,s11,32
   11fc4:	d75ff06f          	j	11d38 <_vfprintf_r+0x1a4>
   11fc8:	010ded93          	or	s11,s11,16
   11fcc:	020df793          	and	a5,s11,32
   11fd0:	3a078e63          	beqz	a5,1238c <_vfprintf_r+0x7f8>
   11fd4:	00c12783          	lw	a5,12(sp)
   11fd8:	00778c13          	add	s8,a5,7
   11fdc:	ff8c7c13          	and	s8,s8,-8
   11fe0:	004c2783          	lw	a5,4(s8)
   11fe4:	000c2b03          	lw	s6,0(s8)
   11fe8:	008c0713          	add	a4,s8,8
   11fec:	00e12623          	sw	a4,12(sp)
   11ff0:	00078813          	mv	a6,a5
   11ff4:	3c07c663          	bltz	a5,123c0 <_vfprintf_r+0x82c>
   11ff8:	000d8613          	mv	a2,s11
   11ffc:	4e0a4e63          	bltz	s4,124f8 <_vfprintf_r+0x964>
   12000:	010b67b3          	or	a5,s6,a6
   12004:	f7fdf613          	and	a2,s11,-129
   12008:	4e079863          	bnez	a5,124f8 <_vfprintf_r+0x964>
   1200c:	4e0a1c63          	bnez	s4,12504 <_vfprintf_r+0x970>
   12010:	00000b13          	li	s6,0
   12014:	00060d93          	mv	s11,a2
   12018:	19010d13          	add	s10,sp,400
   1201c:	0a714703          	lbu	a4,167(sp)
   12020:	000a0c13          	mv	s8,s4
   12024:	016a5463          	bge	s4,s6,1202c <_vfprintf_r+0x498>
   12028:	000b0c13          	mv	s8,s6
   1202c:	00012423          	sw	zero,8(sp)
   12030:	02012023          	sw	zero,32(sp)
   12034:	00012e23          	sw	zero,28(sp)
   12038:	00012a23          	sw	zero,20(sp)
   1203c:	d6070ee3          	beqz	a4,11db8 <_vfprintf_r+0x224>
   12040:	001c0c13          	add	s8,s8,1
   12044:	d75ff06f          	j	11db8 <_vfprintf_r+0x224>
   12048:	010ded93          	or	s11,s11,16
   1204c:	020df793          	and	a5,s11,32
   12050:	30078663          	beqz	a5,1235c <_vfprintf_r+0x7c8>
   12054:	00c12783          	lw	a5,12(sp)
   12058:	00778c13          	add	s8,a5,7
   1205c:	ff8c7c13          	and	s8,s8,-8
   12060:	000c2b03          	lw	s6,0(s8)
   12064:	004c2803          	lw	a6,4(s8)
   12068:	008c0793          	add	a5,s8,8
   1206c:	00f12623          	sw	a5,12(sp)
   12070:	bffdf613          	and	a2,s11,-1025
   12074:	00000793          	li	a5,0
   12078:	00000693          	li	a3,0
   1207c:	0ad103a3          	sb	a3,167(sp)
   12080:	360a4263          	bltz	s4,123e4 <_vfprintf_r+0x850>
   12084:	010b66b3          	or	a3,s6,a6
   12088:	f7f67d93          	and	s11,a2,-129
   1208c:	1a069ce3          	bnez	a3,12a44 <_vfprintf_r+0xeb0>
   12090:	740a1c63          	bnez	s4,127e8 <_vfprintf_r+0xc54>
   12094:	5e0796e3          	bnez	a5,12e80 <_vfprintf_r+0x12ec>
   12098:	00167b13          	and	s6,a2,1
   1209c:	19010d13          	add	s10,sp,400
   120a0:	f60b0ee3          	beqz	s6,1201c <_vfprintf_r+0x488>
   120a4:	03000793          	li	a5,48
   120a8:	18f107a3          	sb	a5,399(sp)
   120ac:	18f10d13          	add	s10,sp,399
   120b0:	f6dff06f          	j	1201c <_vfprintf_r+0x488>
   120b4:	41a90a33          	sub	s4,s2,s10
   120b8:	c3a912e3          	bne	s2,s10,11cdc <_vfprintf_r+0x148>
   120bc:	00094703          	lbu	a4,0(s2)
   120c0:	c59ff06f          	j	11d18 <_vfprintf_r+0x184>
   120c4:	0c410613          	add	a2,sp,196
   120c8:	00048593          	mv	a1,s1
   120cc:	000b8513          	mv	a0,s7
   120d0:	554020ef          	jal	14624 <__sprint_r>
   120d4:	e00518e3          	bnez	a0,11ee4 <_vfprintf_r+0x350>
   120d8:	00098413          	mv	s0,s3
   120dc:	c2dff06f          	j	11d08 <_vfprintf_r+0x174>
   120e0:	008df713          	and	a4,s11,8
   120e4:	600714e3          	bnez	a4,12eec <_vfprintf_r+0x1358>
   120e8:	00c12783          	lw	a5,12(sp)
   120ec:	09010513          	add	a0,sp,144
   120f0:	01112423          	sw	a7,8(sp)
   120f4:	00778c13          	add	s8,a5,7
   120f8:	ff8c7c13          	and	s8,s8,-8
   120fc:	000c2583          	lw	a1,0(s8)
   12100:	004c2603          	lw	a2,4(s8)
   12104:	008c0793          	add	a5,s8,8
   12108:	00f12623          	sw	a5,12(sp)
   1210c:	3410f0ef          	jal	21c4c <__extenddftf2>
   12110:	09012583          	lw	a1,144(sp)
   12114:	09412603          	lw	a2,148(sp)
   12118:	09812683          	lw	a3,152(sp)
   1211c:	09c12703          	lw	a4,156(sp)
   12120:	00812883          	lw	a7,8(sp)
   12124:	0d010513          	add	a0,sp,208
   12128:	01112423          	sw	a7,8(sp)
   1212c:	0ce12e23          	sw	a4,220(sp)
   12130:	0cb12823          	sw	a1,208(sp)
   12134:	0cc12a23          	sw	a2,212(sp)
   12138:	0cd12c23          	sw	a3,216(sp)
   1213c:	140050ef          	jal	1727c <_ldcheck>
   12140:	0aa12623          	sw	a0,172(sp)
   12144:	00200713          	li	a4,2
   12148:	00812883          	lw	a7,8(sp)
   1214c:	00e51463          	bne	a0,a4,12154 <_vfprintf_r+0x5c0>
   12150:	4100106f          	j	13560 <_vfprintf_r+0x19cc>
   12154:	00100713          	li	a4,1
   12158:	00e51463          	bne	a0,a4,12160 <_vfprintf_r+0x5cc>
   1215c:	5640106f          	j	136c0 <_vfprintf_r+0x1b2c>
   12160:	06100713          	li	a4,97
   12164:	00e89463          	bne	a7,a4,1216c <_vfprintf_r+0x5d8>
   12168:	7b10006f          	j	13118 <_vfprintf_r+0x1584>
   1216c:	04100713          	li	a4,65
   12170:	05800793          	li	a5,88
   12174:	00e89463          	bne	a7,a4,1217c <_vfprintf_r+0x5e8>
   12178:	7a50006f          	j	1311c <_vfprintf_r+0x1588>
   1217c:	fff00713          	li	a4,-1
   12180:	00ea1463          	bne	s4,a4,12188 <_vfprintf_r+0x5f4>
   12184:	0ec0206f          	j	14270 <_vfprintf_r+0x26dc>
   12188:	fdf8f713          	and	a4,a7,-33
   1218c:	04700693          	li	a3,71
   12190:	00012423          	sw	zero,8(sp)
   12194:	00d71663          	bne	a4,a3,121a0 <_vfprintf_r+0x60c>
   12198:	000a1463          	bnez	s4,121a0 <_vfprintf_r+0x60c>
   1219c:	00100a13          	li	s4,1
   121a0:	0dc12c03          	lw	s8,220(sp)
   121a4:	100de793          	or	a5,s11,256
   121a8:	04f12423          	sw	a5,72(sp)
   121ac:	02012a23          	sw	zero,52(sp)
   121b0:	0d012f83          	lw	t6,208(sp)
   121b4:	0d412f03          	lw	t5,212(sp)
   121b8:	0d812e83          	lw	t4,216(sp)
   121bc:	000c5a63          	bgez	s8,121d0 <_vfprintf_r+0x63c>
   121c0:	80000737          	lui	a4,0x80000
   121c4:	02d00793          	li	a5,45
   121c8:	01874c33          	xor	s8,a4,s8
   121cc:	02f12a23          	sw	a5,52(sp)
   121d0:	fbf88713          	add	a4,a7,-65
   121d4:	02500693          	li	a3,37
   121d8:	78e6e6e3          	bltu	a3,a4,13164 <_vfprintf_r+0x15d0>
   121dc:	000226b7          	lui	a3,0x22
   121e0:	00271713          	sll	a4,a4,0x2
   121e4:	29c68693          	add	a3,a3,668 # 2229c <__clzsi2+0x370>
   121e8:	00d70733          	add	a4,a4,a3
   121ec:	00072703          	lw	a4,0(a4) # 80000000 <__BSS_END__+0x7ffdc428>
   121f0:	00070067          	jr	a4
   121f4:	0c410613          	add	a2,sp,196
   121f8:	00048593          	mv	a1,s1
   121fc:	000b8513          	mv	a0,s7
   12200:	05112623          	sw	a7,76(sp)
   12204:	05f12423          	sw	t6,72(sp)
   12208:	02512a23          	sw	t0,52(sp)
   1220c:	418020ef          	jal	14624 <__sprint_r>
   12210:	020510e3          	bnez	a0,12a30 <_vfprintf_r+0xe9c>
   12214:	0cc12603          	lw	a2,204(sp)
   12218:	04c12883          	lw	a7,76(sp)
   1221c:	04812f83          	lw	t6,72(sp)
   12220:	03412283          	lw	t0,52(sp)
   12224:	00098413          	mv	s0,s3
   12228:	be9ff06f          	j	11e10 <_vfprintf_r+0x27c>
   1222c:	0c812a03          	lw	s4,200(sp)
   12230:	01812783          	lw	a5,24(sp)
   12234:	00100713          	li	a4,1
   12238:	01a42023          	sw	s10,0(s0)
   1223c:	00160613          	add	a2,a2,1
   12240:	001a0a13          	add	s4,s4,1
   12244:	00840b13          	add	s6,s0,8
   12248:	34f752e3          	bge	a4,a5,12d8c <_vfprintf_r+0x11f8>
   1224c:	00100713          	li	a4,1
   12250:	00e42223          	sw	a4,4(s0)
   12254:	0cc12623          	sw	a2,204(sp)
   12258:	0d412423          	sw	s4,200(sp)
   1225c:	00700713          	li	a4,7
   12260:	01475463          	bge	a4,s4,12268 <_vfprintf_r+0x6d4>
   12264:	0fc0106f          	j	13360 <_vfprintf_r+0x17cc>
   12268:	02812783          	lw	a5,40(sp)
   1226c:	02c12703          	lw	a4,44(sp)
   12270:	001a0a13          	add	s4,s4,1
   12274:	00f60633          	add	a2,a2,a5
   12278:	00eb2023          	sw	a4,0(s6)
   1227c:	00fb2223          	sw	a5,4(s6)
   12280:	0cc12623          	sw	a2,204(sp)
   12284:	0d412423          	sw	s4,200(sp)
   12288:	00700713          	li	a4,7
   1228c:	008b0b13          	add	s6,s6,8
   12290:	01475463          	bge	a4,s4,12298 <_vfprintf_r+0x704>
   12294:	0f00106f          	j	13384 <_vfprintf_r+0x17f0>
   12298:	0d012703          	lw	a4,208(sp)
   1229c:	01812783          	lw	a5,24(sp)
   122a0:	08010593          	add	a1,sp,128
   122a4:	08e12823          	sw	a4,144(sp)
   122a8:	0d412703          	lw	a4,212(sp)
   122ac:	09010513          	add	a0,sp,144
   122b0:	00c12a23          	sw	a2,20(sp)
   122b4:	08e12a23          	sw	a4,148(sp)
   122b8:	0d812703          	lw	a4,216(sp)
   122bc:	08012023          	sw	zero,128(sp)
   122c0:	08012223          	sw	zero,132(sp)
   122c4:	08e12c23          	sw	a4,152(sp)
   122c8:	0dc12703          	lw	a4,220(sp)
   122cc:	08012423          	sw	zero,136(sp)
   122d0:	08012623          	sw	zero,140(sp)
   122d4:	08e12e23          	sw	a4,156(sp)
   122d8:	fff78413          	add	s0,a5,-1
   122dc:	2d90c0ef          	jal	1edb4 <__eqtf2>
   122e0:	01412603          	lw	a2,20(sp)
   122e4:	2e0504e3          	beqz	a0,12dcc <_vfprintf_r+0x1238>
   122e8:	001d0793          	add	a5,s10,1
   122ec:	001a0a13          	add	s4,s4,1
   122f0:	00860633          	add	a2,a2,s0
   122f4:	00fb2023          	sw	a5,0(s6)
   122f8:	008b2223          	sw	s0,4(s6)
   122fc:	0cc12623          	sw	a2,204(sp)
   12300:	0d412423          	sw	s4,200(sp)
   12304:	00700793          	li	a5,7
   12308:	008b0b13          	add	s6,s6,8
   1230c:	2947cee3          	blt	a5,s4,12da8 <_vfprintf_r+0x1214>
   12310:	03c12683          	lw	a3,60(sp)
   12314:	0b410713          	add	a4,sp,180
   12318:	001a0793          	add	a5,s4,1
   1231c:	00c68633          	add	a2,a3,a2
   12320:	00eb2023          	sw	a4,0(s6)
   12324:	00db2223          	sw	a3,4(s6)
   12328:	0cc12623          	sw	a2,204(sp)
   1232c:	0cf12423          	sw	a5,200(sp)
   12330:	00700713          	li	a4,7
   12334:	008b0413          	add	s0,s6,8
   12338:	b4f756e3          	bge	a4,a5,11e84 <_vfprintf_r+0x2f0>
   1233c:	0c410613          	add	a2,sp,196
   12340:	00048593          	mv	a1,s1
   12344:	000b8513          	mv	a0,s7
   12348:	2dc020ef          	jal	14624 <__sprint_r>
   1234c:	6e051263          	bnez	a0,12a30 <_vfprintf_r+0xe9c>
   12350:	0cc12603          	lw	a2,204(sp)
   12354:	00098413          	mv	s0,s3
   12358:	b2dff06f          	j	11e84 <_vfprintf_r+0x2f0>
   1235c:	00c12683          	lw	a3,12(sp)
   12360:	010df793          	and	a5,s11,16
   12364:	0006a703          	lw	a4,0(a3)
   12368:	00468693          	add	a3,a3,4
   1236c:	00d12623          	sw	a3,12(sp)
   12370:	360798e3          	bnez	a5,12ee0 <_vfprintf_r+0x134c>
   12374:	040df793          	and	a5,s11,64
   12378:	360780e3          	beqz	a5,12ed8 <_vfprintf_r+0x1344>
   1237c:	01071b13          	sll	s6,a4,0x10
   12380:	010b5b13          	srl	s6,s6,0x10
   12384:	00000813          	li	a6,0
   12388:	ce9ff06f          	j	12070 <_vfprintf_r+0x4dc>
   1238c:	00c12683          	lw	a3,12(sp)
   12390:	010df793          	and	a5,s11,16
   12394:	0006a703          	lw	a4,0(a3)
   12398:	00468693          	add	a3,a3,4
   1239c:	00d12623          	sw	a3,12(sp)
   123a0:	320794e3          	bnez	a5,12ec8 <_vfprintf_r+0x1334>
   123a4:	040df793          	and	a5,s11,64
   123a8:	30078ce3          	beqz	a5,12ec0 <_vfprintf_r+0x132c>
   123ac:	01071b13          	sll	s6,a4,0x10
   123b0:	410b5b13          	sra	s6,s6,0x10
   123b4:	41fb5813          	sra	a6,s6,0x1f
   123b8:	00080793          	mv	a5,a6
   123bc:	c207dee3          	bgez	a5,11ff8 <_vfprintf_r+0x464>
   123c0:	02d00693          	li	a3,45
   123c4:	016037b3          	snez	a5,s6
   123c8:	41000833          	neg	a6,a6
   123cc:	0ad103a3          	sb	a3,167(sp)
   123d0:	40f80833          	sub	a6,a6,a5
   123d4:	41600b33          	neg	s6,s6
   123d8:	000d8613          	mv	a2,s11
   123dc:	00100793          	li	a5,1
   123e0:	ca0a52e3          	bgez	s4,12084 <_vfprintf_r+0x4f0>
   123e4:	00100693          	li	a3,1
   123e8:	10d78863          	beq	a5,a3,124f8 <_vfprintf_r+0x964>
   123ec:	00200693          	li	a3,2
   123f0:	40d78863          	beq	a5,a3,12800 <_vfprintf_r+0xc6c>
   123f4:	19010d13          	add	s10,sp,400
   123f8:	01d81793          	sll	a5,a6,0x1d
   123fc:	007b7693          	and	a3,s6,7
   12400:	003b5b13          	srl	s6,s6,0x3
   12404:	03068693          	add	a3,a3,48
   12408:	0167eb33          	or	s6,a5,s6
   1240c:	00385813          	srl	a6,a6,0x3
   12410:	fedd0fa3          	sb	a3,-1(s10)
   12414:	010b67b3          	or	a5,s6,a6
   12418:	000d0513          	mv	a0,s10
   1241c:	fffd0d13          	add	s10,s10,-1
   12420:	fc079ce3          	bnez	a5,123f8 <_vfprintf_r+0x864>
   12424:	00167713          	and	a4,a2,1
   12428:	40070663          	beqz	a4,12834 <_vfprintf_r+0xca0>
   1242c:	03000713          	li	a4,48
   12430:	40e68263          	beq	a3,a4,12834 <_vfprintf_r+0xca0>
   12434:	ffe50513          	add	a0,a0,-2
   12438:	19010793          	add	a5,sp,400
   1243c:	feed0fa3          	sb	a4,-1(s10)
   12440:	40a78b33          	sub	s6,a5,a0
   12444:	00060d93          	mv	s11,a2
   12448:	00050d13          	mv	s10,a0
   1244c:	bd1ff06f          	j	1201c <_vfprintf_r+0x488>
   12450:	00c12703          	lw	a4,12(sp)
   12454:	0a0103a3          	sb	zero,167(sp)
   12458:	00100c13          	li	s8,1
   1245c:	00072783          	lw	a5,0(a4)
   12460:	00470713          	add	a4,a4,4
   12464:	00e12623          	sw	a4,12(sp)
   12468:	12f10623          	sb	a5,300(sp)
   1246c:	00100b13          	li	s6,1
   12470:	12c10d13          	add	s10,sp,300
   12474:	931ff06f          	j	11da4 <_vfprintf_r+0x210>
   12478:	00c12783          	lw	a5,12(sp)
   1247c:	0a0103a3          	sb	zero,167(sp)
   12480:	0007ad03          	lw	s10,0(a5)
   12484:	00478813          	add	a6,a5,4
   12488:	3a0d02e3          	beqz	s10,1302c <_vfprintf_r+0x1498>
   1248c:	000a5463          	bgez	s4,12494 <_vfprintf_r+0x900>
   12490:	1c80106f          	j	13658 <_vfprintf_r+0x1ac4>
   12494:	000a0613          	mv	a2,s4
   12498:	00000593          	li	a1,0
   1249c:	000d0513          	mv	a0,s10
   124a0:	01012a23          	sw	a6,20(sp)
   124a4:	01112623          	sw	a7,12(sp)
   124a8:	18c040ef          	jal	16634 <memchr>
   124ac:	00a12423          	sw	a0,8(sp)
   124b0:	00c12883          	lw	a7,12(sp)
   124b4:	01412803          	lw	a6,20(sp)
   124b8:	00051463          	bnez	a0,124c0 <_vfprintf_r+0x92c>
   124bc:	3450106f          	j	14000 <_vfprintf_r+0x246c>
   124c0:	00812783          	lw	a5,8(sp)
   124c4:	0a714703          	lbu	a4,167(sp)
   124c8:	01012623          	sw	a6,12(sp)
   124cc:	41a78b33          	sub	s6,a5,s10
   124d0:	fffb4693          	not	a3,s6
   124d4:	41f6d693          	sra	a3,a3,0x1f
   124d8:	00012423          	sw	zero,8(sp)
   124dc:	02012023          	sw	zero,32(sp)
   124e0:	00012e23          	sw	zero,28(sp)
   124e4:	00012a23          	sw	zero,20(sp)
   124e8:	00db7c33          	and	s8,s6,a3
   124ec:	00000a13          	li	s4,0
   124f0:	b40718e3          	bnez	a4,12040 <_vfprintf_r+0x4ac>
   124f4:	8c5ff06f          	j	11db8 <_vfprintf_r+0x224>
   124f8:	6c0812e3          	bnez	a6,133bc <_vfprintf_r+0x1828>
   124fc:	00900793          	li	a5,9
   12500:	6b67eee3          	bltu	a5,s6,133bc <_vfprintf_r+0x1828>
   12504:	030b0713          	add	a4,s6,48
   12508:	18e107a3          	sb	a4,399(sp)
   1250c:	00060d93          	mv	s11,a2
   12510:	00100b13          	li	s6,1
   12514:	18f10d13          	add	s10,sp,399
   12518:	b05ff06f          	j	1201c <_vfprintf_r+0x488>
   1251c:	00c12783          	lw	a5,12(sp)
   12520:	0007ac83          	lw	s9,0(a5)
   12524:	00478793          	add	a5,a5,4
   12528:	160cdae3          	bgez	s9,12e9c <_vfprintf_r+0x1308>
   1252c:	41900cb3          	neg	s9,s9
   12530:	00f12623          	sw	a5,12(sp)
   12534:	00094883          	lbu	a7,0(s2)
   12538:	004ded93          	or	s11,s11,4
   1253c:	ffcff06f          	j	11d38 <_vfprintf_r+0x1a4>
   12540:	010de613          	or	a2,s11,16
   12544:	02067793          	and	a5,a2,32
   12548:	100782e3          	beqz	a5,12e4c <_vfprintf_r+0x12b8>
   1254c:	00c12783          	lw	a5,12(sp)
   12550:	00778c13          	add	s8,a5,7
   12554:	ff8c7c13          	and	s8,s8,-8
   12558:	008c0793          	add	a5,s8,8
   1255c:	00f12623          	sw	a5,12(sp)
   12560:	000c2b03          	lw	s6,0(s8)
   12564:	004c2803          	lw	a6,4(s8)
   12568:	00100793          	li	a5,1
   1256c:	b0dff06f          	j	12078 <_vfprintf_r+0x4e4>
   12570:	02b00793          	li	a5,43
   12574:	00094883          	lbu	a7,0(s2)
   12578:	0af103a3          	sb	a5,167(sp)
   1257c:	fbcff06f          	j	11d38 <_vfprintf_r+0x1a4>
   12580:	00c12703          	lw	a4,12(sp)
   12584:	000087b7          	lui	a5,0x8
   12588:	83078793          	add	a5,a5,-2000 # 7830 <exit-0x8870>
   1258c:	0af11423          	sh	a5,168(sp)
   12590:	00470793          	add	a5,a4,4
   12594:	00f12623          	sw	a5,12(sp)
   12598:	000227b7          	lui	a5,0x22
   1259c:	03478793          	add	a5,a5,52 # 22034 <__clzsi2+0x108>
   125a0:	02f12823          	sw	a5,48(sp)
   125a4:	00072b03          	lw	s6,0(a4)
   125a8:	00000813          	li	a6,0
   125ac:	002de613          	or	a2,s11,2
   125b0:	00200793          	li	a5,2
   125b4:	07800893          	li	a7,120
   125b8:	ac1ff06f          	j	12078 <_vfprintf_r+0x4e4>
   125bc:	020df793          	and	a5,s11,32
   125c0:	16078ae3          	beqz	a5,12f34 <_vfprintf_r+0x13a0>
   125c4:	00c12783          	lw	a5,12(sp)
   125c8:	00412683          	lw	a3,4(sp)
   125cc:	0007a783          	lw	a5,0(a5)
   125d0:	41f6d713          	sra	a4,a3,0x1f
   125d4:	00d7a023          	sw	a3,0(a5)
   125d8:	00e7a223          	sw	a4,4(a5)
   125dc:	00c12783          	lw	a5,12(sp)
   125e0:	00090d13          	mv	s10,s2
   125e4:	00478793          	add	a5,a5,4
   125e8:	00f12623          	sw	a5,12(sp)
   125ec:	8e5ff06f          	j	11ed0 <_vfprintf_r+0x33c>
   125f0:	00094883          	lbu	a7,0(s2)
   125f4:	06c00793          	li	a5,108
   125f8:	22f882e3          	beq	a7,a5,1301c <_vfprintf_r+0x1488>
   125fc:	010ded93          	or	s11,s11,16
   12600:	f38ff06f          	j	11d38 <_vfprintf_r+0x1a4>
   12604:	00094883          	lbu	a7,0(s2)
   12608:	06800793          	li	a5,104
   1260c:	20f880e3          	beq	a7,a5,1300c <_vfprintf_r+0x1478>
   12610:	040ded93          	or	s11,s11,64
   12614:	f24ff06f          	j	11d38 <_vfprintf_r+0x1a4>
   12618:	00094883          	lbu	a7,0(s2)
   1261c:	008ded93          	or	s11,s11,8
   12620:	f18ff06f          	j	11d38 <_vfprintf_r+0x1a4>
   12624:	00094883          	lbu	a7,0(s2)
   12628:	001ded93          	or	s11,s11,1
   1262c:	f0cff06f          	j	11d38 <_vfprintf_r+0x1a4>
   12630:	0a714783          	lbu	a5,167(sp)
   12634:	00094883          	lbu	a7,0(s2)
   12638:	f0079063          	bnez	a5,11d38 <_vfprintf_r+0x1a4>
   1263c:	02000793          	li	a5,32
   12640:	0af103a3          	sb	a5,167(sp)
   12644:	ef4ff06f          	j	11d38 <_vfprintf_r+0x1a4>
   12648:	00094883          	lbu	a7,0(s2)
   1264c:	080ded93          	or	s11,s11,128
   12650:	ee8ff06f          	j	11d38 <_vfprintf_r+0x1a4>
   12654:	00094883          	lbu	a7,0(s2)
   12658:	02a00793          	li	a5,42
   1265c:	00190693          	add	a3,s2,1
   12660:	00f89463          	bne	a7,a5,12668 <_vfprintf_r+0xad4>
   12664:	56d0106f          	j	143d0 <_vfprintf_r+0x283c>
   12668:	fd088793          	add	a5,a7,-48
   1266c:	00900713          	li	a4,9
   12670:	00000a13          	li	s4,0
   12674:	00900613          	li	a2,9
   12678:	02f76463          	bltu	a4,a5,126a0 <_vfprintf_r+0xb0c>
   1267c:	0006c883          	lbu	a7,0(a3)
   12680:	002a1713          	sll	a4,s4,0x2
   12684:	01470a33          	add	s4,a4,s4
   12688:	001a1a13          	sll	s4,s4,0x1
   1268c:	00fa0a33          	add	s4,s4,a5
   12690:	fd088793          	add	a5,a7,-48
   12694:	00168693          	add	a3,a3,1
   12698:	fef672e3          	bgeu	a2,a5,1267c <_vfprintf_r+0xae8>
   1269c:	0c0a48e3          	bltz	s4,12f6c <_vfprintf_r+0x13d8>
   126a0:	00068913          	mv	s2,a3
   126a4:	e98ff06f          	j	11d3c <_vfprintf_r+0x1a8>
   126a8:	06500713          	li	a4,101
   126ac:	b91750e3          	bge	a4,a7,1222c <_vfprintf_r+0x698>
   126b0:	0d012703          	lw	a4,208(sp)
   126b4:	08010593          	add	a1,sp,128
   126b8:	09010513          	add	a0,sp,144
   126bc:	08e12823          	sw	a4,144(sp)
   126c0:	0d412703          	lw	a4,212(sp)
   126c4:	02c12a23          	sw	a2,52(sp)
   126c8:	08012023          	sw	zero,128(sp)
   126cc:	08e12a23          	sw	a4,148(sp)
   126d0:	0d812703          	lw	a4,216(sp)
   126d4:	08012223          	sw	zero,132(sp)
   126d8:	08012423          	sw	zero,136(sp)
   126dc:	08e12c23          	sw	a4,152(sp)
   126e0:	0dc12703          	lw	a4,220(sp)
   126e4:	08012623          	sw	zero,140(sp)
   126e8:	08e12e23          	sw	a4,156(sp)
   126ec:	6c80c0ef          	jal	1edb4 <__eqtf2>
   126f0:	03412603          	lw	a2,52(sp)
   126f4:	54051463          	bnez	a0,12c3c <_vfprintf_r+0x10a8>
   126f8:	0c812783          	lw	a5,200(sp)
   126fc:	00022737          	lui	a4,0x22
   12700:	06470713          	add	a4,a4,100 # 22064 <__clzsi2+0x138>
   12704:	00e42023          	sw	a4,0(s0)
   12708:	00160613          	add	a2,a2,1
   1270c:	00100713          	li	a4,1
   12710:	00178793          	add	a5,a5,1
   12714:	00e42223          	sw	a4,4(s0)
   12718:	0cc12623          	sw	a2,204(sp)
   1271c:	0cf12423          	sw	a5,200(sp)
   12720:	00700713          	li	a4,7
   12724:	00840413          	add	s0,s0,8
   12728:	5ef744e3          	blt	a4,a5,13510 <_vfprintf_r+0x197c>
   1272c:	0ac12783          	lw	a5,172(sp)
   12730:	01812703          	lw	a4,24(sp)
   12734:	74e7dc63          	bge	a5,a4,12e8c <_vfprintf_r+0x12f8>
   12738:	02c12783          	lw	a5,44(sp)
   1273c:	02812703          	lw	a4,40(sp)
   12740:	00840413          	add	s0,s0,8
   12744:	fef42c23          	sw	a5,-8(s0)
   12748:	0c812783          	lw	a5,200(sp)
   1274c:	00e60633          	add	a2,a2,a4
   12750:	fee42e23          	sw	a4,-4(s0)
   12754:	00178793          	add	a5,a5,1
   12758:	0cc12623          	sw	a2,204(sp)
   1275c:	0cf12423          	sw	a5,200(sp)
   12760:	00700713          	li	a4,7
   12764:	08f744e3          	blt	a4,a5,12fec <_vfprintf_r+0x1458>
   12768:	01812783          	lw	a5,24(sp)
   1276c:	fff78a13          	add	s4,a5,-1
   12770:	f1405a63          	blez	s4,11e84 <_vfprintf_r+0x2f0>
   12774:	00022837          	lui	a6,0x22
   12778:	01000713          	li	a4,16
   1277c:	0c812783          	lw	a5,200(sp)
   12780:	33480813          	add	a6,a6,820 # 22334 <zeroes.0>
   12784:	5b475ae3          	bge	a4,s4,13538 <_vfprintf_r+0x19a4>
   12788:	01212a23          	sw	s2,20(sp)
   1278c:	01000b13          	li	s6,16
   12790:	00700d13          	li	s10,7
   12794:	00080913          	mv	s2,a6
   12798:	00c0006f          	j	127a4 <_vfprintf_r+0xc10>
   1279c:	ff0a0a13          	add	s4,s4,-16
   127a0:	594b58e3          	bge	s6,s4,13530 <_vfprintf_r+0x199c>
   127a4:	01060613          	add	a2,a2,16
   127a8:	00178793          	add	a5,a5,1
   127ac:	01242023          	sw	s2,0(s0)
   127b0:	01642223          	sw	s6,4(s0)
   127b4:	0cc12623          	sw	a2,204(sp)
   127b8:	0cf12423          	sw	a5,200(sp)
   127bc:	00840413          	add	s0,s0,8
   127c0:	fcfd5ee3          	bge	s10,a5,1279c <_vfprintf_r+0xc08>
   127c4:	0c410613          	add	a2,sp,196
   127c8:	00048593          	mv	a1,s1
   127cc:	000b8513          	mv	a0,s7
   127d0:	655010ef          	jal	14624 <__sprint_r>
   127d4:	24051e63          	bnez	a0,12a30 <_vfprintf_r+0xe9c>
   127d8:	0cc12603          	lw	a2,204(sp)
   127dc:	0c812783          	lw	a5,200(sp)
   127e0:	00098413          	mv	s0,s3
   127e4:	fb9ff06f          	j	1279c <_vfprintf_r+0xc08>
   127e8:	00100693          	li	a3,1
   127ec:	00d79463          	bne	a5,a3,127f4 <_vfprintf_r+0xc60>
   127f0:	1f90106f          	j	141e8 <_vfprintf_r+0x2654>
   127f4:	00200693          	li	a3,2
   127f8:	000d8613          	mv	a2,s11
   127fc:	bed79ce3          	bne	a5,a3,123f4 <_vfprintf_r+0x860>
   12800:	03012683          	lw	a3,48(sp)
   12804:	19010d13          	add	s10,sp,400
   12808:	00fb7793          	and	a5,s6,15
   1280c:	00f687b3          	add	a5,a3,a5
   12810:	0007c703          	lbu	a4,0(a5)
   12814:	004b5b13          	srl	s6,s6,0x4
   12818:	01c81793          	sll	a5,a6,0x1c
   1281c:	0167eb33          	or	s6,a5,s6
   12820:	00485813          	srl	a6,a6,0x4
   12824:	feed0fa3          	sb	a4,-1(s10)
   12828:	010b67b3          	or	a5,s6,a6
   1282c:	fffd0d13          	add	s10,s10,-1
   12830:	fc079ce3          	bnez	a5,12808 <_vfprintf_r+0xc74>
   12834:	19010793          	add	a5,sp,400
   12838:	41a78b33          	sub	s6,a5,s10
   1283c:	00060d93          	mv	s11,a2
   12840:	fdcff06f          	j	1201c <_vfprintf_r+0x488>
   12844:	418c8733          	sub	a4,s9,s8
   12848:	e0e05263          	blez	a4,11e4c <_vfprintf_r+0x2b8>
   1284c:	00022837          	lui	a6,0x22
   12850:	01000513          	li	a0,16
   12854:	0c812583          	lw	a1,200(sp)
   12858:	33480813          	add	a6,a6,820 # 22334 <zeroes.0>
   1285c:	08e55863          	bge	a0,a4,128ec <_vfprintf_r+0xd58>
   12860:	03212a23          	sw	s2,52(sp)
   12864:	00040793          	mv	a5,s0
   12868:	01000e93          	li	t4,16
   1286c:	00700f93          	li	t6,7
   12870:	05112423          	sw	a7,72(sp)
   12874:	00070413          	mv	s0,a4
   12878:	00080913          	mv	s2,a6
   1287c:	00c0006f          	j	12888 <_vfprintf_r+0xcf4>
   12880:	ff040413          	add	s0,s0,-16
   12884:	048eda63          	bge	t4,s0,128d8 <_vfprintf_r+0xd44>
   12888:	01060613          	add	a2,a2,16
   1288c:	00158593          	add	a1,a1,1 # 2001 <exit-0xe09f>
   12890:	0127a023          	sw	s2,0(a5)
   12894:	01d7a223          	sw	t4,4(a5)
   12898:	0cc12623          	sw	a2,204(sp)
   1289c:	0cb12423          	sw	a1,200(sp)
   128a0:	00878793          	add	a5,a5,8
   128a4:	fcbfdee3          	bge	t6,a1,12880 <_vfprintf_r+0xcec>
   128a8:	0c410613          	add	a2,sp,196
   128ac:	00048593          	mv	a1,s1
   128b0:	000b8513          	mv	a0,s7
   128b4:	571010ef          	jal	14624 <__sprint_r>
   128b8:	16051c63          	bnez	a0,12a30 <_vfprintf_r+0xe9c>
   128bc:	01000e93          	li	t4,16
   128c0:	ff040413          	add	s0,s0,-16
   128c4:	0cc12603          	lw	a2,204(sp)
   128c8:	0c812583          	lw	a1,200(sp)
   128cc:	00098793          	mv	a5,s3
   128d0:	00700f93          	li	t6,7
   128d4:	fa8ecae3          	blt	t4,s0,12888 <_vfprintf_r+0xcf4>
   128d8:	00090813          	mv	a6,s2
   128dc:	04812883          	lw	a7,72(sp)
   128e0:	03412903          	lw	s2,52(sp)
   128e4:	00040713          	mv	a4,s0
   128e8:	00078413          	mv	s0,a5
   128ec:	00e60633          	add	a2,a2,a4
   128f0:	00158593          	add	a1,a1,1
   128f4:	00e42223          	sw	a4,4(s0)
   128f8:	01042023          	sw	a6,0(s0)
   128fc:	0cc12623          	sw	a2,204(sp)
   12900:	0cb12423          	sw	a1,200(sp)
   12904:	00700713          	li	a4,7
   12908:	00840413          	add	s0,s0,8
   1290c:	d4b75063          	bge	a4,a1,11e4c <_vfprintf_r+0x2b8>
   12910:	0c410613          	add	a2,sp,196
   12914:	00048593          	mv	a1,s1
   12918:	000b8513          	mv	a0,s7
   1291c:	03112a23          	sw	a7,52(sp)
   12920:	505010ef          	jal	14624 <__sprint_r>
   12924:	10051663          	bnez	a0,12a30 <_vfprintf_r+0xe9c>
   12928:	0cc12603          	lw	a2,204(sp)
   1292c:	03412883          	lw	a7,52(sp)
   12930:	00098413          	mv	s0,s3
   12934:	d18ff06f          	j	11e4c <_vfprintf_r+0x2b8>
   12938:	00022837          	lui	a6,0x22
   1293c:	01000713          	li	a4,16
   12940:	0c812583          	lw	a1,200(sp)
   12944:	33480813          	add	a6,a6,820 # 22334 <zeroes.0>
   12948:	09475463          	bge	a4,s4,129d0 <_vfprintf_r+0xe3c>
   1294c:	00040793          	mv	a5,s0
   12950:	01000713          	li	a4,16
   12954:	000a0413          	mv	s0,s4
   12958:	00700e93          	li	t4,7
   1295c:	03112a23          	sw	a7,52(sp)
   12960:	000a8a13          	mv	s4,s5
   12964:	00c0006f          	j	12970 <_vfprintf_r+0xddc>
   12968:	ff040413          	add	s0,s0,-16
   1296c:	04875a63          	bge	a4,s0,129c0 <_vfprintf_r+0xe2c>
   12970:	01060613          	add	a2,a2,16
   12974:	00158593          	add	a1,a1,1
   12978:	0157a023          	sw	s5,0(a5)
   1297c:	00e7a223          	sw	a4,4(a5)
   12980:	0cc12623          	sw	a2,204(sp)
   12984:	0cb12423          	sw	a1,200(sp)
   12988:	00878793          	add	a5,a5,8
   1298c:	fcbedee3          	bge	t4,a1,12968 <_vfprintf_r+0xdd4>
   12990:	0c410613          	add	a2,sp,196
   12994:	00048593          	mv	a1,s1
   12998:	000b8513          	mv	a0,s7
   1299c:	489010ef          	jal	14624 <__sprint_r>
   129a0:	08051863          	bnez	a0,12a30 <_vfprintf_r+0xe9c>
   129a4:	01000713          	li	a4,16
   129a8:	ff040413          	add	s0,s0,-16
   129ac:	0cc12603          	lw	a2,204(sp)
   129b0:	0c812583          	lw	a1,200(sp)
   129b4:	00098793          	mv	a5,s3
   129b8:	00700e93          	li	t4,7
   129bc:	fa874ae3          	blt	a4,s0,12970 <_vfprintf_r+0xddc>
   129c0:	03412883          	lw	a7,52(sp)
   129c4:	000a0813          	mv	a6,s4
   129c8:	00040a13          	mv	s4,s0
   129cc:	00078413          	mv	s0,a5
   129d0:	01460633          	add	a2,a2,s4
   129d4:	00158593          	add	a1,a1,1
   129d8:	01042023          	sw	a6,0(s0)
   129dc:	01442223          	sw	s4,4(s0)
   129e0:	0cc12623          	sw	a2,204(sp)
   129e4:	0cb12423          	sw	a1,200(sp)
   129e8:	00700713          	li	a4,7
   129ec:	00840413          	add	s0,s0,8
   129f0:	c6b75263          	bge	a4,a1,11e54 <_vfprintf_r+0x2c0>
   129f4:	0c410613          	add	a2,sp,196
   129f8:	00048593          	mv	a1,s1
   129fc:	000b8513          	mv	a0,s7
   12a00:	03112a23          	sw	a7,52(sp)
   12a04:	421010ef          	jal	14624 <__sprint_r>
   12a08:	02051463          	bnez	a0,12a30 <_vfprintf_r+0xe9c>
   12a0c:	0cc12603          	lw	a2,204(sp)
   12a10:	03412883          	lw	a7,52(sp)
   12a14:	00098413          	mv	s0,s3
   12a18:	c3cff06f          	j	11e54 <_vfprintf_r+0x2c0>
   12a1c:	0c410613          	add	a2,sp,196
   12a20:	00048593          	mv	a1,s1
   12a24:	000b8513          	mv	a0,s7
   12a28:	3fd010ef          	jal	14624 <__sprint_r>
   12a2c:	c8050263          	beqz	a0,11eb0 <_vfprintf_r+0x31c>
   12a30:	00812583          	lw	a1,8(sp)
   12a34:	ca058863          	beqz	a1,11ee4 <_vfprintf_r+0x350>
   12a38:	02412503          	lw	a0,36(sp)
   12a3c:	e90fe0ef          	jal	110cc <_free_r>
   12a40:	ca4ff06f          	j	11ee4 <_vfprintf_r+0x350>
   12a44:	000d8613          	mv	a2,s11
   12a48:	99dff06f          	j	123e4 <_vfprintf_r+0x850>
   12a4c:	00022837          	lui	a6,0x22
   12a50:	01000513          	li	a0,16
   12a54:	0c812583          	lw	a1,200(sp)
   12a58:	34480813          	add	a6,a6,836 # 22344 <blanks.1>
   12a5c:	0ae55063          	bge	a0,a4,12afc <_vfprintf_r+0xf68>
   12a60:	05212623          	sw	s2,76(sp)
   12a64:	00040793          	mv	a5,s0
   12a68:	01000e93          	li	t4,16
   12a6c:	00700393          	li	t2,7
   12a70:	02512a23          	sw	t0,52(sp)
   12a74:	05f12423          	sw	t6,72(sp)
   12a78:	05112823          	sw	a7,80(sp)
   12a7c:	00070413          	mv	s0,a4
   12a80:	00080913          	mv	s2,a6
   12a84:	00c0006f          	j	12a90 <_vfprintf_r+0xefc>
   12a88:	ff040413          	add	s0,s0,-16
   12a8c:	048eda63          	bge	t4,s0,12ae0 <_vfprintf_r+0xf4c>
   12a90:	01060613          	add	a2,a2,16
   12a94:	00158593          	add	a1,a1,1
   12a98:	0127a023          	sw	s2,0(a5)
   12a9c:	01d7a223          	sw	t4,4(a5)
   12aa0:	0cc12623          	sw	a2,204(sp)
   12aa4:	0cb12423          	sw	a1,200(sp)
   12aa8:	00878793          	add	a5,a5,8
   12aac:	fcb3dee3          	bge	t2,a1,12a88 <_vfprintf_r+0xef4>
   12ab0:	0c410613          	add	a2,sp,196
   12ab4:	00048593          	mv	a1,s1
   12ab8:	000b8513          	mv	a0,s7
   12abc:	369010ef          	jal	14624 <__sprint_r>
   12ac0:	f60518e3          	bnez	a0,12a30 <_vfprintf_r+0xe9c>
   12ac4:	01000e93          	li	t4,16
   12ac8:	ff040413          	add	s0,s0,-16
   12acc:	0cc12603          	lw	a2,204(sp)
   12ad0:	0c812583          	lw	a1,200(sp)
   12ad4:	00098793          	mv	a5,s3
   12ad8:	00700393          	li	t2,7
   12adc:	fa8ecae3          	blt	t4,s0,12a90 <_vfprintf_r+0xefc>
   12ae0:	00090813          	mv	a6,s2
   12ae4:	03412283          	lw	t0,52(sp)
   12ae8:	04812f83          	lw	t6,72(sp)
   12aec:	05012883          	lw	a7,80(sp)
   12af0:	04c12903          	lw	s2,76(sp)
   12af4:	00040713          	mv	a4,s0
   12af8:	00078413          	mv	s0,a5
   12afc:	00e60633          	add	a2,a2,a4
   12b00:	00158593          	add	a1,a1,1
   12b04:	00e42223          	sw	a4,4(s0)
   12b08:	01042023          	sw	a6,0(s0)
   12b0c:	0cc12623          	sw	a2,204(sp)
   12b10:	0cb12423          	sw	a1,200(sp)
   12b14:	00700713          	li	a4,7
   12b18:	00840413          	add	s0,s0,8
   12b1c:	aab75e63          	bge	a4,a1,11dd8 <_vfprintf_r+0x244>
   12b20:	0c410613          	add	a2,sp,196
   12b24:	00048593          	mv	a1,s1
   12b28:	000b8513          	mv	a0,s7
   12b2c:	05112623          	sw	a7,76(sp)
   12b30:	05f12423          	sw	t6,72(sp)
   12b34:	02512a23          	sw	t0,52(sp)
   12b38:	2ed010ef          	jal	14624 <__sprint_r>
   12b3c:	ee051ae3          	bnez	a0,12a30 <_vfprintf_r+0xe9c>
   12b40:	0cc12603          	lw	a2,204(sp)
   12b44:	04c12883          	lw	a7,76(sp)
   12b48:	04812f83          	lw	t6,72(sp)
   12b4c:	03412283          	lw	t0,52(sp)
   12b50:	00098413          	mv	s0,s3
   12b54:	a84ff06f          	j	11dd8 <_vfprintf_r+0x244>
   12b58:	0c410613          	add	a2,sp,196
   12b5c:	00048593          	mv	a1,s1
   12b60:	000b8513          	mv	a0,s7
   12b64:	05112423          	sw	a7,72(sp)
   12b68:	03f12a23          	sw	t6,52(sp)
   12b6c:	2b9010ef          	jal	14624 <__sprint_r>
   12b70:	ec0510e3          	bnez	a0,12a30 <_vfprintf_r+0xe9c>
   12b74:	0cc12603          	lw	a2,204(sp)
   12b78:	04812883          	lw	a7,72(sp)
   12b7c:	03412f83          	lw	t6,52(sp)
   12b80:	00098413          	mv	s0,s3
   12b84:	ac0ff06f          	j	11e44 <_vfprintf_r+0x2b0>
   12b88:	00022837          	lui	a6,0x22
   12b8c:	34480813          	add	a6,a6,836 # 22344 <blanks.1>
   12b90:	01000713          	li	a4,16
   12b94:	0c812783          	lw	a5,200(sp)
   12b98:	01000b13          	li	s6,16
   12b9c:	00700d13          	li	s10,7
   12ba0:	00080d93          	mv	s11,a6
   12ba4:	01474863          	blt	a4,s4,12bb4 <_vfprintf_r+0x1020>
   12ba8:	0580006f          	j	12c00 <_vfprintf_r+0x106c>
   12bac:	ff0a0a13          	add	s4,s4,-16
   12bb0:	054b5663          	bge	s6,s4,12bfc <_vfprintf_r+0x1068>
   12bb4:	01060613          	add	a2,a2,16
   12bb8:	00178793          	add	a5,a5,1
   12bbc:	01b42023          	sw	s11,0(s0)
   12bc0:	01642223          	sw	s6,4(s0)
   12bc4:	0cc12623          	sw	a2,204(sp)
   12bc8:	0cf12423          	sw	a5,200(sp)
   12bcc:	00840413          	add	s0,s0,8
   12bd0:	fcfd5ee3          	bge	s10,a5,12bac <_vfprintf_r+0x1018>
   12bd4:	0c410613          	add	a2,sp,196
   12bd8:	00048593          	mv	a1,s1
   12bdc:	000b8513          	mv	a0,s7
   12be0:	245010ef          	jal	14624 <__sprint_r>
   12be4:	e40516e3          	bnez	a0,12a30 <_vfprintf_r+0xe9c>
   12be8:	ff0a0a13          	add	s4,s4,-16
   12bec:	0cc12603          	lw	a2,204(sp)
   12bf0:	0c812783          	lw	a5,200(sp)
   12bf4:	00098413          	mv	s0,s3
   12bf8:	fb4b4ee3          	blt	s6,s4,12bb4 <_vfprintf_r+0x1020>
   12bfc:	000d8813          	mv	a6,s11
   12c00:	01460633          	add	a2,a2,s4
   12c04:	00178793          	add	a5,a5,1
   12c08:	01042023          	sw	a6,0(s0)
   12c0c:	01442223          	sw	s4,4(s0)
   12c10:	0cc12623          	sw	a2,204(sp)
   12c14:	0cf12423          	sw	a5,200(sp)
   12c18:	00700713          	li	a4,7
   12c1c:	a6f75c63          	bge	a4,a5,11e94 <_vfprintf_r+0x300>
   12c20:	0c410613          	add	a2,sp,196
   12c24:	00048593          	mv	a1,s1
   12c28:	000b8513          	mv	a0,s7
   12c2c:	1f9010ef          	jal	14624 <__sprint_r>
   12c30:	e00510e3          	bnez	a0,12a30 <_vfprintf_r+0xe9c>
   12c34:	0cc12603          	lw	a2,204(sp)
   12c38:	a5cff06f          	j	11e94 <_vfprintf_r+0x300>
   12c3c:	0ac12503          	lw	a0,172(sp)
   12c40:	04a052e3          	blez	a0,13484 <_vfprintf_r+0x18f0>
   12c44:	01412783          	lw	a5,20(sp)
   12c48:	01812703          	lw	a4,24(sp)
   12c4c:	00078a13          	mv	s4,a5
   12c50:	30f74863          	blt	a4,a5,12f60 <_vfprintf_r+0x13cc>
   12c54:	03405663          	blez	s4,12c80 <_vfprintf_r+0x10ec>
   12c58:	0c812703          	lw	a4,200(sp)
   12c5c:	01460633          	add	a2,a2,s4
   12c60:	01a42023          	sw	s10,0(s0)
   12c64:	00170713          	add	a4,a4,1
   12c68:	01442223          	sw	s4,4(s0)
   12c6c:	0cc12623          	sw	a2,204(sp)
   12c70:	0ce12423          	sw	a4,200(sp)
   12c74:	00700593          	li	a1,7
   12c78:	00840413          	add	s0,s0,8
   12c7c:	56e5c0e3          	blt	a1,a4,139dc <_vfprintf_r+0x1e48>
   12c80:	fffa4713          	not	a4,s4
   12c84:	01412783          	lw	a5,20(sp)
   12c88:	41f75713          	sra	a4,a4,0x1f
   12c8c:	00ea7a33          	and	s4,s4,a4
   12c90:	41478a33          	sub	s4,a5,s4
   12c94:	3b404c63          	bgtz	s4,1304c <_vfprintf_r+0x14b8>
   12c98:	01412783          	lw	a5,20(sp)
   12c9c:	400df713          	and	a4,s11,1024
   12ca0:	00fd0a33          	add	s4,s10,a5
   12ca4:	280714e3          	bnez	a4,1372c <_vfprintf_r+0x1b98>
   12ca8:	0ac12583          	lw	a1,172(sp)
   12cac:	01812783          	lw	a5,24(sp)
   12cb0:	40f5ca63          	blt	a1,a5,130c4 <_vfprintf_r+0x1530>
   12cb4:	001df713          	and	a4,s11,1
   12cb8:	40071663          	bnez	a4,130c4 <_vfprintf_r+0x1530>
   12cbc:	01812703          	lw	a4,24(sp)
   12cc0:	00ed07b3          	add	a5,s10,a4
   12cc4:	40b705b3          	sub	a1,a4,a1
   12cc8:	41478b33          	sub	s6,a5,s4
   12ccc:	0165d463          	bge	a1,s6,12cd4 <_vfprintf_r+0x1140>
   12cd0:	00058b13          	mv	s6,a1
   12cd4:	03605863          	blez	s6,12d04 <_vfprintf_r+0x1170>
   12cd8:	0c812703          	lw	a4,200(sp)
   12cdc:	01660633          	add	a2,a2,s6
   12ce0:	01442023          	sw	s4,0(s0)
   12ce4:	00170713          	add	a4,a4,1
   12ce8:	01642223          	sw	s6,4(s0)
   12cec:	0cc12623          	sw	a2,204(sp)
   12cf0:	0ce12423          	sw	a4,200(sp)
   12cf4:	00700793          	li	a5,7
   12cf8:	00840413          	add	s0,s0,8
   12cfc:	00e7d463          	bge	a5,a4,12d04 <_vfprintf_r+0x1170>
   12d00:	3380106f          	j	14038 <_vfprintf_r+0x24a4>
   12d04:	fffb4713          	not	a4,s6
   12d08:	41f75713          	sra	a4,a4,0x1f
   12d0c:	00eb77b3          	and	a5,s6,a4
   12d10:	40f58a33          	sub	s4,a1,a5
   12d14:	97405863          	blez	s4,11e84 <_vfprintf_r+0x2f0>
   12d18:	00022837          	lui	a6,0x22
   12d1c:	01000713          	li	a4,16
   12d20:	0c812783          	lw	a5,200(sp)
   12d24:	33480813          	add	a6,a6,820 # 22334 <zeroes.0>
   12d28:	014758e3          	bge	a4,s4,13538 <_vfprintf_r+0x19a4>
   12d2c:	01212a23          	sw	s2,20(sp)
   12d30:	01000b13          	li	s6,16
   12d34:	00700d13          	li	s10,7
   12d38:	00080913          	mv	s2,a6
   12d3c:	00c0006f          	j	12d48 <_vfprintf_r+0x11b4>
   12d40:	ff0a0a13          	add	s4,s4,-16
   12d44:	7f4b5663          	bge	s6,s4,13530 <_vfprintf_r+0x199c>
   12d48:	01060613          	add	a2,a2,16
   12d4c:	00178793          	add	a5,a5,1
   12d50:	01242023          	sw	s2,0(s0)
   12d54:	01642223          	sw	s6,4(s0)
   12d58:	0cc12623          	sw	a2,204(sp)
   12d5c:	0cf12423          	sw	a5,200(sp)
   12d60:	00840413          	add	s0,s0,8
   12d64:	fcfd5ee3          	bge	s10,a5,12d40 <_vfprintf_r+0x11ac>
   12d68:	0c410613          	add	a2,sp,196
   12d6c:	00048593          	mv	a1,s1
   12d70:	000b8513          	mv	a0,s7
   12d74:	0b1010ef          	jal	14624 <__sprint_r>
   12d78:	ca051ce3          	bnez	a0,12a30 <_vfprintf_r+0xe9c>
   12d7c:	0cc12603          	lw	a2,204(sp)
   12d80:	0c812783          	lw	a5,200(sp)
   12d84:	00098413          	mv	s0,s3
   12d88:	fb9ff06f          	j	12d40 <_vfprintf_r+0x11ac>
   12d8c:	001df593          	and	a1,s11,1
   12d90:	ca059e63          	bnez	a1,1224c <_vfprintf_r+0x6b8>
   12d94:	00e42223          	sw	a4,4(s0)
   12d98:	0cc12623          	sw	a2,204(sp)
   12d9c:	0d412423          	sw	s4,200(sp)
   12da0:	00700793          	li	a5,7
   12da4:	d747d663          	bge	a5,s4,12310 <_vfprintf_r+0x77c>
   12da8:	0c410613          	add	a2,sp,196
   12dac:	00048593          	mv	a1,s1
   12db0:	000b8513          	mv	a0,s7
   12db4:	071010ef          	jal	14624 <__sprint_r>
   12db8:	c6051ce3          	bnez	a0,12a30 <_vfprintf_r+0xe9c>
   12dbc:	0cc12603          	lw	a2,204(sp)
   12dc0:	0c812a03          	lw	s4,200(sp)
   12dc4:	00098b13          	mv	s6,s3
   12dc8:	d48ff06f          	j	12310 <_vfprintf_r+0x77c>
   12dcc:	01812703          	lw	a4,24(sp)
   12dd0:	00100793          	li	a5,1
   12dd4:	d2e7de63          	bge	a5,a4,12310 <_vfprintf_r+0x77c>
   12dd8:	00022837          	lui	a6,0x22
   12ddc:	01100793          	li	a5,17
   12de0:	33480813          	add	a6,a6,820 # 22334 <zeroes.0>
   12de4:	0ce7d6e3          	bge	a5,a4,136b0 <_vfprintf_r+0x1b1c>
   12de8:	01212a23          	sw	s2,20(sp)
   12dec:	01000793          	li	a5,16
   12df0:	00700d13          	li	s10,7
   12df4:	00080913          	mv	s2,a6
   12df8:	00c0006f          	j	12e04 <_vfprintf_r+0x1270>
   12dfc:	ff040413          	add	s0,s0,-16
   12e00:	0a87d4e3          	bge	a5,s0,136a8 <_vfprintf_r+0x1b14>
   12e04:	01060613          	add	a2,a2,16
   12e08:	001a0a13          	add	s4,s4,1
   12e0c:	012b2023          	sw	s2,0(s6)
   12e10:	00fb2223          	sw	a5,4(s6)
   12e14:	0cc12623          	sw	a2,204(sp)
   12e18:	0d412423          	sw	s4,200(sp)
   12e1c:	008b0b13          	add	s6,s6,8
   12e20:	fd4d5ee3          	bge	s10,s4,12dfc <_vfprintf_r+0x1268>
   12e24:	0c410613          	add	a2,sp,196
   12e28:	00048593          	mv	a1,s1
   12e2c:	000b8513          	mv	a0,s7
   12e30:	7f4010ef          	jal	14624 <__sprint_r>
   12e34:	be051ee3          	bnez	a0,12a30 <_vfprintf_r+0xe9c>
   12e38:	0cc12603          	lw	a2,204(sp)
   12e3c:	0c812a03          	lw	s4,200(sp)
   12e40:	00098b13          	mv	s6,s3
   12e44:	01000793          	li	a5,16
   12e48:	fb5ff06f          	j	12dfc <_vfprintf_r+0x1268>
   12e4c:	00c12683          	lw	a3,12(sp)
   12e50:	01067793          	and	a5,a2,16
   12e54:	0006a703          	lw	a4,0(a3)
   12e58:	00468693          	add	a3,a3,4
   12e5c:	00d12623          	sw	a3,12(sp)
   12e60:	04079863          	bnez	a5,12eb0 <_vfprintf_r+0x131c>
   12e64:	04067793          	and	a5,a2,64
   12e68:	04078063          	beqz	a5,12ea8 <_vfprintf_r+0x1314>
   12e6c:	01071b13          	sll	s6,a4,0x10
   12e70:	010b5b13          	srl	s6,s6,0x10
   12e74:	00000813          	li	a6,0
   12e78:	00100793          	li	a5,1
   12e7c:	9fcff06f          	j	12078 <_vfprintf_r+0x4e4>
   12e80:	00000b13          	li	s6,0
   12e84:	19010d13          	add	s10,sp,400
   12e88:	994ff06f          	j	1201c <_vfprintf_r+0x488>
   12e8c:	001df793          	and	a5,s11,1
   12e90:	00079463          	bnez	a5,12e98 <_vfprintf_r+0x1304>
   12e94:	ff1fe06f          	j	11e84 <_vfprintf_r+0x2f0>
   12e98:	8a1ff06f          	j	12738 <_vfprintf_r+0xba4>
   12e9c:	00094883          	lbu	a7,0(s2)
   12ea0:	00f12623          	sw	a5,12(sp)
   12ea4:	e95fe06f          	j	11d38 <_vfprintf_r+0x1a4>
   12ea8:	20067793          	and	a5,a2,512
   12eac:	360798e3          	bnez	a5,13a1c <_vfprintf_r+0x1e88>
   12eb0:	00070b13          	mv	s6,a4
   12eb4:	00000813          	li	a6,0
   12eb8:	00100793          	li	a5,1
   12ebc:	9bcff06f          	j	12078 <_vfprintf_r+0x4e4>
   12ec0:	200df793          	and	a5,s11,512
   12ec4:	360794e3          	bnez	a5,13a2c <_vfprintf_r+0x1e98>
   12ec8:	41f75813          	sra	a6,a4,0x1f
   12ecc:	00070b13          	mv	s6,a4
   12ed0:	00080793          	mv	a5,a6
   12ed4:	920ff06f          	j	11ff4 <_vfprintf_r+0x460>
   12ed8:	200df793          	and	a5,s11,512
   12edc:	360798e3          	bnez	a5,13a4c <_vfprintf_r+0x1eb8>
   12ee0:	00070b13          	mv	s6,a4
   12ee4:	00000813          	li	a6,0
   12ee8:	988ff06f          	j	12070 <_vfprintf_r+0x4dc>
   12eec:	00c12783          	lw	a5,12(sp)
   12ef0:	0007a703          	lw	a4,0(a5)
   12ef4:	00478793          	add	a5,a5,4
   12ef8:	00f12623          	sw	a5,12(sp)
   12efc:	00072583          	lw	a1,0(a4)
   12f00:	00472603          	lw	a2,4(a4)
   12f04:	00872683          	lw	a3,8(a4)
   12f08:	00c72703          	lw	a4,12(a4)
   12f0c:	a18ff06f          	j	12124 <_vfprintf_r+0x590>
   12f10:	03812783          	lw	a5,56(sp)
   12f14:	00094883          	lbu	a7,0(s2)
   12f18:	00079463          	bnez	a5,12f20 <_vfprintf_r+0x138c>
   12f1c:	e1dfe06f          	j	11d38 <_vfprintf_r+0x1a4>
   12f20:	0007c783          	lbu	a5,0(a5)
   12f24:	00079463          	bnez	a5,12f2c <_vfprintf_r+0x1398>
   12f28:	e11fe06f          	j	11d38 <_vfprintf_r+0x1a4>
   12f2c:	400ded93          	or	s11,s11,1024
   12f30:	e09fe06f          	j	11d38 <_vfprintf_r+0x1a4>
   12f34:	010df793          	and	a5,s11,16
   12f38:	6a079663          	bnez	a5,135e4 <_vfprintf_r+0x1a50>
   12f3c:	040df793          	and	a5,s11,64
   12f40:	2c0794e3          	bnez	a5,13a08 <_vfprintf_r+0x1e74>
   12f44:	200dfe13          	and	t3,s11,512
   12f48:	680e0e63          	beqz	t3,135e4 <_vfprintf_r+0x1a50>
   12f4c:	00c12783          	lw	a5,12(sp)
   12f50:	00412703          	lw	a4,4(sp)
   12f54:	0007a783          	lw	a5,0(a5)
   12f58:	00e78023          	sb	a4,0(a5)
   12f5c:	e80ff06f          	j	125dc <_vfprintf_r+0xa48>
   12f60:	00070a13          	mv	s4,a4
   12f64:	cf404ae3          	bgtz	s4,12c58 <_vfprintf_r+0x10c4>
   12f68:	d19ff06f          	j	12c80 <_vfprintf_r+0x10ec>
   12f6c:	fff00a13          	li	s4,-1
   12f70:	00068913          	mv	s2,a3
   12f74:	dc9fe06f          	j	11d3c <_vfprintf_r+0x1a8>
   12f78:	000227b7          	lui	a5,0x22
   12f7c:	04878793          	add	a5,a5,72 # 22048 <__clzsi2+0x11c>
   12f80:	02f12823          	sw	a5,48(sp)
   12f84:	020df793          	and	a5,s11,32
   12f88:	3a078463          	beqz	a5,13330 <_vfprintf_r+0x179c>
   12f8c:	00c12783          	lw	a5,12(sp)
   12f90:	00778c13          	add	s8,a5,7
   12f94:	ff8c7c13          	and	s8,s8,-8
   12f98:	000c2b03          	lw	s6,0(s8)
   12f9c:	004c2803          	lw	a6,4(s8)
   12fa0:	008c0793          	add	a5,s8,8
   12fa4:	00f12623          	sw	a5,12(sp)
   12fa8:	001df793          	and	a5,s11,1
   12fac:	00078e63          	beqz	a5,12fc8 <_vfprintf_r+0x1434>
   12fb0:	010b67b3          	or	a5,s6,a6
   12fb4:	00078a63          	beqz	a5,12fc8 <_vfprintf_r+0x1434>
   12fb8:	03000793          	li	a5,48
   12fbc:	0af10423          	sb	a5,168(sp)
   12fc0:	0b1104a3          	sb	a7,169(sp)
   12fc4:	002ded93          	or	s11,s11,2
   12fc8:	bffdf613          	and	a2,s11,-1025
   12fcc:	00200793          	li	a5,2
   12fd0:	8a8ff06f          	j	12078 <_vfprintf_r+0x4e4>
   12fd4:	000d8613          	mv	a2,s11
   12fd8:	d6cff06f          	j	12544 <_vfprintf_r+0x9b0>
   12fdc:	000227b7          	lui	a5,0x22
   12fe0:	03478793          	add	a5,a5,52 # 22034 <__clzsi2+0x108>
   12fe4:	02f12823          	sw	a5,48(sp)
   12fe8:	f9dff06f          	j	12f84 <_vfprintf_r+0x13f0>
   12fec:	0c410613          	add	a2,sp,196
   12ff0:	00048593          	mv	a1,s1
   12ff4:	000b8513          	mv	a0,s7
   12ff8:	62c010ef          	jal	14624 <__sprint_r>
   12ffc:	a2051ae3          	bnez	a0,12a30 <_vfprintf_r+0xe9c>
   13000:	0cc12603          	lw	a2,204(sp)
   13004:	00098413          	mv	s0,s3
   13008:	f60ff06f          	j	12768 <_vfprintf_r+0xbd4>
   1300c:	00194883          	lbu	a7,1(s2)
   13010:	200ded93          	or	s11,s11,512
   13014:	00190913          	add	s2,s2,1
   13018:	d21fe06f          	j	11d38 <_vfprintf_r+0x1a4>
   1301c:	00194883          	lbu	a7,1(s2)
   13020:	020ded93          	or	s11,s11,32
   13024:	00190913          	add	s2,s2,1
   13028:	d11fe06f          	j	11d38 <_vfprintf_r+0x1a4>
   1302c:	00600793          	li	a5,6
   13030:	000a0b13          	mv	s6,s4
   13034:	1d47e6e3          	bltu	a5,s4,13a00 <_vfprintf_r+0x1e6c>
   13038:	000227b7          	lui	a5,0x22
   1303c:	000b0c13          	mv	s8,s6
   13040:	01012623          	sw	a6,12(sp)
   13044:	05c78d13          	add	s10,a5,92 # 2205c <__clzsi2+0x130>
   13048:	d5dfe06f          	j	11da4 <_vfprintf_r+0x210>
   1304c:	00022837          	lui	a6,0x22
   13050:	01000593          	li	a1,16
   13054:	0c812703          	lw	a4,200(sp)
   13058:	33480813          	add	a6,a6,820 # 22334 <zeroes.0>
   1305c:	6945d663          	bge	a1,s4,136e8 <_vfprintf_r+0x1b54>
   13060:	03212a23          	sw	s2,52(sp)
   13064:	01000893          	li	a7,16
   13068:	00700b13          	li	s6,7
   1306c:	00080913          	mv	s2,a6
   13070:	00c0006f          	j	1307c <_vfprintf_r+0x14e8>
   13074:	ff0a0a13          	add	s4,s4,-16
   13078:	6748d463          	bge	a7,s4,136e0 <_vfprintf_r+0x1b4c>
   1307c:	01060613          	add	a2,a2,16
   13080:	00170713          	add	a4,a4,1
   13084:	01242023          	sw	s2,0(s0)
   13088:	01142223          	sw	a7,4(s0)
   1308c:	0cc12623          	sw	a2,204(sp)
   13090:	0ce12423          	sw	a4,200(sp)
   13094:	00840413          	add	s0,s0,8
   13098:	fceb5ee3          	bge	s6,a4,13074 <_vfprintf_r+0x14e0>
   1309c:	0c410613          	add	a2,sp,196
   130a0:	00048593          	mv	a1,s1
   130a4:	000b8513          	mv	a0,s7
   130a8:	57c010ef          	jal	14624 <__sprint_r>
   130ac:	980512e3          	bnez	a0,12a30 <_vfprintf_r+0xe9c>
   130b0:	0cc12603          	lw	a2,204(sp)
   130b4:	0c812703          	lw	a4,200(sp)
   130b8:	00098413          	mv	s0,s3
   130bc:	01000893          	li	a7,16
   130c0:	fb5ff06f          	j	13074 <_vfprintf_r+0x14e0>
   130c4:	02c12703          	lw	a4,44(sp)
   130c8:	02812783          	lw	a5,40(sp)
   130cc:	00700513          	li	a0,7
   130d0:	00e42023          	sw	a4,0(s0)
   130d4:	0c812703          	lw	a4,200(sp)
   130d8:	00f60633          	add	a2,a2,a5
   130dc:	00f42223          	sw	a5,4(s0)
   130e0:	00170713          	add	a4,a4,1
   130e4:	0cc12623          	sw	a2,204(sp)
   130e8:	0ce12423          	sw	a4,200(sp)
   130ec:	00840413          	add	s0,s0,8
   130f0:	bce556e3          	bge	a0,a4,12cbc <_vfprintf_r+0x1128>
   130f4:	0c410613          	add	a2,sp,196
   130f8:	00048593          	mv	a1,s1
   130fc:	000b8513          	mv	a0,s7
   13100:	524010ef          	jal	14624 <__sprint_r>
   13104:	920516e3          	bnez	a0,12a30 <_vfprintf_r+0xe9c>
   13108:	0ac12583          	lw	a1,172(sp)
   1310c:	0cc12603          	lw	a2,204(sp)
   13110:	00098413          	mv	s0,s3
   13114:	ba9ff06f          	j	12cbc <_vfprintf_r+0x1128>
   13118:	07800793          	li	a5,120
   1311c:	03000713          	li	a4,48
   13120:	0ae10423          	sb	a4,168(sp)
   13124:	0af104a3          	sb	a5,169(sp)
   13128:	06300713          	li	a4,99
   1312c:	00012423          	sw	zero,8(sp)
   13130:	002ded93          	or	s11,s11,2
   13134:	12c10d13          	add	s10,sp,300
   13138:	87475463          	bge	a4,s4,121a0 <_vfprintf_r+0x60c>
   1313c:	001a0593          	add	a1,s4,1
   13140:	000b8513          	mv	a0,s7
   13144:	01112423          	sw	a7,8(sp)
   13148:	a88fe0ef          	jal	113d0 <_malloc_r>
   1314c:	00812883          	lw	a7,8(sp)
   13150:	00050d13          	mv	s10,a0
   13154:	00051463          	bnez	a0,1315c <_vfprintf_r+0x15c8>
   13158:	2b40106f          	j	1440c <_vfprintf_r+0x2878>
   1315c:	00a12423          	sw	a0,8(sp)
   13160:	840ff06f          	j	121a0 <_vfprintf_r+0x60c>
   13164:	09010b13          	add	s6,sp,144
   13168:	0ac10713          	add	a4,sp,172
   1316c:	0bc10813          	add	a6,sp,188
   13170:	0b010793          	add	a5,sp,176
   13174:	000a0693          	mv	a3,s4
   13178:	00200613          	li	a2,2
   1317c:	000b0593          	mv	a1,s6
   13180:	000b8513          	mv	a0,s7
   13184:	03112023          	sw	a7,32(sp)
   13188:	09f12823          	sw	t6,144(sp)
   1318c:	01f12e23          	sw	t6,28(sp)
   13190:	09e12a23          	sw	t5,148(sp)
   13194:	01e12c23          	sw	t5,24(sp)
   13198:	09d12c23          	sw	t4,152(sp)
   1319c:	01d12a23          	sw	t4,20(sp)
   131a0:	09812e23          	sw	s8,156(sp)
   131a4:	621030ef          	jal	16fc4 <_ldtoa_r>
   131a8:	001df713          	and	a4,s11,1
   131ac:	01412e83          	lw	t4,20(sp)
   131b0:	01812f03          	lw	t5,24(sp)
   131b4:	01c12f83          	lw	t6,28(sp)
   131b8:	02012883          	lw	a7,32(sp)
   131bc:	00050d13          	mv	s10,a0
   131c0:	0e0714e3          	bnez	a4,13aa8 <_vfprintf_r+0x1f14>
   131c4:	0ac12783          	lw	a5,172(sp)
   131c8:	00f12a23          	sw	a5,20(sp)
   131cc:	0bc12783          	lw	a5,188(sp)
   131d0:	40a787b3          	sub	a5,a5,a0
   131d4:	00f12c23          	sw	a5,24(sp)
   131d8:	01412783          	lw	a5,20(sp)
   131dc:	ffd00713          	li	a4,-3
   131e0:	00e7c463          	blt	a5,a4,131e8 <_vfprintf_r+0x1654>
   131e4:	56fa5ae3          	bge	s4,a5,13f58 <_vfprintf_r+0x23c4>
   131e8:	01412783          	lw	a5,20(sp)
   131ec:	ffe88893          	add	a7,a7,-2
   131f0:	fff78a13          	add	s4,a5,-1
   131f4:	0b412623          	sw	s4,172(sp)
   131f8:	0ff8f693          	zext.b	a3,a7
   131fc:	00000613          	li	a2,0
   13200:	0ad10a23          	sb	a3,180(sp)
   13204:	02b00693          	li	a3,43
   13208:	000a5a63          	bgez	s4,1321c <_vfprintf_r+0x1688>
   1320c:	01412783          	lw	a5,20(sp)
   13210:	00100713          	li	a4,1
   13214:	02d00693          	li	a3,45
   13218:	40f70a33          	sub	s4,a4,a5
   1321c:	0ad10aa3          	sb	a3,181(sp)
   13220:	00900693          	li	a3,9
   13224:	0146c463          	blt	a3,s4,1322c <_vfprintf_r+0x1698>
   13228:	0180106f          	j	14240 <_vfprintf_r+0x26ac>
   1322c:	0c310613          	add	a2,sp,195
   13230:	00812a23          	sw	s0,20(sp)
   13234:	00088b13          	mv	s6,a7
   13238:	00060413          	mv	s0,a2
   1323c:	00912e23          	sw	s1,28(sp)
   13240:	00a00593          	li	a1,10
   13244:	000a0513          	mv	a0,s4
   13248:	4b50e0ef          	jal	21efc <__modsi3>
   1324c:	03050793          	add	a5,a0,48
   13250:	00040c13          	mv	s8,s0
   13254:	fefc0fa3          	sb	a5,-1(s8)
   13258:	000a0513          	mv	a0,s4
   1325c:	00a00593          	li	a1,10
   13260:	4190e0ef          	jal	21e78 <__divsi3>
   13264:	000a0493          	mv	s1,s4
   13268:	06300793          	li	a5,99
   1326c:	fff40413          	add	s0,s0,-1
   13270:	00050a13          	mv	s4,a0
   13274:	fc97c6e3          	blt	a5,s1,13240 <_vfprintf_r+0x16ac>
   13278:	00040613          	mv	a2,s0
   1327c:	03050713          	add	a4,a0,48
   13280:	ffec0693          	add	a3,s8,-2
   13284:	fee60fa3          	sb	a4,-1(a2)
   13288:	0c310793          	add	a5,sp,195
   1328c:	01412403          	lw	s0,20(sp)
   13290:	01c12483          	lw	s1,28(sp)
   13294:	000b0893          	mv	a7,s6
   13298:	00f6e463          	bltu	a3,a5,132a0 <_vfprintf_r+0x170c>
   1329c:	1280106f          	j	143c4 <_vfprintf_r+0x2830>
   132a0:	0b610613          	add	a2,sp,182
   132a4:	0006c783          	lbu	a5,0(a3)
   132a8:	00168693          	add	a3,a3,1
   132ac:	00160613          	add	a2,a2,1
   132b0:	fef60fa3          	sb	a5,-1(a2)
   132b4:	0c310793          	add	a5,sp,195
   132b8:	fef696e3          	bne	a3,a5,132a4 <_vfprintf_r+0x1710>
   132bc:	19010793          	add	a5,sp,400
   132c0:	41878733          	sub	a4,a5,s8
   132c4:	f3770793          	add	a5,a4,-201
   132c8:	02f12e23          	sw	a5,60(sp)
   132cc:	01812783          	lw	a5,24(sp)
   132d0:	03c12683          	lw	a3,60(sp)
   132d4:	00100713          	li	a4,1
   132d8:	00d78b33          	add	s6,a5,a3
   132dc:	00f74463          	blt	a4,a5,132e4 <_vfprintf_r+0x1750>
   132e0:	79d0006f          	j	1427c <_vfprintf_r+0x26e8>
   132e4:	02812783          	lw	a5,40(sp)
   132e8:	00fb0b33          	add	s6,s6,a5
   132ec:	fffb4693          	not	a3,s6
   132f0:	bffdfe13          	and	t3,s11,-1025
   132f4:	41f6d693          	sra	a3,a3,0x1f
   132f8:	100e6793          	or	a5,t3,256
   132fc:	04f12423          	sw	a5,72(sp)
   13300:	00db7c33          	and	s8,s6,a3
   13304:	02012023          	sw	zero,32(sp)
   13308:	00012e23          	sw	zero,28(sp)
   1330c:	00012a23          	sw	zero,20(sp)
   13310:	03412783          	lw	a5,52(sp)
   13314:	420786e3          	beqz	a5,13f40 <_vfprintf_r+0x23ac>
   13318:	02d00713          	li	a4,45
   1331c:	04812d83          	lw	s11,72(sp)
   13320:	0ae103a3          	sb	a4,167(sp)
   13324:	00000a13          	li	s4,0
   13328:	001c0c13          	add	s8,s8,1
   1332c:	a8dfe06f          	j	11db8 <_vfprintf_r+0x224>
   13330:	00c12683          	lw	a3,12(sp)
   13334:	010df793          	and	a5,s11,16
   13338:	0006a703          	lw	a4,0(a3)
   1333c:	00468693          	add	a3,a3,4
   13340:	00d12623          	sw	a3,12(sp)
   13344:	06079663          	bnez	a5,133b0 <_vfprintf_r+0x181c>
   13348:	040df793          	and	a5,s11,64
   1334c:	04078e63          	beqz	a5,133a8 <_vfprintf_r+0x1814>
   13350:	01071b13          	sll	s6,a4,0x10
   13354:	010b5b13          	srl	s6,s6,0x10
   13358:	00000813          	li	a6,0
   1335c:	c4dff06f          	j	12fa8 <_vfprintf_r+0x1414>
   13360:	0c410613          	add	a2,sp,196
   13364:	00048593          	mv	a1,s1
   13368:	000b8513          	mv	a0,s7
   1336c:	2b8010ef          	jal	14624 <__sprint_r>
   13370:	ec051063          	bnez	a0,12a30 <_vfprintf_r+0xe9c>
   13374:	0cc12603          	lw	a2,204(sp)
   13378:	0c812a03          	lw	s4,200(sp)
   1337c:	00098b13          	mv	s6,s3
   13380:	ee9fe06f          	j	12268 <_vfprintf_r+0x6d4>
   13384:	0c410613          	add	a2,sp,196
   13388:	00048593          	mv	a1,s1
   1338c:	000b8513          	mv	a0,s7
   13390:	294010ef          	jal	14624 <__sprint_r>
   13394:	e8051e63          	bnez	a0,12a30 <_vfprintf_r+0xe9c>
   13398:	0cc12603          	lw	a2,204(sp)
   1339c:	0c812a03          	lw	s4,200(sp)
   133a0:	00098b13          	mv	s6,s3
   133a4:	ef5fe06f          	j	12298 <_vfprintf_r+0x704>
   133a8:	200df793          	and	a5,s11,512
   133ac:	68079a63          	bnez	a5,13a40 <_vfprintf_r+0x1eac>
   133b0:	00070b13          	mv	s6,a4
   133b4:	00000813          	li	a6,0
   133b8:	bf1ff06f          	j	12fa8 <_vfprintf_r+0x1414>
   133bc:	19010c13          	add	s8,sp,400
   133c0:	01212423          	sw	s2,8(sp)
   133c4:	02812023          	sw	s0,32(sp)
   133c8:	02912a23          	sw	s1,52(sp)
   133cc:	03812403          	lw	s0,56(sp)
   133d0:	40067d93          	and	s11,a2,1024
   133d4:	00000d13          	li	s10,0
   133d8:	01112a23          	sw	a7,20(sp)
   133dc:	00c12e23          	sw	a2,28(sp)
   133e0:	000c0493          	mv	s1,s8
   133e4:	00080913          	mv	s2,a6
   133e8:	0280006f          	j	13410 <_vfprintf_r+0x187c>
   133ec:	00a00613          	li	a2,10
   133f0:	00000693          	li	a3,0
   133f4:	000b0513          	mv	a0,s6
   133f8:	00090593          	mv	a1,s2
   133fc:	5ed080ef          	jal	1c1e8 <__udivdi3>
   13400:	3e0902e3          	beqz	s2,13fe4 <_vfprintf_r+0x2450>
   13404:	00050b13          	mv	s6,a0
   13408:	00058913          	mv	s2,a1
   1340c:	000c0493          	mv	s1,s8
   13410:	00a00613          	li	a2,10
   13414:	00000693          	li	a3,0
   13418:	000b0513          	mv	a0,s6
   1341c:	00090593          	mv	a1,s2
   13420:	38c090ef          	jal	1c7ac <__umoddi3>
   13424:	03050513          	add	a0,a0,48
   13428:	fea48fa3          	sb	a0,-1(s1)
   1342c:	fff48c13          	add	s8,s1,-1
   13430:	001d0d13          	add	s10,s10,1
   13434:	fa0d8ce3          	beqz	s11,133ec <_vfprintf_r+0x1858>
   13438:	00044783          	lbu	a5,0(s0)
   1343c:	fafd18e3          	bne	s10,a5,133ec <_vfprintf_r+0x1858>
   13440:	0ff00793          	li	a5,255
   13444:	fafd04e3          	beq	s10,a5,133ec <_vfprintf_r+0x1858>
   13448:	52091063          	bnez	s2,13968 <_vfprintf_r+0x1dd4>
   1344c:	00900793          	li	a5,9
   13450:	5167ec63          	bltu	a5,s6,13968 <_vfprintf_r+0x1dd4>
   13454:	01c12603          	lw	a2,28(sp)
   13458:	01a12c23          	sw	s10,24(sp)
   1345c:	19010793          	add	a5,sp,400
   13460:	000c0d13          	mv	s10,s8
   13464:	02812c23          	sw	s0,56(sp)
   13468:	00812903          	lw	s2,8(sp)
   1346c:	01412883          	lw	a7,20(sp)
   13470:	02012403          	lw	s0,32(sp)
   13474:	03412483          	lw	s1,52(sp)
   13478:	41a78b33          	sub	s6,a5,s10
   1347c:	00060d93          	mv	s11,a2
   13480:	b9dfe06f          	j	1201c <_vfprintf_r+0x488>
   13484:	0c812703          	lw	a4,200(sp)
   13488:	000225b7          	lui	a1,0x22
   1348c:	06458593          	add	a1,a1,100 # 22064 <__clzsi2+0x138>
   13490:	00b42023          	sw	a1,0(s0)
   13494:	00160613          	add	a2,a2,1
   13498:	00100593          	li	a1,1
   1349c:	00170713          	add	a4,a4,1
   134a0:	00b42223          	sw	a1,4(s0)
   134a4:	0cc12623          	sw	a2,204(sp)
   134a8:	0ce12423          	sw	a4,200(sp)
   134ac:	00700593          	li	a1,7
   134b0:	00840413          	add	s0,s0,8
   134b4:	4ee5ca63          	blt	a1,a4,139a8 <_vfprintf_r+0x1e14>
   134b8:	14051063          	bnez	a0,135f8 <_vfprintf_r+0x1a64>
   134bc:	01812783          	lw	a5,24(sp)
   134c0:	001df713          	and	a4,s11,1
   134c4:	00f76733          	or	a4,a4,a5
   134c8:	00071463          	bnez	a4,134d0 <_vfprintf_r+0x193c>
   134cc:	9b9fe06f          	j	11e84 <_vfprintf_r+0x2f0>
   134d0:	02c12703          	lw	a4,44(sp)
   134d4:	02812783          	lw	a5,40(sp)
   134d8:	00700593          	li	a1,7
   134dc:	00e42023          	sw	a4,0(s0)
   134e0:	0c812703          	lw	a4,200(sp)
   134e4:	00c78633          	add	a2,a5,a2
   134e8:	00f42223          	sw	a5,4(s0)
   134ec:	00170713          	add	a4,a4,1
   134f0:	0cc12623          	sw	a2,204(sp)
   134f4:	0ce12423          	sw	a4,200(sp)
   134f8:	58e5c263          	blt	a1,a4,13a7c <_vfprintf_r+0x1ee8>
   134fc:	00840413          	add	s0,s0,8
   13500:	12c0006f          	j	1362c <_vfprintf_r+0x1a98>
   13504:	02412503          	lw	a0,36(sp)
   13508:	904fd0ef          	jal	1060c <__sinit>
   1350c:	ee8fe06f          	j	11bf4 <_vfprintf_r+0x60>
   13510:	0c410613          	add	a2,sp,196
   13514:	00048593          	mv	a1,s1
   13518:	000b8513          	mv	a0,s7
   1351c:	108010ef          	jal	14624 <__sprint_r>
   13520:	d0051863          	bnez	a0,12a30 <_vfprintf_r+0xe9c>
   13524:	0cc12603          	lw	a2,204(sp)
   13528:	00098413          	mv	s0,s3
   1352c:	a00ff06f          	j	1272c <_vfprintf_r+0xb98>
   13530:	00090813          	mv	a6,s2
   13534:	01412903          	lw	s2,20(sp)
   13538:	01042023          	sw	a6,0(s0)
   1353c:	01442223          	sw	s4,4(s0)
   13540:	01460633          	add	a2,a2,s4
   13544:	00178793          	add	a5,a5,1
   13548:	0cc12623          	sw	a2,204(sp)
   1354c:	0cf12423          	sw	a5,200(sp)
   13550:	00700713          	li	a4,7
   13554:	00f74463          	blt	a4,a5,1355c <_vfprintf_r+0x19c8>
   13558:	929fe06f          	j	11e80 <_vfprintf_r+0x2ec>
   1355c:	de1fe06f          	j	1233c <_vfprintf_r+0x7a8>
   13560:	0d012783          	lw	a5,208(sp)
   13564:	08010593          	add	a1,sp,128
   13568:	09010513          	add	a0,sp,144
   1356c:	08f12823          	sw	a5,144(sp)
   13570:	0d412783          	lw	a5,212(sp)
   13574:	08012023          	sw	zero,128(sp)
   13578:	08012223          	sw	zero,132(sp)
   1357c:	08f12a23          	sw	a5,148(sp)
   13580:	0d812783          	lw	a5,216(sp)
   13584:	08012423          	sw	zero,136(sp)
   13588:	08012623          	sw	zero,140(sp)
   1358c:	08f12c23          	sw	a5,152(sp)
   13590:	0dc12783          	lw	a5,220(sp)
   13594:	08f12e23          	sw	a5,156(sp)
   13598:	2190b0ef          	jal	1efb0 <__letf2>
   1359c:	00812883          	lw	a7,8(sp)
   135a0:	240548e3          	bltz	a0,13ff0 <_vfprintf_r+0x245c>
   135a4:	0a714703          	lbu	a4,167(sp)
   135a8:	04700793          	li	a5,71
   135ac:	4317d263          	bge	a5,a7,139d0 <_vfprintf_r+0x1e3c>
   135b0:	000227b7          	lui	a5,0x22
   135b4:	02878d13          	add	s10,a5,40 # 22028 <__clzsi2+0xfc>
   135b8:	00012423          	sw	zero,8(sp)
   135bc:	02012023          	sw	zero,32(sp)
   135c0:	00012e23          	sw	zero,28(sp)
   135c4:	00012a23          	sw	zero,20(sp)
   135c8:	f7fdfd93          	and	s11,s11,-129
   135cc:	00300c13          	li	s8,3
   135d0:	00300b13          	li	s6,3
   135d4:	00000a13          	li	s4,0
   135d8:	00070463          	beqz	a4,135e0 <_vfprintf_r+0x1a4c>
   135dc:	a65fe06f          	j	12040 <_vfprintf_r+0x4ac>
   135e0:	fd8fe06f          	j	11db8 <_vfprintf_r+0x224>
   135e4:	00c12783          	lw	a5,12(sp)
   135e8:	00412703          	lw	a4,4(sp)
   135ec:	0007a783          	lw	a5,0(a5)
   135f0:	00e7a023          	sw	a4,0(a5)
   135f4:	fe9fe06f          	j	125dc <_vfprintf_r+0xa48>
   135f8:	02c12703          	lw	a4,44(sp)
   135fc:	02812783          	lw	a5,40(sp)
   13600:	00700593          	li	a1,7
   13604:	00e42023          	sw	a4,0(s0)
   13608:	0c812703          	lw	a4,200(sp)
   1360c:	00c78633          	add	a2,a5,a2
   13610:	00f42223          	sw	a5,4(s0)
   13614:	00170713          	add	a4,a4,1
   13618:	0cc12623          	sw	a2,204(sp)
   1361c:	0ce12423          	sw	a4,200(sp)
   13620:	00840413          	add	s0,s0,8
   13624:	44e5cc63          	blt	a1,a4,13a7c <_vfprintf_r+0x1ee8>
   13628:	340542e3          	bltz	a0,1416c <_vfprintf_r+0x25d8>
   1362c:	01812783          	lw	a5,24(sp)
   13630:	00170713          	add	a4,a4,1
   13634:	01a42023          	sw	s10,0(s0)
   13638:	00c78633          	add	a2,a5,a2
   1363c:	00f42223          	sw	a5,4(s0)
   13640:	0cc12623          	sw	a2,204(sp)
   13644:	0ce12423          	sw	a4,200(sp)
   13648:	00700793          	li	a5,7
   1364c:	00e7c463          	blt	a5,a4,13654 <_vfprintf_r+0x1ac0>
   13650:	831fe06f          	j	11e80 <_vfprintf_r+0x2ec>
   13654:	ce9fe06f          	j	1233c <_vfprintf_r+0x7a8>
   13658:	000d0513          	mv	a0,s10
   1365c:	01012423          	sw	a6,8(sp)
   13660:	03112a23          	sw	a7,52(sp)
   13664:	f5cfd0ef          	jal	10dc0 <strlen>
   13668:	00812803          	lw	a6,8(sp)
   1366c:	0a714703          	lbu	a4,167(sp)
   13670:	fff54693          	not	a3,a0
   13674:	41f6d693          	sra	a3,a3,0x1f
   13678:	01012623          	sw	a6,12(sp)
   1367c:	00012423          	sw	zero,8(sp)
   13680:	02012023          	sw	zero,32(sp)
   13684:	00012e23          	sw	zero,28(sp)
   13688:	00012a23          	sw	zero,20(sp)
   1368c:	03412883          	lw	a7,52(sp)
   13690:	00050b13          	mv	s6,a0
   13694:	00d57c33          	and	s8,a0,a3
   13698:	00000a13          	li	s4,0
   1369c:	00070463          	beqz	a4,136a4 <_vfprintf_r+0x1b10>
   136a0:	9a1fe06f          	j	12040 <_vfprintf_r+0x4ac>
   136a4:	f14fe06f          	j	11db8 <_vfprintf_r+0x224>
   136a8:	00090813          	mv	a6,s2
   136ac:	01412903          	lw	s2,20(sp)
   136b0:	00860633          	add	a2,a2,s0
   136b4:	001a0a13          	add	s4,s4,1
   136b8:	010b2023          	sw	a6,0(s6)
   136bc:	c3dfe06f          	j	122f8 <_vfprintf_r+0x764>
   136c0:	0dc12783          	lw	a5,220(sp)
   136c4:	3807ca63          	bltz	a5,13a58 <_vfprintf_r+0x1ec4>
   136c8:	0a714703          	lbu	a4,167(sp)
   136cc:	04700793          	li	a5,71
   136d0:	1517cee3          	blt	a5,a7,1402c <_vfprintf_r+0x2498>
   136d4:	000227b7          	lui	a5,0x22
   136d8:	02c78d13          	add	s10,a5,44 # 2202c <__clzsi2+0x100>
   136dc:	eddff06f          	j	135b8 <_vfprintf_r+0x1a24>
   136e0:	00090813          	mv	a6,s2
   136e4:	03412903          	lw	s2,52(sp)
   136e8:	01460633          	add	a2,a2,s4
   136ec:	00170713          	add	a4,a4,1
   136f0:	01042023          	sw	a6,0(s0)
   136f4:	01442223          	sw	s4,4(s0)
   136f8:	0cc12623          	sw	a2,204(sp)
   136fc:	0ce12423          	sw	a4,200(sp)
   13700:	00700593          	li	a1,7
   13704:	00840413          	add	s0,s0,8
   13708:	d8e5d863          	bge	a1,a4,12c98 <_vfprintf_r+0x1104>
   1370c:	0c410613          	add	a2,sp,196
   13710:	00048593          	mv	a1,s1
   13714:	000b8513          	mv	a0,s7
   13718:	70d000ef          	jal	14624 <__sprint_r>
   1371c:	b0051a63          	bnez	a0,12a30 <_vfprintf_r+0xe9c>
   13720:	0cc12603          	lw	a2,204(sp)
   13724:	00098413          	mv	s0,s3
   13728:	d70ff06f          	j	12c98 <_vfprintf_r+0x1104>
   1372c:	01812783          	lw	a5,24(sp)
   13730:	01c12b03          	lw	s6,28(sp)
   13734:	000228b7          	lui	a7,0x22
   13738:	00fd07b3          	add	a5,s10,a5
   1373c:	03212a23          	sw	s2,52(sp)
   13740:	05912623          	sw	s9,76(sp)
   13744:	01812e23          	sw	s8,28(sp)
   13748:	05a12823          	sw	s10,80(sp)
   1374c:	05b12423          	sw	s11,72(sp)
   13750:	000a0c93          	mv	s9,s4
   13754:	00040693          	mv	a3,s0
   13758:	04012a03          	lw	s4,64(sp)
   1375c:	04412403          	lw	s0,68(sp)
   13760:	03812c03          	lw	s8,56(sp)
   13764:	02012d03          	lw	s10,32(sp)
   13768:	00700813          	li	a6,7
   1376c:	01000713          	li	a4,16
   13770:	33488893          	add	a7,a7,820 # 22334 <zeroes.0>
   13774:	00078913          	mv	s2,a5
   13778:	09605463          	blez	s6,13800 <_vfprintf_r+0x1c6c>
   1377c:	17a05e63          	blez	s10,138f8 <_vfprintf_r+0x1d64>
   13780:	fffd0d13          	add	s10,s10,-1
   13784:	0c812783          	lw	a5,200(sp)
   13788:	01460633          	add	a2,a2,s4
   1378c:	0086a023          	sw	s0,0(a3)
   13790:	00178793          	add	a5,a5,1
   13794:	0146a223          	sw	s4,4(a3)
   13798:	0cc12623          	sw	a2,204(sp)
   1379c:	0cf12423          	sw	a5,200(sp)
   137a0:	00868693          	add	a3,a3,8
   137a4:	16f84063          	blt	a6,a5,13904 <_vfprintf_r+0x1d70>
   137a8:	000c4583          	lbu	a1,0(s8)
   137ac:	41990db3          	sub	s11,s2,s9
   137b0:	01b5d463          	bge	a1,s11,137b8 <_vfprintf_r+0x1c24>
   137b4:	00058d93          	mv	s11,a1
   137b8:	03b05663          	blez	s11,137e4 <_vfprintf_r+0x1c50>
   137bc:	0c812583          	lw	a1,200(sp)
   137c0:	01b60633          	add	a2,a2,s11
   137c4:	0196a023          	sw	s9,0(a3)
   137c8:	00158593          	add	a1,a1,1
   137cc:	01b6a223          	sw	s11,4(a3)
   137d0:	0cc12623          	sw	a2,204(sp)
   137d4:	0cb12423          	sw	a1,200(sp)
   137d8:	14b84e63          	blt	a6,a1,13934 <_vfprintf_r+0x1da0>
   137dc:	000c4583          	lbu	a1,0(s8)
   137e0:	00868693          	add	a3,a3,8
   137e4:	fffdc513          	not	a0,s11
   137e8:	41f55513          	sra	a0,a0,0x1f
   137ec:	00adf7b3          	and	a5,s11,a0
   137f0:	40f58db3          	sub	s11,a1,a5
   137f4:	05b04263          	bgtz	s11,13838 <_vfprintf_r+0x1ca4>
   137f8:	00bc8cb3          	add	s9,s9,a1
   137fc:	f96040e3          	bgtz	s6,1377c <_vfprintf_r+0x1be8>
   13800:	f9a040e3          	bgtz	s10,13780 <_vfprintf_r+0x1bec>
   13804:	05012d03          	lw	s10,80(sp)
   13808:	01812783          	lw	a5,24(sp)
   1380c:	03812c23          	sw	s8,56(sp)
   13810:	000c8a13          	mv	s4,s9
   13814:	00fd0733          	add	a4,s10,a5
   13818:	03412903          	lw	s2,52(sp)
   1381c:	04812d83          	lw	s11,72(sp)
   13820:	04c12c83          	lw	s9,76(sp)
   13824:	01c12c03          	lw	s8,28(sp)
   13828:	00068413          	mv	s0,a3
   1382c:	c7477e63          	bgeu	a4,s4,12ca8 <_vfprintf_r+0x1114>
   13830:	00070a13          	mv	s4,a4
   13834:	c74ff06f          	j	12ca8 <_vfprintf_r+0x1114>
   13838:	00022fb7          	lui	t6,0x22
   1383c:	0c812583          	lw	a1,200(sp)
   13840:	334f8f93          	add	t6,t6,820 # 22334 <zeroes.0>
   13844:	09b75463          	bge	a4,s11,138cc <_vfprintf_r+0x1d38>
   13848:	00812a23          	sw	s0,20(sp)
   1384c:	000d8413          	mv	s0,s11
   13850:	00090d93          	mv	s11,s2
   13854:	00088913          	mv	s2,a7
   13858:	00c0006f          	j	13864 <_vfprintf_r+0x1cd0>
   1385c:	ff040413          	add	s0,s0,-16
   13860:	04875e63          	bge	a4,s0,138bc <_vfprintf_r+0x1d28>
   13864:	01060613          	add	a2,a2,16
   13868:	00158593          	add	a1,a1,1
   1386c:	0116a023          	sw	a7,0(a3)
   13870:	00e6a223          	sw	a4,4(a3)
   13874:	0cc12623          	sw	a2,204(sp)
   13878:	0cb12423          	sw	a1,200(sp)
   1387c:	00868693          	add	a3,a3,8
   13880:	fcb85ee3          	bge	a6,a1,1385c <_vfprintf_r+0x1cc8>
   13884:	0c410613          	add	a2,sp,196
   13888:	00048593          	mv	a1,s1
   1388c:	000b8513          	mv	a0,s7
   13890:	595000ef          	jal	14624 <__sprint_r>
   13894:	98051e63          	bnez	a0,12a30 <_vfprintf_r+0xe9c>
   13898:	000227b7          	lui	a5,0x22
   1389c:	01000713          	li	a4,16
   138a0:	ff040413          	add	s0,s0,-16
   138a4:	0cc12603          	lw	a2,204(sp)
   138a8:	0c812583          	lw	a1,200(sp)
   138ac:	00098693          	mv	a3,s3
   138b0:	33478893          	add	a7,a5,820 # 22334 <zeroes.0>
   138b4:	00700813          	li	a6,7
   138b8:	fa8746e3          	blt	a4,s0,13864 <_vfprintf_r+0x1cd0>
   138bc:	00090f93          	mv	t6,s2
   138c0:	000d8913          	mv	s2,s11
   138c4:	00040d93          	mv	s11,s0
   138c8:	01412403          	lw	s0,20(sp)
   138cc:	01b60633          	add	a2,a2,s11
   138d0:	00158593          	add	a1,a1,1
   138d4:	01f6a023          	sw	t6,0(a3)
   138d8:	01b6a223          	sw	s11,4(a3)
   138dc:	0cc12623          	sw	a2,204(sp)
   138e0:	0cb12423          	sw	a1,200(sp)
   138e4:	6cb84263          	blt	a6,a1,13fa8 <_vfprintf_r+0x2414>
   138e8:	000c4583          	lbu	a1,0(s8)
   138ec:	00868693          	add	a3,a3,8
   138f0:	00bc8cb3          	add	s9,s9,a1
   138f4:	f09ff06f          	j	137fc <_vfprintf_r+0x1c68>
   138f8:	fffc0c13          	add	s8,s8,-1
   138fc:	fffb0b13          	add	s6,s6,-1
   13900:	e85ff06f          	j	13784 <_vfprintf_r+0x1bf0>
   13904:	0c410613          	add	a2,sp,196
   13908:	00048593          	mv	a1,s1
   1390c:	000b8513          	mv	a0,s7
   13910:	515000ef          	jal	14624 <__sprint_r>
   13914:	90051e63          	bnez	a0,12a30 <_vfprintf_r+0xe9c>
   13918:	000227b7          	lui	a5,0x22
   1391c:	0cc12603          	lw	a2,204(sp)
   13920:	00098693          	mv	a3,s3
   13924:	33478893          	add	a7,a5,820 # 22334 <zeroes.0>
   13928:	01000713          	li	a4,16
   1392c:	00700813          	li	a6,7
   13930:	e79ff06f          	j	137a8 <_vfprintf_r+0x1c14>
   13934:	0c410613          	add	a2,sp,196
   13938:	00048593          	mv	a1,s1
   1393c:	000b8513          	mv	a0,s7
   13940:	4e5000ef          	jal	14624 <__sprint_r>
   13944:	8e051663          	bnez	a0,12a30 <_vfprintf_r+0xe9c>
   13948:	000227b7          	lui	a5,0x22
   1394c:	000c4583          	lbu	a1,0(s8)
   13950:	0cc12603          	lw	a2,204(sp)
   13954:	00098693          	mv	a3,s3
   13958:	33478893          	add	a7,a5,820 # 22334 <zeroes.0>
   1395c:	01000713          	li	a4,16
   13960:	00700813          	li	a6,7
   13964:	e81ff06f          	j	137e4 <_vfprintf_r+0x1c50>
   13968:	04012783          	lw	a5,64(sp)
   1396c:	04412583          	lw	a1,68(sp)
   13970:	00000d13          	li	s10,0
   13974:	40fc0c33          	sub	s8,s8,a5
   13978:	00078613          	mv	a2,a5
   1397c:	000c0513          	mv	a0,s8
   13980:	579020ef          	jal	166f8 <strncpy>
   13984:	00144783          	lbu	a5,1(s0)
   13988:	00a00613          	li	a2,10
   1398c:	00000693          	li	a3,0
   13990:	00f037b3          	snez	a5,a5
   13994:	000b0513          	mv	a0,s6
   13998:	00090593          	mv	a1,s2
   1399c:	00f40433          	add	s0,s0,a5
   139a0:	049080ef          	jal	1c1e8 <__udivdi3>
   139a4:	a61ff06f          	j	13404 <_vfprintf_r+0x1870>
   139a8:	0c410613          	add	a2,sp,196
   139ac:	00048593          	mv	a1,s1
   139b0:	000b8513          	mv	a0,s7
   139b4:	471000ef          	jal	14624 <__sprint_r>
   139b8:	00050463          	beqz	a0,139c0 <_vfprintf_r+0x1e2c>
   139bc:	874ff06f          	j	12a30 <_vfprintf_r+0xe9c>
   139c0:	0ac12503          	lw	a0,172(sp)
   139c4:	0cc12603          	lw	a2,204(sp)
   139c8:	00098413          	mv	s0,s3
   139cc:	aedff06f          	j	134b8 <_vfprintf_r+0x1924>
   139d0:	000227b7          	lui	a5,0x22
   139d4:	02478d13          	add	s10,a5,36 # 22024 <__clzsi2+0xf8>
   139d8:	be1ff06f          	j	135b8 <_vfprintf_r+0x1a24>
   139dc:	0c410613          	add	a2,sp,196
   139e0:	00048593          	mv	a1,s1
   139e4:	000b8513          	mv	a0,s7
   139e8:	43d000ef          	jal	14624 <__sprint_r>
   139ec:	00050463          	beqz	a0,139f4 <_vfprintf_r+0x1e60>
   139f0:	840ff06f          	j	12a30 <_vfprintf_r+0xe9c>
   139f4:	0cc12603          	lw	a2,204(sp)
   139f8:	00098413          	mv	s0,s3
   139fc:	a84ff06f          	j	12c80 <_vfprintf_r+0x10ec>
   13a00:	00600b13          	li	s6,6
   13a04:	e34ff06f          	j	13038 <_vfprintf_r+0x14a4>
   13a08:	00c12783          	lw	a5,12(sp)
   13a0c:	00412703          	lw	a4,4(sp)
   13a10:	0007a783          	lw	a5,0(a5)
   13a14:	00e79023          	sh	a4,0(a5)
   13a18:	bc5fe06f          	j	125dc <_vfprintf_r+0xa48>
   13a1c:	0ff77b13          	zext.b	s6,a4
   13a20:	00000813          	li	a6,0
   13a24:	00100793          	li	a5,1
   13a28:	e50fe06f          	j	12078 <_vfprintf_r+0x4e4>
   13a2c:	01871b13          	sll	s6,a4,0x18
   13a30:	418b5b13          	sra	s6,s6,0x18
   13a34:	41fb5813          	sra	a6,s6,0x1f
   13a38:	00080793          	mv	a5,a6
   13a3c:	db8fe06f          	j	11ff4 <_vfprintf_r+0x460>
   13a40:	0ff77b13          	zext.b	s6,a4
   13a44:	00000813          	li	a6,0
   13a48:	d60ff06f          	j	12fa8 <_vfprintf_r+0x1414>
   13a4c:	0ff77b13          	zext.b	s6,a4
   13a50:	00000813          	li	a6,0
   13a54:	e1cfe06f          	j	12070 <_vfprintf_r+0x4dc>
   13a58:	02d00793          	li	a5,45
   13a5c:	0af103a3          	sb	a5,167(sp)
   13a60:	02d00713          	li	a4,45
   13a64:	c69ff06f          	j	136cc <_vfprintf_r+0x1b38>
   13a68:	02412503          	lw	a0,36(sp)
   13a6c:	0c410613          	add	a2,sp,196
   13a70:	00048593          	mv	a1,s1
   13a74:	3b1000ef          	jal	14624 <__sprint_r>
   13a78:	c6cfe06f          	j	11ee4 <_vfprintf_r+0x350>
   13a7c:	0c410613          	add	a2,sp,196
   13a80:	00048593          	mv	a1,s1
   13a84:	000b8513          	mv	a0,s7
   13a88:	39d000ef          	jal	14624 <__sprint_r>
   13a8c:	00050463          	beqz	a0,13a94 <_vfprintf_r+0x1f00>
   13a90:	fa1fe06f          	j	12a30 <_vfprintf_r+0xe9c>
   13a94:	0ac12503          	lw	a0,172(sp)
   13a98:	0cc12603          	lw	a2,204(sp)
   13a9c:	0c812703          	lw	a4,200(sp)
   13aa0:	00098413          	mv	s0,s3
   13aa4:	b85ff06f          	j	13628 <_vfprintf_r+0x1a94>
   13aa8:	01450733          	add	a4,a0,s4
   13aac:	04700613          	li	a2,71
   13ab0:	08010593          	add	a1,sp,128
   13ab4:	000b0513          	mv	a0,s6
   13ab8:	00e12e23          	sw	a4,28(sp)
   13abc:	00c12c23          	sw	a2,24(sp)
   13ac0:	01112a23          	sw	a7,20(sp)
   13ac4:	09f12823          	sw	t6,144(sp)
   13ac8:	09e12a23          	sw	t5,148(sp)
   13acc:	09d12c23          	sw	t4,152(sp)
   13ad0:	09812e23          	sw	s8,156(sp)
   13ad4:	08012023          	sw	zero,128(sp)
   13ad8:	08012223          	sw	zero,132(sp)
   13adc:	08012423          	sw	zero,136(sp)
   13ae0:	08012623          	sw	zero,140(sp)
   13ae4:	2d00b0ef          	jal	1edb4 <__eqtf2>
   13ae8:	01412883          	lw	a7,20(sp)
   13aec:	01812603          	lw	a2,24(sp)
   13af0:	01c12703          	lw	a4,28(sp)
   13af4:	56050a63          	beqz	a0,14068 <_vfprintf_r+0x24d4>
   13af8:	0bc12783          	lw	a5,188(sp)
   13afc:	00e7fe63          	bgeu	a5,a4,13b18 <_vfprintf_r+0x1f84>
   13b00:	03000593          	li	a1,48
   13b04:	00178693          	add	a3,a5,1
   13b08:	0ad12e23          	sw	a3,188(sp)
   13b0c:	00b78023          	sb	a1,0(a5)
   13b10:	0bc12783          	lw	a5,188(sp)
   13b14:	fee7e8e3          	bltu	a5,a4,13b04 <_vfprintf_r+0x1f70>
   13b18:	0ac12703          	lw	a4,172(sp)
   13b1c:	00e12a23          	sw	a4,20(sp)
   13b20:	41a787b3          	sub	a5,a5,s10
   13b24:	04700713          	li	a4,71
   13b28:	00f12c23          	sw	a5,24(sp)
   13b2c:	eae60663          	beq	a2,a4,131d8 <_vfprintf_r+0x1644>
   13b30:	04600713          	li	a4,70
   13b34:	5ce60a63          	beq	a2,a4,14108 <_vfprintf_r+0x2574>
   13b38:	01412783          	lw	a5,20(sp)
   13b3c:	fff78a13          	add	s4,a5,-1
   13b40:	eb4ff06f          	j	131f4 <_vfprintf_r+0x1660>
   13b44:	001a0693          	add	a3,s4,1
   13b48:	00200613          	li	a2,2
   13b4c:	09010b13          	add	s6,sp,144
   13b50:	0ac10713          	add	a4,sp,172
   13b54:	000b0593          	mv	a1,s6
   13b58:	0bc10813          	add	a6,sp,188
   13b5c:	0b010793          	add	a5,sp,176
   13b60:	000b8513          	mv	a0,s7
   13b64:	05112623          	sw	a7,76(sp)
   13b68:	02d12023          	sw	a3,32(sp)
   13b6c:	09f12823          	sw	t6,144(sp)
   13b70:	01f12e23          	sw	t6,28(sp)
   13b74:	09e12a23          	sw	t5,148(sp)
   13b78:	01e12c23          	sw	t5,24(sp)
   13b7c:	09d12c23          	sw	t4,152(sp)
   13b80:	01d12a23          	sw	t4,20(sp)
   13b84:	09812e23          	sw	s8,156(sp)
   13b88:	43c030ef          	jal	16fc4 <_ldtoa_r>
   13b8c:	04c12883          	lw	a7,76(sp)
   13b90:	02012683          	lw	a3,32(sp)
   13b94:	04600593          	li	a1,70
   13b98:	fdf8f613          	and	a2,a7,-33
   13b9c:	01412e83          	lw	t4,20(sp)
   13ba0:	01812f03          	lw	t5,24(sp)
   13ba4:	01c12f83          	lw	t6,28(sp)
   13ba8:	00050d13          	mv	s10,a0
   13bac:	00d50733          	add	a4,a0,a3
   13bb0:	04b618e3          	bne	a2,a1,14400 <_vfprintf_r+0x286c>
   13bb4:	000d4503          	lbu	a0,0(s10)
   13bb8:	03000593          	li	a1,48
   13bbc:	4cb50463          	beq	a0,a1,14084 <_vfprintf_r+0x24f0>
   13bc0:	0ac12683          	lw	a3,172(sp)
   13bc4:	08010593          	add	a1,sp,128
   13bc8:	00d70733          	add	a4,a4,a3
   13bcc:	ee9ff06f          	j	13ab4 <_vfprintf_r+0x1f20>
   13bd0:	09010b13          	add	s6,sp,144
   13bd4:	08010593          	add	a1,sp,128
   13bd8:	0ac10613          	add	a2,sp,172
   13bdc:	000b0513          	mv	a0,s6
   13be0:	05112423          	sw	a7,72(sp)
   13be4:	09f12023          	sw	t6,128(sp)
   13be8:	09e12223          	sw	t5,132(sp)
   13bec:	09d12423          	sw	t4,136(sp)
   13bf0:	00b12a23          	sw	a1,20(sp)
   13bf4:	09812623          	sw	s8,140(sp)
   13bf8:	1b0030ef          	jal	16da8 <frexpl>
   13bfc:	09012703          	lw	a4,144(sp)
   13c00:	01412583          	lw	a1,20(sp)
   13c04:	07010613          	add	a2,sp,112
   13c08:	08e12023          	sw	a4,128(sp)
   13c0c:	09412703          	lw	a4,148(sp)
   13c10:	000b0513          	mv	a0,s6
   13c14:	06012823          	sw	zero,112(sp)
   13c18:	08e12223          	sw	a4,132(sp)
   13c1c:	09812703          	lw	a4,152(sp)
   13c20:	06012a23          	sw	zero,116(sp)
   13c24:	06012c23          	sw	zero,120(sp)
   13c28:	08e12423          	sw	a4,136(sp)
   13c2c:	09c12703          	lw	a4,156(sp)
   13c30:	08e12623          	sw	a4,140(sp)
   13c34:	3ffc0737          	lui	a4,0x3ffc0
   13c38:	06e12e23          	sw	a4,124(sp)
   13c3c:	4a40b0ef          	jal	1f0e0 <__multf3>
   13c40:	01412583          	lw	a1,20(sp)
   13c44:	09012f03          	lw	t5,144(sp)
   13c48:	09412e83          	lw	t4,148(sp)
   13c4c:	09812803          	lw	a6,152(sp)
   13c50:	09c12603          	lw	a2,156(sp)
   13c54:	000b0513          	mv	a0,s6
   13c58:	02b12e23          	sw	a1,60(sp)
   13c5c:	03e12023          	sw	t5,32(sp)
   13c60:	01d12e23          	sw	t4,28(sp)
   13c64:	01012c23          	sw	a6,24(sp)
   13c68:	00c12a23          	sw	a2,20(sp)
   13c6c:	08012023          	sw	zero,128(sp)
   13c70:	08012223          	sw	zero,132(sp)
   13c74:	08012423          	sw	zero,136(sp)
   13c78:	08012623          	sw	zero,140(sp)
   13c7c:	1380b0ef          	jal	1edb4 <__eqtf2>
   13c80:	01412603          	lw	a2,20(sp)
   13c84:	01812803          	lw	a6,24(sp)
   13c88:	01c12e83          	lw	t4,28(sp)
   13c8c:	02012f03          	lw	t5,32(sp)
   13c90:	03c12583          	lw	a1,60(sp)
   13c94:	04812883          	lw	a7,72(sp)
   13c98:	00051663          	bnez	a0,13ca4 <_vfprintf_r+0x2110>
   13c9c:	00100713          	li	a4,1
   13ca0:	0ae12623          	sw	a4,172(sp)
   13ca4:	06100713          	li	a4,97
   13ca8:	6ce88263          	beq	a7,a4,1436c <_vfprintf_r+0x27d8>
   13cac:	00022737          	lui	a4,0x22
   13cb0:	04870793          	add	a5,a4,72 # 22048 <__clzsi2+0x11c>
   13cb4:	00f12a23          	sw	a5,20(sp)
   13cb8:	01212c23          	sw	s2,24(sp)
   13cbc:	03912e23          	sw	s9,60(sp)
   13cc0:	04812423          	sw	s0,72(sp)
   13cc4:	000d0913          	mv	s2,s10
   13cc8:	05712623          	sw	s7,76(sp)
   13ccc:	04912823          	sw	s1,80(sp)
   13cd0:	05a12a23          	sw	s10,84(sp)
   13cd4:	01412483          	lw	s1,20(sp)
   13cd8:	fffa0a13          	add	s4,s4,-1
   13cdc:	01112e23          	sw	a7,28(sp)
   13ce0:	03b12023          	sw	s11,32(sp)
   13ce4:	000f0b93          	mv	s7,t5
   13ce8:	000e8c13          	mv	s8,t4
   13cec:	00080c93          	mv	s9,a6
   13cf0:	00060d13          	mv	s10,a2
   13cf4:	00058413          	mv	s0,a1
   13cf8:	03c0006f          	j	13d34 <_vfprintf_r+0x21a0>
   13cfc:	00040593          	mv	a1,s0
   13d00:	000b0513          	mv	a0,s6
   13d04:	09712823          	sw	s7,144(sp)
   13d08:	09812a23          	sw	s8,148(sp)
   13d0c:	09912c23          	sw	s9,152(sp)
   13d10:	09a12e23          	sw	s10,156(sp)
   13d14:	08012023          	sw	zero,128(sp)
   13d18:	08012223          	sw	zero,132(sp)
   13d1c:	08012423          	sw	zero,136(sp)
   13d20:	08012623          	sw	zero,140(sp)
   13d24:	fffa0d93          	add	s11,s4,-1
   13d28:	08c0b0ef          	jal	1edb4 <__eqtf2>
   13d2c:	5e050463          	beqz	a0,14314 <_vfprintf_r+0x2780>
   13d30:	000d8a13          	mv	s4,s11
   13d34:	400307b7          	lui	a5,0x40030
   13d38:	07010613          	add	a2,sp,112
   13d3c:	00040593          	mv	a1,s0
   13d40:	000b0513          	mv	a0,s6
   13d44:	06f12e23          	sw	a5,124(sp)
   13d48:	09712023          	sw	s7,128(sp)
   13d4c:	09812223          	sw	s8,132(sp)
   13d50:	09912423          	sw	s9,136(sp)
   13d54:	09a12623          	sw	s10,140(sp)
   13d58:	06012823          	sw	zero,112(sp)
   13d5c:	06012a23          	sw	zero,116(sp)
   13d60:	06012c23          	sw	zero,120(sp)
   13d64:	37c0b0ef          	jal	1f0e0 <__multf3>
   13d68:	000b0513          	mv	a0,s6
   13d6c:	4950d0ef          	jal	21a00 <__fixtfsi>
   13d70:	00050593          	mv	a1,a0
   13d74:	00050d93          	mv	s11,a0
   13d78:	000b0513          	mv	a0,s6
   13d7c:	09012d03          	lw	s10,144(sp)
   13d80:	09412c83          	lw	s9,148(sp)
   13d84:	09812c03          	lw	s8,152(sp)
   13d88:	09c12b83          	lw	s7,156(sp)
   13d8c:	56d0d0ef          	jal	21af8 <__floatsitf>
   13d90:	09012683          	lw	a3,144(sp)
   13d94:	06010613          	add	a2,sp,96
   13d98:	07010593          	add	a1,sp,112
   13d9c:	06d12023          	sw	a3,96(sp)
   13da0:	09412683          	lw	a3,148(sp)
   13da4:	00040513          	mv	a0,s0
   13da8:	07a12823          	sw	s10,112(sp)
   13dac:	06d12223          	sw	a3,100(sp)
   13db0:	09812683          	lw	a3,152(sp)
   13db4:	07912a23          	sw	s9,116(sp)
   13db8:	07812c23          	sw	s8,120(sp)
   13dbc:	06d12423          	sw	a3,104(sp)
   13dc0:	09c12683          	lw	a3,156(sp)
   13dc4:	07712e23          	sw	s7,124(sp)
   13dc8:	06d12623          	sw	a3,108(sp)
   13dcc:	6c80c0ef          	jal	20494 <__subtf3>
   13dd0:	01b486b3          	add	a3,s1,s11
   13dd4:	0006c683          	lbu	a3,0(a3)
   13dd8:	00090f93          	mv	t6,s2
   13ddc:	00190913          	add	s2,s2,1
   13de0:	08012b83          	lw	s7,128(sp)
   13de4:	08412c03          	lw	s8,132(sp)
   13de8:	08812c83          	lw	s9,136(sp)
   13dec:	08c12d03          	lw	s10,140(sp)
   13df0:	fff00793          	li	a5,-1
   13df4:	fed90fa3          	sb	a3,-1(s2)
   13df8:	f0fa12e3          	bne	s4,a5,13cfc <_vfprintf_r+0x2168>
   13dfc:	000b8f13          	mv	t5,s7
   13e00:	000c0e93          	mv	t4,s8
   13e04:	000c8813          	mv	a6,s9
   13e08:	000d0613          	mv	a2,s10
   13e0c:	00040593          	mv	a1,s0
   13e10:	3ffe0a37          	lui	s4,0x3ffe0
   13e14:	000b0513          	mv	a0,s6
   13e18:	05f12e23          	sw	t6,92(sp)
   13e1c:	05b12c23          	sw	s11,88(sp)
   13e20:	05012483          	lw	s1,80(sp)
   13e24:	02012d83          	lw	s11,32(sp)
   13e28:	04c12b83          	lw	s7,76(sp)
   13e2c:	03c12c83          	lw	s9,60(sp)
   13e30:	04812403          	lw	s0,72(sp)
   13e34:	09e12823          	sw	t5,144(sp)
   13e38:	05e12823          	sw	t5,80(sp)
   13e3c:	09d12a23          	sw	t4,148(sp)
   13e40:	05d12623          	sw	t4,76(sp)
   13e44:	09012c23          	sw	a6,152(sp)
   13e48:	05012423          	sw	a6,72(sp)
   13e4c:	08c12e23          	sw	a2,156(sp)
   13e50:	02c12e23          	sw	a2,60(sp)
   13e54:	08012023          	sw	zero,128(sp)
   13e58:	08012223          	sw	zero,132(sp)
   13e5c:	08012423          	sw	zero,136(sp)
   13e60:	09412623          	sw	s4,140(sp)
   13e64:	02b12023          	sw	a1,32(sp)
   13e68:	0180b0ef          	jal	1ee80 <__getf2>
   13e6c:	00090c13          	mv	s8,s2
   13e70:	05412d03          	lw	s10,84(sp)
   13e74:	01812903          	lw	s2,24(sp)
   13e78:	01c12883          	lw	a7,28(sp)
   13e7c:	05c12f83          	lw	t6,92(sp)
   13e80:	02a04663          	bgtz	a0,13eac <_vfprintf_r+0x2318>
   13e84:	02012583          	lw	a1,32(sp)
   13e88:	000b0513          	mv	a0,s6
   13e8c:	01f12c23          	sw	t6,24(sp)
   13e90:	7250a0ef          	jal	1edb4 <__eqtf2>
   13e94:	01c12883          	lw	a7,28(sp)
   13e98:	04051e63          	bnez	a0,13ef4 <_vfprintf_r+0x2360>
   13e9c:	05812783          	lw	a5,88(sp)
   13ea0:	01812f83          	lw	t6,24(sp)
   13ea4:	0017f693          	and	a3,a5,1
   13ea8:	04068663          	beqz	a3,13ef4 <_vfprintf_r+0x2360>
   13eac:	01412783          	lw	a5,20(sp)
   13eb0:	0bf12e23          	sw	t6,188(sp)
   13eb4:	fffc4603          	lbu	a2,-1(s8)
   13eb8:	00f7c583          	lbu	a1,15(a5) # 4003000f <__BSS_END__+0x4000c437>
   13ebc:	000c0693          	mv	a3,s8
   13ec0:	02b61063          	bne	a2,a1,13ee0 <_vfprintf_r+0x234c>
   13ec4:	03000513          	li	a0,48
   13ec8:	fea68fa3          	sb	a0,-1(a3)
   13ecc:	0bc12683          	lw	a3,188(sp)
   13ed0:	fff68793          	add	a5,a3,-1
   13ed4:	0af12e23          	sw	a5,188(sp)
   13ed8:	fff6c603          	lbu	a2,-1(a3)
   13edc:	fec586e3          	beq	a1,a2,13ec8 <_vfprintf_r+0x2334>
   13ee0:	00160593          	add	a1,a2,1
   13ee4:	03900513          	li	a0,57
   13ee8:	0ff5f593          	zext.b	a1,a1
   13eec:	04a60463          	beq	a2,a0,13f34 <_vfprintf_r+0x23a0>
   13ef0:	feb68fa3          	sb	a1,-1(a3)
   13ef4:	0ac12783          	lw	a5,172(sp)
   13ef8:	41ac0733          	sub	a4,s8,s10
   13efc:	06100613          	li	a2,97
   13f00:	fff78a13          	add	s4,a5,-1
   13f04:	00f12a23          	sw	a5,20(sp)
   13f08:	00e12c23          	sw	a4,24(sp)
   13f0c:	0b412623          	sw	s4,172(sp)
   13f10:	07000693          	li	a3,112
   13f14:	00c88663          	beq	a7,a2,13f20 <_vfprintf_r+0x238c>
   13f18:	05000693          	li	a3,80
   13f1c:	04100893          	li	a7,65
   13f20:	00100613          	li	a2,1
   13f24:	adcff06f          	j	13200 <_vfprintf_r+0x166c>
   13f28:	000a0693          	mv	a3,s4
   13f2c:	00300613          	li	a2,3
   13f30:	c1dff06f          	j	13b4c <_vfprintf_r+0x1fb8>
   13f34:	01412783          	lw	a5,20(sp)
   13f38:	00a7c583          	lbu	a1,10(a5)
   13f3c:	fb5ff06f          	j	13ef0 <_vfprintf_r+0x235c>
   13f40:	0a714703          	lbu	a4,167(sp)
   13f44:	04812d83          	lw	s11,72(sp)
   13f48:	00000a13          	li	s4,0
   13f4c:	00070463          	beqz	a4,13f54 <_vfprintf_r+0x23c0>
   13f50:	8f0fe06f          	j	12040 <_vfprintf_r+0x4ac>
   13f54:	e65fd06f          	j	11db8 <_vfprintf_r+0x224>
   13f58:	01812783          	lw	a5,24(sp)
   13f5c:	01412703          	lw	a4,20(sp)
   13f60:	1cf74e63          	blt	a4,a5,1413c <_vfprintf_r+0x25a8>
   13f64:	01412783          	lw	a5,20(sp)
   13f68:	001df713          	and	a4,s11,1
   13f6c:	00078b13          	mv	s6,a5
   13f70:	00070663          	beqz	a4,13f7c <_vfprintf_r+0x23e8>
   13f74:	02812703          	lw	a4,40(sp)
   13f78:	00e78b33          	add	s6,a5,a4
   13f7c:	400dfe13          	and	t3,s11,1024
   13f80:	000e0663          	beqz	t3,13f8c <_vfprintf_r+0x23f8>
   13f84:	01412783          	lw	a5,20(sp)
   13f88:	30f04263          	bgtz	a5,1428c <_vfprintf_r+0x26f8>
   13f8c:	fffb4693          	not	a3,s6
   13f90:	41f6d693          	sra	a3,a3,0x1f
   13f94:	00db7c33          	and	s8,s6,a3
   13f98:	06700893          	li	a7,103
   13f9c:	02012023          	sw	zero,32(sp)
   13fa0:	00012e23          	sw	zero,28(sp)
   13fa4:	b6cff06f          	j	13310 <_vfprintf_r+0x177c>
   13fa8:	0c410613          	add	a2,sp,196
   13fac:	00048593          	mv	a1,s1
   13fb0:	000b8513          	mv	a0,s7
   13fb4:	670000ef          	jal	14624 <__sprint_r>
   13fb8:	00050463          	beqz	a0,13fc0 <_vfprintf_r+0x242c>
   13fbc:	a75fe06f          	j	12a30 <_vfprintf_r+0xe9c>
   13fc0:	000c4583          	lbu	a1,0(s8)
   13fc4:	000227b7          	lui	a5,0x22
   13fc8:	0cc12603          	lw	a2,204(sp)
   13fcc:	00098693          	mv	a3,s3
   13fd0:	33478893          	add	a7,a5,820 # 22334 <zeroes.0>
   13fd4:	01000713          	li	a4,16
   13fd8:	00700813          	li	a6,7
   13fdc:	00bc8cb3          	add	s9,s9,a1
   13fe0:	81dff06f          	j	137fc <_vfprintf_r+0x1c68>
   13fe4:	00900793          	li	a5,9
   13fe8:	c167ee63          	bltu	a5,s6,13404 <_vfprintf_r+0x1870>
   13fec:	c68ff06f          	j	13454 <_vfprintf_r+0x18c0>
   13ff0:	02d00793          	li	a5,45
   13ff4:	0af103a3          	sb	a5,167(sp)
   13ff8:	02d00713          	li	a4,45
   13ffc:	dacff06f          	j	135a8 <_vfprintf_r+0x1a14>
   14000:	0a714703          	lbu	a4,167(sp)
   14004:	01012623          	sw	a6,12(sp)
   14008:	02012023          	sw	zero,32(sp)
   1400c:	00012e23          	sw	zero,28(sp)
   14010:	00012a23          	sw	zero,20(sp)
   14014:	000a0c13          	mv	s8,s4
   14018:	000a0b13          	mv	s6,s4
   1401c:	00000a13          	li	s4,0
   14020:	00070463          	beqz	a4,14028 <_vfprintf_r+0x2494>
   14024:	81cfe06f          	j	12040 <_vfprintf_r+0x4ac>
   14028:	d91fd06f          	j	11db8 <_vfprintf_r+0x224>
   1402c:	000227b7          	lui	a5,0x22
   14030:	03078d13          	add	s10,a5,48 # 22030 <__clzsi2+0x104>
   14034:	d84ff06f          	j	135b8 <_vfprintf_r+0x1a24>
   14038:	0c410613          	add	a2,sp,196
   1403c:	00048593          	mv	a1,s1
   14040:	000b8513          	mv	a0,s7
   14044:	5e0000ef          	jal	14624 <__sprint_r>
   14048:	00050463          	beqz	a0,14050 <_vfprintf_r+0x24bc>
   1404c:	9e5fe06f          	j	12a30 <_vfprintf_r+0xe9c>
   14050:	0ac12583          	lw	a1,172(sp)
   14054:	01812783          	lw	a5,24(sp)
   14058:	0cc12603          	lw	a2,204(sp)
   1405c:	00098413          	mv	s0,s3
   14060:	40b785b3          	sub	a1,a5,a1
   14064:	ca1fe06f          	j	12d04 <_vfprintf_r+0x1170>
   14068:	0ac12783          	lw	a5,172(sp)
   1406c:	00f12a23          	sw	a5,20(sp)
   14070:	00070793          	mv	a5,a4
   14074:	aadff06f          	j	13b20 <_vfprintf_r+0x1f8c>
   14078:	fff00793          	li	a5,-1
   1407c:	00f12223          	sw	a5,4(sp)
   14080:	e99fd06f          	j	11f18 <_vfprintf_r+0x384>
   14084:	08010593          	add	a1,sp,128
   14088:	000b0513          	mv	a0,s6
   1408c:	04e12c23          	sw	a4,88(sp)
   14090:	04c12a23          	sw	a2,84(sp)
   14094:	05112823          	sw	a7,80(sp)
   14098:	04d12623          	sw	a3,76(sp)
   1409c:	09f12823          	sw	t6,144(sp)
   140a0:	03f12023          	sw	t6,32(sp)
   140a4:	09e12a23          	sw	t5,148(sp)
   140a8:	01e12e23          	sw	t5,28(sp)
   140ac:	09d12c23          	sw	t4,152(sp)
   140b0:	01d12c23          	sw	t4,24(sp)
   140b4:	00b12a23          	sw	a1,20(sp)
   140b8:	09812e23          	sw	s8,156(sp)
   140bc:	08012023          	sw	zero,128(sp)
   140c0:	08012223          	sw	zero,132(sp)
   140c4:	08012423          	sw	zero,136(sp)
   140c8:	08012623          	sw	zero,140(sp)
   140cc:	4e90a0ef          	jal	1edb4 <__eqtf2>
   140d0:	01412583          	lw	a1,20(sp)
   140d4:	01812e83          	lw	t4,24(sp)
   140d8:	01c12f03          	lw	t5,28(sp)
   140dc:	02012f83          	lw	t6,32(sp)
   140e0:	04c12683          	lw	a3,76(sp)
   140e4:	05012883          	lw	a7,80(sp)
   140e8:	05412603          	lw	a2,84(sp)
   140ec:	05812703          	lw	a4,88(sp)
   140f0:	28051663          	bnez	a0,1437c <_vfprintf_r+0x27e8>
   140f4:	0ac12783          	lw	a5,172(sp)
   140f8:	00f70733          	add	a4,a4,a5
   140fc:	00f12a23          	sw	a5,20(sp)
   14100:	41a707b3          	sub	a5,a4,s10
   14104:	00f12c23          	sw	a5,24(sp)
   14108:	01412783          	lw	a5,20(sp)
   1410c:	001df713          	and	a4,s11,1
   14110:	01476733          	or	a4,a4,s4
   14114:	26f05e63          	blez	a5,14390 <_vfprintf_r+0x27fc>
   14118:	24071063          	bnez	a4,14358 <_vfprintf_r+0x27c4>
   1411c:	01412b03          	lw	s6,20(sp)
   14120:	06600893          	li	a7,102
   14124:	400dfe13          	and	t3,s11,1024
   14128:	160e1463          	bnez	t3,14290 <_vfprintf_r+0x26fc>
   1412c:	fffb4693          	not	a3,s6
   14130:	41f6d693          	sra	a3,a3,0x1f
   14134:	00db7c33          	and	s8,s6,a3
   14138:	e65ff06f          	j	13f9c <_vfprintf_r+0x2408>
   1413c:	01812783          	lw	a5,24(sp)
   14140:	02812703          	lw	a4,40(sp)
   14144:	06700893          	li	a7,103
   14148:	00e78b33          	add	s6,a5,a4
   1414c:	01412783          	lw	a5,20(sp)
   14150:	fcf04ae3          	bgtz	a5,14124 <_vfprintf_r+0x2590>
   14154:	40fb0f33          	sub	t5,s6,a5
   14158:	001f0b13          	add	s6,t5,1
   1415c:	fffb4693          	not	a3,s6
   14160:	41f6d693          	sra	a3,a3,0x1f
   14164:	00db7c33          	and	s8,s6,a3
   14168:	e35ff06f          	j	13f9c <_vfprintf_r+0x2408>
   1416c:	00022837          	lui	a6,0x22
   14170:	ff000593          	li	a1,-16
   14174:	40a00a33          	neg	s4,a0
   14178:	33480813          	add	a6,a6,820 # 22334 <zeroes.0>
   1417c:	06b55e63          	bge	a0,a1,141f8 <_vfprintf_r+0x2664>
   14180:	01212a23          	sw	s2,20(sp)
   14184:	01000b13          	li	s6,16
   14188:	00700893          	li	a7,7
   1418c:	00080913          	mv	s2,a6
   14190:	00c0006f          	j	1419c <_vfprintf_r+0x2608>
   14194:	ff0a0a13          	add	s4,s4,-16 # 3ffdfff0 <__BSS_END__+0x3ffbc418>
   14198:	054b5c63          	bge	s6,s4,141f0 <_vfprintf_r+0x265c>
   1419c:	01060613          	add	a2,a2,16
   141a0:	00170713          	add	a4,a4,1
   141a4:	01242023          	sw	s2,0(s0)
   141a8:	01642223          	sw	s6,4(s0)
   141ac:	0cc12623          	sw	a2,204(sp)
   141b0:	0ce12423          	sw	a4,200(sp)
   141b4:	00840413          	add	s0,s0,8
   141b8:	fce8dee3          	bge	a7,a4,14194 <_vfprintf_r+0x2600>
   141bc:	0c410613          	add	a2,sp,196
   141c0:	00048593          	mv	a1,s1
   141c4:	000b8513          	mv	a0,s7
   141c8:	45c000ef          	jal	14624 <__sprint_r>
   141cc:	00050463          	beqz	a0,141d4 <_vfprintf_r+0x2640>
   141d0:	861fe06f          	j	12a30 <_vfprintf_r+0xe9c>
   141d4:	0cc12603          	lw	a2,204(sp)
   141d8:	0c812703          	lw	a4,200(sp)
   141dc:	00098413          	mv	s0,s3
   141e0:	00700893          	li	a7,7
   141e4:	fb1ff06f          	j	14194 <_vfprintf_r+0x2600>
   141e8:	000d8613          	mv	a2,s11
   141ec:	b18fe06f          	j	12504 <_vfprintf_r+0x970>
   141f0:	00090813          	mv	a6,s2
   141f4:	01412903          	lw	s2,20(sp)
   141f8:	01460633          	add	a2,a2,s4
   141fc:	00170713          	add	a4,a4,1
   14200:	01042023          	sw	a6,0(s0)
   14204:	01442223          	sw	s4,4(s0)
   14208:	0cc12623          	sw	a2,204(sp)
   1420c:	0ce12423          	sw	a4,200(sp)
   14210:	00700593          	li	a1,7
   14214:	aee5d463          	bge	a1,a4,134fc <_vfprintf_r+0x1968>
   14218:	0c410613          	add	a2,sp,196
   1421c:	00048593          	mv	a1,s1
   14220:	000b8513          	mv	a0,s7
   14224:	400000ef          	jal	14624 <__sprint_r>
   14228:	00050463          	beqz	a0,14230 <_vfprintf_r+0x269c>
   1422c:	805fe06f          	j	12a30 <_vfprintf_r+0xe9c>
   14230:	0cc12603          	lw	a2,204(sp)
   14234:	0c812703          	lw	a4,200(sp)
   14238:	00098413          	mv	s0,s3
   1423c:	bf0ff06f          	j	1362c <_vfprintf_r+0x1a98>
   14240:	0b610693          	add	a3,sp,182
   14244:	00061863          	bnez	a2,14254 <_vfprintf_r+0x26c0>
   14248:	03000693          	li	a3,48
   1424c:	0ad10b23          	sb	a3,182(sp)
   14250:	0b710693          	add	a3,sp,183
   14254:	19010793          	add	a5,sp,400
   14258:	40f68633          	sub	a2,a3,a5
   1425c:	030a0713          	add	a4,s4,48
   14260:	0dd60793          	add	a5,a2,221
   14264:	00e68023          	sb	a4,0(a3)
   14268:	02f12e23          	sw	a5,60(sp)
   1426c:	860ff06f          	j	132cc <_vfprintf_r+0x1738>
   14270:	00012423          	sw	zero,8(sp)
   14274:	00600a13          	li	s4,6
   14278:	f29fd06f          	j	121a0 <_vfprintf_r+0x60c>
   1427c:	001df713          	and	a4,s11,1
   14280:	00071463          	bnez	a4,14288 <_vfprintf_r+0x26f4>
   14284:	868ff06f          	j	132ec <_vfprintf_r+0x1758>
   14288:	85cff06f          	j	132e4 <_vfprintf_r+0x1750>
   1428c:	06700893          	li	a7,103
   14290:	03812603          	lw	a2,56(sp)
   14294:	0ff00693          	li	a3,255
   14298:	00064703          	lbu	a4,0(a2)
   1429c:	14d70c63          	beq	a4,a3,143f4 <_vfprintf_r+0x2860>
   142a0:	01412783          	lw	a5,20(sp)
   142a4:	00000513          	li	a0,0
   142a8:	00000593          	li	a1,0
   142ac:	00f75e63          	bge	a4,a5,142c8 <_vfprintf_r+0x2734>
   142b0:	40e787b3          	sub	a5,a5,a4
   142b4:	00164703          	lbu	a4,1(a2)
   142b8:	04070863          	beqz	a4,14308 <_vfprintf_r+0x2774>
   142bc:	00158593          	add	a1,a1,1
   142c0:	00160613          	add	a2,a2,1
   142c4:	fed714e3          	bne	a4,a3,142ac <_vfprintf_r+0x2718>
   142c8:	02c12c23          	sw	a2,56(sp)
   142cc:	00b12e23          	sw	a1,28(sp)
   142d0:	02a12023          	sw	a0,32(sp)
   142d4:	00f12a23          	sw	a5,20(sp)
   142d8:	02012783          	lw	a5,32(sp)
   142dc:	01c12703          	lw	a4,28(sp)
   142e0:	04012583          	lw	a1,64(sp)
   142e4:	05112623          	sw	a7,76(sp)
   142e8:	00e78533          	add	a0,a5,a4
   142ec:	3690d0ef          	jal	21e54 <__mulsi3>
   142f0:	01650b33          	add	s6,a0,s6
   142f4:	fffb4693          	not	a3,s6
   142f8:	41f6d693          	sra	a3,a3,0x1f
   142fc:	04c12883          	lw	a7,76(sp)
   14300:	00db7c33          	and	s8,s6,a3
   14304:	80cff06f          	j	13310 <_vfprintf_r+0x177c>
   14308:	00064703          	lbu	a4,0(a2)
   1430c:	00150513          	add	a0,a0,1
   14310:	fb5ff06f          	j	142c4 <_vfprintf_r+0x2730>
   14314:	00090c13          	mv	s8,s2
   14318:	001a0693          	add	a3,s4,1
   1431c:	01c12883          	lw	a7,28(sp)
   14320:	02012d83          	lw	s11,32(sp)
   14324:	03c12c83          	lw	s9,60(sp)
   14328:	04812403          	lw	s0,72(sp)
   1432c:	01812903          	lw	s2,24(sp)
   14330:	04c12b83          	lw	s7,76(sp)
   14334:	05012483          	lw	s1,80(sp)
   14338:	05412d03          	lw	s10,84(sp)
   1433c:	00dc06b3          	add	a3,s8,a3
   14340:	03000613          	li	a2,48
   14344:	ba0a48e3          	bltz	s4,13ef4 <_vfprintf_r+0x2360>
   14348:	001c0c13          	add	s8,s8,1
   1434c:	fecc0fa3          	sb	a2,-1(s8)
   14350:	ff869ce3          	bne	a3,s8,14348 <_vfprintf_r+0x27b4>
   14354:	ba1ff06f          	j	13ef4 <_vfprintf_r+0x2360>
   14358:	02812703          	lw	a4,40(sp)
   1435c:	06600893          	li	a7,102
   14360:	00ea0f33          	add	t5,s4,a4
   14364:	00ff0b33          	add	s6,t5,a5
   14368:	dbdff06f          	j	14124 <_vfprintf_r+0x2590>
   1436c:	00022737          	lui	a4,0x22
   14370:	03470793          	add	a5,a4,52 # 22034 <__clzsi2+0x108>
   14374:	00f12a23          	sw	a5,20(sp)
   14378:	941ff06f          	j	13cb8 <_vfprintf_r+0x2124>
   1437c:	00100513          	li	a0,1
   14380:	40d506b3          	sub	a3,a0,a3
   14384:	0ad12623          	sw	a3,172(sp)
   14388:	00d70733          	add	a4,a4,a3
   1438c:	f28ff06f          	j	13ab4 <_vfprintf_r+0x1f20>
   14390:	00071a63          	bnez	a4,143a4 <_vfprintf_r+0x2810>
   14394:	00100c13          	li	s8,1
   14398:	06600893          	li	a7,102
   1439c:	00100b13          	li	s6,1
   143a0:	bfdff06f          	j	13f9c <_vfprintf_r+0x2408>
   143a4:	02812783          	lw	a5,40(sp)
   143a8:	06600893          	li	a7,102
   143ac:	00178f13          	add	t5,a5,1
   143b0:	014f0b33          	add	s6,t5,s4
   143b4:	fffb4693          	not	a3,s6
   143b8:	41f6d693          	sra	a3,a3,0x1f
   143bc:	00db7c33          	and	s8,s6,a3
   143c0:	bddff06f          	j	13f9c <_vfprintf_r+0x2408>
   143c4:	00200793          	li	a5,2
   143c8:	02f12e23          	sw	a5,60(sp)
   143cc:	f01fe06f          	j	132cc <_vfprintf_r+0x1738>
   143d0:	00c12783          	lw	a5,12(sp)
   143d4:	0007aa03          	lw	s4,0(a5)
   143d8:	00478793          	add	a5,a5,4
   143dc:	000a5463          	bgez	s4,143e4 <_vfprintf_r+0x2850>
   143e0:	fff00a13          	li	s4,-1
   143e4:	00194883          	lbu	a7,1(s2)
   143e8:	00f12623          	sw	a5,12(sp)
   143ec:	00068913          	mv	s2,a3
   143f0:	949fd06f          	j	11d38 <_vfprintf_r+0x1a4>
   143f4:	02012023          	sw	zero,32(sp)
   143f8:	00012e23          	sw	zero,28(sp)
   143fc:	eddff06f          	j	142d8 <_vfprintf_r+0x2744>
   14400:	04500613          	li	a2,69
   14404:	08010593          	add	a1,sp,128
   14408:	eacff06f          	j	13ab4 <_vfprintf_r+0x1f20>
   1440c:	00c4d783          	lhu	a5,12(s1)
   14410:	0407e793          	or	a5,a5,64
   14414:	00f49623          	sh	a5,12(s1)
   14418:	acdfd06f          	j	11ee4 <_vfprintf_r+0x350>

0001441c <vfprintf>:
   1441c:	00050793          	mv	a5,a0
   14420:	f101a503          	lw	a0,-240(gp) # 23820 <_impure_ptr>
   14424:	00060693          	mv	a3,a2
   14428:	00058613          	mv	a2,a1
   1442c:	00078593          	mv	a1,a5
   14430:	f64fd06f          	j	11b94 <_vfprintf_r>

00014434 <__sbprintf>:
   14434:	b8010113          	add	sp,sp,-1152
   14438:	00c59783          	lh	a5,12(a1)
   1443c:	00e5d703          	lhu	a4,14(a1)
   14440:	46812c23          	sw	s0,1144(sp)
   14444:	00058413          	mv	s0,a1
   14448:	000105b7          	lui	a1,0x10
   1444c:	ffd58593          	add	a1,a1,-3 # fffd <exit-0xa3>
   14450:	06442e03          	lw	t3,100(s0)
   14454:	01c42303          	lw	t1,28(s0)
   14458:	02442883          	lw	a7,36(s0)
   1445c:	01071713          	sll	a4,a4,0x10
   14460:	00b7f7b3          	and	a5,a5,a1
   14464:	00e7e7b3          	or	a5,a5,a4
   14468:	40000813          	li	a6,1024
   1446c:	00f12a23          	sw	a5,20(sp)
   14470:	00810593          	add	a1,sp,8
   14474:	07010793          	add	a5,sp,112
   14478:	46912a23          	sw	s1,1140(sp)
   1447c:	47212823          	sw	s2,1136(sp)
   14480:	46112e23          	sw	ra,1148(sp)
   14484:	00050913          	mv	s2,a0
   14488:	07c12623          	sw	t3,108(sp)
   1448c:	02612223          	sw	t1,36(sp)
   14490:	03112623          	sw	a7,44(sp)
   14494:	00f12423          	sw	a5,8(sp)
   14498:	00f12c23          	sw	a5,24(sp)
   1449c:	01012823          	sw	a6,16(sp)
   144a0:	01012e23          	sw	a6,28(sp)
   144a4:	02012023          	sw	zero,32(sp)
   144a8:	eecfd0ef          	jal	11b94 <_vfprintf_r>
   144ac:	00050493          	mv	s1,a0
   144b0:	02055c63          	bgez	a0,144e8 <__sbprintf+0xb4>
   144b4:	01415783          	lhu	a5,20(sp)
   144b8:	0407f793          	and	a5,a5,64
   144bc:	00078863          	beqz	a5,144cc <__sbprintf+0x98>
   144c0:	00c45783          	lhu	a5,12(s0)
   144c4:	0407e793          	or	a5,a5,64
   144c8:	00f41623          	sh	a5,12(s0)
   144cc:	47c12083          	lw	ra,1148(sp)
   144d0:	47812403          	lw	s0,1144(sp)
   144d4:	47012903          	lw	s2,1136(sp)
   144d8:	00048513          	mv	a0,s1
   144dc:	47412483          	lw	s1,1140(sp)
   144e0:	48010113          	add	sp,sp,1152
   144e4:	00008067          	ret
   144e8:	00810593          	add	a1,sp,8
   144ec:	00090513          	mv	a0,s2
   144f0:	071010ef          	jal	15d60 <_fflush_r>
   144f4:	fc0500e3          	beqz	a0,144b4 <__sbprintf+0x80>
   144f8:	fff00493          	li	s1,-1
   144fc:	fb9ff06f          	j	144b4 <__sbprintf+0x80>

00014500 <__sprint_r.part.0>:
   14500:	0645a783          	lw	a5,100(a1)
   14504:	fd010113          	add	sp,sp,-48
   14508:	01612823          	sw	s6,16(sp)
   1450c:	02112623          	sw	ra,44(sp)
   14510:	01279713          	sll	a4,a5,0x12
   14514:	00060b13          	mv	s6,a2
   14518:	0e075863          	bgez	a4,14608 <__sprint_r.part.0+0x108>
   1451c:	00862783          	lw	a5,8(a2)
   14520:	03212023          	sw	s2,32(sp)
   14524:	01312e23          	sw	s3,28(sp)
   14528:	01512a23          	sw	s5,20(sp)
   1452c:	01712623          	sw	s7,12(sp)
   14530:	00058913          	mv	s2,a1
   14534:	00062b83          	lw	s7,0(a2)
   14538:	00050993          	mv	s3,a0
   1453c:	fff00a93          	li	s5,-1
   14540:	0a078863          	beqz	a5,145f0 <__sprint_r.part.0+0xf0>
   14544:	02812423          	sw	s0,40(sp)
   14548:	02912223          	sw	s1,36(sp)
   1454c:	01412c23          	sw	s4,24(sp)
   14550:	01812423          	sw	s8,8(sp)
   14554:	004bac03          	lw	s8,4(s7)
   14558:	000ba403          	lw	s0,0(s7)
   1455c:	002c5a13          	srl	s4,s8,0x2
   14560:	060a0663          	beqz	s4,145cc <__sprint_r.part.0+0xcc>
   14564:	00000493          	li	s1,0
   14568:	00c0006f          	j	14574 <__sprint_r.part.0+0x74>
   1456c:	00440413          	add	s0,s0,4
   14570:	049a0c63          	beq	s4,s1,145c8 <__sprint_r.part.0+0xc8>
   14574:	00042583          	lw	a1,0(s0)
   14578:	00090613          	mv	a2,s2
   1457c:	00098513          	mv	a0,s3
   14580:	00c020ef          	jal	1658c <_fputwc_r>
   14584:	00148493          	add	s1,s1,1
   14588:	ff5512e3          	bne	a0,s5,1456c <__sprint_r.part.0+0x6c>
   1458c:	02812403          	lw	s0,40(sp)
   14590:	02412483          	lw	s1,36(sp)
   14594:	02012903          	lw	s2,32(sp)
   14598:	01c12983          	lw	s3,28(sp)
   1459c:	01812a03          	lw	s4,24(sp)
   145a0:	01412a83          	lw	s5,20(sp)
   145a4:	00c12b83          	lw	s7,12(sp)
   145a8:	00812c03          	lw	s8,8(sp)
   145ac:	fff00513          	li	a0,-1
   145b0:	02c12083          	lw	ra,44(sp)
   145b4:	000b2423          	sw	zero,8(s6)
   145b8:	000b2223          	sw	zero,4(s6)
   145bc:	01012b03          	lw	s6,16(sp)
   145c0:	03010113          	add	sp,sp,48
   145c4:	00008067          	ret
   145c8:	008b2783          	lw	a5,8(s6)
   145cc:	ffcc7c13          	and	s8,s8,-4
   145d0:	418787b3          	sub	a5,a5,s8
   145d4:	00fb2423          	sw	a5,8(s6)
   145d8:	008b8b93          	add	s7,s7,8
   145dc:	f6079ce3          	bnez	a5,14554 <__sprint_r.part.0+0x54>
   145e0:	02812403          	lw	s0,40(sp)
   145e4:	02412483          	lw	s1,36(sp)
   145e8:	01812a03          	lw	s4,24(sp)
   145ec:	00812c03          	lw	s8,8(sp)
   145f0:	02012903          	lw	s2,32(sp)
   145f4:	01c12983          	lw	s3,28(sp)
   145f8:	01412a83          	lw	s5,20(sp)
   145fc:	00c12b83          	lw	s7,12(sp)
   14600:	00000513          	li	a0,0
   14604:	fadff06f          	j	145b0 <__sprint_r.part.0+0xb0>
   14608:	03d010ef          	jal	15e44 <__sfvwrite_r>
   1460c:	02c12083          	lw	ra,44(sp)
   14610:	000b2423          	sw	zero,8(s6)
   14614:	000b2223          	sw	zero,4(s6)
   14618:	01012b03          	lw	s6,16(sp)
   1461c:	03010113          	add	sp,sp,48
   14620:	00008067          	ret

00014624 <__sprint_r>:
   14624:	00862703          	lw	a4,8(a2)
   14628:	00070463          	beqz	a4,14630 <__sprint_r+0xc>
   1462c:	ed5ff06f          	j	14500 <__sprint_r.part.0>
   14630:	00062223          	sw	zero,4(a2)
   14634:	00000513          	li	a0,0
   14638:	00008067          	ret

0001463c <_vfiprintf_r>:
   1463c:	ed010113          	add	sp,sp,-304
   14640:	13212023          	sw	s2,288(sp)
   14644:	11312e23          	sw	s3,284(sp)
   14648:	11412c23          	sw	s4,280(sp)
   1464c:	11812423          	sw	s8,264(sp)
   14650:	12112623          	sw	ra,300(sp)
   14654:	11612823          	sw	s6,272(sp)
   14658:	00050a13          	mv	s4,a0
   1465c:	00058913          	mv	s2,a1
   14660:	00060c13          	mv	s8,a2
   14664:	00068993          	mv	s3,a3
   14668:	00050863          	beqz	a0,14678 <_vfiprintf_r+0x3c>
   1466c:	03452783          	lw	a5,52(a0)
   14670:	00079463          	bnez	a5,14678 <_vfiprintf_r+0x3c>
   14674:	16c0106f          	j	157e0 <_vfiprintf_r+0x11a4>
   14678:	00c91783          	lh	a5,12(s2)
   1467c:	01279713          	sll	a4,a5,0x12
   14680:	02074663          	bltz	a4,146ac <_vfiprintf_r+0x70>
   14684:	06492703          	lw	a4,100(s2)
   14688:	00002637          	lui	a2,0x2
   1468c:	ffffe6b7          	lui	a3,0xffffe
   14690:	00c7e7b3          	or	a5,a5,a2
   14694:	fff68693          	add	a3,a3,-1 # ffffdfff <__BSS_END__+0xfffda427>
   14698:	01079793          	sll	a5,a5,0x10
   1469c:	4107d793          	sra	a5,a5,0x10
   146a0:	00d77733          	and	a4,a4,a3
   146a4:	00f91623          	sh	a5,12(s2)
   146a8:	06e92223          	sw	a4,100(s2)
   146ac:	0087f713          	and	a4,a5,8
   146b0:	14070463          	beqz	a4,147f8 <_vfiprintf_r+0x1bc>
   146b4:	01092703          	lw	a4,16(s2)
   146b8:	14070063          	beqz	a4,147f8 <_vfiprintf_r+0x1bc>
   146bc:	01a7f793          	and	a5,a5,26
   146c0:	00a00713          	li	a4,10
   146c4:	14e78c63          	beq	a5,a4,1481c <_vfiprintf_r+0x1e0>
   146c8:	000227b7          	lui	a5,0x22
   146cc:	12912223          	sw	s1,292(sp)
   146d0:	11512a23          	sw	s5,276(sp)
   146d4:	04c10493          	add	s1,sp,76
   146d8:	00000b13          	li	s6,0
   146dc:	35478793          	add	a5,a5,852 # 22354 <blanks.1+0x10>
   146e0:	00022ab7          	lui	s5,0x22
   146e4:	12812423          	sw	s0,296(sp)
   146e8:	11912223          	sw	s9,260(sp)
   146ec:	11712623          	sw	s7,268(sp)
   146f0:	11a12023          	sw	s10,256(sp)
   146f4:	0fb12e23          	sw	s11,252(sp)
   146f8:	04912023          	sw	s1,64(sp)
   146fc:	04012423          	sw	zero,72(sp)
   14700:	04012223          	sw	zero,68(sp)
   14704:	00048713          	mv	a4,s1
   14708:	00012223          	sw	zero,4(sp)
   1470c:	00012c23          	sw	zero,24(sp)
   14710:	00012e23          	sw	zero,28(sp)
   14714:	02012023          	sw	zero,32(sp)
   14718:	00f12023          	sw	a5,0(sp)
   1471c:	01000413          	li	s0,16
   14720:	4c0a8a93          	add	s5,s5,1216 # 224c0 <zeroes.0>
   14724:	000b0c93          	mv	s9,s6
   14728:	00098813          	mv	a6,s3
   1472c:	000c4783          	lbu	a5,0(s8)
   14730:	34078263          	beqz	a5,14a74 <_vfiprintf_r+0x438>
   14734:	000c0b93          	mv	s7,s8
   14738:	02500693          	li	a3,37
   1473c:	36d78c63          	beq	a5,a3,14ab4 <_vfiprintf_r+0x478>
   14740:	001bc783          	lbu	a5,1(s7)
   14744:	001b8b93          	add	s7,s7,1
   14748:	fe079ae3          	bnez	a5,1473c <_vfiprintf_r+0x100>
   1474c:	418b89b3          	sub	s3,s7,s8
   14750:	338b8263          	beq	s7,s8,14a74 <_vfiprintf_r+0x438>
   14754:	04812683          	lw	a3,72(sp)
   14758:	04412783          	lw	a5,68(sp)
   1475c:	01872023          	sw	s8,0(a4)
   14760:	00d986b3          	add	a3,s3,a3
   14764:	00178793          	add	a5,a5,1
   14768:	01372223          	sw	s3,4(a4)
   1476c:	04d12423          	sw	a3,72(sp)
   14770:	04f12223          	sw	a5,68(sp)
   14774:	00700613          	li	a2,7
   14778:	00870713          	add	a4,a4,8
   1477c:	02f65463          	bge	a2,a5,147a4 <_vfiprintf_r+0x168>
   14780:	4e0688e3          	beqz	a3,15470 <_vfiprintf_r+0xe34>
   14784:	04010613          	add	a2,sp,64
   14788:	00090593          	mv	a1,s2
   1478c:	000a0513          	mv	a0,s4
   14790:	01012423          	sw	a6,8(sp)
   14794:	d6dff0ef          	jal	14500 <__sprint_r.part.0>
   14798:	00812803          	lw	a6,8(sp)
   1479c:	0c051a63          	bnez	a0,14870 <_vfiprintf_r+0x234>
   147a0:	00048713          	mv	a4,s1
   147a4:	000bc783          	lbu	a5,0(s7)
   147a8:	013c8cb3          	add	s9,s9,s3
   147ac:	2c078463          	beqz	a5,14a74 <_vfiprintf_r+0x438>
   147b0:	00000313          	li	t1,0
   147b4:	001bc783          	lbu	a5,1(s7)
   147b8:	001b8c13          	add	s8,s7,1
   147bc:	02010da3          	sb	zero,59(sp)
   147c0:	fff00d13          	li	s10,-1
   147c4:	00000b13          	li	s6,0
   147c8:	05a00993          	li	s3,90
   147cc:	00030b93          	mv	s7,t1
   147d0:	00070d93          	mv	s11,a4
   147d4:	001c0c13          	add	s8,s8,1
   147d8:	00078613          	mv	a2,a5
   147dc:	fe060693          	add	a3,a2,-32 # 1fe0 <exit-0xe0c0>
   147e0:	10d9ec63          	bltu	s3,a3,148f8 <_vfiprintf_r+0x2bc>
   147e4:	00012783          	lw	a5,0(sp)
   147e8:	00269693          	sll	a3,a3,0x2
   147ec:	00f686b3          	add	a3,a3,a5
   147f0:	0006a783          	lw	a5,0(a3)
   147f4:	00078067          	jr	a5
   147f8:	00090593          	mv	a1,s2
   147fc:	000a0513          	mv	a0,s4
   14800:	359010ef          	jal	16358 <__swsetup_r>
   14804:	00050463          	beqz	a0,1480c <_vfiprintf_r+0x1d0>
   14808:	0f00106f          	j	158f8 <_vfiprintf_r+0x12bc>
   1480c:	00c91783          	lh	a5,12(s2)
   14810:	00a00713          	li	a4,10
   14814:	01a7f793          	and	a5,a5,26
   14818:	eae798e3          	bne	a5,a4,146c8 <_vfiprintf_r+0x8c>
   1481c:	00e91783          	lh	a5,14(s2)
   14820:	ea07c4e3          	bltz	a5,146c8 <_vfiprintf_r+0x8c>
   14824:	12c12083          	lw	ra,300(sp)
   14828:	11012b03          	lw	s6,272(sp)
   1482c:	00098693          	mv	a3,s3
   14830:	000c0613          	mv	a2,s8
   14834:	11c12983          	lw	s3,284(sp)
   14838:	10812c03          	lw	s8,264(sp)
   1483c:	00090593          	mv	a1,s2
   14840:	000a0513          	mv	a0,s4
   14844:	12012903          	lw	s2,288(sp)
   14848:	11812a03          	lw	s4,280(sp)
   1484c:	13010113          	add	sp,sp,304
   14850:	0e40106f          	j	15934 <__sbprintf>
   14854:	04010613          	add	a2,sp,64
   14858:	00090593          	mv	a1,s2
   1485c:	000a0513          	mv	a0,s4
   14860:	01012423          	sw	a6,8(sp)
   14864:	c9dff0ef          	jal	14500 <__sprint_r.part.0>
   14868:	00812803          	lw	a6,8(sp)
   1486c:	1e050c63          	beqz	a0,14a64 <_vfiprintf_r+0x428>
   14870:	000c8b13          	mv	s6,s9
   14874:	00c95783          	lhu	a5,12(s2)
   14878:	12812403          	lw	s0,296(sp)
   1487c:	12412483          	lw	s1,292(sp)
   14880:	0407f793          	and	a5,a5,64
   14884:	11412a83          	lw	s5,276(sp)
   14888:	10c12b83          	lw	s7,268(sp)
   1488c:	10412c83          	lw	s9,260(sp)
   14890:	10012d03          	lw	s10,256(sp)
   14894:	0fc12d83          	lw	s11,252(sp)
   14898:	00078463          	beqz	a5,148a0 <_vfiprintf_r+0x264>
   1489c:	05c0106f          	j	158f8 <_vfiprintf_r+0x12bc>
   148a0:	12c12083          	lw	ra,300(sp)
   148a4:	12012903          	lw	s2,288(sp)
   148a8:	11c12983          	lw	s3,284(sp)
   148ac:	11812a03          	lw	s4,280(sp)
   148b0:	10812c03          	lw	s8,264(sp)
   148b4:	000b0513          	mv	a0,s6
   148b8:	11012b03          	lw	s6,272(sp)
   148bc:	13010113          	add	sp,sp,304
   148c0:	00008067          	ret
   148c4:	00000b13          	li	s6,0
   148c8:	fd060793          	add	a5,a2,-48
   148cc:	00900593          	li	a1,9
   148d0:	000c4603          	lbu	a2,0(s8)
   148d4:	002b1693          	sll	a3,s6,0x2
   148d8:	01668b33          	add	s6,a3,s6
   148dc:	001b1b13          	sll	s6,s6,0x1
   148e0:	01678b33          	add	s6,a5,s6
   148e4:	fd060793          	add	a5,a2,-48
   148e8:	001c0c13          	add	s8,s8,1
   148ec:	fef5f2e3          	bgeu	a1,a5,148d0 <_vfiprintf_r+0x294>
   148f0:	fe060693          	add	a3,a2,-32
   148f4:	eed9f8e3          	bgeu	s3,a3,147e4 <_vfiprintf_r+0x1a8>
   148f8:	000b8313          	mv	t1,s7
   148fc:	000d8713          	mv	a4,s11
   14900:	16060a63          	beqz	a2,14a74 <_vfiprintf_r+0x438>
   14904:	08c10623          	sb	a2,140(sp)
   14908:	02010da3          	sb	zero,59(sp)
   1490c:	00100d93          	li	s11,1
   14910:	00100e93          	li	t4,1
   14914:	08c10b93          	add	s7,sp,140
   14918:	00000d13          	li	s10,0
   1491c:	00000f93          	li	t6,0
   14920:	04412683          	lw	a3,68(sp)
   14924:	08437293          	and	t0,t1,132
   14928:	04812783          	lw	a5,72(sp)
   1492c:	00168613          	add	a2,a3,1
   14930:	00060593          	mv	a1,a2
   14934:	00029663          	bnez	t0,14940 <_vfiprintf_r+0x304>
   14938:	41bb09b3          	sub	s3,s6,s11
   1493c:	1f3044e3          	bgtz	s3,15324 <_vfiprintf_r+0xce8>
   14940:	03b14603          	lbu	a2,59(sp)
   14944:	02060a63          	beqz	a2,14978 <_vfiprintf_r+0x33c>
   14948:	03b10693          	add	a3,sp,59
   1494c:	00178793          	add	a5,a5,1
   14950:	00d72023          	sw	a3,0(a4)
   14954:	00100693          	li	a3,1
   14958:	00d72223          	sw	a3,4(a4)
   1495c:	04f12423          	sw	a5,72(sp)
   14960:	04b12223          	sw	a1,68(sp)
   14964:	00700693          	li	a3,7
   14968:	0eb6c2e3          	blt	a3,a1,1524c <_vfiprintf_r+0xc10>
   1496c:	00058693          	mv	a3,a1
   14970:	00870713          	add	a4,a4,8
   14974:	00158593          	add	a1,a1,1
   14978:	060f8863          	beqz	t6,149e8 <_vfiprintf_r+0x3ac>
   1497c:	03c10693          	add	a3,sp,60
   14980:	00278793          	add	a5,a5,2
   14984:	00d72023          	sw	a3,0(a4)
   14988:	00200693          	li	a3,2
   1498c:	00d72223          	sw	a3,4(a4)
   14990:	04f12423          	sw	a5,72(sp)
   14994:	04b12223          	sw	a1,68(sp)
   14998:	00700693          	li	a3,7
   1499c:	12b6d0e3          	bge	a3,a1,152bc <_vfiprintf_r+0xc80>
   149a0:	360784e3          	beqz	a5,15508 <_vfiprintf_r+0xecc>
   149a4:	04010613          	add	a2,sp,64
   149a8:	00090593          	mv	a1,s2
   149ac:	000a0513          	mv	a0,s4
   149b0:	01012a23          	sw	a6,20(sp)
   149b4:	01d12823          	sw	t4,16(sp)
   149b8:	00512623          	sw	t0,12(sp)
   149bc:	00612423          	sw	t1,8(sp)
   149c0:	b41ff0ef          	jal	14500 <__sprint_r.part.0>
   149c4:	ea0516e3          	bnez	a0,14870 <_vfiprintf_r+0x234>
   149c8:	04412683          	lw	a3,68(sp)
   149cc:	04812783          	lw	a5,72(sp)
   149d0:	01412803          	lw	a6,20(sp)
   149d4:	01012e83          	lw	t4,16(sp)
   149d8:	00c12283          	lw	t0,12(sp)
   149dc:	00812303          	lw	t1,8(sp)
   149e0:	00048713          	mv	a4,s1
   149e4:	00168593          	add	a1,a3,1
   149e8:	08000613          	li	a2,128
   149ec:	64c28e63          	beq	t0,a2,15048 <_vfiprintf_r+0xa0c>
   149f0:	41dd0d33          	sub	s10,s10,t4
   149f4:	77a04663          	bgtz	s10,15160 <_vfiprintf_r+0xb24>
   149f8:	00fe87b3          	add	a5,t4,a5
   149fc:	01772023          	sw	s7,0(a4)
   14a00:	01d72223          	sw	t4,4(a4)
   14a04:	04f12423          	sw	a5,72(sp)
   14a08:	04b12223          	sw	a1,68(sp)
   14a0c:	00700693          	li	a3,7
   14a10:	62b6d063          	bge	a3,a1,15030 <_vfiprintf_r+0x9f4>
   14a14:	0a078863          	beqz	a5,14ac4 <_vfiprintf_r+0x488>
   14a18:	04010613          	add	a2,sp,64
   14a1c:	00090593          	mv	a1,s2
   14a20:	000a0513          	mv	a0,s4
   14a24:	01012623          	sw	a6,12(sp)
   14a28:	00612423          	sw	t1,8(sp)
   14a2c:	ad5ff0ef          	jal	14500 <__sprint_r.part.0>
   14a30:	e40510e3          	bnez	a0,14870 <_vfiprintf_r+0x234>
   14a34:	04812783          	lw	a5,72(sp)
   14a38:	00c12803          	lw	a6,12(sp)
   14a3c:	00812303          	lw	t1,8(sp)
   14a40:	00048713          	mv	a4,s1
   14a44:	00437313          	and	t1,t1,4
   14a48:	00030663          	beqz	t1,14a54 <_vfiprintf_r+0x418>
   14a4c:	41bb09b3          	sub	s3,s6,s11
   14a50:	09304663          	bgtz	s3,14adc <_vfiprintf_r+0x4a0>
   14a54:	01bb5463          	bge	s6,s11,14a5c <_vfiprintf_r+0x420>
   14a58:	000d8b13          	mv	s6,s11
   14a5c:	016c8cb3          	add	s9,s9,s6
   14a60:	de079ae3          	bnez	a5,14854 <_vfiprintf_r+0x218>
   14a64:	000c4783          	lbu	a5,0(s8)
   14a68:	04012223          	sw	zero,68(sp)
   14a6c:	00048713          	mv	a4,s1
   14a70:	cc0792e3          	bnez	a5,14734 <_vfiprintf_r+0xf8>
   14a74:	04812783          	lw	a5,72(sp)
   14a78:	000c8b13          	mv	s6,s9
   14a7c:	de078ce3          	beqz	a5,14874 <_vfiprintf_r+0x238>
   14a80:	04010613          	add	a2,sp,64
   14a84:	00090593          	mv	a1,s2
   14a88:	000a0513          	mv	a0,s4
   14a8c:	a75ff0ef          	jal	14500 <__sprint_r.part.0>
   14a90:	de5ff06f          	j	14874 <_vfiprintf_r+0x238>
   14a94:	00082b03          	lw	s6,0(a6)
   14a98:	00480813          	add	a6,a6,4
   14a9c:	200b4a63          	bltz	s6,14cb0 <_vfiprintf_r+0x674>
   14aa0:	000c4783          	lbu	a5,0(s8)
   14aa4:	d31ff06f          	j	147d4 <_vfiprintf_r+0x198>
   14aa8:	000c4783          	lbu	a5,0(s8)
   14aac:	020beb93          	or	s7,s7,32
   14ab0:	d25ff06f          	j	147d4 <_vfiprintf_r+0x198>
   14ab4:	418b89b3          	sub	s3,s7,s8
   14ab8:	c98b9ee3          	bne	s7,s8,14754 <_vfiprintf_r+0x118>
   14abc:	000bc783          	lbu	a5,0(s7)
   14ac0:	cedff06f          	j	147ac <_vfiprintf_r+0x170>
   14ac4:	04012223          	sw	zero,68(sp)
   14ac8:	00437313          	and	t1,t1,4
   14acc:	140308e3          	beqz	t1,1541c <_vfiprintf_r+0xde0>
   14ad0:	41bb09b3          	sub	s3,s6,s11
   14ad4:	153054e3          	blez	s3,1541c <_vfiprintf_r+0xde0>
   14ad8:	00048713          	mv	a4,s1
   14adc:	01000693          	li	a3,16
   14ae0:	04412603          	lw	a2,68(sp)
   14ae4:	5f36dae3          	bge	a3,s3,158d8 <_vfiprintf_r+0x129c>
   14ae8:	00022e37          	lui	t3,0x22
   14aec:	4d0e0e13          	add	t3,t3,1232 # 224d0 <blanks.1>
   14af0:	01612423          	sw	s6,8(sp)
   14af4:	01000b93          	li	s7,16
   14af8:	00700d13          	li	s10,7
   14afc:	01012623          	sw	a6,12(sp)
   14b00:	000e0b13          	mv	s6,t3
   14b04:	0180006f          	j	14b1c <_vfiprintf_r+0x4e0>
   14b08:	00260593          	add	a1,a2,2
   14b0c:	00870713          	add	a4,a4,8
   14b10:	00068613          	mv	a2,a3
   14b14:	ff098993          	add	s3,s3,-16
   14b18:	053bd863          	bge	s7,s3,14b68 <_vfiprintf_r+0x52c>
   14b1c:	01078793          	add	a5,a5,16
   14b20:	00160693          	add	a3,a2,1
   14b24:	01672023          	sw	s6,0(a4)
   14b28:	01772223          	sw	s7,4(a4)
   14b2c:	04f12423          	sw	a5,72(sp)
   14b30:	04d12223          	sw	a3,68(sp)
   14b34:	fcdd5ae3          	bge	s10,a3,14b08 <_vfiprintf_r+0x4cc>
   14b38:	50078063          	beqz	a5,15038 <_vfiprintf_r+0x9fc>
   14b3c:	04010613          	add	a2,sp,64
   14b40:	00090593          	mv	a1,s2
   14b44:	000a0513          	mv	a0,s4
   14b48:	9b9ff0ef          	jal	14500 <__sprint_r.part.0>
   14b4c:	d20512e3          	bnez	a0,14870 <_vfiprintf_r+0x234>
   14b50:	04412603          	lw	a2,68(sp)
   14b54:	ff098993          	add	s3,s3,-16
   14b58:	04812783          	lw	a5,72(sp)
   14b5c:	00048713          	mv	a4,s1
   14b60:	00160593          	add	a1,a2,1
   14b64:	fb3bcce3          	blt	s7,s3,14b1c <_vfiprintf_r+0x4e0>
   14b68:	000b0e13          	mv	t3,s6
   14b6c:	00c12803          	lw	a6,12(sp)
   14b70:	00812b03          	lw	s6,8(sp)
   14b74:	013787b3          	add	a5,a5,s3
   14b78:	01c72023          	sw	t3,0(a4)
   14b7c:	01372223          	sw	s3,4(a4)
   14b80:	04f12423          	sw	a5,72(sp)
   14b84:	04b12223          	sw	a1,68(sp)
   14b88:	00700713          	li	a4,7
   14b8c:	ecb754e3          	bge	a4,a1,14a54 <_vfiprintf_r+0x418>
   14b90:	080786e3          	beqz	a5,1541c <_vfiprintf_r+0xde0>
   14b94:	04010613          	add	a2,sp,64
   14b98:	00090593          	mv	a1,s2
   14b9c:	000a0513          	mv	a0,s4
   14ba0:	01012423          	sw	a6,8(sp)
   14ba4:	95dff0ef          	jal	14500 <__sprint_r.part.0>
   14ba8:	cc0514e3          	bnez	a0,14870 <_vfiprintf_r+0x234>
   14bac:	04812783          	lw	a5,72(sp)
   14bb0:	00812803          	lw	a6,8(sp)
   14bb4:	ea1ff06f          	j	14a54 <_vfiprintf_r+0x418>
   14bb8:	000b8313          	mv	t1,s7
   14bbc:	00082b83          	lw	s7,0(a6)
   14bc0:	02010da3          	sb	zero,59(sp)
   14bc4:	000d8713          	mv	a4,s11
   14bc8:	00480993          	add	s3,a6,4
   14bcc:	440b86e3          	beqz	s7,15818 <_vfiprintf_r+0x11dc>
   14bd0:	01b12623          	sw	s11,12(sp)
   14bd4:	00612423          	sw	t1,8(sp)
   14bd8:	360d46e3          	bltz	s10,15744 <_vfiprintf_r+0x1108>
   14bdc:	000d0613          	mv	a2,s10
   14be0:	00000593          	li	a1,0
   14be4:	000b8513          	mv	a0,s7
   14be8:	24d010ef          	jal	16634 <memchr>
   14bec:	00812303          	lw	t1,8(sp)
   14bf0:	00c12703          	lw	a4,12(sp)
   14bf4:	000d0e93          	mv	t4,s10
   14bf8:	00050463          	beqz	a0,14c00 <_vfiprintf_r+0x5c4>
   14bfc:	41750eb3          	sub	t4,a0,s7
   14c00:	03b14783          	lbu	a5,59(sp)
   14c04:	fffecd93          	not	s11,t4
   14c08:	41fddd93          	sra	s11,s11,0x1f
   14c0c:	01befdb3          	and	s11,t4,s11
   14c10:	00098813          	mv	a6,s3
   14c14:	00000d13          	li	s10,0
   14c18:	00000f93          	li	t6,0
   14c1c:	d00782e3          	beqz	a5,14920 <_vfiprintf_r+0x2e4>
   14c20:	001d8d93          	add	s11,s11,1
   14c24:	00237f93          	and	t6,t1,2
   14c28:	ce0f8ce3          	beqz	t6,14920 <_vfiprintf_r+0x2e4>
   14c2c:	002d8d93          	add	s11,s11,2
   14c30:	00200f93          	li	t6,2
   14c34:	cedff06f          	j	14920 <_vfiprintf_r+0x2e4>
   14c38:	00082783          	lw	a5,0(a6)
   14c3c:	000b8313          	mv	t1,s7
   14c40:	000d8713          	mv	a4,s11
   14c44:	02010da3          	sb	zero,59(sp)
   14c48:	00480813          	add	a6,a6,4
   14c4c:	08f10623          	sb	a5,140(sp)
   14c50:	00100d93          	li	s11,1
   14c54:	00100e93          	li	t4,1
   14c58:	08c10b93          	add	s7,sp,140
   14c5c:	cbdff06f          	j	14918 <_vfiprintf_r+0x2dc>
   14c60:	000b8313          	mv	t1,s7
   14c64:	02037793          	and	a5,t1,32
   14c68:	000d8713          	mv	a4,s11
   14c6c:	24078a63          	beqz	a5,14ec0 <_vfiprintf_r+0x884>
   14c70:	00780813          	add	a6,a6,7
   14c74:	ff887813          	and	a6,a6,-8
   14c78:	00482683          	lw	a3,4(a6)
   14c7c:	00082983          	lw	s3,0(a6)
   14c80:	00880813          	add	a6,a6,8
   14c84:	00068d93          	mv	s11,a3
   14c88:	0c06c063          	bltz	a3,14d48 <_vfiprintf_r+0x70c>
   14c8c:	0c0d4e63          	bltz	s10,14d68 <_vfiprintf_r+0x72c>
   14c90:	01b9e6b3          	or	a3,s3,s11
   14c94:	f7f37313          	and	t1,t1,-129
   14c98:	0c069863          	bnez	a3,14d68 <_vfiprintf_r+0x72c>
   14c9c:	420d12e3          	bnez	s10,158c0 <_vfiprintf_r+0x1284>
   14ca0:	00000d93          	li	s11,0
   14ca4:	00000e93          	li	t4,0
   14ca8:	0f010b93          	add	s7,sp,240
   14cac:	0e80006f          	j	14d94 <_vfiprintf_r+0x758>
   14cb0:	41600b33          	neg	s6,s6
   14cb4:	000c4783          	lbu	a5,0(s8)
   14cb8:	004beb93          	or	s7,s7,4
   14cbc:	b19ff06f          	j	147d4 <_vfiprintf_r+0x198>
   14cc0:	02b00693          	li	a3,43
   14cc4:	000c4783          	lbu	a5,0(s8)
   14cc8:	02d10da3          	sb	a3,59(sp)
   14ccc:	b09ff06f          	j	147d4 <_vfiprintf_r+0x198>
   14cd0:	000c4783          	lbu	a5,0(s8)
   14cd4:	06800693          	li	a3,104
   14cd8:	32d780e3          	beq	a5,a3,157f8 <_vfiprintf_r+0x11bc>
   14cdc:	040beb93          	or	s7,s7,64
   14ce0:	af5ff06f          	j	147d4 <_vfiprintf_r+0x198>
   14ce4:	000d8713          	mv	a4,s11
   14ce8:	010bee93          	or	t4,s7,16
   14cec:	020ef793          	and	a5,t4,32
   14cf0:	7a078263          	beqz	a5,15494 <_vfiprintf_r+0xe58>
   14cf4:	00780813          	add	a6,a6,7
   14cf8:	ff887813          	and	a6,a6,-8
   14cfc:	00082983          	lw	s3,0(a6)
   14d00:	00482d83          	lw	s11,4(a6)
   14d04:	00880813          	add	a6,a6,8
   14d08:	02010da3          	sb	zero,59(sp)
   14d0c:	000e8313          	mv	t1,t4
   14d10:	040d4c63          	bltz	s10,14d68 <_vfiprintf_r+0x72c>
   14d14:	01b9e6b3          	or	a3,s3,s11
   14d18:	f7fef313          	and	t1,t4,-129
   14d1c:	00100793          	li	a5,1
   14d20:	04069463          	bnez	a3,14d68 <_vfiprintf_r+0x72c>
   14d24:	0c0d1663          	bnez	s10,14df0 <_vfiprintf_r+0x7b4>
   14d28:	f6079ce3          	bnez	a5,14ca0 <_vfiprintf_r+0x664>
   14d2c:	001efe93          	and	t4,t4,1
   14d30:	100e82e3          	beqz	t4,15634 <_vfiprintf_r+0xff8>
   14d34:	03000793          	li	a5,48
   14d38:	0ef107a3          	sb	a5,239(sp)
   14d3c:	000e8d93          	mv	s11,t4
   14d40:	0ef10b93          	add	s7,sp,239
   14d44:	0500006f          	j	14d94 <_vfiprintf_r+0x758>
   14d48:	02d00613          	li	a2,45
   14d4c:	013036b3          	snez	a3,s3
   14d50:	41b00e33          	neg	t3,s11
   14d54:	02c10da3          	sb	a2,59(sp)
   14d58:	40de0db3          	sub	s11,t3,a3
   14d5c:	413009b3          	neg	s3,s3
   14d60:	000d4463          	bltz	s10,14d68 <_vfiprintf_r+0x72c>
   14d64:	f7f37313          	and	t1,t1,-129
   14d68:	000d92e3          	bnez	s11,1556c <_vfiprintf_r+0xf30>
   14d6c:	00900693          	li	a3,9
   14d70:	7f36ee63          	bltu	a3,s3,1556c <_vfiprintf_r+0xf30>
   14d74:	03098793          	add	a5,s3,48
   14d78:	0ff7f793          	zext.b	a5,a5
   14d7c:	0ef107a3          	sb	a5,239(sp)
   14d80:	000d0d93          	mv	s11,s10
   14d84:	01a04463          	bgtz	s10,14d8c <_vfiprintf_r+0x750>
   14d88:	00100d93          	li	s11,1
   14d8c:	00100e93          	li	t4,1
   14d90:	0ef10b93          	add	s7,sp,239
   14d94:	03b14783          	lbu	a5,59(sp)
   14d98:	e80794e3          	bnez	a5,14c20 <_vfiprintf_r+0x5e4>
   14d9c:	e89ff06f          	j	14c24 <_vfiprintf_r+0x5e8>
   14da0:	000086b7          	lui	a3,0x8
   14da4:	83068693          	add	a3,a3,-2000 # 7830 <exit-0x8870>
   14da8:	02d11e23          	sh	a3,60(sp)
   14dac:	000226b7          	lui	a3,0x22
   14db0:	03468693          	add	a3,a3,52 # 22034 <__clzsi2+0x108>
   14db4:	00082783          	lw	a5,0(a6)
   14db8:	000d8713          	mv	a4,s11
   14dbc:	00000593          	li	a1,0
   14dc0:	002be313          	or	t1,s7,2
   14dc4:	00480813          	add	a6,a6,4
   14dc8:	00d12223          	sw	a3,4(sp)
   14dcc:	02010da3          	sb	zero,59(sp)
   14dd0:	500d4463          	bltz	s10,152d8 <_vfiprintf_r+0xc9c>
   14dd4:	00b7e6b3          	or	a3,a5,a1
   14dd8:	f7f37613          	and	a2,t1,-129
   14ddc:	4e069863          	bnez	a3,152cc <_vfiprintf_r+0xc90>
   14de0:	00030e93          	mv	t4,t1
   14de4:	00200793          	li	a5,2
   14de8:	00060313          	mv	t1,a2
   14dec:	f20d0ee3          	beqz	s10,14d28 <_vfiprintf_r+0x6ec>
   14df0:	00100693          	li	a3,1
   14df4:	2cd786e3          	beq	a5,a3,158c0 <_vfiprintf_r+0x1284>
   14df8:	00200693          	li	a3,2
   14dfc:	22d78ee3          	beq	a5,a3,15838 <_vfiprintf_r+0x11fc>
   14e00:	00000793          	li	a5,0
   14e04:	00000593          	li	a1,0
   14e08:	0f010b93          	add	s7,sp,240
   14e0c:	01d59613          	sll	a2,a1,0x1d
   14e10:	0077f693          	and	a3,a5,7
   14e14:	0037d793          	srl	a5,a5,0x3
   14e18:	03068693          	add	a3,a3,48
   14e1c:	00f667b3          	or	a5,a2,a5
   14e20:	0035d593          	srl	a1,a1,0x3
   14e24:	fedb8fa3          	sb	a3,-1(s7)
   14e28:	00b7e633          	or	a2,a5,a1
   14e2c:	000b8513          	mv	a0,s7
   14e30:	fffb8b93          	add	s7,s7,-1
   14e34:	fc061ce3          	bnez	a2,14e0c <_vfiprintf_r+0x7d0>
   14e38:	00137793          	and	a5,t1,1
   14e3c:	4c078863          	beqz	a5,1530c <_vfiprintf_r+0xcd0>
   14e40:	03000793          	li	a5,48
   14e44:	4cf68463          	beq	a3,a5,1530c <_vfiprintf_r+0xcd0>
   14e48:	ffe50513          	add	a0,a0,-2
   14e4c:	fefb8fa3          	sb	a5,-1(s7)
   14e50:	0f010793          	add	a5,sp,240
   14e54:	40a78eb3          	sub	t4,a5,a0
   14e58:	000d0d93          	mv	s11,s10
   14e5c:	01dd4ee3          	blt	s10,t4,15678 <_vfiprintf_r+0x103c>
   14e60:	00050b93          	mv	s7,a0
   14e64:	f31ff06f          	j	14d94 <_vfiprintf_r+0x758>
   14e68:	020bf793          	and	a5,s7,32
   14e6c:	000d8713          	mv	a4,s11
   14e70:	7e079063          	bnez	a5,15650 <_vfiprintf_r+0x1014>
   14e74:	010bf793          	and	a5,s7,16
   14e78:	180798e3          	bnez	a5,15808 <_vfiprintf_r+0x11cc>
   14e7c:	040bf793          	and	a5,s7,64
   14e80:	1e079ce3          	bnez	a5,15878 <_vfiprintf_r+0x123c>
   14e84:	200bf313          	and	t1,s7,512
   14e88:	180300e3          	beqz	t1,15808 <_vfiprintf_r+0x11cc>
   14e8c:	00082783          	lw	a5,0(a6)
   14e90:	00480813          	add	a6,a6,4
   14e94:	01978023          	sb	s9,0(a5)
   14e98:	895ff06f          	j	1472c <_vfiprintf_r+0xf0>
   14e9c:	000c4783          	lbu	a5,0(s8)
   14ea0:	06c00693          	li	a3,108
   14ea4:	14d782e3          	beq	a5,a3,157e8 <_vfiprintf_r+0x11ac>
   14ea8:	010beb93          	or	s7,s7,16
   14eac:	929ff06f          	j	147d4 <_vfiprintf_r+0x198>
   14eb0:	010be313          	or	t1,s7,16
   14eb4:	02037793          	and	a5,t1,32
   14eb8:	000d8713          	mv	a4,s11
   14ebc:	da079ae3          	bnez	a5,14c70 <_vfiprintf_r+0x634>
   14ec0:	01037693          	and	a3,t1,16
   14ec4:	00082783          	lw	a5,0(a6)
   14ec8:	00480813          	add	a6,a6,4
   14ecc:	5a069c63          	bnez	a3,15484 <_vfiprintf_r+0xe48>
   14ed0:	04037693          	and	a3,t1,64
   14ed4:	5a068463          	beqz	a3,1547c <_vfiprintf_r+0xe40>
   14ed8:	01079993          	sll	s3,a5,0x10
   14edc:	4109d993          	sra	s3,s3,0x10
   14ee0:	41f9dd93          	sra	s11,s3,0x1f
   14ee4:	000d8693          	mv	a3,s11
   14ee8:	da1ff06f          	j	14c88 <_vfiprintf_r+0x64c>
   14eec:	000d8713          	mv	a4,s11
   14ef0:	010be693          	or	a3,s7,16
   14ef4:	0206f793          	and	a5,a3,32
   14ef8:	5c078c63          	beqz	a5,154d0 <_vfiprintf_r+0xe94>
   14efc:	00780813          	add	a6,a6,7
   14f00:	ff887813          	and	a6,a6,-8
   14f04:	00082783          	lw	a5,0(a6)
   14f08:	00482583          	lw	a1,4(a6)
   14f0c:	00880813          	add	a6,a6,8
   14f10:	02010da3          	sb	zero,59(sp)
   14f14:	bff6f313          	and	t1,a3,-1025
   14f18:	ee0d48e3          	bltz	s10,14e08 <_vfiprintf_r+0x7cc>
   14f1c:	00b7e633          	or	a2,a5,a1
   14f20:	b7f6f693          	and	a3,a3,-1153
   14f24:	0a0616e3          	bnez	a2,157d0 <_vfiprintf_r+0x1194>
   14f28:	00030e93          	mv	t4,t1
   14f2c:	00000793          	li	a5,0
   14f30:	00068313          	mv	t1,a3
   14f34:	df1ff06f          	j	14d24 <_vfiprintf_r+0x6e8>
   14f38:	000a0513          	mv	a0,s4
   14f3c:	01012423          	sw	a6,8(sp)
   14f40:	175010ef          	jal	168b4 <_localeconv_r>
   14f44:	00452783          	lw	a5,4(a0)
   14f48:	00078513          	mv	a0,a5
   14f4c:	02f12023          	sw	a5,32(sp)
   14f50:	e71fb0ef          	jal	10dc0 <strlen>
   14f54:	00050793          	mv	a5,a0
   14f58:	000a0513          	mv	a0,s4
   14f5c:	00f12e23          	sw	a5,28(sp)
   14f60:	155010ef          	jal	168b4 <_localeconv_r>
   14f64:	00852703          	lw	a4,8(a0)
   14f68:	01c12783          	lw	a5,28(sp)
   14f6c:	00812803          	lw	a6,8(sp)
   14f70:	00e12c23          	sw	a4,24(sp)
   14f74:	b20786e3          	beqz	a5,14aa0 <_vfiprintf_r+0x464>
   14f78:	01812703          	lw	a4,24(sp)
   14f7c:	000c4783          	lbu	a5,0(s8)
   14f80:	84070ae3          	beqz	a4,147d4 <_vfiprintf_r+0x198>
   14f84:	00074683          	lbu	a3,0(a4)
   14f88:	840686e3          	beqz	a3,147d4 <_vfiprintf_r+0x198>
   14f8c:	400beb93          	or	s7,s7,1024
   14f90:	845ff06f          	j	147d4 <_vfiprintf_r+0x198>
   14f94:	000c4783          	lbu	a5,0(s8)
   14f98:	080beb93          	or	s7,s7,128
   14f9c:	839ff06f          	j	147d4 <_vfiprintf_r+0x198>
   14fa0:	000c4603          	lbu	a2,0(s8)
   14fa4:	02a00793          	li	a5,42
   14fa8:	001c0593          	add	a1,s8,1
   14fac:	14f60ae3          	beq	a2,a5,15900 <_vfiprintf_r+0x12c4>
   14fb0:	fd060793          	add	a5,a2,-48
   14fb4:	00900693          	li	a3,9
   14fb8:	00000d13          	li	s10,0
   14fbc:	00900513          	li	a0,9
   14fc0:	02f6e463          	bltu	a3,a5,14fe8 <_vfiprintf_r+0x9ac>
   14fc4:	0005c603          	lbu	a2,0(a1)
   14fc8:	002d1693          	sll	a3,s10,0x2
   14fcc:	01a68d33          	add	s10,a3,s10
   14fd0:	001d1d13          	sll	s10,s10,0x1
   14fd4:	00fd0d33          	add	s10,s10,a5
   14fd8:	fd060793          	add	a5,a2,-48
   14fdc:	00158593          	add	a1,a1,1
   14fe0:	fef572e3          	bgeu	a0,a5,14fc4 <_vfiprintf_r+0x988>
   14fe4:	6a0d4063          	bltz	s10,15684 <_vfiprintf_r+0x1048>
   14fe8:	00058c13          	mv	s8,a1
   14fec:	ff0ff06f          	j	147dc <_vfiprintf_r+0x1a0>
   14ff0:	000c4783          	lbu	a5,0(s8)
   14ff4:	001beb93          	or	s7,s7,1
   14ff8:	fdcff06f          	j	147d4 <_vfiprintf_r+0x198>
   14ffc:	03b14683          	lbu	a3,59(sp)
   15000:	000c4783          	lbu	a5,0(s8)
   15004:	fc069863          	bnez	a3,147d4 <_vfiprintf_r+0x198>
   15008:	02000693          	li	a3,32
   1500c:	02d10da3          	sb	a3,59(sp)
   15010:	fc4ff06f          	j	147d4 <_vfiprintf_r+0x198>
   15014:	00100713          	li	a4,1
   15018:	04e12223          	sw	a4,68(sp)
   1501c:	000e8793          	mv	a5,t4
   15020:	05712623          	sw	s7,76(sp)
   15024:	05d12823          	sw	t4,80(sp)
   15028:	05d12423          	sw	t4,72(sp)
   1502c:	00048713          	mv	a4,s1
   15030:	00870713          	add	a4,a4,8
   15034:	a11ff06f          	j	14a44 <_vfiprintf_r+0x408>
   15038:	00100593          	li	a1,1
   1503c:	00000613          	li	a2,0
   15040:	00048713          	mv	a4,s1
   15044:	ad1ff06f          	j	14b14 <_vfiprintf_r+0x4d8>
   15048:	41bb09b3          	sub	s3,s6,s11
   1504c:	9b3052e3          	blez	s3,149f0 <_vfiprintf_r+0x3b4>
   15050:	01000613          	li	a2,16
   15054:	09365ae3          	bge	a2,s3,158e8 <_vfiprintf_r+0x12ac>
   15058:	00022e37          	lui	t3,0x22
   1505c:	4c0e0e13          	add	t3,t3,1216 # 224c0 <zeroes.0>
   15060:	01612823          	sw	s6,16(sp)
   15064:	01000f13          	li	t5,16
   15068:	00700f93          	li	t6,7
   1506c:	00612423          	sw	t1,8(sp)
   15070:	01d12623          	sw	t4,12(sp)
   15074:	01012a23          	sw	a6,20(sp)
   15078:	000e0b13          	mv	s6,t3
   1507c:	0180006f          	j	15094 <_vfiprintf_r+0xa58>
   15080:	00268513          	add	a0,a3,2
   15084:	00870713          	add	a4,a4,8
   15088:	00060693          	mv	a3,a2
   1508c:	ff098993          	add	s3,s3,-16
   15090:	053f5c63          	bge	t5,s3,150e8 <_vfiprintf_r+0xaac>
   15094:	01078793          	add	a5,a5,16
   15098:	00168613          	add	a2,a3,1
   1509c:	01672023          	sw	s6,0(a4)
   150a0:	01e72223          	sw	t5,4(a4)
   150a4:	04f12423          	sw	a5,72(sp)
   150a8:	04c12223          	sw	a2,68(sp)
   150ac:	fccfdae3          	bge	t6,a2,15080 <_vfiprintf_r+0xa44>
   150b0:	18078663          	beqz	a5,1523c <_vfiprintf_r+0xc00>
   150b4:	04010613          	add	a2,sp,64
   150b8:	00090593          	mv	a1,s2
   150bc:	000a0513          	mv	a0,s4
   150c0:	c40ff0ef          	jal	14500 <__sprint_r.part.0>
   150c4:	fa051663          	bnez	a0,14870 <_vfiprintf_r+0x234>
   150c8:	04412683          	lw	a3,68(sp)
   150cc:	01000f13          	li	t5,16
   150d0:	ff098993          	add	s3,s3,-16
   150d4:	04812783          	lw	a5,72(sp)
   150d8:	00048713          	mv	a4,s1
   150dc:	00168513          	add	a0,a3,1
   150e0:	00700f93          	li	t6,7
   150e4:	fb3f48e3          	blt	t5,s3,15094 <_vfiprintf_r+0xa58>
   150e8:	000b0e13          	mv	t3,s6
   150ec:	00812303          	lw	t1,8(sp)
   150f0:	00c12e83          	lw	t4,12(sp)
   150f4:	01412803          	lw	a6,20(sp)
   150f8:	01012b03          	lw	s6,16(sp)
   150fc:	013787b3          	add	a5,a5,s3
   15100:	01c72023          	sw	t3,0(a4)
   15104:	01372223          	sw	s3,4(a4)
   15108:	04f12423          	sw	a5,72(sp)
   1510c:	04a12223          	sw	a0,68(sp)
   15110:	00700693          	li	a3,7
   15114:	52a6d663          	bge	a3,a0,15640 <_vfiprintf_r+0x1004>
   15118:	72078663          	beqz	a5,15844 <_vfiprintf_r+0x1208>
   1511c:	04010613          	add	a2,sp,64
   15120:	00090593          	mv	a1,s2
   15124:	000a0513          	mv	a0,s4
   15128:	01012823          	sw	a6,16(sp)
   1512c:	01d12623          	sw	t4,12(sp)
   15130:	00612423          	sw	t1,8(sp)
   15134:	bccff0ef          	jal	14500 <__sprint_r.part.0>
   15138:	f2051c63          	bnez	a0,14870 <_vfiprintf_r+0x234>
   1513c:	00c12e83          	lw	t4,12(sp)
   15140:	04412683          	lw	a3,68(sp)
   15144:	04812783          	lw	a5,72(sp)
   15148:	41dd0d33          	sub	s10,s10,t4
   1514c:	01012803          	lw	a6,16(sp)
   15150:	00812303          	lw	t1,8(sp)
   15154:	00048713          	mv	a4,s1
   15158:	00168593          	add	a1,a3,1
   1515c:	89a05ee3          	blez	s10,149f8 <_vfiprintf_r+0x3bc>
   15160:	00022e37          	lui	t3,0x22
   15164:	4c0e0e13          	add	t3,t3,1216 # 224c0 <zeroes.0>
   15168:	09a45e63          	bge	s0,s10,15204 <_vfiprintf_r+0xbc8>
   1516c:	01612823          	sw	s6,16(sp)
   15170:	00700993          	li	s3,7
   15174:	000d0b13          	mv	s6,s10
   15178:	00612423          	sw	t1,8(sp)
   1517c:	01d12623          	sw	t4,12(sp)
   15180:	01012a23          	sw	a6,20(sp)
   15184:	000a8d13          	mv	s10,s5
   15188:	0180006f          	j	151a0 <_vfiprintf_r+0xb64>
   1518c:	00268593          	add	a1,a3,2
   15190:	00870713          	add	a4,a4,8
   15194:	00060693          	mv	a3,a2
   15198:	ff0b0b13          	add	s6,s6,-16
   1519c:	05645863          	bge	s0,s6,151ec <_vfiprintf_r+0xbb0>
   151a0:	01078793          	add	a5,a5,16
   151a4:	00168613          	add	a2,a3,1
   151a8:	01572023          	sw	s5,0(a4)
   151ac:	00872223          	sw	s0,4(a4)
   151b0:	04f12423          	sw	a5,72(sp)
   151b4:	04c12223          	sw	a2,68(sp)
   151b8:	fcc9dae3          	bge	s3,a2,1518c <_vfiprintf_r+0xb50>
   151bc:	06078863          	beqz	a5,1522c <_vfiprintf_r+0xbf0>
   151c0:	04010613          	add	a2,sp,64
   151c4:	00090593          	mv	a1,s2
   151c8:	000a0513          	mv	a0,s4
   151cc:	b34ff0ef          	jal	14500 <__sprint_r.part.0>
   151d0:	ea051063          	bnez	a0,14870 <_vfiprintf_r+0x234>
   151d4:	04412683          	lw	a3,68(sp)
   151d8:	ff0b0b13          	add	s6,s6,-16
   151dc:	04812783          	lw	a5,72(sp)
   151e0:	00048713          	mv	a4,s1
   151e4:	00168593          	add	a1,a3,1
   151e8:	fb644ce3          	blt	s0,s6,151a0 <_vfiprintf_r+0xb64>
   151ec:	000d0e13          	mv	t3,s10
   151f0:	00812303          	lw	t1,8(sp)
   151f4:	000b0d13          	mv	s10,s6
   151f8:	00c12e83          	lw	t4,12(sp)
   151fc:	01412803          	lw	a6,20(sp)
   15200:	01012b03          	lw	s6,16(sp)
   15204:	01a787b3          	add	a5,a5,s10
   15208:	01c72023          	sw	t3,0(a4)
   1520c:	01a72223          	sw	s10,4(a4)
   15210:	04f12423          	sw	a5,72(sp)
   15214:	04b12223          	sw	a1,68(sp)
   15218:	00700693          	li	a3,7
   1521c:	20b6c863          	blt	a3,a1,1542c <_vfiprintf_r+0xdf0>
   15220:	00870713          	add	a4,a4,8
   15224:	00158593          	add	a1,a1,1
   15228:	fd0ff06f          	j	149f8 <_vfiprintf_r+0x3bc>
   1522c:	00100593          	li	a1,1
   15230:	00000693          	li	a3,0
   15234:	00048713          	mv	a4,s1
   15238:	f61ff06f          	j	15198 <_vfiprintf_r+0xb5c>
   1523c:	00100513          	li	a0,1
   15240:	00000693          	li	a3,0
   15244:	00048713          	mv	a4,s1
   15248:	e45ff06f          	j	1508c <_vfiprintf_r+0xa50>
   1524c:	04078a63          	beqz	a5,152a0 <_vfiprintf_r+0xc64>
   15250:	04010613          	add	a2,sp,64
   15254:	00090593          	mv	a1,s2
   15258:	000a0513          	mv	a0,s4
   1525c:	03012223          	sw	a6,36(sp)
   15260:	01d12a23          	sw	t4,20(sp)
   15264:	00512823          	sw	t0,16(sp)
   15268:	01f12623          	sw	t6,12(sp)
   1526c:	00612423          	sw	t1,8(sp)
   15270:	a90ff0ef          	jal	14500 <__sprint_r.part.0>
   15274:	de051e63          	bnez	a0,14870 <_vfiprintf_r+0x234>
   15278:	04412683          	lw	a3,68(sp)
   1527c:	04812783          	lw	a5,72(sp)
   15280:	02412803          	lw	a6,36(sp)
   15284:	01412e83          	lw	t4,20(sp)
   15288:	01012283          	lw	t0,16(sp)
   1528c:	00c12f83          	lw	t6,12(sp)
   15290:	00812303          	lw	t1,8(sp)
   15294:	00048713          	mv	a4,s1
   15298:	00168593          	add	a1,a3,1
   1529c:	edcff06f          	j	14978 <_vfiprintf_r+0x33c>
   152a0:	3c0f8463          	beqz	t6,15668 <_vfiprintf_r+0x102c>
   152a4:	03c10793          	add	a5,sp,60
   152a8:	04f12623          	sw	a5,76(sp)
   152ac:	00200793          	li	a5,2
   152b0:	04f12823          	sw	a5,80(sp)
   152b4:	00100593          	li	a1,1
   152b8:	00048713          	mv	a4,s1
   152bc:	00058693          	mv	a3,a1
   152c0:	00870713          	add	a4,a4,8
   152c4:	00158593          	add	a1,a1,1
   152c8:	f20ff06f          	j	149e8 <_vfiprintf_r+0x3ac>
   152cc:	00200693          	li	a3,2
   152d0:	00060313          	mv	t1,a2
   152d4:	b2068ae3          	beqz	a3,14e08 <_vfiprintf_r+0x7cc>
   152d8:	00412503          	lw	a0,4(sp)
   152dc:	0f010b93          	add	s7,sp,240
   152e0:	00f7f693          	and	a3,a5,15
   152e4:	00d506b3          	add	a3,a0,a3
   152e8:	0006c603          	lbu	a2,0(a3)
   152ec:	0047d793          	srl	a5,a5,0x4
   152f0:	01c59693          	sll	a3,a1,0x1c
   152f4:	00f6e7b3          	or	a5,a3,a5
   152f8:	0045d593          	srl	a1,a1,0x4
   152fc:	fecb8fa3          	sb	a2,-1(s7)
   15300:	00b7e6b3          	or	a3,a5,a1
   15304:	fffb8b93          	add	s7,s7,-1
   15308:	fc069ce3          	bnez	a3,152e0 <_vfiprintf_r+0xca4>
   1530c:	0f010793          	add	a5,sp,240
   15310:	41778eb3          	sub	t4,a5,s7
   15314:	000d0d93          	mv	s11,s10
   15318:	a7dd5ee3          	bge	s10,t4,14d94 <_vfiprintf_r+0x758>
   1531c:	000e8d93          	mv	s11,t4
   15320:	a75ff06f          	j	14d94 <_vfiprintf_r+0x758>
   15324:	01000593          	li	a1,16
   15328:	5b35d063          	bge	a1,s3,158c8 <_vfiprintf_r+0x128c>
   1532c:	00022e37          	lui	t3,0x22
   15330:	4d0e0e13          	add	t3,t3,1232 # 224d0 <blanks.1>
   15334:	03612223          	sw	s6,36(sp)
   15338:	01000f13          	li	t5,16
   1533c:	00700393          	li	t2,7
   15340:	00612423          	sw	t1,8(sp)
   15344:	01f12623          	sw	t6,12(sp)
   15348:	00512823          	sw	t0,16(sp)
   1534c:	01d12a23          	sw	t4,20(sp)
   15350:	03012423          	sw	a6,40(sp)
   15354:	000e0b13          	mv	s6,t3
   15358:	01c0006f          	j	15374 <_vfiprintf_r+0xd38>
   1535c:	00268513          	add	a0,a3,2
   15360:	00870713          	add	a4,a4,8
   15364:	00060693          	mv	a3,a2
   15368:	ff098993          	add	s3,s3,-16
   1536c:	053f5c63          	bge	t5,s3,153c4 <_vfiprintf_r+0xd88>
   15370:	00168613          	add	a2,a3,1
   15374:	01078793          	add	a5,a5,16
   15378:	01672023          	sw	s6,0(a4)
   1537c:	01e72223          	sw	t5,4(a4)
   15380:	04f12423          	sw	a5,72(sp)
   15384:	04c12223          	sw	a2,68(sp)
   15388:	fcc3dae3          	bge	t2,a2,1535c <_vfiprintf_r+0xd20>
   1538c:	08078063          	beqz	a5,1540c <_vfiprintf_r+0xdd0>
   15390:	04010613          	add	a2,sp,64
   15394:	00090593          	mv	a1,s2
   15398:	000a0513          	mv	a0,s4
   1539c:	964ff0ef          	jal	14500 <__sprint_r.part.0>
   153a0:	cc051863          	bnez	a0,14870 <_vfiprintf_r+0x234>
   153a4:	04412683          	lw	a3,68(sp)
   153a8:	01000f13          	li	t5,16
   153ac:	ff098993          	add	s3,s3,-16
   153b0:	04812783          	lw	a5,72(sp)
   153b4:	00048713          	mv	a4,s1
   153b8:	00168513          	add	a0,a3,1
   153bc:	00700393          	li	t2,7
   153c0:	fb3f48e3          	blt	t5,s3,15370 <_vfiprintf_r+0xd34>
   153c4:	000b0e13          	mv	t3,s6
   153c8:	00812303          	lw	t1,8(sp)
   153cc:	00c12f83          	lw	t6,12(sp)
   153d0:	01012283          	lw	t0,16(sp)
   153d4:	01412e83          	lw	t4,20(sp)
   153d8:	02812803          	lw	a6,40(sp)
   153dc:	02412b03          	lw	s6,36(sp)
   153e0:	013787b3          	add	a5,a5,s3
   153e4:	01c72023          	sw	t3,0(a4)
   153e8:	01372223          	sw	s3,4(a4)
   153ec:	04f12423          	sw	a5,72(sp)
   153f0:	04a12223          	sw	a0,68(sp)
   153f4:	00700693          	li	a3,7
   153f8:	12a6c063          	blt	a3,a0,15518 <_vfiprintf_r+0xedc>
   153fc:	00870713          	add	a4,a4,8
   15400:	00150593          	add	a1,a0,1
   15404:	00050693          	mv	a3,a0
   15408:	d38ff06f          	j	14940 <_vfiprintf_r+0x304>
   1540c:	00000693          	li	a3,0
   15410:	00100513          	li	a0,1
   15414:	00048713          	mv	a4,s1
   15418:	f51ff06f          	j	15368 <_vfiprintf_r+0xd2c>
   1541c:	01bb5463          	bge	s6,s11,15424 <_vfiprintf_r+0xde8>
   15420:	000d8b13          	mv	s6,s11
   15424:	016c8cb3          	add	s9,s9,s6
   15428:	e3cff06f          	j	14a64 <_vfiprintf_r+0x428>
   1542c:	be0784e3          	beqz	a5,15014 <_vfiprintf_r+0x9d8>
   15430:	04010613          	add	a2,sp,64
   15434:	00090593          	mv	a1,s2
   15438:	000a0513          	mv	a0,s4
   1543c:	01012823          	sw	a6,16(sp)
   15440:	01d12623          	sw	t4,12(sp)
   15444:	00612423          	sw	t1,8(sp)
   15448:	8b8ff0ef          	jal	14500 <__sprint_r.part.0>
   1544c:	c2051263          	bnez	a0,14870 <_vfiprintf_r+0x234>
   15450:	04412583          	lw	a1,68(sp)
   15454:	04812783          	lw	a5,72(sp)
   15458:	01012803          	lw	a6,16(sp)
   1545c:	00c12e83          	lw	t4,12(sp)
   15460:	00812303          	lw	t1,8(sp)
   15464:	00048713          	mv	a4,s1
   15468:	00158593          	add	a1,a1,1
   1546c:	d8cff06f          	j	149f8 <_vfiprintf_r+0x3bc>
   15470:	04012223          	sw	zero,68(sp)
   15474:	00048713          	mv	a4,s1
   15478:	b2cff06f          	j	147a4 <_vfiprintf_r+0x168>
   1547c:	20037693          	and	a3,t1,512
   15480:	40069a63          	bnez	a3,15894 <_vfiprintf_r+0x1258>
   15484:	41f7dd93          	sra	s11,a5,0x1f
   15488:	00078993          	mv	s3,a5
   1548c:	000d8693          	mv	a3,s11
   15490:	ff8ff06f          	j	14c88 <_vfiprintf_r+0x64c>
   15494:	010ef693          	and	a3,t4,16
   15498:	00082783          	lw	a5,0(a6)
   1549c:	00480813          	add	a6,a6,4
   154a0:	02069263          	bnez	a3,154c4 <_vfiprintf_r+0xe88>
   154a4:	040ef693          	and	a3,t4,64
   154a8:	00068a63          	beqz	a3,154bc <_vfiprintf_r+0xe80>
   154ac:	01079993          	sll	s3,a5,0x10
   154b0:	0109d993          	srl	s3,s3,0x10
   154b4:	00000d93          	li	s11,0
   154b8:	851ff06f          	j	14d08 <_vfiprintf_r+0x6cc>
   154bc:	200ef693          	and	a3,t4,512
   154c0:	3e069463          	bnez	a3,158a8 <_vfiprintf_r+0x126c>
   154c4:	00078993          	mv	s3,a5
   154c8:	00000d93          	li	s11,0
   154cc:	83dff06f          	j	14d08 <_vfiprintf_r+0x6cc>
   154d0:	0106f613          	and	a2,a3,16
   154d4:	00082783          	lw	a5,0(a6)
   154d8:	00480813          	add	a6,a6,4
   154dc:	02061263          	bnez	a2,15500 <_vfiprintf_r+0xec4>
   154e0:	0406f613          	and	a2,a3,64
   154e4:	00060a63          	beqz	a2,154f8 <_vfiprintf_r+0xebc>
   154e8:	01079793          	sll	a5,a5,0x10
   154ec:	0107d793          	srl	a5,a5,0x10
   154f0:	00000593          	li	a1,0
   154f4:	a1dff06f          	j	14f10 <_vfiprintf_r+0x8d4>
   154f8:	2006f613          	and	a2,a3,512
   154fc:	38061663          	bnez	a2,15888 <_vfiprintf_r+0x124c>
   15500:	00000593          	li	a1,0
   15504:	a0dff06f          	j	14f10 <_vfiprintf_r+0x8d4>
   15508:	00100593          	li	a1,1
   1550c:	00000693          	li	a3,0
   15510:	00048713          	mv	a4,s1
   15514:	cd4ff06f          	j	149e8 <_vfiprintf_r+0x3ac>
   15518:	24078263          	beqz	a5,1575c <_vfiprintf_r+0x1120>
   1551c:	04010613          	add	a2,sp,64
   15520:	00090593          	mv	a1,s2
   15524:	000a0513          	mv	a0,s4
   15528:	03012223          	sw	a6,36(sp)
   1552c:	01d12a23          	sw	t4,20(sp)
   15530:	00512823          	sw	t0,16(sp)
   15534:	01f12623          	sw	t6,12(sp)
   15538:	00612423          	sw	t1,8(sp)
   1553c:	fc5fe0ef          	jal	14500 <__sprint_r.part.0>
   15540:	b2051863          	bnez	a0,14870 <_vfiprintf_r+0x234>
   15544:	04412683          	lw	a3,68(sp)
   15548:	04812783          	lw	a5,72(sp)
   1554c:	02412803          	lw	a6,36(sp)
   15550:	01412e83          	lw	t4,20(sp)
   15554:	01012283          	lw	t0,16(sp)
   15558:	00c12f83          	lw	t6,12(sp)
   1555c:	00812303          	lw	t1,8(sp)
   15560:	00048713          	mv	a4,s1
   15564:	00168593          	add	a1,a3,1
   15568:	bd8ff06f          	j	14940 <_vfiprintf_r+0x304>
   1556c:	40037793          	and	a5,t1,1024
   15570:	00000693          	li	a3,0
   15574:	0f010e93          	add	t4,sp,240
   15578:	01612623          	sw	s6,12(sp)
   1557c:	01a12823          	sw	s10,16(sp)
   15580:	03912223          	sw	s9,36(sp)
   15584:	03212423          	sw	s2,40(sp)
   15588:	01812d03          	lw	s10,24(sp)
   1558c:	00612423          	sw	t1,8(sp)
   15590:	00068b13          	mv	s6,a3
   15594:	00e12a23          	sw	a4,20(sp)
   15598:	00078c93          	mv	s9,a5
   1559c:	000e8913          	mv	s2,t4
   155a0:	03012623          	sw	a6,44(sp)
   155a4:	0280006f          	j	155cc <_vfiprintf_r+0xf90>
   155a8:	00a00613          	li	a2,10
   155ac:	00000693          	li	a3,0
   155b0:	00098513          	mv	a0,s3
   155b4:	000d8593          	mv	a1,s11
   155b8:	431060ef          	jal	1c1e8 <__udivdi3>
   155bc:	280d8c63          	beqz	s11,15854 <_vfiprintf_r+0x1218>
   155c0:	00050993          	mv	s3,a0
   155c4:	00058d93          	mv	s11,a1
   155c8:	000b8913          	mv	s2,s7
   155cc:	00a00613          	li	a2,10
   155d0:	00000693          	li	a3,0
   155d4:	00098513          	mv	a0,s3
   155d8:	000d8593          	mv	a1,s11
   155dc:	1d0070ef          	jal	1c7ac <__umoddi3>
   155e0:	03050513          	add	a0,a0,48
   155e4:	fea90fa3          	sb	a0,-1(s2)
   155e8:	fff90b93          	add	s7,s2,-1
   155ec:	001b0b13          	add	s6,s6,1
   155f0:	fa0c8ce3          	beqz	s9,155a8 <_vfiprintf_r+0xf6c>
   155f4:	000d4783          	lbu	a5,0(s10)
   155f8:	fb6798e3          	bne	a5,s6,155a8 <_vfiprintf_r+0xf6c>
   155fc:	0ff00793          	li	a5,255
   15600:	fafb04e3          	beq	s6,a5,155a8 <_vfiprintf_r+0xf6c>
   15604:	160d9e63          	bnez	s11,15780 <_vfiprintf_r+0x1144>
   15608:	00900793          	li	a5,9
   1560c:	1737ea63          	bltu	a5,s3,15780 <_vfiprintf_r+0x1144>
   15610:	01a12c23          	sw	s10,24(sp)
   15614:	00812303          	lw	t1,8(sp)
   15618:	00c12b03          	lw	s6,12(sp)
   1561c:	01012d03          	lw	s10,16(sp)
   15620:	01412703          	lw	a4,20(sp)
   15624:	02412c83          	lw	s9,36(sp)
   15628:	02812903          	lw	s2,40(sp)
   1562c:	02c12803          	lw	a6,44(sp)
   15630:	cddff06f          	j	1530c <_vfiprintf_r+0xcd0>
   15634:	00000d93          	li	s11,0
   15638:	0f010b93          	add	s7,sp,240
   1563c:	f58ff06f          	j	14d94 <_vfiprintf_r+0x758>
   15640:	00870713          	add	a4,a4,8
   15644:	00150593          	add	a1,a0,1
   15648:	00050693          	mv	a3,a0
   1564c:	ba4ff06f          	j	149f0 <_vfiprintf_r+0x3b4>
   15650:	00082783          	lw	a5,0(a6)
   15654:	41fcd693          	sra	a3,s9,0x1f
   15658:	00480813          	add	a6,a6,4
   1565c:	0197a023          	sw	s9,0(a5)
   15660:	00d7a223          	sw	a3,4(a5)
   15664:	8c8ff06f          	j	1472c <_vfiprintf_r+0xf0>
   15668:	00000693          	li	a3,0
   1566c:	00100593          	li	a1,1
   15670:	00048713          	mv	a4,s1
   15674:	b74ff06f          	j	149e8 <_vfiprintf_r+0x3ac>
   15678:	000e8d93          	mv	s11,t4
   1567c:	00050b93          	mv	s7,a0
   15680:	f14ff06f          	j	14d94 <_vfiprintf_r+0x758>
   15684:	fff00d13          	li	s10,-1
   15688:	00058c13          	mv	s8,a1
   1568c:	950ff06f          	j	147dc <_vfiprintf_r+0x1a0>
   15690:	000d8713          	mv	a4,s11
   15694:	000b8e93          	mv	t4,s7
   15698:	e54ff06f          	j	14cec <_vfiprintf_r+0x6b0>
   1569c:	000227b7          	lui	a5,0x22
   156a0:	04878793          	add	a5,a5,72 # 22048 <__clzsi2+0x11c>
   156a4:	000b8313          	mv	t1,s7
   156a8:	00f12223          	sw	a5,4(sp)
   156ac:	02037793          	and	a5,t1,32
   156b0:	000d8713          	mv	a4,s11
   156b4:	06078463          	beqz	a5,1571c <_vfiprintf_r+0x10e0>
   156b8:	00780813          	add	a6,a6,7
   156bc:	ff887813          	and	a6,a6,-8
   156c0:	00082783          	lw	a5,0(a6)
   156c4:	00482583          	lw	a1,4(a6)
   156c8:	00880813          	add	a6,a6,8
   156cc:	00137693          	and	a3,t1,1
   156d0:	00068e63          	beqz	a3,156ec <_vfiprintf_r+0x10b0>
   156d4:	00b7e6b3          	or	a3,a5,a1
   156d8:	00068a63          	beqz	a3,156ec <_vfiprintf_r+0x10b0>
   156dc:	03000693          	li	a3,48
   156e0:	02d10e23          	sb	a3,60(sp)
   156e4:	02c10ea3          	sb	a2,61(sp)
   156e8:	00236313          	or	t1,t1,2
   156ec:	bff37313          	and	t1,t1,-1025
   156f0:	edcff06f          	j	14dcc <_vfiprintf_r+0x790>
   156f4:	000d8713          	mv	a4,s11
   156f8:	000b8693          	mv	a3,s7
   156fc:	ff8ff06f          	j	14ef4 <_vfiprintf_r+0x8b8>
   15700:	000227b7          	lui	a5,0x22
   15704:	03478793          	add	a5,a5,52 # 22034 <__clzsi2+0x108>
   15708:	000b8313          	mv	t1,s7
   1570c:	00f12223          	sw	a5,4(sp)
   15710:	02037793          	and	a5,t1,32
   15714:	000d8713          	mv	a4,s11
   15718:	fa0790e3          	bnez	a5,156b8 <_vfiprintf_r+0x107c>
   1571c:	01037693          	and	a3,t1,16
   15720:	00082783          	lw	a5,0(a6)
   15724:	00480813          	add	a6,a6,4
   15728:	0a069063          	bnez	a3,157c8 <_vfiprintf_r+0x118c>
   1572c:	04037693          	and	a3,t1,64
   15730:	08068863          	beqz	a3,157c0 <_vfiprintf_r+0x1184>
   15734:	01079793          	sll	a5,a5,0x10
   15738:	0107d793          	srl	a5,a5,0x10
   1573c:	00000593          	li	a1,0
   15740:	f8dff06f          	j	156cc <_vfiprintf_r+0x1090>
   15744:	000b8513          	mv	a0,s7
   15748:	e78fb0ef          	jal	10dc0 <strlen>
   1574c:	00812303          	lw	t1,8(sp)
   15750:	00c12703          	lw	a4,12(sp)
   15754:	00050e93          	mv	t4,a0
   15758:	ca8ff06f          	j	14c00 <_vfiprintf_r+0x5c4>
   1575c:	03b14703          	lbu	a4,59(sp)
   15760:	10070463          	beqz	a4,15868 <_vfiprintf_r+0x122c>
   15764:	03b10793          	add	a5,sp,59
   15768:	04f12623          	sw	a5,76(sp)
   1576c:	00100793          	li	a5,1
   15770:	04f12823          	sw	a5,80(sp)
   15774:	00100593          	li	a1,1
   15778:	00048713          	mv	a4,s1
   1577c:	9f0ff06f          	j	1496c <_vfiprintf_r+0x330>
   15780:	01c12783          	lw	a5,28(sp)
   15784:	02012583          	lw	a1,32(sp)
   15788:	00000b13          	li	s6,0
   1578c:	40fb8bb3          	sub	s7,s7,a5
   15790:	00078613          	mv	a2,a5
   15794:	000b8513          	mv	a0,s7
   15798:	761000ef          	jal	166f8 <strncpy>
   1579c:	001d4783          	lbu	a5,1(s10)
   157a0:	00a00613          	li	a2,10
   157a4:	00000693          	li	a3,0
   157a8:	00f037b3          	snez	a5,a5
   157ac:	00098513          	mv	a0,s3
   157b0:	000d8593          	mv	a1,s11
   157b4:	00fd0d33          	add	s10,s10,a5
   157b8:	231060ef          	jal	1c1e8 <__udivdi3>
   157bc:	e05ff06f          	j	155c0 <_vfiprintf_r+0xf84>
   157c0:	20037693          	and	a3,t1,512
   157c4:	0e069863          	bnez	a3,158b4 <_vfiprintf_r+0x1278>
   157c8:	00000593          	li	a1,0
   157cc:	f01ff06f          	j	156cc <_vfiprintf_r+0x1090>
   157d0:	00068313          	mv	t1,a3
   157d4:	00000693          	li	a3,0
   157d8:	e2068863          	beqz	a3,14e08 <_vfiprintf_r+0x7cc>
   157dc:	afdff06f          	j	152d8 <_vfiprintf_r+0xc9c>
   157e0:	e2dfa0ef          	jal	1060c <__sinit>
   157e4:	e95fe06f          	j	14678 <_vfiprintf_r+0x3c>
   157e8:	001c4783          	lbu	a5,1(s8)
   157ec:	020beb93          	or	s7,s7,32
   157f0:	001c0c13          	add	s8,s8,1
   157f4:	fe1fe06f          	j	147d4 <_vfiprintf_r+0x198>
   157f8:	001c4783          	lbu	a5,1(s8)
   157fc:	200beb93          	or	s7,s7,512
   15800:	001c0c13          	add	s8,s8,1
   15804:	fd1fe06f          	j	147d4 <_vfiprintf_r+0x198>
   15808:	00082783          	lw	a5,0(a6)
   1580c:	00480813          	add	a6,a6,4
   15810:	0197a023          	sw	s9,0(a5)
   15814:	f19fe06f          	j	1472c <_vfiprintf_r+0xf0>
   15818:	00600793          	li	a5,6
   1581c:	000d0e93          	mv	t4,s10
   15820:	05a7e063          	bltu	a5,s10,15860 <_vfiprintf_r+0x1224>
   15824:	00022bb7          	lui	s7,0x22
   15828:	000e8d93          	mv	s11,t4
   1582c:	00098813          	mv	a6,s3
   15830:	05cb8b93          	add	s7,s7,92 # 2205c <__clzsi2+0x130>
   15834:	8e4ff06f          	j	14918 <_vfiprintf_r+0x2dc>
   15838:	00000793          	li	a5,0
   1583c:	00000593          	li	a1,0
   15840:	a99ff06f          	j	152d8 <_vfiprintf_r+0xc9c>
   15844:	00100593          	li	a1,1
   15848:	00000693          	li	a3,0
   1584c:	00048713          	mv	a4,s1
   15850:	9a0ff06f          	j	149f0 <_vfiprintf_r+0x3b4>
   15854:	00900793          	li	a5,9
   15858:	d737e4e3          	bltu	a5,s3,155c0 <_vfiprintf_r+0xf84>
   1585c:	db5ff06f          	j	15610 <_vfiprintf_r+0xfd4>
   15860:	00600e93          	li	t4,6
   15864:	fc1ff06f          	j	15824 <_vfiprintf_r+0x11e8>
   15868:	00000693          	li	a3,0
   1586c:	00100593          	li	a1,1
   15870:	00048713          	mv	a4,s1
   15874:	904ff06f          	j	14978 <_vfiprintf_r+0x33c>
   15878:	00082783          	lw	a5,0(a6)
   1587c:	00480813          	add	a6,a6,4
   15880:	01979023          	sh	s9,0(a5)
   15884:	ea9fe06f          	j	1472c <_vfiprintf_r+0xf0>
   15888:	0ff7f793          	zext.b	a5,a5
   1588c:	00000593          	li	a1,0
   15890:	e80ff06f          	j	14f10 <_vfiprintf_r+0x8d4>
   15894:	01879993          	sll	s3,a5,0x18
   15898:	4189d993          	sra	s3,s3,0x18
   1589c:	41f9dd93          	sra	s11,s3,0x1f
   158a0:	000d8693          	mv	a3,s11
   158a4:	be4ff06f          	j	14c88 <_vfiprintf_r+0x64c>
   158a8:	0ff7f993          	zext.b	s3,a5
   158ac:	00000d93          	li	s11,0
   158b0:	c58ff06f          	j	14d08 <_vfiprintf_r+0x6cc>
   158b4:	0ff7f793          	zext.b	a5,a5
   158b8:	00000593          	li	a1,0
   158bc:	e11ff06f          	j	156cc <_vfiprintf_r+0x1090>
   158c0:	03000793          	li	a5,48
   158c4:	cb8ff06f          	j	14d7c <_vfiprintf_r+0x740>
   158c8:	00022e37          	lui	t3,0x22
   158cc:	00060513          	mv	a0,a2
   158d0:	4d0e0e13          	add	t3,t3,1232 # 224d0 <blanks.1>
   158d4:	b0dff06f          	j	153e0 <_vfiprintf_r+0xda4>
   158d8:	00022e37          	lui	t3,0x22
   158dc:	00160593          	add	a1,a2,1
   158e0:	4d0e0e13          	add	t3,t3,1232 # 224d0 <blanks.1>
   158e4:	a90ff06f          	j	14b74 <_vfiprintf_r+0x538>
   158e8:	00022e37          	lui	t3,0x22
   158ec:	00058513          	mv	a0,a1
   158f0:	4c0e0e13          	add	t3,t3,1216 # 224c0 <zeroes.0>
   158f4:	809ff06f          	j	150fc <_vfiprintf_r+0xac0>
   158f8:	fff00b13          	li	s6,-1
   158fc:	fa5fe06f          	j	148a0 <_vfiprintf_r+0x264>
   15900:	00082d03          	lw	s10,0(a6)
   15904:	00480813          	add	a6,a6,4
   15908:	000d5463          	bgez	s10,15910 <_vfiprintf_r+0x12d4>
   1590c:	fff00d13          	li	s10,-1
   15910:	001c4783          	lbu	a5,1(s8)
   15914:	00058c13          	mv	s8,a1
   15918:	ebdfe06f          	j	147d4 <_vfiprintf_r+0x198>

0001591c <vfiprintf>:
   1591c:	00050793          	mv	a5,a0
   15920:	f101a503          	lw	a0,-240(gp) # 23820 <_impure_ptr>
   15924:	00060693          	mv	a3,a2
   15928:	00058613          	mv	a2,a1
   1592c:	00078593          	mv	a1,a5
   15930:	d0dfe06f          	j	1463c <_vfiprintf_r>

00015934 <__sbprintf>:
   15934:	b8010113          	add	sp,sp,-1152
   15938:	00c59783          	lh	a5,12(a1)
   1593c:	00e5d703          	lhu	a4,14(a1)
   15940:	46812c23          	sw	s0,1144(sp)
   15944:	00058413          	mv	s0,a1
   15948:	000105b7          	lui	a1,0x10
   1594c:	ffd58593          	add	a1,a1,-3 # fffd <exit-0xa3>
   15950:	06442e03          	lw	t3,100(s0)
   15954:	01c42303          	lw	t1,28(s0)
   15958:	02442883          	lw	a7,36(s0)
   1595c:	01071713          	sll	a4,a4,0x10
   15960:	00b7f7b3          	and	a5,a5,a1
   15964:	00e7e7b3          	or	a5,a5,a4
   15968:	40000813          	li	a6,1024
   1596c:	00f12a23          	sw	a5,20(sp)
   15970:	00810593          	add	a1,sp,8
   15974:	07010793          	add	a5,sp,112
   15978:	46912a23          	sw	s1,1140(sp)
   1597c:	47212823          	sw	s2,1136(sp)
   15980:	46112e23          	sw	ra,1148(sp)
   15984:	00050913          	mv	s2,a0
   15988:	07c12623          	sw	t3,108(sp)
   1598c:	02612223          	sw	t1,36(sp)
   15990:	03112623          	sw	a7,44(sp)
   15994:	00f12423          	sw	a5,8(sp)
   15998:	00f12c23          	sw	a5,24(sp)
   1599c:	01012823          	sw	a6,16(sp)
   159a0:	01012e23          	sw	a6,28(sp)
   159a4:	02012023          	sw	zero,32(sp)
   159a8:	c95fe0ef          	jal	1463c <_vfiprintf_r>
   159ac:	00050493          	mv	s1,a0
   159b0:	02055c63          	bgez	a0,159e8 <__sbprintf+0xb4>
   159b4:	01415783          	lhu	a5,20(sp)
   159b8:	0407f793          	and	a5,a5,64
   159bc:	00078863          	beqz	a5,159cc <__sbprintf+0x98>
   159c0:	00c45783          	lhu	a5,12(s0)
   159c4:	0407e793          	or	a5,a5,64
   159c8:	00f41623          	sh	a5,12(s0)
   159cc:	47c12083          	lw	ra,1148(sp)
   159d0:	47812403          	lw	s0,1144(sp)
   159d4:	47012903          	lw	s2,1136(sp)
   159d8:	00048513          	mv	a0,s1
   159dc:	47412483          	lw	s1,1140(sp)
   159e0:	48010113          	add	sp,sp,1152
   159e4:	00008067          	ret
   159e8:	00810593          	add	a1,sp,8
   159ec:	00090513          	mv	a0,s2
   159f0:	370000ef          	jal	15d60 <_fflush_r>
   159f4:	fc0500e3          	beqz	a0,159b4 <__sbprintf+0x80>
   159f8:	fff00493          	li	s1,-1
   159fc:	fb9ff06f          	j	159b4 <__sbprintf+0x80>

00015a00 <_fclose_r>:
   15a00:	ff010113          	add	sp,sp,-16
   15a04:	00112623          	sw	ra,12(sp)
   15a08:	01212023          	sw	s2,0(sp)
   15a0c:	02058863          	beqz	a1,15a3c <_fclose_r+0x3c>
   15a10:	00812423          	sw	s0,8(sp)
   15a14:	00912223          	sw	s1,4(sp)
   15a18:	00058413          	mv	s0,a1
   15a1c:	00050493          	mv	s1,a0
   15a20:	00050663          	beqz	a0,15a2c <_fclose_r+0x2c>
   15a24:	03452783          	lw	a5,52(a0)
   15a28:	0c078c63          	beqz	a5,15b00 <_fclose_r+0x100>
   15a2c:	00c41783          	lh	a5,12(s0)
   15a30:	02079263          	bnez	a5,15a54 <_fclose_r+0x54>
   15a34:	00812403          	lw	s0,8(sp)
   15a38:	00412483          	lw	s1,4(sp)
   15a3c:	00c12083          	lw	ra,12(sp)
   15a40:	00000913          	li	s2,0
   15a44:	00090513          	mv	a0,s2
   15a48:	00012903          	lw	s2,0(sp)
   15a4c:	01010113          	add	sp,sp,16
   15a50:	00008067          	ret
   15a54:	00040593          	mv	a1,s0
   15a58:	00048513          	mv	a0,s1
   15a5c:	0b8000ef          	jal	15b14 <__sflush_r>
   15a60:	02c42783          	lw	a5,44(s0)
   15a64:	00050913          	mv	s2,a0
   15a68:	00078a63          	beqz	a5,15a7c <_fclose_r+0x7c>
   15a6c:	01c42583          	lw	a1,28(s0)
   15a70:	00048513          	mv	a0,s1
   15a74:	000780e7          	jalr	a5
   15a78:	06054463          	bltz	a0,15ae0 <_fclose_r+0xe0>
   15a7c:	00c45783          	lhu	a5,12(s0)
   15a80:	0807f793          	and	a5,a5,128
   15a84:	06079663          	bnez	a5,15af0 <_fclose_r+0xf0>
   15a88:	03042583          	lw	a1,48(s0)
   15a8c:	00058c63          	beqz	a1,15aa4 <_fclose_r+0xa4>
   15a90:	04040793          	add	a5,s0,64
   15a94:	00f58663          	beq	a1,a5,15aa0 <_fclose_r+0xa0>
   15a98:	00048513          	mv	a0,s1
   15a9c:	e30fb0ef          	jal	110cc <_free_r>
   15aa0:	02042823          	sw	zero,48(s0)
   15aa4:	04442583          	lw	a1,68(s0)
   15aa8:	00058863          	beqz	a1,15ab8 <_fclose_r+0xb8>
   15aac:	00048513          	mv	a0,s1
   15ab0:	e1cfb0ef          	jal	110cc <_free_r>
   15ab4:	04042223          	sw	zero,68(s0)
   15ab8:	b79fa0ef          	jal	10630 <__sfp_lock_acquire>
   15abc:	00041623          	sh	zero,12(s0)
   15ac0:	b75fa0ef          	jal	10634 <__sfp_lock_release>
   15ac4:	00c12083          	lw	ra,12(sp)
   15ac8:	00812403          	lw	s0,8(sp)
   15acc:	00412483          	lw	s1,4(sp)
   15ad0:	00090513          	mv	a0,s2
   15ad4:	00012903          	lw	s2,0(sp)
   15ad8:	01010113          	add	sp,sp,16
   15adc:	00008067          	ret
   15ae0:	00c45783          	lhu	a5,12(s0)
   15ae4:	fff00913          	li	s2,-1
   15ae8:	0807f793          	and	a5,a5,128
   15aec:	f8078ee3          	beqz	a5,15a88 <_fclose_r+0x88>
   15af0:	01042583          	lw	a1,16(s0)
   15af4:	00048513          	mv	a0,s1
   15af8:	dd4fb0ef          	jal	110cc <_free_r>
   15afc:	f8dff06f          	j	15a88 <_fclose_r+0x88>
   15b00:	b0dfa0ef          	jal	1060c <__sinit>
   15b04:	f29ff06f          	j	15a2c <_fclose_r+0x2c>

00015b08 <fclose>:
   15b08:	00050593          	mv	a1,a0
   15b0c:	f101a503          	lw	a0,-240(gp) # 23820 <_impure_ptr>
   15b10:	ef1ff06f          	j	15a00 <_fclose_r>

00015b14 <__sflush_r>:
   15b14:	00c59703          	lh	a4,12(a1)
   15b18:	fe010113          	add	sp,sp,-32
   15b1c:	00812c23          	sw	s0,24(sp)
   15b20:	01312623          	sw	s3,12(sp)
   15b24:	00112e23          	sw	ra,28(sp)
   15b28:	00877793          	and	a5,a4,8
   15b2c:	00058413          	mv	s0,a1
   15b30:	00050993          	mv	s3,a0
   15b34:	12079063          	bnez	a5,15c54 <__sflush_r+0x140>
   15b38:	000017b7          	lui	a5,0x1
   15b3c:	80078793          	add	a5,a5,-2048 # 800 <exit-0xf8a0>
   15b40:	0045a683          	lw	a3,4(a1)
   15b44:	00f767b3          	or	a5,a4,a5
   15b48:	00f59623          	sh	a5,12(a1)
   15b4c:	18d05263          	blez	a3,15cd0 <__sflush_r+0x1bc>
   15b50:	02842803          	lw	a6,40(s0)
   15b54:	0e080463          	beqz	a6,15c3c <__sflush_r+0x128>
   15b58:	00912a23          	sw	s1,20(sp)
   15b5c:	01371693          	sll	a3,a4,0x13
   15b60:	0009a483          	lw	s1,0(s3)
   15b64:	0009a023          	sw	zero,0(s3)
   15b68:	01c42583          	lw	a1,28(s0)
   15b6c:	1606ce63          	bltz	a3,15ce8 <__sflush_r+0x1d4>
   15b70:	00000613          	li	a2,0
   15b74:	00100693          	li	a3,1
   15b78:	00098513          	mv	a0,s3
   15b7c:	000800e7          	jalr	a6
   15b80:	fff00793          	li	a5,-1
   15b84:	00050613          	mv	a2,a0
   15b88:	1af50463          	beq	a0,a5,15d30 <__sflush_r+0x21c>
   15b8c:	00c41783          	lh	a5,12(s0)
   15b90:	02842803          	lw	a6,40(s0)
   15b94:	01c42583          	lw	a1,28(s0)
   15b98:	0047f793          	and	a5,a5,4
   15b9c:	00078e63          	beqz	a5,15bb8 <__sflush_r+0xa4>
   15ba0:	00442703          	lw	a4,4(s0)
   15ba4:	03042783          	lw	a5,48(s0)
   15ba8:	40e60633          	sub	a2,a2,a4
   15bac:	00078663          	beqz	a5,15bb8 <__sflush_r+0xa4>
   15bb0:	03c42783          	lw	a5,60(s0)
   15bb4:	40f60633          	sub	a2,a2,a5
   15bb8:	00000693          	li	a3,0
   15bbc:	00098513          	mv	a0,s3
   15bc0:	000800e7          	jalr	a6
   15bc4:	fff00793          	li	a5,-1
   15bc8:	12f51463          	bne	a0,a5,15cf0 <__sflush_r+0x1dc>
   15bcc:	0009a683          	lw	a3,0(s3)
   15bd0:	01d00793          	li	a5,29
   15bd4:	00c41703          	lh	a4,12(s0)
   15bd8:	16d7ea63          	bltu	a5,a3,15d4c <__sflush_r+0x238>
   15bdc:	204007b7          	lui	a5,0x20400
   15be0:	00178793          	add	a5,a5,1 # 20400001 <__BSS_END__+0x203dc429>
   15be4:	00d7d7b3          	srl	a5,a5,a3
   15be8:	0017f793          	and	a5,a5,1
   15bec:	16078063          	beqz	a5,15d4c <__sflush_r+0x238>
   15bf0:	01042603          	lw	a2,16(s0)
   15bf4:	fffff7b7          	lui	a5,0xfffff
   15bf8:	7ff78793          	add	a5,a5,2047 # fffff7ff <__BSS_END__+0xfffdbc27>
   15bfc:	00f777b3          	and	a5,a4,a5
   15c00:	00f41623          	sh	a5,12(s0)
   15c04:	00042223          	sw	zero,4(s0)
   15c08:	00c42023          	sw	a2,0(s0)
   15c0c:	01371793          	sll	a5,a4,0x13
   15c10:	0007d463          	bgez	a5,15c18 <__sflush_r+0x104>
   15c14:	10068263          	beqz	a3,15d18 <__sflush_r+0x204>
   15c18:	03042583          	lw	a1,48(s0)
   15c1c:	0099a023          	sw	s1,0(s3)
   15c20:	10058463          	beqz	a1,15d28 <__sflush_r+0x214>
   15c24:	04040793          	add	a5,s0,64
   15c28:	00f58663          	beq	a1,a5,15c34 <__sflush_r+0x120>
   15c2c:	00098513          	mv	a0,s3
   15c30:	c9cfb0ef          	jal	110cc <_free_r>
   15c34:	01412483          	lw	s1,20(sp)
   15c38:	02042823          	sw	zero,48(s0)
   15c3c:	00000513          	li	a0,0
   15c40:	01c12083          	lw	ra,28(sp)
   15c44:	01812403          	lw	s0,24(sp)
   15c48:	00c12983          	lw	s3,12(sp)
   15c4c:	02010113          	add	sp,sp,32
   15c50:	00008067          	ret
   15c54:	01212823          	sw	s2,16(sp)
   15c58:	0105a903          	lw	s2,16(a1)
   15c5c:	08090263          	beqz	s2,15ce0 <__sflush_r+0x1cc>
   15c60:	00912a23          	sw	s1,20(sp)
   15c64:	0005a483          	lw	s1,0(a1)
   15c68:	00377713          	and	a4,a4,3
   15c6c:	0125a023          	sw	s2,0(a1)
   15c70:	412484b3          	sub	s1,s1,s2
   15c74:	00000793          	li	a5,0
   15c78:	00071463          	bnez	a4,15c80 <__sflush_r+0x16c>
   15c7c:	0145a783          	lw	a5,20(a1)
   15c80:	00f42423          	sw	a5,8(s0)
   15c84:	00904863          	bgtz	s1,15c94 <__sflush_r+0x180>
   15c88:	0540006f          	j	15cdc <__sflush_r+0x1c8>
   15c8c:	00a90933          	add	s2,s2,a0
   15c90:	04905663          	blez	s1,15cdc <__sflush_r+0x1c8>
   15c94:	02442783          	lw	a5,36(s0)
   15c98:	01c42583          	lw	a1,28(s0)
   15c9c:	00048693          	mv	a3,s1
   15ca0:	00090613          	mv	a2,s2
   15ca4:	00098513          	mv	a0,s3
   15ca8:	000780e7          	jalr	a5
   15cac:	40a484b3          	sub	s1,s1,a0
   15cb0:	fca04ee3          	bgtz	a0,15c8c <__sflush_r+0x178>
   15cb4:	00c41703          	lh	a4,12(s0)
   15cb8:	01012903          	lw	s2,16(sp)
   15cbc:	04076713          	or	a4,a4,64
   15cc0:	01412483          	lw	s1,20(sp)
   15cc4:	00e41623          	sh	a4,12(s0)
   15cc8:	fff00513          	li	a0,-1
   15ccc:	f75ff06f          	j	15c40 <__sflush_r+0x12c>
   15cd0:	03c5a683          	lw	a3,60(a1)
   15cd4:	e6d04ee3          	bgtz	a3,15b50 <__sflush_r+0x3c>
   15cd8:	f65ff06f          	j	15c3c <__sflush_r+0x128>
   15cdc:	01412483          	lw	s1,20(sp)
   15ce0:	01012903          	lw	s2,16(sp)
   15ce4:	f59ff06f          	j	15c3c <__sflush_r+0x128>
   15ce8:	05042603          	lw	a2,80(s0)
   15cec:	eadff06f          	j	15b98 <__sflush_r+0x84>
   15cf0:	00c41703          	lh	a4,12(s0)
   15cf4:	01042683          	lw	a3,16(s0)
   15cf8:	fffff7b7          	lui	a5,0xfffff
   15cfc:	7ff78793          	add	a5,a5,2047 # fffff7ff <__BSS_END__+0xfffdbc27>
   15d00:	00f777b3          	and	a5,a4,a5
   15d04:	00f41623          	sh	a5,12(s0)
   15d08:	00042223          	sw	zero,4(s0)
   15d0c:	00d42023          	sw	a3,0(s0)
   15d10:	01371793          	sll	a5,a4,0x13
   15d14:	f007d2e3          	bgez	a5,15c18 <__sflush_r+0x104>
   15d18:	03042583          	lw	a1,48(s0)
   15d1c:	04a42823          	sw	a0,80(s0)
   15d20:	0099a023          	sw	s1,0(s3)
   15d24:	f00590e3          	bnez	a1,15c24 <__sflush_r+0x110>
   15d28:	01412483          	lw	s1,20(sp)
   15d2c:	f11ff06f          	j	15c3c <__sflush_r+0x128>
   15d30:	0009a783          	lw	a5,0(s3)
   15d34:	e4078ce3          	beqz	a5,15b8c <__sflush_r+0x78>
   15d38:	01d00713          	li	a4,29
   15d3c:	00e78c63          	beq	a5,a4,15d54 <__sflush_r+0x240>
   15d40:	01600713          	li	a4,22
   15d44:	00e78863          	beq	a5,a4,15d54 <__sflush_r+0x240>
   15d48:	00c41703          	lh	a4,12(s0)
   15d4c:	04076713          	or	a4,a4,64
   15d50:	f71ff06f          	j	15cc0 <__sflush_r+0x1ac>
   15d54:	0099a023          	sw	s1,0(s3)
   15d58:	01412483          	lw	s1,20(sp)
   15d5c:	ee1ff06f          	j	15c3c <__sflush_r+0x128>

00015d60 <_fflush_r>:
   15d60:	fe010113          	add	sp,sp,-32
   15d64:	00812c23          	sw	s0,24(sp)
   15d68:	00112e23          	sw	ra,28(sp)
   15d6c:	00050413          	mv	s0,a0
   15d70:	00050663          	beqz	a0,15d7c <_fflush_r+0x1c>
   15d74:	03452783          	lw	a5,52(a0)
   15d78:	02078a63          	beqz	a5,15dac <_fflush_r+0x4c>
   15d7c:	00c59783          	lh	a5,12(a1)
   15d80:	00079c63          	bnez	a5,15d98 <_fflush_r+0x38>
   15d84:	01c12083          	lw	ra,28(sp)
   15d88:	01812403          	lw	s0,24(sp)
   15d8c:	00000513          	li	a0,0
   15d90:	02010113          	add	sp,sp,32
   15d94:	00008067          	ret
   15d98:	00040513          	mv	a0,s0
   15d9c:	01812403          	lw	s0,24(sp)
   15da0:	01c12083          	lw	ra,28(sp)
   15da4:	02010113          	add	sp,sp,32
   15da8:	d6dff06f          	j	15b14 <__sflush_r>
   15dac:	00b12623          	sw	a1,12(sp)
   15db0:	85dfa0ef          	jal	1060c <__sinit>
   15db4:	00c12583          	lw	a1,12(sp)
   15db8:	fc5ff06f          	j	15d7c <_fflush_r+0x1c>

00015dbc <fflush>:
   15dbc:	06050063          	beqz	a0,15e1c <fflush+0x60>
   15dc0:	00050593          	mv	a1,a0
   15dc4:	f101a503          	lw	a0,-240(gp) # 23820 <_impure_ptr>
   15dc8:	00050663          	beqz	a0,15dd4 <fflush+0x18>
   15dcc:	03452783          	lw	a5,52(a0)
   15dd0:	00078c63          	beqz	a5,15de8 <fflush+0x2c>
   15dd4:	00c59783          	lh	a5,12(a1)
   15dd8:	00079663          	bnez	a5,15de4 <fflush+0x28>
   15ddc:	00000513          	li	a0,0
   15de0:	00008067          	ret
   15de4:	d31ff06f          	j	15b14 <__sflush_r>
   15de8:	fe010113          	add	sp,sp,-32
   15dec:	00b12623          	sw	a1,12(sp)
   15df0:	00a12423          	sw	a0,8(sp)
   15df4:	00112e23          	sw	ra,28(sp)
   15df8:	815fa0ef          	jal	1060c <__sinit>
   15dfc:	00c12583          	lw	a1,12(sp)
   15e00:	00812503          	lw	a0,8(sp)
   15e04:	00c59783          	lh	a5,12(a1)
   15e08:	02079863          	bnez	a5,15e38 <fflush+0x7c>
   15e0c:	01c12083          	lw	ra,28(sp)
   15e10:	00000513          	li	a0,0
   15e14:	02010113          	add	sp,sp,32
   15e18:	00008067          	ret
   15e1c:	00023637          	lui	a2,0x23
   15e20:	000165b7          	lui	a1,0x16
   15e24:	00023537          	lui	a0,0x23
   15e28:	11060613          	add	a2,a2,272 # 23110 <__sglue>
   15e2c:	d6058593          	add	a1,a1,-672 # 15d60 <_fflush_r>
   15e30:	12050513          	add	a0,a0,288 # 23120 <_impure_data>
   15e34:	835fa06f          	j	10668 <_fwalk_sglue>
   15e38:	01c12083          	lw	ra,28(sp)
   15e3c:	02010113          	add	sp,sp,32
   15e40:	cd5ff06f          	j	15b14 <__sflush_r>

00015e44 <__sfvwrite_r>:
   15e44:	00862783          	lw	a5,8(a2)
   15e48:	2c078463          	beqz	a5,16110 <__sfvwrite_r+0x2cc>
   15e4c:	00c59683          	lh	a3,12(a1)
   15e50:	fd010113          	add	sp,sp,-48
   15e54:	02812423          	sw	s0,40(sp)
   15e58:	01412c23          	sw	s4,24(sp)
   15e5c:	01612823          	sw	s6,16(sp)
   15e60:	02112623          	sw	ra,44(sp)
   15e64:	0086f793          	and	a5,a3,8
   15e68:	00060b13          	mv	s6,a2
   15e6c:	00050a13          	mv	s4,a0
   15e70:	00058413          	mv	s0,a1
   15e74:	08078e63          	beqz	a5,15f10 <__sfvwrite_r+0xcc>
   15e78:	0105a783          	lw	a5,16(a1)
   15e7c:	08078a63          	beqz	a5,15f10 <__sfvwrite_r+0xcc>
   15e80:	02912223          	sw	s1,36(sp)
   15e84:	03212023          	sw	s2,32(sp)
   15e88:	01312e23          	sw	s3,28(sp)
   15e8c:	01512a23          	sw	s5,20(sp)
   15e90:	0026f793          	and	a5,a3,2
   15e94:	000b2483          	lw	s1,0(s6)
   15e98:	0a078463          	beqz	a5,15f40 <__sfvwrite_r+0xfc>
   15e9c:	02442783          	lw	a5,36(s0)
   15ea0:	01c42583          	lw	a1,28(s0)
   15ea4:	80000ab7          	lui	s5,0x80000
   15ea8:	00000993          	li	s3,0
   15eac:	00000913          	li	s2,0
   15eb0:	c00a8a93          	add	s5,s5,-1024 # 7ffffc00 <__BSS_END__+0x7ffdc028>
   15eb4:	00098613          	mv	a2,s3
   15eb8:	000a0513          	mv	a0,s4
   15ebc:	04090263          	beqz	s2,15f00 <__sfvwrite_r+0xbc>
   15ec0:	00090693          	mv	a3,s2
   15ec4:	012af463          	bgeu	s5,s2,15ecc <__sfvwrite_r+0x88>
   15ec8:	000a8693          	mv	a3,s5
   15ecc:	000780e7          	jalr	a5
   15ed0:	46a05263          	blez	a0,16334 <__sfvwrite_r+0x4f0>
   15ed4:	008b2783          	lw	a5,8(s6)
   15ed8:	00a989b3          	add	s3,s3,a0
   15edc:	40a90933          	sub	s2,s2,a0
   15ee0:	40a787b3          	sub	a5,a5,a0
   15ee4:	00fb2423          	sw	a5,8(s6)
   15ee8:	1a078663          	beqz	a5,16094 <__sfvwrite_r+0x250>
   15eec:	02442783          	lw	a5,36(s0)
   15ef0:	01c42583          	lw	a1,28(s0)
   15ef4:	00098613          	mv	a2,s3
   15ef8:	000a0513          	mv	a0,s4
   15efc:	fc0912e3          	bnez	s2,15ec0 <__sfvwrite_r+0x7c>
   15f00:	0004a983          	lw	s3,0(s1)
   15f04:	0044a903          	lw	s2,4(s1)
   15f08:	00848493          	add	s1,s1,8
   15f0c:	fa9ff06f          	j	15eb4 <__sfvwrite_r+0x70>
   15f10:	00040593          	mv	a1,s0
   15f14:	000a0513          	mv	a0,s4
   15f18:	440000ef          	jal	16358 <__swsetup_r>
   15f1c:	1c051c63          	bnez	a0,160f4 <__sfvwrite_r+0x2b0>
   15f20:	00c41683          	lh	a3,12(s0)
   15f24:	02912223          	sw	s1,36(sp)
   15f28:	03212023          	sw	s2,32(sp)
   15f2c:	01312e23          	sw	s3,28(sp)
   15f30:	01512a23          	sw	s5,20(sp)
   15f34:	0026f793          	and	a5,a3,2
   15f38:	000b2483          	lw	s1,0(s6)
   15f3c:	f60790e3          	bnez	a5,15e9c <__sfvwrite_r+0x58>
   15f40:	01712623          	sw	s7,12(sp)
   15f44:	01812423          	sw	s8,8(sp)
   15f48:	0016f793          	and	a5,a3,1
   15f4c:	1c079663          	bnez	a5,16118 <__sfvwrite_r+0x2d4>
   15f50:	00042783          	lw	a5,0(s0)
   15f54:	00842703          	lw	a4,8(s0)
   15f58:	80000ab7          	lui	s5,0x80000
   15f5c:	01912223          	sw	s9,4(sp)
   15f60:	00000b93          	li	s7,0
   15f64:	00000993          	li	s3,0
   15f68:	fffa8a93          	add	s5,s5,-1 # 7fffffff <__BSS_END__+0x7ffdc427>
   15f6c:	00078513          	mv	a0,a5
   15f70:	00070c13          	mv	s8,a4
   15f74:	10098263          	beqz	s3,16078 <__sfvwrite_r+0x234>
   15f78:	2006f613          	and	a2,a3,512
   15f7c:	28060863          	beqz	a2,1620c <__sfvwrite_r+0x3c8>
   15f80:	00070c93          	mv	s9,a4
   15f84:	32e9e863          	bltu	s3,a4,162b4 <__sfvwrite_r+0x470>
   15f88:	4806f713          	and	a4,a3,1152
   15f8c:	08070a63          	beqz	a4,16020 <__sfvwrite_r+0x1dc>
   15f90:	01442603          	lw	a2,20(s0)
   15f94:	01042583          	lw	a1,16(s0)
   15f98:	00161713          	sll	a4,a2,0x1
   15f9c:	00c70733          	add	a4,a4,a2
   15fa0:	40b78933          	sub	s2,a5,a1
   15fa4:	01f75c13          	srl	s8,a4,0x1f
   15fa8:	00ec0c33          	add	s8,s8,a4
   15fac:	00190793          	add	a5,s2,1
   15fb0:	401c5c13          	sra	s8,s8,0x1
   15fb4:	013787b3          	add	a5,a5,s3
   15fb8:	000c0613          	mv	a2,s8
   15fbc:	00fc7663          	bgeu	s8,a5,15fc8 <__sfvwrite_r+0x184>
   15fc0:	00078c13          	mv	s8,a5
   15fc4:	00078613          	mv	a2,a5
   15fc8:	4006f693          	and	a3,a3,1024
   15fcc:	32068063          	beqz	a3,162ec <__sfvwrite_r+0x4a8>
   15fd0:	00060593          	mv	a1,a2
   15fd4:	000a0513          	mv	a0,s4
   15fd8:	bf8fb0ef          	jal	113d0 <_malloc_r>
   15fdc:	00050c93          	mv	s9,a0
   15fe0:	34050e63          	beqz	a0,1633c <__sfvwrite_r+0x4f8>
   15fe4:	01042583          	lw	a1,16(s0)
   15fe8:	00090613          	mv	a2,s2
   15fec:	29d000ef          	jal	16a88 <memcpy>
   15ff0:	00c45783          	lhu	a5,12(s0)
   15ff4:	b7f7f793          	and	a5,a5,-1153
   15ff8:	0807e793          	or	a5,a5,128
   15ffc:	00f41623          	sh	a5,12(s0)
   16000:	012c8533          	add	a0,s9,s2
   16004:	412c07b3          	sub	a5,s8,s2
   16008:	01942823          	sw	s9,16(s0)
   1600c:	01842a23          	sw	s8,20(s0)
   16010:	00a42023          	sw	a0,0(s0)
   16014:	00098c13          	mv	s8,s3
   16018:	00f42423          	sw	a5,8(s0)
   1601c:	00098c93          	mv	s9,s3
   16020:	000c8613          	mv	a2,s9
   16024:	000b8593          	mv	a1,s7
   16028:	155000ef          	jal	1697c <memmove>
   1602c:	00842703          	lw	a4,8(s0)
   16030:	00042783          	lw	a5,0(s0)
   16034:	00098913          	mv	s2,s3
   16038:	41870733          	sub	a4,a4,s8
   1603c:	019787b3          	add	a5,a5,s9
   16040:	00e42423          	sw	a4,8(s0)
   16044:	00f42023          	sw	a5,0(s0)
   16048:	00000993          	li	s3,0
   1604c:	008b2783          	lw	a5,8(s6)
   16050:	012b8bb3          	add	s7,s7,s2
   16054:	412787b3          	sub	a5,a5,s2
   16058:	00fb2423          	sw	a5,8(s6)
   1605c:	02078663          	beqz	a5,16088 <__sfvwrite_r+0x244>
   16060:	00042783          	lw	a5,0(s0)
   16064:	00842703          	lw	a4,8(s0)
   16068:	00c41683          	lh	a3,12(s0)
   1606c:	00078513          	mv	a0,a5
   16070:	00070c13          	mv	s8,a4
   16074:	f00992e3          	bnez	s3,15f78 <__sfvwrite_r+0x134>
   16078:	0004ab83          	lw	s7,0(s1)
   1607c:	0044a983          	lw	s3,4(s1)
   16080:	00848493          	add	s1,s1,8
   16084:	ee9ff06f          	j	15f6c <__sfvwrite_r+0x128>
   16088:	00c12b83          	lw	s7,12(sp)
   1608c:	00812c03          	lw	s8,8(sp)
   16090:	00412c83          	lw	s9,4(sp)
   16094:	02c12083          	lw	ra,44(sp)
   16098:	02812403          	lw	s0,40(sp)
   1609c:	02412483          	lw	s1,36(sp)
   160a0:	02012903          	lw	s2,32(sp)
   160a4:	01c12983          	lw	s3,28(sp)
   160a8:	01412a83          	lw	s5,20(sp)
   160ac:	01812a03          	lw	s4,24(sp)
   160b0:	01012b03          	lw	s6,16(sp)
   160b4:	00000513          	li	a0,0
   160b8:	03010113          	add	sp,sp,48
   160bc:	00008067          	ret
   160c0:	00040593          	mv	a1,s0
   160c4:	000a0513          	mv	a0,s4
   160c8:	c99ff0ef          	jal	15d60 <_fflush_r>
   160cc:	0a050e63          	beqz	a0,16188 <__sfvwrite_r+0x344>
   160d0:	00c41783          	lh	a5,12(s0)
   160d4:	00c12b83          	lw	s7,12(sp)
   160d8:	00812c03          	lw	s8,8(sp)
   160dc:	02412483          	lw	s1,36(sp)
   160e0:	02012903          	lw	s2,32(sp)
   160e4:	01c12983          	lw	s3,28(sp)
   160e8:	01412a83          	lw	s5,20(sp)
   160ec:	0407e793          	or	a5,a5,64
   160f0:	00f41623          	sh	a5,12(s0)
   160f4:	02c12083          	lw	ra,44(sp)
   160f8:	02812403          	lw	s0,40(sp)
   160fc:	01812a03          	lw	s4,24(sp)
   16100:	01012b03          	lw	s6,16(sp)
   16104:	fff00513          	li	a0,-1
   16108:	03010113          	add	sp,sp,48
   1610c:	00008067          	ret
   16110:	00000513          	li	a0,0
   16114:	00008067          	ret
   16118:	00000a93          	li	s5,0
   1611c:	00000513          	li	a0,0
   16120:	00000c13          	li	s8,0
   16124:	00000993          	li	s3,0
   16128:	08098263          	beqz	s3,161ac <__sfvwrite_r+0x368>
   1612c:	08050a63          	beqz	a0,161c0 <__sfvwrite_r+0x37c>
   16130:	000a8793          	mv	a5,s5
   16134:	00098b93          	mv	s7,s3
   16138:	0137f463          	bgeu	a5,s3,16140 <__sfvwrite_r+0x2fc>
   1613c:	00078b93          	mv	s7,a5
   16140:	00042503          	lw	a0,0(s0)
   16144:	01042783          	lw	a5,16(s0)
   16148:	00842903          	lw	s2,8(s0)
   1614c:	01442683          	lw	a3,20(s0)
   16150:	00a7f663          	bgeu	a5,a0,1615c <__sfvwrite_r+0x318>
   16154:	00d90933          	add	s2,s2,a3
   16158:	09794463          	blt	s2,s7,161e0 <__sfvwrite_r+0x39c>
   1615c:	16dbc263          	blt	s7,a3,162c0 <__sfvwrite_r+0x47c>
   16160:	02442783          	lw	a5,36(s0)
   16164:	01c42583          	lw	a1,28(s0)
   16168:	000c0613          	mv	a2,s8
   1616c:	000a0513          	mv	a0,s4
   16170:	000780e7          	jalr	a5
   16174:	00050913          	mv	s2,a0
   16178:	f4a05ce3          	blez	a0,160d0 <__sfvwrite_r+0x28c>
   1617c:	412a8ab3          	sub	s5,s5,s2
   16180:	00100513          	li	a0,1
   16184:	f20a8ee3          	beqz	s5,160c0 <__sfvwrite_r+0x27c>
   16188:	008b2783          	lw	a5,8(s6)
   1618c:	012c0c33          	add	s8,s8,s2
   16190:	412989b3          	sub	s3,s3,s2
   16194:	412787b3          	sub	a5,a5,s2
   16198:	00fb2423          	sw	a5,8(s6)
   1619c:	f80796e3          	bnez	a5,16128 <__sfvwrite_r+0x2e4>
   161a0:	00c12b83          	lw	s7,12(sp)
   161a4:	00812c03          	lw	s8,8(sp)
   161a8:	eedff06f          	j	16094 <__sfvwrite_r+0x250>
   161ac:	0044a983          	lw	s3,4(s1)
   161b0:	00048793          	mv	a5,s1
   161b4:	00848493          	add	s1,s1,8
   161b8:	fe098ae3          	beqz	s3,161ac <__sfvwrite_r+0x368>
   161bc:	0007ac03          	lw	s8,0(a5)
   161c0:	00098613          	mv	a2,s3
   161c4:	00a00593          	li	a1,10
   161c8:	000c0513          	mv	a0,s8
   161cc:	468000ef          	jal	16634 <memchr>
   161d0:	14050c63          	beqz	a0,16328 <__sfvwrite_r+0x4e4>
   161d4:	00150513          	add	a0,a0,1
   161d8:	41850ab3          	sub	s5,a0,s8
   161dc:	f55ff06f          	j	16130 <__sfvwrite_r+0x2ec>
   161e0:	000c0593          	mv	a1,s8
   161e4:	00090613          	mv	a2,s2
   161e8:	794000ef          	jal	1697c <memmove>
   161ec:	00042783          	lw	a5,0(s0)
   161f0:	00040593          	mv	a1,s0
   161f4:	000a0513          	mv	a0,s4
   161f8:	012787b3          	add	a5,a5,s2
   161fc:	00f42023          	sw	a5,0(s0)
   16200:	b61ff0ef          	jal	15d60 <_fflush_r>
   16204:	f6050ce3          	beqz	a0,1617c <__sfvwrite_r+0x338>
   16208:	ec9ff06f          	j	160d0 <__sfvwrite_r+0x28c>
   1620c:	01042683          	lw	a3,16(s0)
   16210:	04f6e463          	bltu	a3,a5,16258 <__sfvwrite_r+0x414>
   16214:	01442583          	lw	a1,20(s0)
   16218:	04b9e063          	bltu	s3,a1,16258 <__sfvwrite_r+0x414>
   1621c:	00098913          	mv	s2,s3
   16220:	013af463          	bgeu	s5,s3,16228 <__sfvwrite_r+0x3e4>
   16224:	000a8913          	mv	s2,s5
   16228:	00090513          	mv	a0,s2
   1622c:	4d10b0ef          	jal	21efc <__modsi3>
   16230:	02442783          	lw	a5,36(s0)
   16234:	01c42583          	lw	a1,28(s0)
   16238:	40a906b3          	sub	a3,s2,a0
   1623c:	000b8613          	mv	a2,s7
   16240:	000a0513          	mv	a0,s4
   16244:	000780e7          	jalr	a5
   16248:	00050913          	mv	s2,a0
   1624c:	04a05a63          	blez	a0,162a0 <__sfvwrite_r+0x45c>
   16250:	412989b3          	sub	s3,s3,s2
   16254:	df9ff06f          	j	1604c <__sfvwrite_r+0x208>
   16258:	00070913          	mv	s2,a4
   1625c:	00e9f463          	bgeu	s3,a4,16264 <__sfvwrite_r+0x420>
   16260:	00098913          	mv	s2,s3
   16264:	00078513          	mv	a0,a5
   16268:	00090613          	mv	a2,s2
   1626c:	000b8593          	mv	a1,s7
   16270:	70c000ef          	jal	1697c <memmove>
   16274:	00842703          	lw	a4,8(s0)
   16278:	00042783          	lw	a5,0(s0)
   1627c:	41270733          	sub	a4,a4,s2
   16280:	012787b3          	add	a5,a5,s2
   16284:	00e42423          	sw	a4,8(s0)
   16288:	00f42023          	sw	a5,0(s0)
   1628c:	fc0712e3          	bnez	a4,16250 <__sfvwrite_r+0x40c>
   16290:	00040593          	mv	a1,s0
   16294:	000a0513          	mv	a0,s4
   16298:	ac9ff0ef          	jal	15d60 <_fflush_r>
   1629c:	fa050ae3          	beqz	a0,16250 <__sfvwrite_r+0x40c>
   162a0:	00c41783          	lh	a5,12(s0)
   162a4:	00c12b83          	lw	s7,12(sp)
   162a8:	00812c03          	lw	s8,8(sp)
   162ac:	00412c83          	lw	s9,4(sp)
   162b0:	e2dff06f          	j	160dc <__sfvwrite_r+0x298>
   162b4:	00098c13          	mv	s8,s3
   162b8:	00098c93          	mv	s9,s3
   162bc:	d65ff06f          	j	16020 <__sfvwrite_r+0x1dc>
   162c0:	000b8613          	mv	a2,s7
   162c4:	000c0593          	mv	a1,s8
   162c8:	6b4000ef          	jal	1697c <memmove>
   162cc:	00842703          	lw	a4,8(s0)
   162d0:	00042783          	lw	a5,0(s0)
   162d4:	000b8913          	mv	s2,s7
   162d8:	41770733          	sub	a4,a4,s7
   162dc:	017787b3          	add	a5,a5,s7
   162e0:	00e42423          	sw	a4,8(s0)
   162e4:	00f42023          	sw	a5,0(s0)
   162e8:	e95ff06f          	j	1617c <__sfvwrite_r+0x338>
   162ec:	000a0513          	mv	a0,s4
   162f0:	440040ef          	jal	1a730 <_realloc_r>
   162f4:	00050c93          	mv	s9,a0
   162f8:	d00514e3          	bnez	a0,16000 <__sfvwrite_r+0x1bc>
   162fc:	01042583          	lw	a1,16(s0)
   16300:	000a0513          	mv	a0,s4
   16304:	dc9fa0ef          	jal	110cc <_free_r>
   16308:	00c41783          	lh	a5,12(s0)
   1630c:	00c00713          	li	a4,12
   16310:	00c12b83          	lw	s7,12(sp)
   16314:	00812c03          	lw	s8,8(sp)
   16318:	00412c83          	lw	s9,4(sp)
   1631c:	00ea2023          	sw	a4,0(s4)
   16320:	f7f7f793          	and	a5,a5,-129
   16324:	db9ff06f          	j	160dc <__sfvwrite_r+0x298>
   16328:	00198793          	add	a5,s3,1
   1632c:	00078a93          	mv	s5,a5
   16330:	e05ff06f          	j	16134 <__sfvwrite_r+0x2f0>
   16334:	00c41783          	lh	a5,12(s0)
   16338:	da5ff06f          	j	160dc <__sfvwrite_r+0x298>
   1633c:	00c00713          	li	a4,12
   16340:	00c41783          	lh	a5,12(s0)
   16344:	00c12b83          	lw	s7,12(sp)
   16348:	00812c03          	lw	s8,8(sp)
   1634c:	00412c83          	lw	s9,4(sp)
   16350:	00ea2023          	sw	a4,0(s4)
   16354:	d89ff06f          	j	160dc <__sfvwrite_r+0x298>

00016358 <__swsetup_r>:
   16358:	f101a783          	lw	a5,-240(gp) # 23820 <_impure_ptr>
   1635c:	ff010113          	add	sp,sp,-16
   16360:	00812423          	sw	s0,8(sp)
   16364:	00912223          	sw	s1,4(sp)
   16368:	00112623          	sw	ra,12(sp)
   1636c:	00050493          	mv	s1,a0
   16370:	00058413          	mv	s0,a1
   16374:	00078663          	beqz	a5,16380 <__swsetup_r+0x28>
   16378:	0347a703          	lw	a4,52(a5)
   1637c:	0e070c63          	beqz	a4,16474 <__swsetup_r+0x11c>
   16380:	00c41783          	lh	a5,12(s0)
   16384:	0087f713          	and	a4,a5,8
   16388:	06070a63          	beqz	a4,163fc <__swsetup_r+0xa4>
   1638c:	01042703          	lw	a4,16(s0)
   16390:	08070663          	beqz	a4,1641c <__swsetup_r+0xc4>
   16394:	0017f693          	and	a3,a5,1
   16398:	02068863          	beqz	a3,163c8 <__swsetup_r+0x70>
   1639c:	01442683          	lw	a3,20(s0)
   163a0:	00042423          	sw	zero,8(s0)
   163a4:	00000513          	li	a0,0
   163a8:	40d006b3          	neg	a3,a3
   163ac:	00d42c23          	sw	a3,24(s0)
   163b0:	02070a63          	beqz	a4,163e4 <__swsetup_r+0x8c>
   163b4:	00c12083          	lw	ra,12(sp)
   163b8:	00812403          	lw	s0,8(sp)
   163bc:	00412483          	lw	s1,4(sp)
   163c0:	01010113          	add	sp,sp,16
   163c4:	00008067          	ret
   163c8:	0027f693          	and	a3,a5,2
   163cc:	00000613          	li	a2,0
   163d0:	00069463          	bnez	a3,163d8 <__swsetup_r+0x80>
   163d4:	01442603          	lw	a2,20(s0)
   163d8:	00c42423          	sw	a2,8(s0)
   163dc:	00000513          	li	a0,0
   163e0:	fc071ae3          	bnez	a4,163b4 <__swsetup_r+0x5c>
   163e4:	0807f713          	and	a4,a5,128
   163e8:	fc0706e3          	beqz	a4,163b4 <__swsetup_r+0x5c>
   163ec:	0407e793          	or	a5,a5,64
   163f0:	00f41623          	sh	a5,12(s0)
   163f4:	fff00513          	li	a0,-1
   163f8:	fbdff06f          	j	163b4 <__swsetup_r+0x5c>
   163fc:	0107f713          	and	a4,a5,16
   16400:	08070063          	beqz	a4,16480 <__swsetup_r+0x128>
   16404:	0047f713          	and	a4,a5,4
   16408:	02071c63          	bnez	a4,16440 <__swsetup_r+0xe8>
   1640c:	01042703          	lw	a4,16(s0)
   16410:	0087e793          	or	a5,a5,8
   16414:	00f41623          	sh	a5,12(s0)
   16418:	f6071ee3          	bnez	a4,16394 <__swsetup_r+0x3c>
   1641c:	2807f693          	and	a3,a5,640
   16420:	20000613          	li	a2,512
   16424:	f6c688e3          	beq	a3,a2,16394 <__swsetup_r+0x3c>
   16428:	00040593          	mv	a1,s0
   1642c:	00048513          	mv	a0,s1
   16430:	1a9040ef          	jal	1add8 <__smakebuf_r>
   16434:	00c41783          	lh	a5,12(s0)
   16438:	01042703          	lw	a4,16(s0)
   1643c:	f59ff06f          	j	16394 <__swsetup_r+0x3c>
   16440:	03042583          	lw	a1,48(s0)
   16444:	00058e63          	beqz	a1,16460 <__swsetup_r+0x108>
   16448:	04040713          	add	a4,s0,64
   1644c:	00e58863          	beq	a1,a4,1645c <__swsetup_r+0x104>
   16450:	00048513          	mv	a0,s1
   16454:	c79fa0ef          	jal	110cc <_free_r>
   16458:	00c41783          	lh	a5,12(s0)
   1645c:	02042823          	sw	zero,48(s0)
   16460:	01042703          	lw	a4,16(s0)
   16464:	fdb7f793          	and	a5,a5,-37
   16468:	00042223          	sw	zero,4(s0)
   1646c:	00e42023          	sw	a4,0(s0)
   16470:	fa1ff06f          	j	16410 <__swsetup_r+0xb8>
   16474:	00078513          	mv	a0,a5
   16478:	994fa0ef          	jal	1060c <__sinit>
   1647c:	f05ff06f          	j	16380 <__swsetup_r+0x28>
   16480:	00900713          	li	a4,9
   16484:	00e4a023          	sw	a4,0(s1)
   16488:	0407e793          	or	a5,a5,64
   1648c:	00f41623          	sh	a5,12(s0)
   16490:	fff00513          	li	a0,-1
   16494:	f21ff06f          	j	163b4 <__swsetup_r+0x5c>

00016498 <__fputwc>:
   16498:	fe010113          	add	sp,sp,-32
   1649c:	00812c23          	sw	s0,24(sp)
   164a0:	00912a23          	sw	s1,20(sp)
   164a4:	01212823          	sw	s2,16(sp)
   164a8:	00112e23          	sw	ra,28(sp)
   164ac:	00050913          	mv	s2,a0
   164b0:	00058493          	mv	s1,a1
   164b4:	00060413          	mv	s0,a2
   164b8:	36c000ef          	jal	16824 <__locale_mb_cur_max>
   164bc:	00100793          	li	a5,1
   164c0:	00f51c63          	bne	a0,a5,164d8 <__fputwc+0x40>
   164c4:	fff48793          	add	a5,s1,-1
   164c8:	0fe00713          	li	a4,254
   164cc:	00f76663          	bltu	a4,a5,164d8 <__fputwc+0x40>
   164d0:	00910623          	sb	s1,12(sp)
   164d4:	0240006f          	j	164f8 <__fputwc+0x60>
   164d8:	05c40693          	add	a3,s0,92
   164dc:	00048613          	mv	a2,s1
   164e0:	00c10593          	add	a1,sp,12
   164e4:	00090513          	mv	a0,s2
   164e8:	7f0040ef          	jal	1acd8 <_wcrtomb_r>
   164ec:	fff00793          	li	a5,-1
   164f0:	08f50463          	beq	a0,a5,16578 <__fputwc+0xe0>
   164f4:	02050c63          	beqz	a0,1652c <__fputwc+0x94>
   164f8:	00842783          	lw	a5,8(s0)
   164fc:	00c14583          	lbu	a1,12(sp)
   16500:	fff78793          	add	a5,a5,-1
   16504:	00f42423          	sw	a5,8(s0)
   16508:	0007da63          	bgez	a5,1651c <__fputwc+0x84>
   1650c:	01842703          	lw	a4,24(s0)
   16510:	02e7cc63          	blt	a5,a4,16548 <__fputwc+0xb0>
   16514:	00a00793          	li	a5,10
   16518:	02f58863          	beq	a1,a5,16548 <__fputwc+0xb0>
   1651c:	00042783          	lw	a5,0(s0)
   16520:	00178713          	add	a4,a5,1
   16524:	00e42023          	sw	a4,0(s0)
   16528:	00b78023          	sb	a1,0(a5)
   1652c:	01c12083          	lw	ra,28(sp)
   16530:	01812403          	lw	s0,24(sp)
   16534:	01012903          	lw	s2,16(sp)
   16538:	00048513          	mv	a0,s1
   1653c:	01412483          	lw	s1,20(sp)
   16540:	02010113          	add	sp,sp,32
   16544:	00008067          	ret
   16548:	00040613          	mv	a2,s0
   1654c:	00090513          	mv	a0,s2
   16550:	2f9040ef          	jal	1b048 <__swbuf_r>
   16554:	fff00793          	li	a5,-1
   16558:	fcf51ae3          	bne	a0,a5,1652c <__fputwc+0x94>
   1655c:	fff00513          	li	a0,-1
   16560:	01c12083          	lw	ra,28(sp)
   16564:	01812403          	lw	s0,24(sp)
   16568:	01412483          	lw	s1,20(sp)
   1656c:	01012903          	lw	s2,16(sp)
   16570:	02010113          	add	sp,sp,32
   16574:	00008067          	ret
   16578:	00c45783          	lhu	a5,12(s0)
   1657c:	fff00513          	li	a0,-1
   16580:	0407e793          	or	a5,a5,64
   16584:	00f41623          	sh	a5,12(s0)
   16588:	fd9ff06f          	j	16560 <__fputwc+0xc8>

0001658c <_fputwc_r>:
   1658c:	00c61783          	lh	a5,12(a2)
   16590:	01279713          	sll	a4,a5,0x12
   16594:	02074063          	bltz	a4,165b4 <_fputwc_r+0x28>
   16598:	06462703          	lw	a4,100(a2)
   1659c:	000026b7          	lui	a3,0x2
   165a0:	00d7e7b3          	or	a5,a5,a3
   165a4:	000026b7          	lui	a3,0x2
   165a8:	00d76733          	or	a4,a4,a3
   165ac:	00f61623          	sh	a5,12(a2)
   165b0:	06e62223          	sw	a4,100(a2)
   165b4:	ee5ff06f          	j	16498 <__fputwc>

000165b8 <fputwc>:
   165b8:	fe010113          	add	sp,sp,-32
   165bc:	00812c23          	sw	s0,24(sp)
   165c0:	f101a403          	lw	s0,-240(gp) # 23820 <_impure_ptr>
   165c4:	00112e23          	sw	ra,28(sp)
   165c8:	00058613          	mv	a2,a1
   165cc:	00050593          	mv	a1,a0
   165d0:	00040663          	beqz	s0,165dc <fputwc+0x24>
   165d4:	03442783          	lw	a5,52(s0)
   165d8:	04078063          	beqz	a5,16618 <fputwc+0x60>
   165dc:	00c61783          	lh	a5,12(a2)
   165e0:	01279713          	sll	a4,a5,0x12
   165e4:	02074063          	bltz	a4,16604 <fputwc+0x4c>
   165e8:	06462703          	lw	a4,100(a2)
   165ec:	000026b7          	lui	a3,0x2
   165f0:	00d7e7b3          	or	a5,a5,a3
   165f4:	000026b7          	lui	a3,0x2
   165f8:	00d76733          	or	a4,a4,a3
   165fc:	00f61623          	sh	a5,12(a2)
   16600:	06e62223          	sw	a4,100(a2)
   16604:	00040513          	mv	a0,s0
   16608:	01812403          	lw	s0,24(sp)
   1660c:	01c12083          	lw	ra,28(sp)
   16610:	02010113          	add	sp,sp,32
   16614:	e85ff06f          	j	16498 <__fputwc>
   16618:	00a12423          	sw	a0,8(sp)
   1661c:	00040513          	mv	a0,s0
   16620:	00c12623          	sw	a2,12(sp)
   16624:	fe9f90ef          	jal	1060c <__sinit>
   16628:	00c12603          	lw	a2,12(sp)
   1662c:	00812583          	lw	a1,8(sp)
   16630:	fadff06f          	j	165dc <fputwc+0x24>

00016634 <memchr>:
   16634:	00357793          	and	a5,a0,3
   16638:	0ff5f693          	zext.b	a3,a1
   1663c:	02078a63          	beqz	a5,16670 <memchr+0x3c>
   16640:	fff60793          	add	a5,a2,-1
   16644:	02060e63          	beqz	a2,16680 <memchr+0x4c>
   16648:	fff00613          	li	a2,-1
   1664c:	0180006f          	j	16664 <memchr+0x30>
   16650:	00150513          	add	a0,a0,1
   16654:	00357713          	and	a4,a0,3
   16658:	00070e63          	beqz	a4,16674 <memchr+0x40>
   1665c:	fff78793          	add	a5,a5,-1
   16660:	02c78063          	beq	a5,a2,16680 <memchr+0x4c>
   16664:	00054703          	lbu	a4,0(a0)
   16668:	fed714e3          	bne	a4,a3,16650 <memchr+0x1c>
   1666c:	00008067          	ret
   16670:	00060793          	mv	a5,a2
   16674:	00300713          	li	a4,3
   16678:	00f76863          	bltu	a4,a5,16688 <memchr+0x54>
   1667c:	06079063          	bnez	a5,166dc <memchr+0xa8>
   16680:	00000513          	li	a0,0
   16684:	00008067          	ret
   16688:	0ff5f593          	zext.b	a1,a1
   1668c:	00859713          	sll	a4,a1,0x8
   16690:	00b705b3          	add	a1,a4,a1
   16694:	01059713          	sll	a4,a1,0x10
   16698:	feff08b7          	lui	a7,0xfeff0
   1669c:	80808837          	lui	a6,0x80808
   166a0:	00e585b3          	add	a1,a1,a4
   166a4:	eff88893          	add	a7,a7,-257 # fefefeff <__BSS_END__+0xfefcc327>
   166a8:	08080813          	add	a6,a6,128 # 80808080 <__BSS_END__+0x807e44a8>
   166ac:	00300313          	li	t1,3
   166b0:	0100006f          	j	166c0 <memchr+0x8c>
   166b4:	ffc78793          	add	a5,a5,-4
   166b8:	00450513          	add	a0,a0,4
   166bc:	fcf370e3          	bgeu	t1,a5,1667c <memchr+0x48>
   166c0:	00052703          	lw	a4,0(a0)
   166c4:	00e5c733          	xor	a4,a1,a4
   166c8:	01170633          	add	a2,a4,a7
   166cc:	fff74713          	not	a4,a4
   166d0:	00e67733          	and	a4,a2,a4
   166d4:	01077733          	and	a4,a4,a6
   166d8:	fc070ee3          	beqz	a4,166b4 <memchr+0x80>
   166dc:	00f507b3          	add	a5,a0,a5
   166e0:	00c0006f          	j	166ec <memchr+0xb8>
   166e4:	00150513          	add	a0,a0,1
   166e8:	f8f50ce3          	beq	a0,a5,16680 <memchr+0x4c>
   166ec:	00054703          	lbu	a4,0(a0)
   166f0:	fed71ae3          	bne	a4,a3,166e4 <memchr+0xb0>
   166f4:	00008067          	ret

000166f8 <strncpy>:
   166f8:	00a5e7b3          	or	a5,a1,a0
   166fc:	0037f793          	and	a5,a5,3
   16700:	00079663          	bnez	a5,1670c <strncpy+0x14>
   16704:	00300793          	li	a5,3
   16708:	04c7e663          	bltu	a5,a2,16754 <strncpy+0x5c>
   1670c:	00050713          	mv	a4,a0
   16710:	01c0006f          	j	1672c <strncpy+0x34>
   16714:	fff5c683          	lbu	a3,-1(a1)
   16718:	fff60813          	add	a6,a2,-1
   1671c:	fed78fa3          	sb	a3,-1(a5)
   16720:	00068e63          	beqz	a3,1673c <strncpy+0x44>
   16724:	00078713          	mv	a4,a5
   16728:	00080613          	mv	a2,a6
   1672c:	00158593          	add	a1,a1,1
   16730:	00170793          	add	a5,a4,1
   16734:	fe0610e3          	bnez	a2,16714 <strncpy+0x1c>
   16738:	00008067          	ret
   1673c:	00c70733          	add	a4,a4,a2
   16740:	06080063          	beqz	a6,167a0 <strncpy+0xa8>
   16744:	00178793          	add	a5,a5,1
   16748:	fe078fa3          	sb	zero,-1(a5)
   1674c:	fee79ce3          	bne	a5,a4,16744 <strncpy+0x4c>
   16750:	00008067          	ret
   16754:	feff0337          	lui	t1,0xfeff0
   16758:	808088b7          	lui	a7,0x80808
   1675c:	00050713          	mv	a4,a0
   16760:	eff30313          	add	t1,t1,-257 # fefefeff <__BSS_END__+0xfefcc327>
   16764:	08088893          	add	a7,a7,128 # 80808080 <__BSS_END__+0x807e44a8>
   16768:	00300e13          	li	t3,3
   1676c:	0180006f          	j	16784 <strncpy+0x8c>
   16770:	00d72023          	sw	a3,0(a4)
   16774:	ffc60613          	add	a2,a2,-4
   16778:	00470713          	add	a4,a4,4
   1677c:	00458593          	add	a1,a1,4
   16780:	face76e3          	bgeu	t3,a2,1672c <strncpy+0x34>
   16784:	0005a683          	lw	a3,0(a1)
   16788:	006687b3          	add	a5,a3,t1
   1678c:	fff6c813          	not	a6,a3
   16790:	0107f7b3          	and	a5,a5,a6
   16794:	0117f7b3          	and	a5,a5,a7
   16798:	fc078ce3          	beqz	a5,16770 <strncpy+0x78>
   1679c:	f91ff06f          	j	1672c <strncpy+0x34>
   167a0:	00008067          	ret

000167a4 <_setlocale_r>:
   167a4:	ff010113          	add	sp,sp,-16
   167a8:	00112623          	sw	ra,12(sp)
   167ac:	00912223          	sw	s1,4(sp)
   167b0:	02060e63          	beqz	a2,167ec <_setlocale_r+0x48>
   167b4:	000225b7          	lui	a1,0x22
   167b8:	06c58593          	add	a1,a1,108 # 2206c <__clzsi2+0x140>
   167bc:	00060513          	mv	a0,a2
   167c0:	00812423          	sw	s0,8(sp)
   167c4:	00060413          	mv	s0,a2
   167c8:	464000ef          	jal	16c2c <strcmp>
   167cc:	000224b7          	lui	s1,0x22
   167d0:	02051263          	bnez	a0,167f4 <_setlocale_r+0x50>
   167d4:	00812403          	lw	s0,8(sp)
   167d8:	06848513          	add	a0,s1,104 # 22068 <__clzsi2+0x13c>
   167dc:	00c12083          	lw	ra,12(sp)
   167e0:	00412483          	lw	s1,4(sp)
   167e4:	01010113          	add	sp,sp,16
   167e8:	00008067          	ret
   167ec:	000224b7          	lui	s1,0x22
   167f0:	fe9ff06f          	j	167d8 <_setlocale_r+0x34>
   167f4:	06848593          	add	a1,s1,104 # 22068 <__clzsi2+0x13c>
   167f8:	00040513          	mv	a0,s0
   167fc:	430000ef          	jal	16c2c <strcmp>
   16800:	fc050ae3          	beqz	a0,167d4 <_setlocale_r+0x30>
   16804:	000225b7          	lui	a1,0x22
   16808:	0f858593          	add	a1,a1,248 # 220f8 <__clzsi2+0x1cc>
   1680c:	00040513          	mv	a0,s0
   16810:	41c000ef          	jal	16c2c <strcmp>
   16814:	fc0500e3          	beqz	a0,167d4 <_setlocale_r+0x30>
   16818:	00812403          	lw	s0,8(sp)
   1681c:	00000513          	li	a0,0
   16820:	fbdff06f          	j	167dc <_setlocale_r+0x38>

00016824 <__locale_mb_cur_max>:
   16824:	e601c503          	lbu	a0,-416(gp) # 23770 <__global_locale+0x128>
   16828:	00008067          	ret

0001682c <setlocale>:
   1682c:	ff010113          	add	sp,sp,-16
   16830:	00112623          	sw	ra,12(sp)
   16834:	00912223          	sw	s1,4(sp)
   16838:	02058e63          	beqz	a1,16874 <setlocale+0x48>
   1683c:	00812423          	sw	s0,8(sp)
   16840:	00058413          	mv	s0,a1
   16844:	000225b7          	lui	a1,0x22
   16848:	06c58593          	add	a1,a1,108 # 2206c <__clzsi2+0x140>
   1684c:	00040513          	mv	a0,s0
   16850:	3dc000ef          	jal	16c2c <strcmp>
   16854:	000224b7          	lui	s1,0x22
   16858:	02051263          	bnez	a0,1687c <setlocale+0x50>
   1685c:	00812403          	lw	s0,8(sp)
   16860:	06848513          	add	a0,s1,104 # 22068 <__clzsi2+0x13c>
   16864:	00c12083          	lw	ra,12(sp)
   16868:	00412483          	lw	s1,4(sp)
   1686c:	01010113          	add	sp,sp,16
   16870:	00008067          	ret
   16874:	000224b7          	lui	s1,0x22
   16878:	fe9ff06f          	j	16860 <setlocale+0x34>
   1687c:	06848593          	add	a1,s1,104 # 22068 <__clzsi2+0x13c>
   16880:	00040513          	mv	a0,s0
   16884:	3a8000ef          	jal	16c2c <strcmp>
   16888:	fc050ae3          	beqz	a0,1685c <setlocale+0x30>
   1688c:	000225b7          	lui	a1,0x22
   16890:	0f858593          	add	a1,a1,248 # 220f8 <__clzsi2+0x1cc>
   16894:	00040513          	mv	a0,s0
   16898:	394000ef          	jal	16c2c <strcmp>
   1689c:	fc0500e3          	beqz	a0,1685c <setlocale+0x30>
   168a0:	00812403          	lw	s0,8(sp)
   168a4:	00000513          	li	a0,0
   168a8:	fbdff06f          	j	16864 <setlocale+0x38>

000168ac <__localeconv_l>:
   168ac:	0f050513          	add	a0,a0,240
   168b0:	00008067          	ret

000168b4 <_localeconv_r>:
   168b4:	e2818513          	add	a0,gp,-472 # 23738 <__global_locale+0xf0>
   168b8:	00008067          	ret

000168bc <localeconv>:
   168bc:	e2818513          	add	a0,gp,-472 # 23738 <__global_locale+0xf0>
   168c0:	00008067          	ret

000168c4 <_sbrk_r>:
   168c4:	ff010113          	add	sp,sp,-16
   168c8:	00812423          	sw	s0,8(sp)
   168cc:	00912223          	sw	s1,4(sp)
   168d0:	00050413          	mv	s0,a0
   168d4:	00058513          	mv	a0,a1
   168d8:	00112623          	sw	ra,12(sp)
   168dc:	f201a023          	sw	zero,-224(gp) # 23830 <errno>
   168e0:	7b0050ef          	jal	1c090 <_sbrk>
   168e4:	fff00793          	li	a5,-1
   168e8:	00f50c63          	beq	a0,a5,16900 <_sbrk_r+0x3c>
   168ec:	00c12083          	lw	ra,12(sp)
   168f0:	00812403          	lw	s0,8(sp)
   168f4:	00412483          	lw	s1,4(sp)
   168f8:	01010113          	add	sp,sp,16
   168fc:	00008067          	ret
   16900:	f201a783          	lw	a5,-224(gp) # 23830 <errno>
   16904:	fe0784e3          	beqz	a5,168ec <_sbrk_r+0x28>
   16908:	00c12083          	lw	ra,12(sp)
   1690c:	00f42023          	sw	a5,0(s0)
   16910:	00812403          	lw	s0,8(sp)
   16914:	00412483          	lw	s1,4(sp)
   16918:	01010113          	add	sp,sp,16
   1691c:	00008067          	ret

00016920 <__libc_fini_array>:
   16920:	ff010113          	add	sp,sp,-16
   16924:	00812423          	sw	s0,8(sp)
   16928:	000237b7          	lui	a5,0x23
   1692c:	00023437          	lui	s0,0x23
   16930:	10c78793          	add	a5,a5,268 # 2310c <__do_global_dtors_aux_fini_array_entry>
   16934:	11040413          	add	s0,s0,272 # 23110 <__sglue>
   16938:	40f40433          	sub	s0,s0,a5
   1693c:	00912223          	sw	s1,4(sp)
   16940:	00112623          	sw	ra,12(sp)
   16944:	40245493          	sra	s1,s0,0x2
   16948:	02048063          	beqz	s1,16968 <__libc_fini_array+0x48>
   1694c:	ffc40413          	add	s0,s0,-4
   16950:	00f40433          	add	s0,s0,a5
   16954:	00042783          	lw	a5,0(s0)
   16958:	fff48493          	add	s1,s1,-1
   1695c:	ffc40413          	add	s0,s0,-4
   16960:	000780e7          	jalr	a5
   16964:	fe0498e3          	bnez	s1,16954 <__libc_fini_array+0x34>
   16968:	00c12083          	lw	ra,12(sp)
   1696c:	00812403          	lw	s0,8(sp)
   16970:	00412483          	lw	s1,4(sp)
   16974:	01010113          	add	sp,sp,16
   16978:	00008067          	ret

0001697c <memmove>:
   1697c:	02a5f663          	bgeu	a1,a0,169a8 <memmove+0x2c>
   16980:	00c58733          	add	a4,a1,a2
   16984:	02e57263          	bgeu	a0,a4,169a8 <memmove+0x2c>
   16988:	00c507b3          	add	a5,a0,a2
   1698c:	04060663          	beqz	a2,169d8 <memmove+0x5c>
   16990:	fff74683          	lbu	a3,-1(a4)
   16994:	fff78793          	add	a5,a5,-1
   16998:	fff70713          	add	a4,a4,-1
   1699c:	00d78023          	sb	a3,0(a5)
   169a0:	fef518e3          	bne	a0,a5,16990 <memmove+0x14>
   169a4:	00008067          	ret
   169a8:	00f00793          	li	a5,15
   169ac:	02c7e863          	bltu	a5,a2,169dc <memmove+0x60>
   169b0:	00050793          	mv	a5,a0
   169b4:	fff60693          	add	a3,a2,-1
   169b8:	0c060263          	beqz	a2,16a7c <memmove+0x100>
   169bc:	00168693          	add	a3,a3,1 # 2001 <exit-0xe09f>
   169c0:	00d786b3          	add	a3,a5,a3
   169c4:	0005c703          	lbu	a4,0(a1)
   169c8:	00178793          	add	a5,a5,1
   169cc:	00158593          	add	a1,a1,1
   169d0:	fee78fa3          	sb	a4,-1(a5)
   169d4:	fed798e3          	bne	a5,a3,169c4 <memmove+0x48>
   169d8:	00008067          	ret
   169dc:	00b567b3          	or	a5,a0,a1
   169e0:	0037f793          	and	a5,a5,3
   169e4:	08079663          	bnez	a5,16a70 <memmove+0xf4>
   169e8:	ff060893          	add	a7,a2,-16
   169ec:	ff08f893          	and	a7,a7,-16
   169f0:	01088893          	add	a7,a7,16
   169f4:	011506b3          	add	a3,a0,a7
   169f8:	00058713          	mv	a4,a1
   169fc:	00050793          	mv	a5,a0
   16a00:	00072803          	lw	a6,0(a4)
   16a04:	01070713          	add	a4,a4,16
   16a08:	01078793          	add	a5,a5,16
   16a0c:	ff07a823          	sw	a6,-16(a5)
   16a10:	ff472803          	lw	a6,-12(a4)
   16a14:	ff07aa23          	sw	a6,-12(a5)
   16a18:	ff872803          	lw	a6,-8(a4)
   16a1c:	ff07ac23          	sw	a6,-8(a5)
   16a20:	ffc72803          	lw	a6,-4(a4)
   16a24:	ff07ae23          	sw	a6,-4(a5)
   16a28:	fcd79ce3          	bne	a5,a3,16a00 <memmove+0x84>
   16a2c:	00c67813          	and	a6,a2,12
   16a30:	011585b3          	add	a1,a1,a7
   16a34:	00f67713          	and	a4,a2,15
   16a38:	04080463          	beqz	a6,16a80 <memmove+0x104>
   16a3c:	ffc70813          	add	a6,a4,-4
   16a40:	ffc87813          	and	a6,a6,-4
   16a44:	00480813          	add	a6,a6,4
   16a48:	010687b3          	add	a5,a3,a6
   16a4c:	00058713          	mv	a4,a1
   16a50:	00072883          	lw	a7,0(a4)
   16a54:	00468693          	add	a3,a3,4
   16a58:	00470713          	add	a4,a4,4
   16a5c:	ff16ae23          	sw	a7,-4(a3)
   16a60:	fef698e3          	bne	a3,a5,16a50 <memmove+0xd4>
   16a64:	00367613          	and	a2,a2,3
   16a68:	010585b3          	add	a1,a1,a6
   16a6c:	f49ff06f          	j	169b4 <memmove+0x38>
   16a70:	fff60693          	add	a3,a2,-1
   16a74:	00050793          	mv	a5,a0
   16a78:	f45ff06f          	j	169bc <memmove+0x40>
   16a7c:	00008067          	ret
   16a80:	00070613          	mv	a2,a4
   16a84:	f31ff06f          	j	169b4 <memmove+0x38>

00016a88 <memcpy>:
   16a88:	00a5c7b3          	xor	a5,a1,a0
   16a8c:	0037f793          	and	a5,a5,3
   16a90:	00c508b3          	add	a7,a0,a2
   16a94:	06079463          	bnez	a5,16afc <memcpy+0x74>
   16a98:	00300793          	li	a5,3
   16a9c:	06c7f063          	bgeu	a5,a2,16afc <memcpy+0x74>
   16aa0:	00357793          	and	a5,a0,3
   16aa4:	00050713          	mv	a4,a0
   16aa8:	06079a63          	bnez	a5,16b1c <memcpy+0x94>
   16aac:	ffc8f613          	and	a2,a7,-4
   16ab0:	40e606b3          	sub	a3,a2,a4
   16ab4:	02000793          	li	a5,32
   16ab8:	08d7ce63          	blt	a5,a3,16b54 <memcpy+0xcc>
   16abc:	00058693          	mv	a3,a1
   16ac0:	00070793          	mv	a5,a4
   16ac4:	02c77863          	bgeu	a4,a2,16af4 <memcpy+0x6c>
   16ac8:	0006a803          	lw	a6,0(a3)
   16acc:	00478793          	add	a5,a5,4
   16ad0:	00468693          	add	a3,a3,4
   16ad4:	ff07ae23          	sw	a6,-4(a5)
   16ad8:	fec7e8e3          	bltu	a5,a2,16ac8 <memcpy+0x40>
   16adc:	fff60793          	add	a5,a2,-1
   16ae0:	40e787b3          	sub	a5,a5,a4
   16ae4:	ffc7f793          	and	a5,a5,-4
   16ae8:	00478793          	add	a5,a5,4
   16aec:	00f70733          	add	a4,a4,a5
   16af0:	00f585b3          	add	a1,a1,a5
   16af4:	01176863          	bltu	a4,a7,16b04 <memcpy+0x7c>
   16af8:	00008067          	ret
   16afc:	00050713          	mv	a4,a0
   16b00:	05157863          	bgeu	a0,a7,16b50 <memcpy+0xc8>
   16b04:	0005c783          	lbu	a5,0(a1)
   16b08:	00170713          	add	a4,a4,1
   16b0c:	00158593          	add	a1,a1,1
   16b10:	fef70fa3          	sb	a5,-1(a4)
   16b14:	fee898e3          	bne	a7,a4,16b04 <memcpy+0x7c>
   16b18:	00008067          	ret
   16b1c:	0005c683          	lbu	a3,0(a1)
   16b20:	00170713          	add	a4,a4,1
   16b24:	00377793          	and	a5,a4,3
   16b28:	fed70fa3          	sb	a3,-1(a4)
   16b2c:	00158593          	add	a1,a1,1
   16b30:	f6078ee3          	beqz	a5,16aac <memcpy+0x24>
   16b34:	0005c683          	lbu	a3,0(a1)
   16b38:	00170713          	add	a4,a4,1
   16b3c:	00377793          	and	a5,a4,3
   16b40:	fed70fa3          	sb	a3,-1(a4)
   16b44:	00158593          	add	a1,a1,1
   16b48:	fc079ae3          	bnez	a5,16b1c <memcpy+0x94>
   16b4c:	f61ff06f          	j	16aac <memcpy+0x24>
   16b50:	00008067          	ret
   16b54:	ff010113          	add	sp,sp,-16
   16b58:	00812623          	sw	s0,12(sp)
   16b5c:	02000413          	li	s0,32
   16b60:	0005a383          	lw	t2,0(a1)
   16b64:	0045a283          	lw	t0,4(a1)
   16b68:	0085af83          	lw	t6,8(a1)
   16b6c:	00c5af03          	lw	t5,12(a1)
   16b70:	0105ae83          	lw	t4,16(a1)
   16b74:	0145ae03          	lw	t3,20(a1)
   16b78:	0185a303          	lw	t1,24(a1)
   16b7c:	01c5a803          	lw	a6,28(a1)
   16b80:	0205a683          	lw	a3,32(a1)
   16b84:	02470713          	add	a4,a4,36
   16b88:	40e607b3          	sub	a5,a2,a4
   16b8c:	fc772e23          	sw	t2,-36(a4)
   16b90:	fe572023          	sw	t0,-32(a4)
   16b94:	fff72223          	sw	t6,-28(a4)
   16b98:	ffe72423          	sw	t5,-24(a4)
   16b9c:	ffd72623          	sw	t4,-20(a4)
   16ba0:	ffc72823          	sw	t3,-16(a4)
   16ba4:	fe672a23          	sw	t1,-12(a4)
   16ba8:	ff072c23          	sw	a6,-8(a4)
   16bac:	fed72e23          	sw	a3,-4(a4)
   16bb0:	02458593          	add	a1,a1,36
   16bb4:	faf446e3          	blt	s0,a5,16b60 <memcpy+0xd8>
   16bb8:	00058693          	mv	a3,a1
   16bbc:	00070793          	mv	a5,a4
   16bc0:	02c77863          	bgeu	a4,a2,16bf0 <memcpy+0x168>
   16bc4:	0006a803          	lw	a6,0(a3)
   16bc8:	00478793          	add	a5,a5,4
   16bcc:	00468693          	add	a3,a3,4
   16bd0:	ff07ae23          	sw	a6,-4(a5)
   16bd4:	fec7e8e3          	bltu	a5,a2,16bc4 <memcpy+0x13c>
   16bd8:	fff60793          	add	a5,a2,-1
   16bdc:	40e787b3          	sub	a5,a5,a4
   16be0:	ffc7f793          	and	a5,a5,-4
   16be4:	00478793          	add	a5,a5,4
   16be8:	00f70733          	add	a4,a4,a5
   16bec:	00f585b3          	add	a1,a1,a5
   16bf0:	01176863          	bltu	a4,a7,16c00 <memcpy+0x178>
   16bf4:	00c12403          	lw	s0,12(sp)
   16bf8:	01010113          	add	sp,sp,16
   16bfc:	00008067          	ret
   16c00:	0005c783          	lbu	a5,0(a1)
   16c04:	00170713          	add	a4,a4,1
   16c08:	00158593          	add	a1,a1,1
   16c0c:	fef70fa3          	sb	a5,-1(a4)
   16c10:	fee882e3          	beq	a7,a4,16bf4 <memcpy+0x16c>
   16c14:	0005c783          	lbu	a5,0(a1)
   16c18:	00170713          	add	a4,a4,1
   16c1c:	00158593          	add	a1,a1,1
   16c20:	fef70fa3          	sb	a5,-1(a4)
   16c24:	fce89ee3          	bne	a7,a4,16c00 <memcpy+0x178>
   16c28:	fcdff06f          	j	16bf4 <memcpy+0x16c>

00016c2c <strcmp>:
   16c2c:	00b56733          	or	a4,a0,a1
   16c30:	fff00393          	li	t2,-1
   16c34:	00377713          	and	a4,a4,3
   16c38:	10071063          	bnez	a4,16d38 <strcmp+0x10c>
   16c3c:	7f7f87b7          	lui	a5,0x7f7f8
   16c40:	f7f78793          	add	a5,a5,-129 # 7f7f7f7f <__BSS_END__+0x7f7d43a7>
   16c44:	00052603          	lw	a2,0(a0)
   16c48:	0005a683          	lw	a3,0(a1)
   16c4c:	00f672b3          	and	t0,a2,a5
   16c50:	00f66333          	or	t1,a2,a5
   16c54:	00f282b3          	add	t0,t0,a5
   16c58:	0062e2b3          	or	t0,t0,t1
   16c5c:	10729263          	bne	t0,t2,16d60 <strcmp+0x134>
   16c60:	08d61663          	bne	a2,a3,16cec <strcmp+0xc0>
   16c64:	00452603          	lw	a2,4(a0)
   16c68:	0045a683          	lw	a3,4(a1)
   16c6c:	00f672b3          	and	t0,a2,a5
   16c70:	00f66333          	or	t1,a2,a5
   16c74:	00f282b3          	add	t0,t0,a5
   16c78:	0062e2b3          	or	t0,t0,t1
   16c7c:	0c729e63          	bne	t0,t2,16d58 <strcmp+0x12c>
   16c80:	06d61663          	bne	a2,a3,16cec <strcmp+0xc0>
   16c84:	00852603          	lw	a2,8(a0)
   16c88:	0085a683          	lw	a3,8(a1)
   16c8c:	00f672b3          	and	t0,a2,a5
   16c90:	00f66333          	or	t1,a2,a5
   16c94:	00f282b3          	add	t0,t0,a5
   16c98:	0062e2b3          	or	t0,t0,t1
   16c9c:	0c729863          	bne	t0,t2,16d6c <strcmp+0x140>
   16ca0:	04d61663          	bne	a2,a3,16cec <strcmp+0xc0>
   16ca4:	00c52603          	lw	a2,12(a0)
   16ca8:	00c5a683          	lw	a3,12(a1)
   16cac:	00f672b3          	and	t0,a2,a5
   16cb0:	00f66333          	or	t1,a2,a5
   16cb4:	00f282b3          	add	t0,t0,a5
   16cb8:	0062e2b3          	or	t0,t0,t1
   16cbc:	0c729263          	bne	t0,t2,16d80 <strcmp+0x154>
   16cc0:	02d61663          	bne	a2,a3,16cec <strcmp+0xc0>
   16cc4:	01052603          	lw	a2,16(a0)
   16cc8:	0105a683          	lw	a3,16(a1)
   16ccc:	00f672b3          	and	t0,a2,a5
   16cd0:	00f66333          	or	t1,a2,a5
   16cd4:	00f282b3          	add	t0,t0,a5
   16cd8:	0062e2b3          	or	t0,t0,t1
   16cdc:	0a729c63          	bne	t0,t2,16d94 <strcmp+0x168>
   16ce0:	01450513          	add	a0,a0,20
   16ce4:	01458593          	add	a1,a1,20
   16ce8:	f4d60ee3          	beq	a2,a3,16c44 <strcmp+0x18>
   16cec:	01061713          	sll	a4,a2,0x10
   16cf0:	01069793          	sll	a5,a3,0x10
   16cf4:	00f71e63          	bne	a4,a5,16d10 <strcmp+0xe4>
   16cf8:	01065713          	srl	a4,a2,0x10
   16cfc:	0106d793          	srl	a5,a3,0x10
   16d00:	40f70533          	sub	a0,a4,a5
   16d04:	0ff57593          	zext.b	a1,a0
   16d08:	02059063          	bnez	a1,16d28 <strcmp+0xfc>
   16d0c:	00008067          	ret
   16d10:	01075713          	srl	a4,a4,0x10
   16d14:	0107d793          	srl	a5,a5,0x10
   16d18:	40f70533          	sub	a0,a4,a5
   16d1c:	0ff57593          	zext.b	a1,a0
   16d20:	00059463          	bnez	a1,16d28 <strcmp+0xfc>
   16d24:	00008067          	ret
   16d28:	0ff77713          	zext.b	a4,a4
   16d2c:	0ff7f793          	zext.b	a5,a5
   16d30:	40f70533          	sub	a0,a4,a5
   16d34:	00008067          	ret
   16d38:	00054603          	lbu	a2,0(a0)
   16d3c:	0005c683          	lbu	a3,0(a1)
   16d40:	00150513          	add	a0,a0,1
   16d44:	00158593          	add	a1,a1,1
   16d48:	00d61463          	bne	a2,a3,16d50 <strcmp+0x124>
   16d4c:	fe0616e3          	bnez	a2,16d38 <strcmp+0x10c>
   16d50:	40d60533          	sub	a0,a2,a3
   16d54:	00008067          	ret
   16d58:	00450513          	add	a0,a0,4
   16d5c:	00458593          	add	a1,a1,4
   16d60:	fcd61ce3          	bne	a2,a3,16d38 <strcmp+0x10c>
   16d64:	00000513          	li	a0,0
   16d68:	00008067          	ret
   16d6c:	00850513          	add	a0,a0,8
   16d70:	00858593          	add	a1,a1,8
   16d74:	fcd612e3          	bne	a2,a3,16d38 <strcmp+0x10c>
   16d78:	00000513          	li	a0,0
   16d7c:	00008067          	ret
   16d80:	00c50513          	add	a0,a0,12
   16d84:	00c58593          	add	a1,a1,12
   16d88:	fad618e3          	bne	a2,a3,16d38 <strcmp+0x10c>
   16d8c:	00000513          	li	a0,0
   16d90:	00008067          	ret
   16d94:	01050513          	add	a0,a0,16
   16d98:	01058593          	add	a1,a1,16
   16d9c:	f8d61ee3          	bne	a2,a3,16d38 <strcmp+0x10c>
   16da0:	00000513          	li	a0,0
   16da4:	00008067          	ret

00016da8 <frexpl>:
   16da8:	f9010113          	add	sp,sp,-112
   16dac:	07212023          	sw	s2,96(sp)
   16db0:	00c5a903          	lw	s2,12(a1)
   16db4:	05412c23          	sw	s4,88(sp)
   16db8:	05512a23          	sw	s5,84(sp)
   16dbc:	05612823          	sw	s6,80(sp)
   16dc0:	0045aa83          	lw	s5,4(a1)
   16dc4:	0005ab03          	lw	s6,0(a1)
   16dc8:	0085aa03          	lw	s4,8(a1)
   16dcc:	05312e23          	sw	s3,92(sp)
   16dd0:	000089b7          	lui	s3,0x8
   16dd4:	06812423          	sw	s0,104(sp)
   16dd8:	06912223          	sw	s1,100(sp)
   16ddc:	06112623          	sw	ra,108(sp)
   16de0:	01095493          	srl	s1,s2,0x10
   16de4:	fff98993          	add	s3,s3,-1 # 7fff <exit-0x80a1>
   16de8:	03612823          	sw	s6,48(sp)
   16dec:	03512a23          	sw	s5,52(sp)
   16df0:	03412c23          	sw	s4,56(sp)
   16df4:	03212e23          	sw	s2,60(sp)
   16df8:	0134f4b3          	and	s1,s1,s3
   16dfc:	00062023          	sw	zero,0(a2)
   16e00:	00050413          	mv	s0,a0
   16e04:	09348063          	beq	s1,s3,16e84 <frexpl+0xdc>
   16e08:	01010593          	add	a1,sp,16
   16e0c:	02010513          	add	a0,sp,32
   16e10:	05712623          	sw	s7,76(sp)
   16e14:	03612023          	sw	s6,32(sp)
   16e18:	00060b93          	mv	s7,a2
   16e1c:	03512223          	sw	s5,36(sp)
   16e20:	03412423          	sw	s4,40(sp)
   16e24:	03212623          	sw	s2,44(sp)
   16e28:	00012823          	sw	zero,16(sp)
   16e2c:	00012a23          	sw	zero,20(sp)
   16e30:	00012c23          	sw	zero,24(sp)
   16e34:	00012e23          	sw	zero,28(sp)
   16e38:	77d070ef          	jal	1edb4 <__eqtf2>
   16e3c:	0e050463          	beqz	a0,16f24 <frexpl+0x17c>
   16e40:	00000693          	li	a3,0
   16e44:	06048e63          	beqz	s1,16ec0 <frexpl+0x118>
   16e48:	ffffc737          	lui	a4,0xffffc
   16e4c:	00270713          	add	a4,a4,2 # ffffc002 <__BSS_END__+0xfffd842a>
   16e50:	03c12903          	lw	s2,60(sp)
   16e54:	00e484b3          	add	s1,s1,a4
   16e58:	800107b7          	lui	a5,0x80010
   16e5c:	00d484b3          	add	s1,s1,a3
   16e60:	fff78793          	add	a5,a5,-1 # 8000ffff <__BSS_END__+0x7ffec427>
   16e64:	009ba023          	sw	s1,0(s7)
   16e68:	03012b03          	lw	s6,48(sp)
   16e6c:	03412a83          	lw	s5,52(sp)
   16e70:	03812a03          	lw	s4,56(sp)
   16e74:	04c12b83          	lw	s7,76(sp)
   16e78:	00f97933          	and	s2,s2,a5
   16e7c:	3ffe07b7          	lui	a5,0x3ffe0
   16e80:	00f96933          	or	s2,s2,a5
   16e84:	01642023          	sw	s6,0(s0)
   16e88:	01542223          	sw	s5,4(s0)
   16e8c:	01442423          	sw	s4,8(s0)
   16e90:	01242623          	sw	s2,12(s0)
   16e94:	06c12083          	lw	ra,108(sp)
   16e98:	00040513          	mv	a0,s0
   16e9c:	06812403          	lw	s0,104(sp)
   16ea0:	06412483          	lw	s1,100(sp)
   16ea4:	06012903          	lw	s2,96(sp)
   16ea8:	05c12983          	lw	s3,92(sp)
   16eac:	05812a03          	lw	s4,88(sp)
   16eb0:	05412a83          	lw	s5,84(sp)
   16eb4:	05012b03          	lw	s6,80(sp)
   16eb8:	07010113          	add	sp,sp,112
   16ebc:	00008067          	ret
   16ec0:	407107b7          	lui	a5,0x40710
   16ec4:	00010613          	mv	a2,sp
   16ec8:	01010593          	add	a1,sp,16
   16ecc:	02010513          	add	a0,sp,32
   16ed0:	00f12623          	sw	a5,12(sp)
   16ed4:	01612823          	sw	s6,16(sp)
   16ed8:	01512a23          	sw	s5,20(sp)
   16edc:	01412c23          	sw	s4,24(sp)
   16ee0:	01212e23          	sw	s2,28(sp)
   16ee4:	00012023          	sw	zero,0(sp)
   16ee8:	00012223          	sw	zero,4(sp)
   16eec:	00012423          	sw	zero,8(sp)
   16ef0:	1f0080ef          	jal	1f0e0 <__multf3>
   16ef4:	02012703          	lw	a4,32(sp)
   16ef8:	02c12783          	lw	a5,44(sp)
   16efc:	f8e00693          	li	a3,-114
   16f00:	02e12823          	sw	a4,48(sp)
   16f04:	02412703          	lw	a4,36(sp)
   16f08:	0107d493          	srl	s1,a5,0x10
   16f0c:	02f12e23          	sw	a5,60(sp)
   16f10:	02e12a23          	sw	a4,52(sp)
   16f14:	02812703          	lw	a4,40(sp)
   16f18:	0134f4b3          	and	s1,s1,s3
   16f1c:	02e12c23          	sw	a4,56(sp)
   16f20:	f29ff06f          	j	16e48 <frexpl+0xa0>
   16f24:	04c12b83          	lw	s7,76(sp)
   16f28:	f5dff06f          	j	16e84 <frexpl+0xdc>

00016f2c <__register_exitproc>:
   16f2c:	f241a783          	lw	a5,-220(gp) # 23834 <__atexit>
   16f30:	04078c63          	beqz	a5,16f88 <__register_exitproc+0x5c>
   16f34:	0047a703          	lw	a4,4(a5) # 40710004 <__BSS_END__+0x406ec42c>
   16f38:	01f00813          	li	a6,31
   16f3c:	08e84063          	blt	a6,a4,16fbc <__register_exitproc+0x90>
   16f40:	00271813          	sll	a6,a4,0x2
   16f44:	02050663          	beqz	a0,16f70 <__register_exitproc+0x44>
   16f48:	01078333          	add	t1,a5,a6
   16f4c:	08c32423          	sw	a2,136(t1)
   16f50:	1887a883          	lw	a7,392(a5)
   16f54:	00100613          	li	a2,1
   16f58:	00e61633          	sll	a2,a2,a4
   16f5c:	00c8e8b3          	or	a7,a7,a2
   16f60:	1917a423          	sw	a7,392(a5)
   16f64:	10d32423          	sw	a3,264(t1)
   16f68:	00200693          	li	a3,2
   16f6c:	02d50663          	beq	a0,a3,16f98 <__register_exitproc+0x6c>
   16f70:	00170713          	add	a4,a4,1
   16f74:	00e7a223          	sw	a4,4(a5)
   16f78:	010787b3          	add	a5,a5,a6
   16f7c:	00b7a423          	sw	a1,8(a5)
   16f80:	00000513          	li	a0,0
   16f84:	00008067          	ret
   16f88:	0b818813          	add	a6,gp,184 # 239c8 <__atexit0>
   16f8c:	f301a223          	sw	a6,-220(gp) # 23834 <__atexit>
   16f90:	0b818793          	add	a5,gp,184 # 239c8 <__atexit0>
   16f94:	fa1ff06f          	j	16f34 <__register_exitproc+0x8>
   16f98:	18c7a683          	lw	a3,396(a5)
   16f9c:	00170713          	add	a4,a4,1
   16fa0:	00e7a223          	sw	a4,4(a5)
   16fa4:	00c6e6b3          	or	a3,a3,a2
   16fa8:	18d7a623          	sw	a3,396(a5)
   16fac:	010787b3          	add	a5,a5,a6
   16fb0:	00b7a423          	sw	a1,8(a5)
   16fb4:	00000513          	li	a0,0
   16fb8:	00008067          	ret
   16fbc:	fff00513          	li	a0,-1
   16fc0:	00008067          	ret

00016fc4 <_ldtoa_r>:
   16fc4:	000228b7          	lui	a7,0x22
   16fc8:	4e088893          	add	a7,a7,1248 # 224e0 <blanks.1+0x10>
   16fcc:	0008af83          	lw	t6,0(a7)
   16fd0:	0048af03          	lw	t5,4(a7)
   16fd4:	0088ae83          	lw	t4,8(a7)
   16fd8:	00c8ae03          	lw	t3,12(a7)
   16fdc:	0108a303          	lw	t1,16(a7)
   16fe0:	03852883          	lw	a7,56(a0)
   16fe4:	f5010113          	add	sp,sp,-176
   16fe8:	0b212023          	sw	s2,160(sp)
   16fec:	09312e23          	sw	s3,156(sp)
   16ff0:	09412c23          	sw	s4,152(sp)
   16ff4:	09612823          	sw	s6,144(sp)
   16ff8:	09712623          	sw	s7,140(sp)
   16ffc:	09812423          	sw	s8,136(sp)
   17000:	09912223          	sw	s9,132(sp)
   17004:	09a12023          	sw	s10,128(sp)
   17008:	0a112623          	sw	ra,172(sp)
   1700c:	0a812423          	sw	s0,168(sp)
   17010:	0a912223          	sw	s1,164(sp)
   17014:	09512a23          	sw	s5,148(sp)
   17018:	07b12e23          	sw	s11,124(sp)
   1701c:	05f12e23          	sw	t6,92(sp)
   17020:	07e12023          	sw	t5,96(sp)
   17024:	07d12223          	sw	t4,100(sp)
   17028:	07c12423          	sw	t3,104(sp)
   1702c:	06612623          	sw	t1,108(sp)
   17030:	00c12c23          	sw	a2,24(sp)
   17034:	00d12e23          	sw	a3,28(sp)
   17038:	0005aa03          	lw	s4,0(a1)
   1703c:	0045a983          	lw	s3,4(a1)
   17040:	0085a903          	lw	s2,8(a1)
   17044:	00c5ac03          	lw	s8,12(a1)
   17048:	00050b13          	mv	s6,a0
   1704c:	00070b93          	mv	s7,a4
   17050:	00078c93          	mv	s9,a5
   17054:	00080d13          	mv	s10,a6
   17058:	02088263          	beqz	a7,1707c <_ldtoa_r+0xb8>
   1705c:	03c52683          	lw	a3,60(a0)
   17060:	00100713          	li	a4,1
   17064:	00088593          	mv	a1,a7
   17068:	00d71733          	sll	a4,a4,a3
   1706c:	00d8a223          	sw	a3,4(a7)
   17070:	00e8a423          	sw	a4,8(a7)
   17074:	48c020ef          	jal	19500 <_Bfree>
   17078:	020b2c23          	sw	zero,56(s6)
   1707c:	06812603          	lw	a2,104(sp)
   17080:	01fc5693          	srl	a3,s8,0x1f
   17084:	001c1a93          	sll	s5,s8,0x1
   17088:	40165713          	sra	a4,a2,0x1
   1708c:	ffffc4b7          	lui	s1,0xffffc
   17090:	001c1413          	sll	s0,s8,0x1
   17094:	00d77733          	and	a4,a4,a3
   17098:	011ada93          	srl	s5,s5,0x11
   1709c:	f9148493          	add	s1,s1,-111 # ffffbf91 <__BSS_END__+0xfffd83b9>
   170a0:	010c1d93          	sll	s11,s8,0x10
   170a4:	00dca023          	sw	a3,0(s9)
   170a8:	00145413          	srl	s0,s0,0x1
   170ac:	00c74733          	xor	a4,a4,a2
   170b0:	010ddd93          	srl	s11,s11,0x10
   170b4:	009a87b3          	add	a5,s5,s1
   170b8:	02010593          	add	a1,sp,32
   170bc:	03010513          	add	a0,sp,48
   170c0:	03412823          	sw	s4,48(sp)
   170c4:	03312a23          	sw	s3,52(sp)
   170c8:	03212c23          	sw	s2,56(sp)
   170cc:	02812e23          	sw	s0,60(sp)
   170d0:	03412023          	sw	s4,32(sp)
   170d4:	03312223          	sw	s3,36(sp)
   170d8:	03212423          	sw	s2,40(sp)
   170dc:	02812623          	sw	s0,44(sp)
   170e0:	06e12423          	sw	a4,104(sp)
   170e4:	00f12a23          	sw	a5,20(sp)
   170e8:	05412623          	sw	s4,76(sp)
   170ec:	05312823          	sw	s3,80(sp)
   170f0:	05212a23          	sw	s2,84(sp)
   170f4:	05b12c23          	sw	s11,88(sp)
   170f8:	07d0a0ef          	jal	21974 <__unordtf2>
   170fc:	16051a63          	bnez	a0,17270 <_ldtoa_r+0x2ac>
   17100:	7fff0cb7          	lui	s9,0x7fff0
   17104:	fff00493          	li	s1,-1
   17108:	fffc8c93          	add	s9,s9,-1 # 7ffeffff <__BSS_END__+0x7ffcc427>
   1710c:	02010593          	add	a1,sp,32
   17110:	03010513          	add	a0,sp,48
   17114:	03412823          	sw	s4,48(sp)
   17118:	03312a23          	sw	s3,52(sp)
   1711c:	03212c23          	sw	s2,56(sp)
   17120:	02812e23          	sw	s0,60(sp)
   17124:	02912023          	sw	s1,32(sp)
   17128:	02912223          	sw	s1,36(sp)
   1712c:	02912423          	sw	s1,40(sp)
   17130:	03912623          	sw	s9,44(sp)
   17134:	0410a0ef          	jal	21974 <__unordtf2>
   17138:	08051c63          	bnez	a0,171d0 <_ldtoa_r+0x20c>
   1713c:	02010593          	add	a1,sp,32
   17140:	03010513          	add	a0,sp,48
   17144:	66d070ef          	jal	1efb0 <__letf2>
   17148:	08a05463          	blez	a0,171d0 <_ldtoa_r+0x20c>
   1714c:	00300793          	li	a5,3
   17150:	04f12423          	sw	a5,72(sp)
   17154:	01812783          	lw	a5,24(sp)
   17158:	01c12803          	lw	a6,28(sp)
   1715c:	01412603          	lw	a2,20(sp)
   17160:	04810713          	add	a4,sp,72
   17164:	01a12023          	sw	s10,0(sp)
   17168:	000b8893          	mv	a7,s7
   1716c:	04c10693          	add	a3,sp,76
   17170:	05c10593          	add	a1,sp,92
   17174:	000b0513          	mv	a0,s6
   17178:	208000ef          	jal	17380 <__gdtoa>
   1717c:	000ba703          	lw	a4,0(s7)
   17180:	ffff87b7          	lui	a5,0xffff8
   17184:	00f71863          	bne	a4,a5,17194 <_ldtoa_r+0x1d0>
   17188:	800007b7          	lui	a5,0x80000
   1718c:	fff78793          	add	a5,a5,-1 # 7fffffff <__BSS_END__+0x7ffdc427>
   17190:	00fba023          	sw	a5,0(s7)
   17194:	0ac12083          	lw	ra,172(sp)
   17198:	0a812403          	lw	s0,168(sp)
   1719c:	0a412483          	lw	s1,164(sp)
   171a0:	0a012903          	lw	s2,160(sp)
   171a4:	09c12983          	lw	s3,156(sp)
   171a8:	09812a03          	lw	s4,152(sp)
   171ac:	09412a83          	lw	s5,148(sp)
   171b0:	09012b03          	lw	s6,144(sp)
   171b4:	08c12b83          	lw	s7,140(sp)
   171b8:	08812c03          	lw	s8,136(sp)
   171bc:	08412c83          	lw	s9,132(sp)
   171c0:	08012d03          	lw	s10,128(sp)
   171c4:	07c12d83          	lw	s11,124(sp)
   171c8:	0b010113          	add	sp,sp,176
   171cc:	00008067          	ret
   171d0:	000107b7          	lui	a5,0x10
   171d4:	02010593          	add	a1,sp,32
   171d8:	03010513          	add	a0,sp,48
   171dc:	03412823          	sw	s4,48(sp)
   171e0:	03312a23          	sw	s3,52(sp)
   171e4:	03212c23          	sw	s2,56(sp)
   171e8:	02812e23          	sw	s0,60(sp)
   171ec:	02012023          	sw	zero,32(sp)
   171f0:	02012223          	sw	zero,36(sp)
   171f4:	02012423          	sw	zero,40(sp)
   171f8:	02f12623          	sw	a5,44(sp)
   171fc:	485070ef          	jal	1ee80 <__getf2>
   17200:	00054e63          	bltz	a0,1721c <_ldtoa_r+0x258>
   17204:	000107b7          	lui	a5,0x10
   17208:	00fdedb3          	or	s11,s11,a5
   1720c:	00100793          	li	a5,1
   17210:	04f12423          	sw	a5,72(sp)
   17214:	05b12c23          	sw	s11,88(sp)
   17218:	f3dff06f          	j	17154 <_ldtoa_r+0x190>
   1721c:	02010593          	add	a1,sp,32
   17220:	03010513          	add	a0,sp,48
   17224:	03412823          	sw	s4,48(sp)
   17228:	03312a23          	sw	s3,52(sp)
   1722c:	03212c23          	sw	s2,56(sp)
   17230:	03812e23          	sw	s8,60(sp)
   17234:	02012023          	sw	zero,32(sp)
   17238:	02012223          	sw	zero,36(sp)
   1723c:	02012423          	sw	zero,40(sp)
   17240:	02012623          	sw	zero,44(sp)
   17244:	371070ef          	jal	1edb4 <__eqtf2>
   17248:	00051663          	bnez	a0,17254 <_ldtoa_r+0x290>
   1724c:	04012423          	sw	zero,72(sp)
   17250:	f05ff06f          	j	17154 <_ldtoa_r+0x190>
   17254:	ffffc4b7          	lui	s1,0xffffc
   17258:	00200793          	li	a5,2
   1725c:	f9248493          	add	s1,s1,-110 # ffffbf92 <__BSS_END__+0xfffd83ba>
   17260:	04f12423          	sw	a5,72(sp)
   17264:	009a87b3          	add	a5,s5,s1
   17268:	00f12a23          	sw	a5,20(sp)
   1726c:	ee9ff06f          	j	17154 <_ldtoa_r+0x190>
   17270:	00400793          	li	a5,4
   17274:	04f12423          	sw	a5,72(sp)
   17278:	eddff06f          	j	17154 <_ldtoa_r+0x190>

0001727c <_ldcheck>:
   1727c:	fc010113          	add	sp,sp,-64
   17280:	02912a23          	sw	s1,52(sp)
   17284:	00c52483          	lw	s1,12(a0)
   17288:	03312623          	sw	s3,44(sp)
   1728c:	03412423          	sw	s4,40(sp)
   17290:	00852983          	lw	s3,8(a0)
   17294:	00452a03          	lw	s4,4(a0)
   17298:	03512223          	sw	s5,36(sp)
   1729c:	00052a83          	lw	s5,0(a0)
   172a0:	00149493          	sll	s1,s1,0x1
   172a4:	0014d493          	srl	s1,s1,0x1
   172a8:	00010593          	mv	a1,sp
   172ac:	01010513          	add	a0,sp,16
   172b0:	02112e23          	sw	ra,60(sp)
   172b4:	01512823          	sw	s5,16(sp)
   172b8:	01412a23          	sw	s4,20(sp)
   172bc:	01312c23          	sw	s3,24(sp)
   172c0:	00912e23          	sw	s1,28(sp)
   172c4:	01512023          	sw	s5,0(sp)
   172c8:	01412223          	sw	s4,4(sp)
   172cc:	01312423          	sw	s3,8(sp)
   172d0:	00912623          	sw	s1,12(sp)
   172d4:	6a00a0ef          	jal	21974 <__unordtf2>
   172d8:	08051463          	bnez	a0,17360 <_ldcheck+0xe4>
   172dc:	03612023          	sw	s6,32(sp)
   172e0:	7fff0b37          	lui	s6,0x7fff0
   172e4:	03212823          	sw	s2,48(sp)
   172e8:	fffb0b13          	add	s6,s6,-1 # 7ffeffff <__BSS_END__+0x7ffcc427>
   172ec:	fff00913          	li	s2,-1
   172f0:	00010593          	mv	a1,sp
   172f4:	01010513          	add	a0,sp,16
   172f8:	02812c23          	sw	s0,56(sp)
   172fc:	01212023          	sw	s2,0(sp)
   17300:	01212223          	sw	s2,4(sp)
   17304:	01212423          	sw	s2,8(sp)
   17308:	01612623          	sw	s6,12(sp)
   1730c:	00100413          	li	s0,1
   17310:	6640a0ef          	jal	21974 <__unordtf2>
   17314:	02050c63          	beqz	a0,1734c <_ldcheck+0xd0>
   17318:	03c12083          	lw	ra,60(sp)
   1731c:	00144513          	xor	a0,s0,1
   17320:	03812403          	lw	s0,56(sp)
   17324:	0ff57513          	zext.b	a0,a0
   17328:	03012903          	lw	s2,48(sp)
   1732c:	02012b03          	lw	s6,32(sp)
   17330:	03412483          	lw	s1,52(sp)
   17334:	02c12983          	lw	s3,44(sp)
   17338:	02812a03          	lw	s4,40(sp)
   1733c:	02412a83          	lw	s5,36(sp)
   17340:	00151513          	sll	a0,a0,0x1
   17344:	04010113          	add	sp,sp,64
   17348:	00008067          	ret
   1734c:	00010593          	mv	a1,sp
   17350:	01010513          	add	a0,sp,16
   17354:	45d070ef          	jal	1efb0 <__letf2>
   17358:	00152413          	slti	s0,a0,1
   1735c:	fbdff06f          	j	17318 <_ldcheck+0x9c>
   17360:	03c12083          	lw	ra,60(sp)
   17364:	03412483          	lw	s1,52(sp)
   17368:	02c12983          	lw	s3,44(sp)
   1736c:	02812a03          	lw	s4,40(sp)
   17370:	02412a83          	lw	s5,36(sp)
   17374:	00100513          	li	a0,1
   17378:	04010113          	add	sp,sp,64
   1737c:	00008067          	ret

00017380 <__gdtoa>:
   17380:	f3010113          	add	sp,sp,-208
   17384:	0b612823          	sw	s6,176(sp)
   17388:	00072b03          	lw	s6,0(a4)
   1738c:	0ba12023          	sw	s10,160(sp)
   17390:	0c112623          	sw	ra,204(sp)
   17394:	fcfb7313          	and	t1,s6,-49
   17398:	00672023          	sw	t1,0(a4)
   1739c:	00070d13          	mv	s10,a4
   173a0:	0d012703          	lw	a4,208(sp)
   173a4:	00fb7313          	and	t1,s6,15
   173a8:	00300e93          	li	t4,3
   173ac:	00e12623          	sw	a4,12(sp)
   173b0:	00f12823          	sw	a5,16(sp)
   173b4:	01012c23          	sw	a6,24(sp)
   173b8:	01112423          	sw	a7,8(sp)
   173bc:	7dd30c63          	beq	t1,t4,17b94 <__gdtoa+0x814>
   173c0:	0b912223          	sw	s9,164(sp)
   173c4:	00cb7c93          	and	s9,s6,12
   173c8:	720c9063          	bnez	s9,17ae8 <__gdtoa+0x768>
   173cc:	0c812423          	sw	s0,200(sp)
   173d0:	00050413          	mv	s0,a0
   173d4:	76030c63          	beqz	t1,17b4c <__gdtoa+0x7cc>
   173d8:	0b712623          	sw	s7,172(sp)
   173dc:	0005ab83          	lw	s7,0(a1)
   173e0:	0d212023          	sw	s2,192(sp)
   173e4:	0b512a23          	sw	s5,180(sp)
   173e8:	09b12e23          	sw	s11,156(sp)
   173ec:	00068913          	mv	s2,a3
   173f0:	0c912223          	sw	s1,196(sp)
   173f4:	02000693          	li	a3,32
   173f8:	00058d93          	mv	s11,a1
   173fc:	00060a93          	mv	s5,a2
   17400:	00000593          	li	a1,0
   17404:	02000793          	li	a5,32
   17408:	0176d863          	bge	a3,s7,17418 <__gdtoa+0x98>
   1740c:	00179793          	sll	a5,a5,0x1
   17410:	00158593          	add	a1,a1,1
   17414:	ff77cce3          	blt	a5,s7,1740c <__gdtoa+0x8c>
   17418:	00040513          	mv	a0,s0
   1741c:	030020ef          	jal	1944c <_Balloc>
   17420:	00050493          	mv	s1,a0
   17424:	380504e3          	beqz	a0,17fac <__gdtoa+0xc2c>
   17428:	fffb8513          	add	a0,s7,-1
   1742c:	40555513          	sra	a0,a0,0x5
   17430:	00251593          	sll	a1,a0,0x2
   17434:	0b312e23          	sw	s3,188(sp)
   17438:	0b812423          	sw	s8,168(sp)
   1743c:	00b905b3          	add	a1,s2,a1
   17440:	01448693          	add	a3,s1,20
   17444:	00090793          	mv	a5,s2
   17448:	0007a703          	lw	a4,0(a5) # 10000 <exit-0xa0>
   1744c:	00478793          	add	a5,a5,4
   17450:	00468693          	add	a3,a3,4
   17454:	fee6ae23          	sw	a4,-4(a3)
   17458:	fef5f8e3          	bgeu	a1,a5,17448 <__gdtoa+0xc8>
   1745c:	00158593          	add	a1,a1,1
   17460:	00190793          	add	a5,s2,1
   17464:	00400693          	li	a3,4
   17468:	00f5e663          	bltu	a1,a5,17474 <__gdtoa+0xf4>
   1746c:	00251513          	sll	a0,a0,0x2
   17470:	00450693          	add	a3,a0,4
   17474:	4026dc13          	sra	s8,a3,0x2
   17478:	00d486b3          	add	a3,s1,a3
   1747c:	00c0006f          	j	17488 <__gdtoa+0x108>
   17480:	ffc68693          	add	a3,a3,-4
   17484:	780c0463          	beqz	s8,17c0c <__gdtoa+0x88c>
   17488:	0106a783          	lw	a5,16(a3)
   1748c:	000c0993          	mv	s3,s8
   17490:	fffc0c13          	add	s8,s8,-1
   17494:	fe0786e3          	beqz	a5,17480 <__gdtoa+0x100>
   17498:	004c0793          	add	a5,s8,4
   1749c:	00279793          	sll	a5,a5,0x2
   174a0:	00f487b3          	add	a5,s1,a5
   174a4:	0047a503          	lw	a0,4(a5)
   174a8:	0134a823          	sw	s3,16(s1)
   174ac:	00599993          	sll	s3,s3,0x5
   174b0:	334020ef          	jal	197e4 <__hi0bits>
   174b4:	40a98c33          	sub	s8,s3,a0
   174b8:	00048513          	mv	a0,s1
   174bc:	6bd010ef          	jal	19378 <__trailz_D2A>
   174c0:	08a12623          	sw	a0,140(sp)
   174c4:	03512223          	sw	s5,36(sp)
   174c8:	78051663          	bnez	a0,17c54 <__gdtoa+0x8d4>
   174cc:	0104a683          	lw	a3,16(s1)
   174d0:	64068a63          	beqz	a3,17b24 <__gdtoa+0x7a4>
   174d4:	08c10593          	add	a1,sp,140
   174d8:	00048513          	mv	a0,s1
   174dc:	0b412c23          	sw	s4,184(sp)
   174e0:	5d5020ef          	jal	1a2b4 <__b2d>
   174e4:	00c59993          	sll	s3,a1,0xc
   174e8:	00c9d993          	srl	s3,s3,0xc
   174ec:	3ff006b7          	lui	a3,0x3ff00
   174f0:	00d9e833          	or	a6,s3,a3
   174f4:	02412703          	lw	a4,36(sp)
   174f8:	ea81a603          	lw	a2,-344(gp) # 237b8 <__SDATA_BEGIN__>
   174fc:	eac1a683          	lw	a3,-340(gp) # 237bc <__SDATA_BEGIN__+0x4>
   17500:	01870733          	add	a4,a4,s8
   17504:	00080593          	mv	a1,a6
   17508:	00050793          	mv	a5,a0
   1750c:	fff70a13          	add	s4,a4,-1
   17510:	03012823          	sw	a6,48(sp)
   17514:	02e12423          	sw	a4,40(sp)
   17518:	04f12423          	sw	a5,72(sp)
   1751c:	04a12223          	sw	a0,68(sp)
   17520:	7c5060ef          	jal	1e4e4 <__subdf3>
   17524:	eb01a603          	lw	a2,-336(gp) # 237c0 <__SDATA_BEGIN__+0x8>
   17528:	eb41a683          	lw	a3,-332(gp) # 237c4 <__SDATA_BEGIN__+0xc>
   1752c:	109060ef          	jal	1de34 <__muldf3>
   17530:	eb81a603          	lw	a2,-328(gp) # 237c8 <__SDATA_BEGIN__+0x10>
   17534:	ebc1a683          	lw	a3,-324(gp) # 237cc <__SDATA_BEGIN__+0x14>
   17538:	744050ef          	jal	1cc7c <__adddf3>
   1753c:	00050793          	mv	a5,a0
   17540:	000a0513          	mv	a0,s4
   17544:	00f12e23          	sw	a5,28(sp)
   17548:	00058993          	mv	s3,a1
   1754c:	7c0070ef          	jal	1ed0c <__floatsidf>
   17550:	ec01a603          	lw	a2,-320(gp) # 237d0 <__SDATA_BEGIN__+0x18>
   17554:	ec41a683          	lw	a3,-316(gp) # 237d4 <__SDATA_BEGIN__+0x1c>
   17558:	0dd060ef          	jal	1de34 <__muldf3>
   1755c:	01c12783          	lw	a5,28(sp)
   17560:	00050613          	mv	a2,a0
   17564:	00058693          	mv	a3,a1
   17568:	00078513          	mv	a0,a5
   1756c:	00098593          	mv	a1,s3
   17570:	70c050ef          	jal	1cc7c <__adddf3>
   17574:	02a12023          	sw	a0,32(sp)
   17578:	00058993          	mv	s3,a1
   1757c:	000a0513          	mv	a0,s4
   17580:	000a5863          	bgez	s4,17590 <__gdtoa+0x210>
   17584:	02812703          	lw	a4,40(sp)
   17588:	00100513          	li	a0,1
   1758c:	40e50533          	sub	a0,a0,a4
   17590:	bcb50513          	add	a0,a0,-1077
   17594:	02a05863          	blez	a0,175c4 <__gdtoa+0x244>
   17598:	774070ef          	jal	1ed0c <__floatsidf>
   1759c:	ec81a603          	lw	a2,-312(gp) # 237d8 <__SDATA_BEGIN__+0x20>
   175a0:	ecc1a683          	lw	a3,-308(gp) # 237dc <__SDATA_BEGIN__+0x24>
   175a4:	091060ef          	jal	1de34 <__muldf3>
   175a8:	00050613          	mv	a2,a0
   175ac:	02012503          	lw	a0,32(sp)
   175b0:	00058693          	mv	a3,a1
   175b4:	00098593          	mv	a1,s3
   175b8:	6c4050ef          	jal	1cc7c <__adddf3>
   175bc:	02a12023          	sw	a0,32(sp)
   175c0:	00058993          	mv	s3,a1
   175c4:	02012503          	lw	a0,32(sp)
   175c8:	00098593          	mv	a1,s3
   175cc:	6c0070ef          	jal	1ec8c <__fixdfsi>
   175d0:	00050813          	mv	a6,a0
   175d4:	02012503          	lw	a0,32(sp)
   175d8:	00098593          	mv	a1,s3
   175dc:	00000613          	li	a2,0
   175e0:	00000693          	li	a3,0
   175e4:	01012e23          	sw	a6,28(sp)
   175e8:	770060ef          	jal	1dd58 <__ledf2>
   175ec:	02055463          	bgez	a0,17614 <__gdtoa+0x294>
   175f0:	01c12503          	lw	a0,28(sp)
   175f4:	718070ef          	jal	1ed0c <__floatsidf>
   175f8:	02012603          	lw	a2,32(sp)
   175fc:	00098693          	mv	a3,s3
   17600:	5f0060ef          	jal	1dbf0 <__eqdf2>
   17604:	01c12783          	lw	a5,28(sp)
   17608:	00a03533          	snez	a0,a0
   1760c:	40a787b3          	sub	a5,a5,a0
   17610:	00f12e23          	sw	a5,28(sp)
   17614:	03012783          	lw	a5,48(sp)
   17618:	014a1613          	sll	a2,s4,0x14
   1761c:	01c12703          	lw	a4,28(sp)
   17620:	414c0a33          	sub	s4,s8,s4
   17624:	00f609b3          	add	s3,a2,a5
   17628:	fffa0793          	add	a5,s4,-1
   1762c:	01600693          	li	a3,22
   17630:	02f12023          	sw	a5,32(sp)
   17634:	5ee6e063          	bltu	a3,a4,17c14 <__gdtoa+0x894>
   17638:	000227b7          	lui	a5,0x22
   1763c:	55078613          	add	a2,a5,1360 # 22550 <__mprec_tens>
   17640:	00371693          	sll	a3,a4,0x3
   17644:	00c686b3          	add	a3,a3,a2
   17648:	04412883          	lw	a7,68(sp)
   1764c:	0006a503          	lw	a0,0(a3) # 3ff00000 <__BSS_END__+0x3fedc428>
   17650:	0046a583          	lw	a1,4(a3)
   17654:	00088613          	mv	a2,a7
   17658:	00098693          	mv	a3,s3
   1765c:	620060ef          	jal	1dc7c <__gedf2>
   17660:	18a04ee3          	bgtz	a0,17ffc <__gdtoa+0xc7c>
   17664:	04012823          	sw	zero,80(sp)
   17668:	02012823          	sw	zero,48(sp)
   1766c:	01404a63          	bgtz	s4,17680 <__gdtoa+0x300>
   17670:	00100693          	li	a3,1
   17674:	414687b3          	sub	a5,a3,s4
   17678:	02f12823          	sw	a5,48(sp)
   1767c:	02012023          	sw	zero,32(sp)
   17680:	02012703          	lw	a4,32(sp)
   17684:	01c12783          	lw	a5,28(sp)
   17688:	02012c23          	sw	zero,56(sp)
   1768c:	00f70733          	add	a4,a4,a5
   17690:	02e12023          	sw	a4,32(sp)
   17694:	02f12e23          	sw	a5,60(sp)
   17698:	01012783          	lw	a5,16(sp)
   1769c:	00900693          	li	a3,9
   176a0:	5cf6ea63          	bltu	a3,a5,17c74 <__gdtoa+0x8f4>
   176a4:	00500693          	li	a3,5
   176a8:	16f6c4e3          	blt	a3,a5,18010 <__gdtoa+0xc90>
   176ac:	02812783          	lw	a5,40(sp)
   176b0:	00400613          	li	a2,4
   176b4:	3fd78793          	add	a5,a5,1021
   176b8:	7f87ba13          	sltiu	s4,a5,2040
   176bc:	01012783          	lw	a5,16(sp)
   176c0:	00c79463          	bne	a5,a2,176c8 <__gdtoa+0x348>
   176c4:	0580106f          	j	1871c <__gdtoa+0x139c>
   176c8:	00d79463          	bne	a5,a3,176d0 <__gdtoa+0x350>
   176cc:	0440106f          	j	18710 <__gdtoa+0x1390>
   176d0:	00200693          	li	a3,2
   176d4:	00d79463          	bne	a5,a3,176dc <__gdtoa+0x35c>
   176d8:	0500106f          	j	18728 <__gdtoa+0x13a8>
   176dc:	00300693          	li	a3,3
   176e0:	04012023          	sw	zero,64(sp)
   176e4:	5ad79063          	bne	a5,a3,17c84 <__gdtoa+0x904>
   176e8:	03c12783          	lw	a5,60(sp)
   176ec:	01812703          	lw	a4,24(sp)
   176f0:	00e787b3          	add	a5,a5,a4
   176f4:	04f12a23          	sw	a5,84(sp)
   176f8:	00178793          	add	a5,a5,1
   176fc:	02f12a23          	sw	a5,52(sp)
   17700:	5ef056e3          	blez	a5,184ec <__gdtoa+0x116c>
   17704:	00078693          	mv	a3,a5
   17708:	00078593          	mv	a1,a5
   1770c:	00040513          	mv	a0,s0
   17710:	08d12623          	sw	a3,140(sp)
   17714:	7f4010ef          	jal	18f08 <__rv_alloc_D2A>
   17718:	00050f13          	mv	t5,a0
   1771c:	4c050263          	beqz	a0,17be0 <__gdtoa+0x860>
   17720:	00cda783          	lw	a5,12(s11)
   17724:	fff78793          	add	a5,a5,-1
   17728:	02f12423          	sw	a5,40(sp)
   1772c:	5a078263          	beqz	a5,17cd0 <__gdtoa+0x950>
   17730:	0c07c0e3          	bltz	a5,17ff0 <__gdtoa+0xc70>
   17734:	100b7e13          	and	t3,s6,256
   17738:	580e1463          	bnez	t3,17cc0 <__gdtoa+0x940>
   1773c:	02412783          	lw	a5,36(sp)
   17740:	0007c863          	bltz	a5,17750 <__gdtoa+0x3d0>
   17744:	03c12783          	lw	a5,60(sp)
   17748:	00e00693          	li	a3,14
   1774c:	0ef6dae3          	bge	a3,a5,18040 <__gdtoa+0xcc0>
   17750:	04012783          	lw	a5,64(sp)
   17754:	080786e3          	beqz	a5,17fe0 <__gdtoa+0xc60>
   17758:	02412783          	lw	a5,36(sp)
   1775c:	418b8333          	sub	t1,s7,s8
   17760:	004da683          	lw	a3,4(s11)
   17764:	00130613          	add	a2,t1,1
   17768:	08c12623          	sw	a2,140(sp)
   1776c:	40678333          	sub	t1,a5,t1
   17770:	5cd35ee3          	bge	t1,a3,1854c <__gdtoa+0x11cc>
   17774:	01012703          	lw	a4,16(sp)
   17778:	ffd70613          	add	a2,a4,-3
   1777c:	ffd67613          	and	a2,a2,-3
   17780:	4a060ee3          	beqz	a2,1843c <__gdtoa+0x10bc>
   17784:	40d786b3          	sub	a3,a5,a3
   17788:	00168693          	add	a3,a3,1
   1778c:	08d12623          	sw	a3,140(sp)
   17790:	00100613          	li	a2,1
   17794:	00e65c63          	bge	a2,a4,177ac <__gdtoa+0x42c>
   17798:	03412783          	lw	a5,52(sp)
   1779c:	00f05863          	blez	a5,177ac <__gdtoa+0x42c>
   177a0:	03412783          	lw	a5,52(sp)
   177a4:	00d7d463          	bge	a5,a3,177ac <__gdtoa+0x42c>
   177a8:	5740106f          	j	18d1c <__gdtoa+0x199c>
   177ac:	03012783          	lw	a5,48(sp)
   177b0:	02012703          	lw	a4,32(sp)
   177b4:	03812b03          	lw	s6,56(sp)
   177b8:	00078a13          	mv	s4,a5
   177bc:	00d70733          	add	a4,a4,a3
   177c0:	00f687b3          	add	a5,a3,a5
   177c4:	02e12023          	sw	a4,32(sp)
   177c8:	02f12823          	sw	a5,48(sp)
   177cc:	00100593          	li	a1,1
   177d0:	00040513          	mv	a0,s0
   177d4:	03e12223          	sw	t5,36(sp)
   177d8:	164020ef          	jal	1993c <__i2b>
   177dc:	02412f03          	lw	t5,36(sp)
   177e0:	00050993          	mv	s3,a0
   177e4:	3e050e63          	beqz	a0,17be0 <__gdtoa+0x860>
   177e8:	020a0c63          	beqz	s4,17820 <__gdtoa+0x4a0>
   177ec:	02012783          	lw	a5,32(sp)
   177f0:	02f05863          	blez	a5,17820 <__gdtoa+0x4a0>
   177f4:	000a0693          	mv	a3,s4
   177f8:	0147d463          	bge	a5,s4,17800 <__gdtoa+0x480>
   177fc:	00078693          	mv	a3,a5
   17800:	03012783          	lw	a5,48(sp)
   17804:	08d12623          	sw	a3,140(sp)
   17808:	40da0a33          	sub	s4,s4,a3
   1780c:	40d787b3          	sub	a5,a5,a3
   17810:	02f12823          	sw	a5,48(sp)
   17814:	02012783          	lw	a5,32(sp)
   17818:	40d787b3          	sub	a5,a5,a3
   1781c:	02f12023          	sw	a5,32(sp)
   17820:	03812783          	lw	a5,56(sp)
   17824:	02078863          	beqz	a5,17854 <__gdtoa+0x4d4>
   17828:	04012783          	lw	a5,64(sp)
   1782c:	00078463          	beqz	a5,17834 <__gdtoa+0x4b4>
   17830:	600b16e3          	bnez	s6,1863c <__gdtoa+0x12bc>
   17834:	03812603          	lw	a2,56(sp)
   17838:	00048593          	mv	a1,s1
   1783c:	00040513          	mv	a0,s0
   17840:	03e12223          	sw	t5,36(sp)
   17844:	470020ef          	jal	19cb4 <__pow5mult>
   17848:	02412f03          	lw	t5,36(sp)
   1784c:	00050493          	mv	s1,a0
   17850:	38050863          	beqz	a0,17be0 <__gdtoa+0x860>
   17854:	00100593          	li	a1,1
   17858:	00040513          	mv	a0,s0
   1785c:	03e12223          	sw	t5,36(sp)
   17860:	0dc020ef          	jal	1993c <__i2b>
   17864:	00050b93          	mv	s7,a0
   17868:	36050c63          	beqz	a0,17be0 <__gdtoa+0x860>
   1786c:	01c12783          	lw	a5,28(sp)
   17870:	02412f03          	lw	t5,36(sp)
   17874:	480792e3          	bnez	a5,184f8 <__gdtoa+0x1178>
   17878:	01012783          	lw	a5,16(sp)
   1787c:	00100693          	li	a3,1
   17880:	18f6dce3          	bge	a3,a5,18218 <__gdtoa+0xe98>
   17884:	01f00a93          	li	s5,31
   17888:	02012783          	lw	a5,32(sp)
   1788c:	40fa8ab3          	sub	s5,s5,a5
   17890:	03012783          	lw	a5,48(sp)
   17894:	ffca8a93          	add	s5,s5,-4
   17898:	01fafa93          	and	s5,s5,31
   1789c:	00fa8633          	add	a2,s5,a5
   178a0:	09512623          	sw	s5,140(sp)
   178a4:	000a8793          	mv	a5,s5
   178a8:	26c048e3          	bgtz	a2,18318 <__gdtoa+0xf98>
   178ac:	02012703          	lw	a4,32(sp)
   178b0:	00f70633          	add	a2,a4,a5
   178b4:	30c04863          	bgtz	a2,17bc4 <__gdtoa+0x844>
   178b8:	05012783          	lw	a5,80(sp)
   178bc:	280790e3          	bnez	a5,1833c <__gdtoa+0xfbc>
   178c0:	03412783          	lw	a5,52(sp)
   178c4:	3af052e3          	blez	a5,18468 <__gdtoa+0x10e8>
   178c8:	04012783          	lw	a5,64(sp)
   178cc:	2c0784e3          	beqz	a5,18394 <__gdtoa+0x1014>
   178d0:	014a8633          	add	a2,s5,s4
   178d4:	60c046e3          	bgtz	a2,186e0 <__gdtoa+0x1360>
   178d8:	01c12783          	lw	a5,28(sp)
   178dc:	00098a13          	mv	s4,s3
   178e0:	680790e3          	bnez	a5,18760 <__gdtoa+0x13e0>
   178e4:	01a12e23          	sw	s10,28(sp)
   178e8:	01012c83          	lw	s9,16(sp)
   178ec:	03412d03          	lw	s10,52(sp)
   178f0:	000f0c13          	mv	s8,t5
   178f4:	00100793          	li	a5,1
   178f8:	01e12c23          	sw	t5,24(sp)
   178fc:	0b00006f          	j	179ac <__gdtoa+0x62c>
   17900:	00040513          	mv	a0,s0
   17904:	3fd010ef          	jal	19500 <_Bfree>
   17908:	000ad463          	bgez	s5,17910 <__gdtoa+0x590>
   1790c:	7e50006f          	j	188f0 <__gdtoa+0x1570>
   17910:	015ceab3          	or	s5,s9,s5
   17914:	000a9a63          	bnez	s5,17928 <__gdtoa+0x5a8>
   17918:	00092783          	lw	a5,0(s2)
   1791c:	0017f793          	and	a5,a5,1
   17920:	00079463          	bnez	a5,17928 <__gdtoa+0x5a8>
   17924:	7cd0006f          	j	188f0 <__gdtoa+0x1570>
   17928:	02812783          	lw	a5,40(sp)
   1792c:	00200713          	li	a4,2
   17930:	00e78463          	beq	a5,a4,17938 <__gdtoa+0x5b8>
   17934:	3140106f          	j	18c48 <__gdtoa+0x18c8>
   17938:	01bc0023          	sb	s11,0(s8)
   1793c:	08c12783          	lw	a5,140(sp)
   17940:	001c0c13          	add	s8,s8,1
   17944:	00fd1463          	bne	s10,a5,1794c <__gdtoa+0x5cc>
   17948:	2340106f          	j	18b7c <__gdtoa+0x17fc>
   1794c:	00048593          	mv	a1,s1
   17950:	00000693          	li	a3,0
   17954:	00a00613          	li	a2,10
   17958:	00040513          	mv	a0,s0
   1795c:	3c9010ef          	jal	19524 <__multadd>
   17960:	00050493          	mv	s1,a0
   17964:	26050e63          	beqz	a0,17be0 <__gdtoa+0x860>
   17968:	00000693          	li	a3,0
   1796c:	00a00613          	li	a2,10
   17970:	00098593          	mv	a1,s3
   17974:	00040513          	mv	a0,s0
   17978:	114980e3          	beq	s3,s4,18278 <__gdtoa+0xef8>
   1797c:	3a9010ef          	jal	19524 <__multadd>
   17980:	00050993          	mv	s3,a0
   17984:	24050e63          	beqz	a0,17be0 <__gdtoa+0x860>
   17988:	000a0593          	mv	a1,s4
   1798c:	00000693          	li	a3,0
   17990:	00a00613          	li	a2,10
   17994:	00040513          	mv	a0,s0
   17998:	38d010ef          	jal	19524 <__multadd>
   1799c:	00050a13          	mv	s4,a0
   179a0:	24050063          	beqz	a0,17be0 <__gdtoa+0x860>
   179a4:	08c12783          	lw	a5,140(sp)
   179a8:	00178793          	add	a5,a5,1
   179ac:	000b8593          	mv	a1,s7
   179b0:	00048513          	mv	a0,s1
   179b4:	08f12623          	sw	a5,140(sp)
   179b8:	66c010ef          	jal	19024 <__quorem_D2A>
   179bc:	00050b13          	mv	s6,a0
   179c0:	00098593          	mv	a1,s3
   179c4:	00048513          	mv	a0,s1
   179c8:	5cc020ef          	jal	19f94 <__mcmp>
   179cc:	000b8593          	mv	a1,s7
   179d0:	00050a93          	mv	s5,a0
   179d4:	000a0613          	mv	a2,s4
   179d8:	00040513          	mv	a0,s0
   179dc:	610020ef          	jal	19fec <__mdiff>
   179e0:	030b0d93          	add	s11,s6,48
   179e4:	00050593          	mv	a1,a0
   179e8:	1e050c63          	beqz	a0,17be0 <__gdtoa+0x860>
   179ec:	00c52783          	lw	a5,12(a0)
   179f0:	f00798e3          	bnez	a5,17900 <__gdtoa+0x580>
   179f4:	00a12823          	sw	a0,16(sp)
   179f8:	00048513          	mv	a0,s1
   179fc:	598020ef          	jal	19f94 <__mcmp>
   17a00:	01012583          	lw	a1,16(sp)
   17a04:	00050793          	mv	a5,a0
   17a08:	00040513          	mv	a0,s0
   17a0c:	00f12823          	sw	a5,16(sp)
   17a10:	2f1010ef          	jal	19500 <_Bfree>
   17a14:	01012783          	lw	a5,16(sp)
   17a18:	00fce733          	or	a4,s9,a5
   17a1c:	00070463          	beqz	a4,17a24 <__gdtoa+0x6a4>
   17a20:	4800106f          	j	18ea0 <__gdtoa+0x1b20>
   17a24:	00092783          	lw	a5,0(s2)
   17a28:	0017f793          	and	a5,a5,1
   17a2c:	060790e3          	bnez	a5,1828c <__gdtoa+0xf0c>
   17a30:	02812783          	lw	a5,40(sp)
   17a34:	00079463          	bnez	a5,17a3c <__gdtoa+0x6bc>
   17a38:	3580106f          	j	18d90 <__gdtoa+0x1a10>
   17a3c:	ef504ee3          	bgtz	s5,17938 <__gdtoa+0x5b8>
   17a40:	0104a683          	lw	a3,16(s1)
   17a44:	00100793          	li	a5,1
   17a48:	01812f03          	lw	t5,24(sp)
   17a4c:	01c12d03          	lw	s10,28(sp)
   17a50:	00070c93          	mv	s9,a4
   17a54:	00d7c463          	blt	a5,a3,17a5c <__gdtoa+0x6dc>
   17a58:	4140106f          	j	18e6c <__gdtoa+0x1aec>
   17a5c:	02812703          	lw	a4,40(sp)
   17a60:	00200793          	li	a5,2
   17a64:	000f0b13          	mv	s6,t5
   17a68:	02f71463          	bne	a4,a5,17a90 <__gdtoa+0x710>
   17a6c:	3d40106f          	j	18e40 <__gdtoa+0x1ac0>
   17a70:	2b5010ef          	jal	19524 <__multadd>
   17a74:	000b8593          	mv	a1,s7
   17a78:	00050493          	mv	s1,a0
   17a7c:	16050263          	beqz	a0,17be0 <__gdtoa+0x860>
   17a80:	5a4010ef          	jal	19024 <__quorem_D2A>
   17a84:	03050d93          	add	s11,a0,48
   17a88:	00090c13          	mv	s8,s2
   17a8c:	000a8a13          	mv	s4,s5
   17a90:	000a0593          	mv	a1,s4
   17a94:	000b8513          	mv	a0,s7
   17a98:	4fc020ef          	jal	19f94 <__mcmp>
   17a9c:	00050793          	mv	a5,a0
   17aa0:	00000693          	li	a3,0
   17aa4:	00a00613          	li	a2,10
   17aa8:	000a0593          	mv	a1,s4
   17aac:	00040513          	mv	a0,s0
   17ab0:	001c0913          	add	s2,s8,1
   17ab4:	00f04463          	bgtz	a5,17abc <__gdtoa+0x73c>
   17ab8:	3700106f          	j	18e28 <__gdtoa+0x1aa8>
   17abc:	ffb90fa3          	sb	s11,-1(s2)
   17ac0:	265010ef          	jal	19524 <__multadd>
   17ac4:	00050a93          	mv	s5,a0
   17ac8:	00000693          	li	a3,0
   17acc:	00a00613          	li	a2,10
   17ad0:	00048593          	mv	a1,s1
   17ad4:	00040513          	mv	a0,s0
   17ad8:	100a8463          	beqz	s5,17be0 <__gdtoa+0x860>
   17adc:	f9499ae3          	bne	s3,s4,17a70 <__gdtoa+0x6f0>
   17ae0:	000a8993          	mv	s3,s5
   17ae4:	f8dff06f          	j	17a70 <__gdtoa+0x6f0>
   17ae8:	00400793          	li	a5,4
   17aec:	10f31c63          	bne	t1,a5,17c04 <__gdtoa+0x884>
   17af0:	00812703          	lw	a4,8(sp)
   17af4:	00c12603          	lw	a2,12(sp)
   17af8:	0a412c83          	lw	s9,164(sp)
   17afc:	0cc12083          	lw	ra,204(sp)
   17b00:	0b012b03          	lw	s6,176(sp)
   17b04:	0a012d03          	lw	s10,160(sp)
   17b08:	ffff87b7          	lui	a5,0xffff8
   17b0c:	00f72023          	sw	a5,0(a4)
   17b10:	000225b7          	lui	a1,0x22
   17b14:	00300693          	li	a3,3
   17b18:	08458593          	add	a1,a1,132 # 22084 <__clzsi2+0x158>
   17b1c:	0d010113          	add	sp,sp,208
   17b20:	4380106f          	j	18f58 <__nrv_alloc_D2A>
   17b24:	00048593          	mv	a1,s1
   17b28:	00040513          	mv	a0,s0
   17b2c:	1d5010ef          	jal	19500 <_Bfree>
   17b30:	0c412483          	lw	s1,196(sp)
   17b34:	0c012903          	lw	s2,192(sp)
   17b38:	0bc12983          	lw	s3,188(sp)
   17b3c:	0b412a83          	lw	s5,180(sp)
   17b40:	0ac12b83          	lw	s7,172(sp)
   17b44:	0a812c03          	lw	s8,168(sp)
   17b48:	09c12d83          	lw	s11,156(sp)
   17b4c:	00812703          	lw	a4,8(sp)
   17b50:	00c12603          	lw	a2,12(sp)
   17b54:	00100793          	li	a5,1
   17b58:	000225b7          	lui	a1,0x22
   17b5c:	00040513          	mv	a0,s0
   17b60:	00f72023          	sw	a5,0(a4)
   17b64:	00100693          	li	a3,1
   17b68:	06458593          	add	a1,a1,100 # 22064 <__clzsi2+0x138>
   17b6c:	3ec010ef          	jal	18f58 <__nrv_alloc_D2A>
   17b70:	0c812403          	lw	s0,200(sp)
   17b74:	00050f13          	mv	t5,a0
   17b78:	0cc12083          	lw	ra,204(sp)
   17b7c:	0a412c83          	lw	s9,164(sp)
   17b80:	0b012b03          	lw	s6,176(sp)
   17b84:	0a012d03          	lw	s10,160(sp)
   17b88:	000f0513          	mv	a0,t5
   17b8c:	0d010113          	add	sp,sp,208
   17b90:	00008067          	ret
   17b94:	00812703          	lw	a4,8(sp)
   17b98:	00c12603          	lw	a2,12(sp)
   17b9c:	0cc12083          	lw	ra,204(sp)
   17ba0:	0b012b03          	lw	s6,176(sp)
   17ba4:	0a012d03          	lw	s10,160(sp)
   17ba8:	ffff87b7          	lui	a5,0xffff8
   17bac:	00f72023          	sw	a5,0(a4)
   17bb0:	000225b7          	lui	a1,0x22
   17bb4:	00800693          	li	a3,8
   17bb8:	07858593          	add	a1,a1,120 # 22078 <__clzsi2+0x14c>
   17bbc:	0d010113          	add	sp,sp,208
   17bc0:	3980106f          	j	18f58 <__nrv_alloc_D2A>
   17bc4:	000b8593          	mv	a1,s7
   17bc8:	00040513          	mv	a0,s0
   17bcc:	03e12023          	sw	t5,32(sp)
   17bd0:	234020ef          	jal	19e04 <__lshift>
   17bd4:	02012f03          	lw	t5,32(sp)
   17bd8:	00050b93          	mv	s7,a0
   17bdc:	cc051ee3          	bnez	a0,178b8 <__gdtoa+0x538>
   17be0:	0c812403          	lw	s0,200(sp)
   17be4:	0c412483          	lw	s1,196(sp)
   17be8:	0c012903          	lw	s2,192(sp)
   17bec:	0bc12983          	lw	s3,188(sp)
   17bf0:	0b812a03          	lw	s4,184(sp)
   17bf4:	0b412a83          	lw	s5,180(sp)
   17bf8:	0ac12b83          	lw	s7,172(sp)
   17bfc:	0a812c03          	lw	s8,168(sp)
   17c00:	09c12d83          	lw	s11,156(sp)
   17c04:	00000f13          	li	t5,0
   17c08:	f71ff06f          	j	17b78 <__gdtoa+0x7f8>
   17c0c:	0004a823          	sw	zero,16(s1)
   17c10:	8a9ff06f          	j	174b8 <__gdtoa+0x138>
   17c14:	00100793          	li	a5,1
   17c18:	04f12823          	sw	a5,80(sp)
   17c1c:	02012823          	sw	zero,48(sp)
   17c20:	fffa0793          	add	a5,s4,-1
   17c24:	3a07c463          	bltz	a5,17fcc <__gdtoa+0xc4c>
   17c28:	01c12783          	lw	a5,28(sp)
   17c2c:	a407dae3          	bgez	a5,17680 <__gdtoa+0x300>
   17c30:	01c12783          	lw	a5,28(sp)
   17c34:	03012703          	lw	a4,48(sp)
   17c38:	00012e23          	sw	zero,28(sp)
   17c3c:	02f12e23          	sw	a5,60(sp)
   17c40:	40f70733          	sub	a4,a4,a5
   17c44:	02e12823          	sw	a4,48(sp)
   17c48:	40f00733          	neg	a4,a5
   17c4c:	02e12c23          	sw	a4,56(sp)
   17c50:	a49ff06f          	j	17698 <__gdtoa+0x318>
   17c54:	00050593          	mv	a1,a0
   17c58:	00048513          	mv	a0,s1
   17c5c:	638010ef          	jal	19294 <__rshift_D2A>
   17c60:	08c12683          	lw	a3,140(sp)
   17c64:	015687b3          	add	a5,a3,s5
   17c68:	02f12223          	sw	a5,36(sp)
   17c6c:	40dc0c33          	sub	s8,s8,a3
   17c70:	85dff06f          	j	174cc <__gdtoa+0x14c>
   17c74:	02812783          	lw	a5,40(sp)
   17c78:	00012823          	sw	zero,16(sp)
   17c7c:	3fd78793          	add	a5,a5,1021 # ffff83fd <__BSS_END__+0xfffd4825>
   17c80:	7f87ba13          	sltiu	s4,a5,2040
   17c84:	000b8513          	mv	a0,s7
   17c88:	084070ef          	jal	1ed0c <__floatsidf>
   17c8c:	ed01a603          	lw	a2,-304(gp) # 237e0 <__SDATA_BEGIN__+0x28>
   17c90:	ed41a683          	lw	a3,-300(gp) # 237e4 <__SDATA_BEGIN__+0x2c>
   17c94:	1a0060ef          	jal	1de34 <__muldf3>
   17c98:	7f5060ef          	jal	1ec8c <__fixdfsi>
   17c9c:	00100793          	li	a5,1
   17ca0:	00350593          	add	a1,a0,3
   17ca4:	04f12023          	sw	a5,64(sp)
   17ca8:	fff00793          	li	a5,-1
   17cac:	00058693          	mv	a3,a1
   17cb0:	00012c23          	sw	zero,24(sp)
   17cb4:	04f12a23          	sw	a5,84(sp)
   17cb8:	02f12a23          	sw	a5,52(sp)
   17cbc:	a51ff06f          	j	1770c <__gdtoa+0x38c>
   17cc0:	02812783          	lw	a5,40(sp)
   17cc4:	00300693          	li	a3,3
   17cc8:	40f687b3          	sub	a5,a3,a5
   17ccc:	02f12423          	sw	a5,40(sp)
   17cd0:	03412783          	lw	a5,52(sp)
   17cd4:	00e00693          	li	a3,14
   17cd8:	a6f6e2e3          	bltu	a3,a5,1773c <__gdtoa+0x3bc>
   17cdc:	a60a00e3          	beqz	s4,1773c <__gdtoa+0x3bc>
   17ce0:	03c12703          	lw	a4,60(sp)
   17ce4:	02812683          	lw	a3,40(sp)
   17ce8:	00d766b3          	or	a3,a4,a3
   17cec:	a40698e3          	bnez	a3,1773c <__gdtoa+0x3bc>
   17cf0:	05012703          	lw	a4,80(sp)
   17cf4:	08012623          	sw	zero,140(sp)
   17cf8:	05312c23          	sw	s3,88(sp)
   17cfc:	04412b03          	lw	s6,68(sp)
   17d00:	02070263          	beqz	a4,17d24 <__gdtoa+0x9a4>
   17d04:	ed81a603          	lw	a2,-296(gp) # 237e8 <__SDATA_BEGIN__+0x30>
   17d08:	edc1a683          	lw	a3,-292(gp) # 237ec <__SDATA_BEGIN__+0x34>
   17d0c:	000b0513          	mv	a0,s6
   17d10:	00098593          	mv	a1,s3
   17d14:	03e12423          	sw	t5,40(sp)
   17d18:	040060ef          	jal	1dd58 <__ledf2>
   17d1c:	02812f03          	lw	t5,40(sp)
   17d20:	66054ce3          	bltz	a0,18b98 <__gdtoa+0x1818>
   17d24:	04412783          	lw	a5,68(sp)
   17d28:	03e12423          	sw	t5,40(sp)
   17d2c:	00078613          	mv	a2,a5
   17d30:	00078513          	mv	a0,a5
   17d34:	05812783          	lw	a5,88(sp)
   17d38:	00078693          	mv	a3,a5
   17d3c:	00078593          	mv	a1,a5
   17d40:	73d040ef          	jal	1cc7c <__adddf3>
   17d44:	ef01a603          	lw	a2,-272(gp) # 23800 <__SDATA_BEGIN__+0x48>
   17d48:	ef41a683          	lw	a3,-268(gp) # 23804 <__SDATA_BEGIN__+0x4c>
   17d4c:	731040ef          	jal	1cc7c <__adddf3>
   17d50:	fcc007b7          	lui	a5,0xfcc00
   17d54:	00b78a33          	add	s4,a5,a1
   17d58:	03412783          	lw	a5,52(sp)
   17d5c:	02812f03          	lw	t5,40(sp)
   17d60:	00050713          	mv	a4,a0
   17d64:	280782e3          	beqz	a5,187e8 <__gdtoa+0x1468>
   17d68:	03412783          	lw	a5,52(sp)
   17d6c:	04412e83          	lw	t4,68(sp)
   17d70:	05812803          	lw	a6,88(sp)
   17d74:	06012023          	sw	zero,96(sp)
   17d78:	04f12e23          	sw	a5,92(sp)
   17d7c:	05c12683          	lw	a3,92(sp)
   17d80:	000227b7          	lui	a5,0x22
   17d84:	04012583          	lw	a1,64(sp)
   17d88:	fff68693          	add	a3,a3,-1
   17d8c:	55078613          	add	a2,a5,1360 # 22550 <__mprec_tens>
   17d90:	00369693          	sll	a3,a3,0x3
   17d94:	00c686b3          	add	a3,a3,a2
   17d98:	07012223          	sw	a6,100(sp)
   17d9c:	03d12423          	sw	t4,40(sp)
   17da0:	0006a603          	lw	a2,0(a3)
   17da4:	0046a683          	lw	a3,4(a3)
   17da8:	42058ce3          	beqz	a1,189e0 <__gdtoa+0x1660>
   17dac:	f001a503          	lw	a0,-256(gp) # 23810 <__SDATA_BEGIN__+0x58>
   17db0:	f041a583          	lw	a1,-252(gp) # 23814 <__SDATA_BEGIN__+0x5c>
   17db4:	06f12e23          	sw	a5,124(sp)
   17db8:	001f0b13          	add	s6,t5,1
   17dbc:	07e12a23          	sw	t5,116(sp)
   17dc0:	04e12423          	sw	a4,72(sp)
   17dc4:	64c050ef          	jal	1d410 <__divdf3>
   17dc8:	04812703          	lw	a4,72(sp)
   17dcc:	000a0693          	mv	a3,s4
   17dd0:	00070613          	mv	a2,a4
   17dd4:	710060ef          	jal	1e4e4 <__subdf3>
   17dd8:	02812e83          	lw	t4,40(sp)
   17ddc:	06412803          	lw	a6,100(sp)
   17de0:	00050613          	mv	a2,a0
   17de4:	00058693          	mv	a3,a1
   17de8:	000e8513          	mv	a0,t4
   17dec:	00080593          	mv	a1,a6
   17df0:	07d12423          	sw	t4,104(sp)
   17df4:	05012423          	sw	a6,72(sp)
   17df8:	06c12623          	sw	a2,108(sp)
   17dfc:	06d12823          	sw	a3,112(sp)
   17e00:	68d060ef          	jal	1ec8c <__fixdfsi>
   17e04:	02a12423          	sw	a0,40(sp)
   17e08:	705060ef          	jal	1ed0c <__floatsidf>
   17e0c:	06812e83          	lw	t4,104(sp)
   17e10:	04812803          	lw	a6,72(sp)
   17e14:	00050613          	mv	a2,a0
   17e18:	00058693          	mv	a3,a1
   17e1c:	000e8513          	mv	a0,t4
   17e20:	00080593          	mv	a1,a6
   17e24:	6c0060ef          	jal	1e4e4 <__subdf3>
   17e28:	02812e03          	lw	t3,40(sp)
   17e2c:	07412f03          	lw	t5,116(sp)
   17e30:	00050613          	mv	a2,a0
   17e34:	00058693          	mv	a3,a1
   17e38:	00050a13          	mv	s4,a0
   17e3c:	00058993          	mv	s3,a1
   17e40:	06c12503          	lw	a0,108(sp)
   17e44:	07012583          	lw	a1,112(sp)
   17e48:	030e0e13          	add	t3,t3,48
   17e4c:	01cf0023          	sb	t3,0(t5)
   17e50:	03e12423          	sw	t5,40(sp)
   17e54:	629050ef          	jal	1dc7c <__gedf2>
   17e58:	02812f03          	lw	t5,40(sp)
   17e5c:	68a042e3          	bgtz	a0,18ce0 <__gdtoa+0x1960>
   17e60:	ed81a783          	lw	a5,-296(gp) # 237e8 <__SDATA_BEGIN__+0x30>
   17e64:	edc1a803          	lw	a6,-292(gp) # 237ec <__SDATA_BEGIN__+0x34>
   17e68:	04f12423          	sw	a5,72(sp)
   17e6c:	05012623          	sw	a6,76(sp)
   17e70:	ee01a783          	lw	a5,-288(gp) # 237f0 <__SDATA_BEGIN__+0x38>
   17e74:	ee41a803          	lw	a6,-284(gp) # 237f4 <__SDATA_BEGIN__+0x3c>
   17e78:	06912223          	sw	s1,100(sp)
   17e7c:	07712a23          	sw	s7,116(sp)
   17e80:	07812c23          	sw	s8,120(sp)
   17e84:	06c12483          	lw	s1,108(sp)
   17e88:	05c12c03          	lw	s8,92(sp)
   17e8c:	07012b83          	lw	s7,112(sp)
   17e90:	02f12423          	sw	a5,40(sp)
   17e94:	03012623          	sw	a6,44(sp)
   17e98:	05e12e23          	sw	t5,92(sp)
   17e9c:	06812423          	sw	s0,104(sp)
   17ea0:	0800006f          	j	17f20 <__gdtoa+0xba0>
   17ea4:	08c12783          	lw	a5,140(sp)
   17ea8:	00178793          	add	a5,a5,1
   17eac:	08f12623          	sw	a5,140(sp)
   17eb0:	6b87d6e3          	bge	a5,s8,18d5c <__gdtoa+0x19dc>
   17eb4:	781050ef          	jal	1de34 <__muldf3>
   17eb8:	02812603          	lw	a2,40(sp)
   17ebc:	02c12683          	lw	a3,44(sp)
   17ec0:	00050493          	mv	s1,a0
   17ec4:	00058b93          	mv	s7,a1
   17ec8:	000a0513          	mv	a0,s4
   17ecc:	00098593          	mv	a1,s3
   17ed0:	765050ef          	jal	1de34 <__muldf3>
   17ed4:	00058a13          	mv	s4,a1
   17ed8:	00050413          	mv	s0,a0
   17edc:	5b1060ef          	jal	1ec8c <__fixdfsi>
   17ee0:	00050993          	mv	s3,a0
   17ee4:	629060ef          	jal	1ed0c <__floatsidf>
   17ee8:	00050613          	mv	a2,a0
   17eec:	00058693          	mv	a3,a1
   17ef0:	00040513          	mv	a0,s0
   17ef4:	000a0593          	mv	a1,s4
   17ef8:	5ec060ef          	jal	1e4e4 <__subdf3>
   17efc:	03098793          	add	a5,s3,48
   17f00:	00048613          	mv	a2,s1
   17f04:	000b8693          	mv	a3,s7
   17f08:	00fb0023          	sb	a5,0(s6)
   17f0c:	001b0b13          	add	s6,s6,1
   17f10:	00050a13          	mv	s4,a0
   17f14:	00058993          	mv	s3,a1
   17f18:	641050ef          	jal	1dd58 <__ledf2>
   17f1c:	5a054ce3          	bltz	a0,18cd4 <__gdtoa+0x1954>
   17f20:	04812503          	lw	a0,72(sp)
   17f24:	04c12583          	lw	a1,76(sp)
   17f28:	000a0613          	mv	a2,s4
   17f2c:	00098693          	mv	a3,s3
   17f30:	5b4060ef          	jal	1e4e4 <__subdf3>
   17f34:	00050613          	mv	a2,a0
   17f38:	00058693          	mv	a3,a1
   17f3c:	00048513          	mv	a0,s1
   17f40:	000b8593          	mv	a1,s7
   17f44:	539050ef          	jal	1dc7c <__gedf2>
   17f48:	00050793          	mv	a5,a0
   17f4c:	02812603          	lw	a2,40(sp)
   17f50:	02c12683          	lw	a3,44(sp)
   17f54:	00048513          	mv	a0,s1
   17f58:	000b8593          	mv	a1,s7
   17f5c:	f4f054e3          	blez	a5,17ea4 <__gdtoa+0xb24>
   17f60:	06012783          	lw	a5,96(sp)
   17f64:	06412483          	lw	s1,100(sp)
   17f68:	05c12f03          	lw	t5,92(sp)
   17f6c:	06812403          	lw	s0,104(sp)
   17f70:	fffb4b83          	lbu	s7,-1(s6)
   17f74:	00178d93          	add	s11,a5,1
   17f78:	03900693          	li	a3,57
   17f7c:	0100006f          	j	17f8c <__gdtoa+0xc0c>
   17f80:	24ff0ae3          	beq	t5,a5,189d4 <__gdtoa+0x1654>
   17f84:	fff7cb83          	lbu	s7,-1(a5)
   17f88:	00078b13          	mv	s6,a5
   17f8c:	fffb0793          	add	a5,s6,-1
   17f90:	fedb88e3          	beq	s7,a3,17f80 <__gdtoa+0xc00>
   17f94:	001b8693          	add	a3,s7,1
   17f98:	0ff6f693          	zext.b	a3,a3
   17f9c:	00d78023          	sb	a3,0(a5)
   17fa0:	000d8b93          	mv	s7,s11
   17fa4:	02000c93          	li	s9,32
   17fa8:	2100006f          	j	181b8 <__gdtoa+0xe38>
   17fac:	0c812403          	lw	s0,200(sp)
   17fb0:	0c412483          	lw	s1,196(sp)
   17fb4:	0c012903          	lw	s2,192(sp)
   17fb8:	0b412a83          	lw	s5,180(sp)
   17fbc:	0ac12b83          	lw	s7,172(sp)
   17fc0:	09c12d83          	lw	s11,156(sp)
   17fc4:	00000f13          	li	t5,0
   17fc8:	bb1ff06f          	j	17b78 <__gdtoa+0x7f8>
   17fcc:	00100693          	li	a3,1
   17fd0:	414687b3          	sub	a5,a3,s4
   17fd4:	02f12823          	sw	a5,48(sp)
   17fd8:	02012023          	sw	zero,32(sp)
   17fdc:	c4dff06f          	j	17c28 <__gdtoa+0x8a8>
   17fe0:	03812b03          	lw	s6,56(sp)
   17fe4:	03012a03          	lw	s4,48(sp)
   17fe8:	00000993          	li	s3,0
   17fec:	ffcff06f          	j	177e8 <__gdtoa+0x468>
   17ff0:	00200793          	li	a5,2
   17ff4:	02f12423          	sw	a5,40(sp)
   17ff8:	f3cff06f          	j	17734 <__gdtoa+0x3b4>
   17ffc:	01c12783          	lw	a5,28(sp)
   18000:	04012823          	sw	zero,80(sp)
   18004:	fff78793          	add	a5,a5,-1
   18008:	00f12e23          	sw	a5,28(sp)
   1800c:	c11ff06f          	j	17c1c <__gdtoa+0x89c>
   18010:	ffc78793          	add	a5,a5,-4
   18014:	00f12823          	sw	a5,16(sp)
   18018:	00400613          	li	a2,4
   1801c:	22c78863          	beq	a5,a2,1824c <__gdtoa+0xecc>
   18020:	6ed78063          	beq	a5,a3,18700 <__gdtoa+0x1380>
   18024:	00200693          	li	a3,2
   18028:	04012023          	sw	zero,64(sp)
   1802c:	00000a13          	li	s4,0
   18030:	22d78463          	beq	a5,a3,18258 <__gdtoa+0xed8>
   18034:	00300793          	li	a5,3
   18038:	00f12823          	sw	a5,16(sp)
   1803c:	eacff06f          	j	176e8 <__gdtoa+0x368>
   18040:	000226b7          	lui	a3,0x22
   18044:	00379793          	sll	a5,a5,0x3
   18048:	55068693          	add	a3,a3,1360 # 22550 <__mprec_tens>
   1804c:	00d787b3          	add	a5,a5,a3
   18050:	0007aa03          	lw	s4,0(a5)
   18054:	0047aa83          	lw	s5,4(a5)
   18058:	01812783          	lw	a5,24(sp)
   1805c:	5407c263          	bltz	a5,185a0 <__gdtoa+0x1220>
   18060:	04812b03          	lw	s6,72(sp)
   18064:	00100793          	li	a5,1
   18068:	000a0613          	mv	a2,s4
   1806c:	000a8693          	mv	a3,s5
   18070:	000b0513          	mv	a0,s6
   18074:	00098593          	mv	a1,s3
   18078:	01e12823          	sw	t5,16(sp)
   1807c:	08f12623          	sw	a5,140(sp)
   18080:	390050ef          	jal	1d410 <__divdf3>
   18084:	409060ef          	jal	1ec8c <__fixdfsi>
   18088:	00050913          	mv	s2,a0
   1808c:	481060ef          	jal	1ed0c <__floatsidf>
   18090:	000a0613          	mv	a2,s4
   18094:	000a8693          	mv	a3,s5
   18098:	59d050ef          	jal	1de34 <__muldf3>
   1809c:	00050613          	mv	a2,a0
   180a0:	00058693          	mv	a3,a1
   180a4:	000b0513          	mv	a0,s6
   180a8:	00098593          	mv	a1,s3
   180ac:	438060ef          	jal	1e4e4 <__subdf3>
   180b0:	01012f03          	lw	t5,16(sp)
   180b4:	03c12703          	lw	a4,60(sp)
   180b8:	03090793          	add	a5,s2,48
   180bc:	00ff0023          	sb	a5,0(t5)
   180c0:	00000613          	li	a2,0
   180c4:	00000693          	li	a3,0
   180c8:	00170d93          	add	s11,a4,1
   180cc:	001f0b13          	add	s6,t5,1
   180d0:	00050c13          	mv	s8,a0
   180d4:	00058993          	mv	s3,a1
   180d8:	319050ef          	jal	1dbf0 <__eqdf2>
   180dc:	01012f03          	lw	t5,16(sp)
   180e0:	000d8b93          	mv	s7,s11
   180e4:	0c050a63          	beqz	a0,181b8 <__gdtoa+0xe38>
   180e8:	ee41a803          	lw	a6,-284(gp) # 237f4 <__SDATA_BEGIN__+0x3c>
   180ec:	ee01a783          	lw	a5,-288(gp) # 237f0 <__SDATA_BEGIN__+0x38>
   180f0:	01912e23          	sw	s9,28(sp)
   180f4:	01b12c23          	sw	s11,24(sp)
   180f8:	03412c83          	lw	s9,52(sp)
   180fc:	000c0d93          	mv	s11,s8
   18100:	00f12823          	sw	a5,16(sp)
   18104:	00098c13          	mv	s8,s3
   18108:	01012a23          	sw	a6,20(sp)
   1810c:	000f0993          	mv	s3,t5
   18110:	0700006f          	j	18180 <__gdtoa+0xe00>
   18114:	09112623          	sw	a7,140(sp)
   18118:	51d050ef          	jal	1de34 <__muldf3>
   1811c:	000a0613          	mv	a2,s4
   18120:	000a8693          	mv	a3,s5
   18124:	00050d93          	mv	s11,a0
   18128:	00058c13          	mv	s8,a1
   1812c:	2e4050ef          	jal	1d410 <__divdf3>
   18130:	35d060ef          	jal	1ec8c <__fixdfsi>
   18134:	00050913          	mv	s2,a0
   18138:	3d5060ef          	jal	1ed0c <__floatsidf>
   1813c:	000a0613          	mv	a2,s4
   18140:	000a8693          	mv	a3,s5
   18144:	4f1050ef          	jal	1de34 <__muldf3>
   18148:	00050613          	mv	a2,a0
   1814c:	00058693          	mv	a3,a1
   18150:	000d8513          	mv	a0,s11
   18154:	000c0593          	mv	a1,s8
   18158:	38c060ef          	jal	1e4e4 <__subdf3>
   1815c:	001b0b13          	add	s6,s6,1
   18160:	03090793          	add	a5,s2,48
   18164:	fefb0fa3          	sb	a5,-1(s6)
   18168:	00000613          	li	a2,0
   1816c:	00000693          	li	a3,0
   18170:	00050d93          	mv	s11,a0
   18174:	00058c13          	mv	s8,a1
   18178:	279050ef          	jal	1dbf0 <__eqdf2>
   1817c:	40050c63          	beqz	a0,18594 <__gdtoa+0x1214>
   18180:	08c12803          	lw	a6,140(sp)
   18184:	01012603          	lw	a2,16(sp)
   18188:	01412683          	lw	a3,20(sp)
   1818c:	000d8513          	mv	a0,s11
   18190:	000c0593          	mv	a1,s8
   18194:	00180893          	add	a7,a6,1
   18198:	f7981ee3          	bne	a6,s9,18114 <__gdtoa+0xd94>
   1819c:	02812703          	lw	a4,40(sp)
   181a0:	01812d83          	lw	s11,24(sp)
   181a4:	00098f13          	mv	t5,s3
   181a8:	7a070a63          	beqz	a4,1895c <__gdtoa+0x15dc>
   181ac:	00100793          	li	a5,1
   181b0:	01000c93          	li	s9,16
   181b4:	1cf70ee3          	beq	a4,a5,18b90 <__gdtoa+0x1810>
   181b8:	00048593          	mv	a1,s1
   181bc:	00040513          	mv	a0,s0
   181c0:	01e12823          	sw	t5,16(sp)
   181c4:	33c010ef          	jal	19500 <_Bfree>
   181c8:	00812783          	lw	a5,8(sp)
   181cc:	000b0023          	sb	zero,0(s6)
   181d0:	01012f03          	lw	t5,16(sp)
   181d4:	0177a023          	sw	s7,0(a5)
   181d8:	00c12783          	lw	a5,12(sp)
   181dc:	00078463          	beqz	a5,181e4 <__gdtoa+0xe64>
   181e0:	0167a023          	sw	s6,0(a5)
   181e4:	000d2783          	lw	a5,0(s10)
   181e8:	0c812403          	lw	s0,200(sp)
   181ec:	0c412483          	lw	s1,196(sp)
   181f0:	0197e7b3          	or	a5,a5,s9
   181f4:	0c012903          	lw	s2,192(sp)
   181f8:	0bc12983          	lw	s3,188(sp)
   181fc:	0b812a03          	lw	s4,184(sp)
   18200:	0b412a83          	lw	s5,180(sp)
   18204:	0ac12b83          	lw	s7,172(sp)
   18208:	0a812c03          	lw	s8,168(sp)
   1820c:	09c12d83          	lw	s11,156(sp)
   18210:	00fd2023          	sw	a5,0(s10)
   18214:	965ff06f          	j	17b78 <__gdtoa+0x7f8>
   18218:	e6dc1663          	bne	s8,a3,17884 <__gdtoa+0x504>
   1821c:	004da783          	lw	a5,4(s11)
   18220:	00178793          	add	a5,a5,1
   18224:	e757d063          	bge	a5,s5,17884 <__gdtoa+0x504>
   18228:	03012783          	lw	a5,48(sp)
   1822c:	00178793          	add	a5,a5,1
   18230:	02f12823          	sw	a5,48(sp)
   18234:	02012783          	lw	a5,32(sp)
   18238:	00178793          	add	a5,a5,1
   1823c:	02f12023          	sw	a5,32(sp)
   18240:	00100793          	li	a5,1
   18244:	00f12e23          	sw	a5,28(sp)
   18248:	e3cff06f          	j	17884 <__gdtoa+0x504>
   1824c:	00100793          	li	a5,1
   18250:	00000a13          	li	s4,0
   18254:	04f12023          	sw	a5,64(sp)
   18258:	01812583          	lw	a1,24(sp)
   1825c:	00b04463          	bgtz	a1,18264 <__gdtoa+0xee4>
   18260:	00100593          	li	a1,1
   18264:	00058693          	mv	a3,a1
   18268:	04b12a23          	sw	a1,84(sp)
   1826c:	02b12a23          	sw	a1,52(sp)
   18270:	00b12c23          	sw	a1,24(sp)
   18274:	c98ff06f          	j	1770c <__gdtoa+0x38c>
   18278:	2ac010ef          	jal	19524 <__multadd>
   1827c:	00050993          	mv	s3,a0
   18280:	960500e3          	beqz	a0,17be0 <__gdtoa+0x860>
   18284:	00050a13          	mv	s4,a0
   18288:	f1cff06f          	j	179a4 <__gdtoa+0x624>
   1828c:	ea0ad663          	bgez	s5,17938 <__gdtoa+0x5b8>
   18290:	02812783          	lw	a5,40(sp)
   18294:	01812f03          	lw	t5,24(sp)
   18298:	01c12d03          	lw	s10,28(sp)
   1829c:	00070c93          	mv	s9,a4
   182a0:	3a079ee3          	bnez	a5,18e5c <__gdtoa+0x1adc>
   182a4:	0104a683          	lw	a3,16(s1)
   182a8:	00100793          	li	a5,1
   182ac:	01000c93          	li	s9,16
   182b0:	001c0913          	add	s2,s8,1
   182b4:	34d7d0e3          	bge	a5,a3,18df4 <__gdtoa+0x1a74>
   182b8:	00098a93          	mv	s5,s3
   182bc:	00090b13          	mv	s6,s2
   182c0:	01bc0023          	sb	s11,0(s8)
   182c4:	000a0993          	mv	s3,s4
   182c8:	000b8593          	mv	a1,s7
   182cc:	00040513          	mv	a0,s0
   182d0:	01e12823          	sw	t5,16(sp)
   182d4:	22c010ef          	jal	19500 <_Bfree>
   182d8:	03c12783          	lw	a5,60(sp)
   182dc:	01012f03          	lw	t5,16(sp)
   182e0:	00178b93          	add	s7,a5,1
   182e4:	ec098ae3          	beqz	s3,181b8 <__gdtoa+0xe38>
   182e8:	000a8c63          	beqz	s5,18300 <__gdtoa+0xf80>
   182ec:	013a8a63          	beq	s5,s3,18300 <__gdtoa+0xf80>
   182f0:	000a8593          	mv	a1,s5
   182f4:	00040513          	mv	a0,s0
   182f8:	208010ef          	jal	19500 <_Bfree>
   182fc:	01012f03          	lw	t5,16(sp)
   18300:	00098593          	mv	a1,s3
   18304:	00040513          	mv	a0,s0
   18308:	01e12823          	sw	t5,16(sp)
   1830c:	1f4010ef          	jal	19500 <_Bfree>
   18310:	01012f03          	lw	t5,16(sp)
   18314:	ea5ff06f          	j	181b8 <__gdtoa+0xe38>
   18318:	00048593          	mv	a1,s1
   1831c:	00040513          	mv	a0,s0
   18320:	03e12223          	sw	t5,36(sp)
   18324:	2e1010ef          	jal	19e04 <__lshift>
   18328:	00050493          	mv	s1,a0
   1832c:	8a050ae3          	beqz	a0,17be0 <__gdtoa+0x860>
   18330:	08c12783          	lw	a5,140(sp)
   18334:	02412f03          	lw	t5,36(sp)
   18338:	d74ff06f          	j	178ac <__gdtoa+0x52c>
   1833c:	000b8593          	mv	a1,s7
   18340:	00048513          	mv	a0,s1
   18344:	03e12023          	sw	t5,32(sp)
   18348:	44d010ef          	jal	19f94 <__mcmp>
   1834c:	02012f03          	lw	t5,32(sp)
   18350:	d6055863          	bgez	a0,178c0 <__gdtoa+0x540>
   18354:	03c12783          	lw	a5,60(sp)
   18358:	00048593          	mv	a1,s1
   1835c:	00000693          	li	a3,0
   18360:	fff78793          	add	a5,a5,-1
   18364:	00a00613          	li	a2,10
   18368:	00040513          	mv	a0,s0
   1836c:	02f12e23          	sw	a5,60(sp)
   18370:	1b4010ef          	jal	19524 <__multadd>
   18374:	00050493          	mv	s1,a0
   18378:	860504e3          	beqz	a0,17be0 <__gdtoa+0x860>
   1837c:	04012783          	lw	a5,64(sp)
   18380:	02012f03          	lw	t5,32(sp)
   18384:	100792e3          	bnez	a5,18c88 <__gdtoa+0x1908>
   18388:	05412783          	lw	a5,84(sp)
   1838c:	1ef05863          	blez	a5,1857c <__gdtoa+0x11fc>
   18390:	02f12a23          	sw	a5,52(sp)
   18394:	03412903          	lw	s2,52(sp)
   18398:	000f0c13          	mv	s8,t5
   1839c:	00100793          	li	a5,1
   183a0:	000f0a13          	mv	s4,t5
   183a4:	0180006f          	j	183bc <__gdtoa+0x103c>
   183a8:	17c010ef          	jal	19524 <__multadd>
   183ac:	00050493          	mv	s1,a0
   183b0:	820508e3          	beqz	a0,17be0 <__gdtoa+0x860>
   183b4:	08c12783          	lw	a5,140(sp)
   183b8:	00178793          	add	a5,a5,1
   183bc:	000b8593          	mv	a1,s7
   183c0:	00048513          	mv	a0,s1
   183c4:	08f12623          	sw	a5,140(sp)
   183c8:	45d000ef          	jal	19024 <__quorem_D2A>
   183cc:	03050d93          	add	s11,a0,48
   183d0:	01bc0023          	sb	s11,0(s8)
   183d4:	08c12783          	lw	a5,140(sp)
   183d8:	00000693          	li	a3,0
   183dc:	00a00613          	li	a2,10
   183e0:	00048593          	mv	a1,s1
   183e4:	00040513          	mv	a0,s0
   183e8:	001c0c13          	add	s8,s8,1
   183ec:	fb27cee3          	blt	a5,s2,183a8 <__gdtoa+0x1028>
   183f0:	000a0f13          	mv	t5,s4
   183f4:	00000a93          	li	s5,0
   183f8:	02812703          	lw	a4,40(sp)
   183fc:	48070463          	beqz	a4,18884 <__gdtoa+0x1504>
   18400:	00200793          	li	a5,2
   18404:	0104a683          	lw	a3,16(s1)
   18408:	4af70a63          	beq	a4,a5,188bc <__gdtoa+0x153c>
   1840c:	00100793          	li	a5,1
   18410:	2ad7c263          	blt	a5,a3,186b4 <__gdtoa+0x1334>
   18414:	0144a783          	lw	a5,20(s1)
   18418:	28079e63          	bnez	a5,186b4 <__gdtoa+0x1334>
   1841c:	00f037b3          	snez	a5,a5
   18420:	00479c93          	sll	s9,a5,0x4
   18424:	03000693          	li	a3,48
   18428:	fffc4783          	lbu	a5,-1(s8)
   1842c:	000c0b13          	mv	s6,s8
   18430:	fffc0c13          	add	s8,s8,-1
   18434:	fed78ae3          	beq	a5,a3,18428 <__gdtoa+0x10a8>
   18438:	e91ff06f          	j	182c8 <__gdtoa+0xf48>
   1843c:	03412783          	lw	a5,52(sp)
   18440:	03812703          	lw	a4,56(sp)
   18444:	fff78693          	add	a3,a5,-1
   18448:	1ad74863          	blt	a4,a3,185f8 <__gdtoa+0x1278>
   1844c:	40d70b33          	sub	s6,a4,a3
   18450:	7c07d263          	bgez	a5,18c14 <__gdtoa+0x1894>
   18454:	03012783          	lw	a5,48(sp)
   18458:	03412703          	lw	a4,52(sp)
   1845c:	08012623          	sw	zero,140(sp)
   18460:	40e78a33          	sub	s4,a5,a4
   18464:	b68ff06f          	j	177cc <__gdtoa+0x44c>
   18468:	01012703          	lw	a4,16(sp)
   1846c:	00200793          	li	a5,2
   18470:	c4e7dc63          	bge	a5,a4,178c8 <__gdtoa+0x548>
   18474:	000b8593          	mv	a1,s7
   18478:	00000693          	li	a3,0
   1847c:	00500613          	li	a2,5
   18480:	00040513          	mv	a0,s0
   18484:	01e12823          	sw	t5,16(sp)
   18488:	09c010ef          	jal	19524 <__multadd>
   1848c:	00050593          	mv	a1,a0
   18490:	f4050863          	beqz	a0,17be0 <__gdtoa+0x860>
   18494:	03412783          	lw	a5,52(sp)
   18498:	01012f03          	lw	t5,16(sp)
   1849c:	14079463          	bnez	a5,185e4 <__gdtoa+0x1264>
   184a0:	00a12823          	sw	a0,16(sp)
   184a4:	00048513          	mv	a0,s1
   184a8:	01e12e23          	sw	t5,28(sp)
   184ac:	2e9010ef          	jal	19f94 <__mcmp>
   184b0:	01012583          	lw	a1,16(sp)
   184b4:	01c12f03          	lw	t5,28(sp)
   184b8:	12a05663          	blez	a0,185e4 <__gdtoa+0x1264>
   184bc:	03c12783          	lw	a5,60(sp)
   184c0:	00278b93          	add	s7,a5,2
   184c4:	03100793          	li	a5,49
   184c8:	001f0b13          	add	s6,t5,1
   184cc:	00ff0023          	sb	a5,0(t5)
   184d0:	02000c93          	li	s9,32
   184d4:	00040513          	mv	a0,s0
   184d8:	01e12823          	sw	t5,16(sp)
   184dc:	024010ef          	jal	19500 <_Bfree>
   184e0:	01012f03          	lw	t5,16(sp)
   184e4:	cc098ae3          	beqz	s3,181b8 <__gdtoa+0xe38>
   184e8:	e19ff06f          	j	18300 <__gdtoa+0xf80>
   184ec:	00100693          	li	a3,1
   184f0:	00100593          	li	a1,1
   184f4:	a18ff06f          	j	1770c <__gdtoa+0x38c>
   184f8:	00050593          	mv	a1,a0
   184fc:	00078613          	mv	a2,a5
   18500:	00040513          	mv	a0,s0
   18504:	7b0010ef          	jal	19cb4 <__pow5mult>
   18508:	00050b93          	mv	s7,a0
   1850c:	ec050a63          	beqz	a0,17be0 <__gdtoa+0x860>
   18510:	01012783          	lw	a5,16(sp)
   18514:	00100693          	li	a3,1
   18518:	02412f03          	lw	t5,36(sp)
   1851c:	20f6da63          	bge	a3,a5,18730 <__gdtoa+0x13b0>
   18520:	010ba783          	lw	a5,16(s7)
   18524:	03e12223          	sw	t5,36(sp)
   18528:	00378793          	add	a5,a5,3
   1852c:	00279793          	sll	a5,a5,0x2
   18530:	00fb87b3          	add	a5,s7,a5
   18534:	0047a503          	lw	a0,4(a5)
   18538:	2ac010ef          	jal	197e4 <__hi0bits>
   1853c:	02412f03          	lw	t5,36(sp)
   18540:	00050a93          	mv	s5,a0
   18544:	01912e23          	sw	s9,28(sp)
   18548:	b40ff06f          	j	17888 <__gdtoa+0x508>
   1854c:	01012783          	lw	a5,16(sp)
   18550:	00100693          	li	a3,1
   18554:	eef6c4e3          	blt	a3,a5,1843c <__gdtoa+0x10bc>
   18558:	03012783          	lw	a5,48(sp)
   1855c:	02012703          	lw	a4,32(sp)
   18560:	03812b03          	lw	s6,56(sp)
   18564:	00078a13          	mv	s4,a5
   18568:	00c70733          	add	a4,a4,a2
   1856c:	00f607b3          	add	a5,a2,a5
   18570:	02e12023          	sw	a4,32(sp)
   18574:	02f12823          	sw	a5,48(sp)
   18578:	a54ff06f          	j	177cc <__gdtoa+0x44c>
   1857c:	01012703          	lw	a4,16(sp)
   18580:	00200793          	li	a5,2
   18584:	08e7cce3          	blt	a5,a4,18e1c <__gdtoa+0x1a9c>
   18588:	05412783          	lw	a5,84(sp)
   1858c:	02f12a23          	sw	a5,52(sp)
   18590:	e05ff06f          	j	18394 <__gdtoa+0x1014>
   18594:	01c12c83          	lw	s9,28(sp)
   18598:	00098f13          	mv	t5,s3
   1859c:	c1dff06f          	j	181b8 <__gdtoa+0xe38>
   185a0:	03412783          	lw	a5,52(sp)
   185a4:	aaf04ee3          	bgtz	a5,18060 <__gdtoa+0xce0>
   185a8:	02079a63          	bnez	a5,185dc <__gdtoa+0x125c>
   185ac:	ef81a603          	lw	a2,-264(gp) # 23808 <__SDATA_BEGIN__+0x50>
   185b0:	efc1a683          	lw	a3,-260(gp) # 2380c <__SDATA_BEGIN__+0x54>
   185b4:	000a0513          	mv	a0,s4
   185b8:	000a8593          	mv	a1,s5
   185bc:	01e12823          	sw	t5,16(sp)
   185c0:	075050ef          	jal	1de34 <__muldf3>
   185c4:	04812883          	lw	a7,72(sp)
   185c8:	00098693          	mv	a3,s3
   185cc:	00088613          	mv	a2,a7
   185d0:	6ac050ef          	jal	1dc7c <__gedf2>
   185d4:	01012f03          	lw	t5,16(sp)
   185d8:	68054e63          	bltz	a0,18c74 <__gdtoa+0x18f4>
   185dc:	00000593          	li	a1,0
   185e0:	00000993          	li	s3,0
   185e4:	01812783          	lw	a5,24(sp)
   185e8:	000f0b13          	mv	s6,t5
   185ec:	01000c93          	li	s9,16
   185f0:	40f00bb3          	neg	s7,a5
   185f4:	ee1ff06f          	j	184d4 <__gdtoa+0x1154>
   185f8:	03812783          	lw	a5,56(sp)
   185fc:	03012703          	lw	a4,48(sp)
   18600:	00000b13          	li	s6,0
   18604:	40f68633          	sub	a2,a3,a5
   18608:	01c12783          	lw	a5,28(sp)
   1860c:	00070a13          	mv	s4,a4
   18610:	02d12c23          	sw	a3,56(sp)
   18614:	00c787b3          	add	a5,a5,a2
   18618:	00f12e23          	sw	a5,28(sp)
   1861c:	02012603          	lw	a2,32(sp)
   18620:	03412783          	lw	a5,52(sp)
   18624:	00f60633          	add	a2,a2,a5
   18628:	08f12623          	sw	a5,140(sp)
   1862c:	00f707b3          	add	a5,a4,a5
   18630:	02c12023          	sw	a2,32(sp)
   18634:	02f12823          	sw	a5,48(sp)
   18638:	994ff06f          	j	177cc <__gdtoa+0x44c>
   1863c:	00098593          	mv	a1,s3
   18640:	000b0613          	mv	a2,s6
   18644:	00040513          	mv	a0,s0
   18648:	03e12223          	sw	t5,36(sp)
   1864c:	668010ef          	jal	19cb4 <__pow5mult>
   18650:	00050993          	mv	s3,a0
   18654:	d8050663          	beqz	a0,17be0 <__gdtoa+0x860>
   18658:	00050593          	mv	a1,a0
   1865c:	00048613          	mv	a2,s1
   18660:	00040513          	mv	a0,s0
   18664:	388010ef          	jal	199ec <__multiply>
   18668:	00050b93          	mv	s7,a0
   1866c:	d6050a63          	beqz	a0,17be0 <__gdtoa+0x860>
   18670:	00048593          	mv	a1,s1
   18674:	00040513          	mv	a0,s0
   18678:	689000ef          	jal	19500 <_Bfree>
   1867c:	03812783          	lw	a5,56(sp)
   18680:	02412f03          	lw	t5,36(sp)
   18684:	000b8493          	mv	s1,s7
   18688:	416787b3          	sub	a5,a5,s6
   1868c:	02f12c23          	sw	a5,56(sp)
   18690:	9c078263          	beqz	a5,17854 <__gdtoa+0x4d4>
   18694:	9a0ff06f          	j	17834 <__gdtoa+0x4b4>
   18698:	00098a93          	mv	s5,s3
   1869c:	000c0793          	mv	a5,s8
   186a0:	001c0913          	add	s2,s8,1
   186a4:	000a0993          	mv	s3,s4
   186a8:	03900693          	li	a3,57
   186ac:	00090c13          	mv	s8,s2
   186b0:	00d78023          	sb	a3,0(a5)
   186b4:	03900693          	li	a3,57
   186b8:	0080006f          	j	186c0 <__gdtoa+0x1340>
   186bc:	218f0c63          	beq	t5,s8,188d4 <__gdtoa+0x1554>
   186c0:	fffc4783          	lbu	a5,-1(s8)
   186c4:	000c0b13          	mv	s6,s8
   186c8:	fffc0c13          	add	s8,s8,-1
   186cc:	fed788e3          	beq	a5,a3,186bc <__gdtoa+0x133c>
   186d0:	00178793          	add	a5,a5,1
   186d4:	00fc0023          	sb	a5,0(s8)
   186d8:	02000c93          	li	s9,32
   186dc:	bedff06f          	j	182c8 <__gdtoa+0xf48>
   186e0:	00098593          	mv	a1,s3
   186e4:	00040513          	mv	a0,s0
   186e8:	01e12c23          	sw	t5,24(sp)
   186ec:	718010ef          	jal	19e04 <__lshift>
   186f0:	01812f03          	lw	t5,24(sp)
   186f4:	00050993          	mv	s3,a0
   186f8:	9e051063          	bnez	a0,178d8 <__gdtoa+0x558>
   186fc:	ce4ff06f          	j	17be0 <__gdtoa+0x860>
   18700:	00100793          	li	a5,1
   18704:	00000a13          	li	s4,0
   18708:	04f12023          	sw	a5,64(sp)
   1870c:	fddfe06f          	j	176e8 <__gdtoa+0x368>
   18710:	00100793          	li	a5,1
   18714:	04f12023          	sw	a5,64(sp)
   18718:	fd1fe06f          	j	176e8 <__gdtoa+0x368>
   1871c:	00100793          	li	a5,1
   18720:	04f12023          	sw	a5,64(sp)
   18724:	b35ff06f          	j	18258 <__gdtoa+0xed8>
   18728:	04012023          	sw	zero,64(sp)
   1872c:	b2dff06f          	j	18258 <__gdtoa+0xed8>
   18730:	dedc18e3          	bne	s8,a3,18520 <__gdtoa+0x11a0>
   18734:	004da783          	lw	a5,4(s11)
   18738:	00178793          	add	a5,a5,1
   1873c:	df57d2e3          	bge	a5,s5,18520 <__gdtoa+0x11a0>
   18740:	03012783          	lw	a5,48(sp)
   18744:	00100c93          	li	s9,1
   18748:	00178793          	add	a5,a5,1
   1874c:	02f12823          	sw	a5,48(sp)
   18750:	02012783          	lw	a5,32(sp)
   18754:	00178793          	add	a5,a5,1
   18758:	02f12023          	sw	a5,32(sp)
   1875c:	dc5ff06f          	j	18520 <__gdtoa+0x11a0>
   18760:	0049a583          	lw	a1,4(s3)
   18764:	00040513          	mv	a0,s0
   18768:	01e12c23          	sw	t5,24(sp)
   1876c:	4e1000ef          	jal	1944c <_Balloc>
   18770:	00050a13          	mv	s4,a0
   18774:	c6050663          	beqz	a0,17be0 <__gdtoa+0x860>
   18778:	0109a603          	lw	a2,16(s3)
   1877c:	00c98593          	add	a1,s3,12
   18780:	00c50513          	add	a0,a0,12
   18784:	00260613          	add	a2,a2,2
   18788:	00261613          	sll	a2,a2,0x2
   1878c:	afcfe0ef          	jal	16a88 <memcpy>
   18790:	000a0593          	mv	a1,s4
   18794:	00100613          	li	a2,1
   18798:	00040513          	mv	a0,s0
   1879c:	668010ef          	jal	19e04 <__lshift>
   187a0:	01812f03          	lw	t5,24(sp)
   187a4:	00050a13          	mv	s4,a0
   187a8:	00050463          	beqz	a0,187b0 <__gdtoa+0x1430>
   187ac:	938ff06f          	j	178e4 <__gdtoa+0x564>
   187b0:	c30ff06f          	j	17be0 <__gdtoa+0x860>
   187b4:	000b0613          	mv	a2,s6
   187b8:	00098693          	mv	a3,s3
   187bc:	000b0513          	mv	a0,s6
   187c0:	00098593          	mv	a1,s3
   187c4:	03e12423          	sw	t5,40(sp)
   187c8:	4b4040ef          	jal	1cc7c <__adddf3>
   187cc:	ef01a603          	lw	a2,-272(gp) # 23800 <__SDATA_BEGIN__+0x48>
   187d0:	ef41a683          	lw	a3,-268(gp) # 23804 <__SDATA_BEGIN__+0x4c>
   187d4:	4a8040ef          	jal	1cc7c <__adddf3>
   187d8:	02812f03          	lw	t5,40(sp)
   187dc:	fcc007b7          	lui	a5,0xfcc00
   187e0:	00050713          	mv	a4,a0
   187e4:	00b78a33          	add	s4,a5,a1
   187e8:	ef81a603          	lw	a2,-264(gp) # 23808 <__SDATA_BEGIN__+0x50>
   187ec:	04412503          	lw	a0,68(sp)
   187f0:	efc1a683          	lw	a3,-260(gp) # 2380c <__SDATA_BEGIN__+0x54>
   187f4:	05812583          	lw	a1,88(sp)
   187f8:	03e12423          	sw	t5,40(sp)
   187fc:	04e12423          	sw	a4,72(sp)
   18800:	4e5050ef          	jal	1e4e4 <__subdf3>
   18804:	04812703          	lw	a4,72(sp)
   18808:	000a0693          	mv	a3,s4
   1880c:	00050993          	mv	s3,a0
   18810:	00070613          	mv	a2,a4
   18814:	00058b13          	mv	s6,a1
   18818:	464050ef          	jal	1dc7c <__gedf2>
   1881c:	02812f03          	lw	t5,40(sp)
   18820:	40a04c63          	bgtz	a0,18c38 <__gdtoa+0x18b8>
   18824:	04812703          	lw	a4,72(sp)
   18828:	800008b7          	lui	a7,0x80000
   1882c:	0148c8b3          	xor	a7,a7,s4
   18830:	00070613          	mv	a2,a4
   18834:	00098513          	mv	a0,s3
   18838:	00088693          	mv	a3,a7
   1883c:	000b0593          	mv	a1,s6
   18840:	518050ef          	jal	1dd58 <__ledf2>
   18844:	02812f03          	lw	t5,40(sp)
   18848:	d8054ae3          	bltz	a0,185dc <__gdtoa+0x125c>
   1884c:	04412783          	lw	a5,68(sp)
   18850:	02412703          	lw	a4,36(sp)
   18854:	05812983          	lw	s3,88(sp)
   18858:	04f12423          	sw	a5,72(sp)
   1885c:	000227b7          	lui	a5,0x22
   18860:	4e074a63          	bltz	a4,18d54 <__gdtoa+0x19d4>
   18864:	5507aa03          	lw	s4,1360(a5) # 22550 <__mprec_tens>
   18868:	5547aa83          	lw	s5,1364(a5)
   1886c:	01812783          	lw	a5,24(sp)
   18870:	02012423          	sw	zero,40(sp)
   18874:	fe07d663          	bgez	a5,18060 <__gdtoa+0xce0>
   18878:	03412783          	lw	a5,52(sp)
   1887c:	fe079263          	bnez	a5,18060 <__gdtoa+0xce0>
   18880:	d2dff06f          	j	185ac <__gdtoa+0x122c>
   18884:	00048593          	mv	a1,s1
   18888:	00100613          	li	a2,1
   1888c:	00040513          	mv	a0,s0
   18890:	01e12823          	sw	t5,16(sp)
   18894:	570010ef          	jal	19e04 <__lshift>
   18898:	00050493          	mv	s1,a0
   1889c:	b4050263          	beqz	a0,17be0 <__gdtoa+0x860>
   188a0:	000b8593          	mv	a1,s7
   188a4:	6f0010ef          	jal	19f94 <__mcmp>
   188a8:	01012f03          	lw	t5,16(sp)
   188ac:	e0a044e3          	bgtz	a0,186b4 <__gdtoa+0x1334>
   188b0:	00051663          	bnez	a0,188bc <__gdtoa+0x153c>
   188b4:	001dfd93          	and	s11,s11,1
   188b8:	de0d9ee3          	bnez	s11,186b4 <__gdtoa+0x1334>
   188bc:	0104a683          	lw	a3,16(s1)
   188c0:	00100793          	li	a5,1
   188c4:	01000c93          	li	s9,16
   188c8:	b4d7cee3          	blt	a5,a3,18424 <__gdtoa+0x10a4>
   188cc:	0144a783          	lw	a5,20(s1)
   188d0:	b4dff06f          	j	1841c <__gdtoa+0x109c>
   188d4:	03c12783          	lw	a5,60(sp)
   188d8:	02000c93          	li	s9,32
   188dc:	00178793          	add	a5,a5,1
   188e0:	02f12e23          	sw	a5,60(sp)
   188e4:	03100793          	li	a5,49
   188e8:	00ff0023          	sb	a5,0(t5)
   188ec:	9ddff06f          	j	182c8 <__gdtoa+0xf48>
   188f0:	02812783          	lw	a5,40(sp)
   188f4:	01812f03          	lw	t5,24(sp)
   188f8:	01c12d03          	lw	s10,28(sp)
   188fc:	00078e63          	beqz	a5,18918 <__gdtoa+0x1598>
   18900:	0104a683          	lw	a3,16(s1)
   18904:	00100793          	li	a5,1
   18908:	94d7ca63          	blt	a5,a3,17a5c <__gdtoa+0x6dc>
   1890c:	0144a783          	lw	a5,20(s1)
   18910:	00078463          	beqz	a5,18918 <__gdtoa+0x1598>
   18914:	948ff06f          	j	17a5c <__gdtoa+0x6dc>
   18918:	00048593          	mv	a1,s1
   1891c:	00100613          	li	a2,1
   18920:	00040513          	mv	a0,s0
   18924:	01e12823          	sw	t5,16(sp)
   18928:	4dc010ef          	jal	19e04 <__lshift>
   1892c:	00050493          	mv	s1,a0
   18930:	aa050863          	beqz	a0,17be0 <__gdtoa+0x860>
   18934:	000b8593          	mv	a1,s7
   18938:	65c010ef          	jal	19f94 <__mcmp>
   1893c:	01012f03          	lw	t5,16(sp)
   18940:	4ca05263          	blez	a0,18e04 <__gdtoa+0x1a84>
   18944:	03900793          	li	a5,57
   18948:	d4fd88e3          	beq	s11,a5,18698 <__gdtoa+0x1318>
   1894c:	02000793          	li	a5,32
   18950:	031b0d93          	add	s11,s6,49
   18954:	02f12423          	sw	a5,40(sp)
   18958:	94dff06f          	j	182a4 <__gdtoa+0xf24>
   1895c:	00050613          	mv	a2,a0
   18960:	00058693          	mv	a3,a1
   18964:	01e12823          	sw	t5,16(sp)
   18968:	314040ef          	jal	1cc7c <__adddf3>
   1896c:	000a0613          	mv	a2,s4
   18970:	000a8693          	mv	a3,s5
   18974:	00050c13          	mv	s8,a0
   18978:	00058993          	mv	s3,a1
   1897c:	300050ef          	jal	1dc7c <__gedf2>
   18980:	fffb4b83          	lbu	s7,-1(s6)
   18984:	01012f03          	lw	t5,16(sp)
   18988:	dea04863          	bgtz	a0,17f78 <__gdtoa+0xbf8>
   1898c:	000c0513          	mv	a0,s8
   18990:	00098593          	mv	a1,s3
   18994:	000a0613          	mv	a2,s4
   18998:	000a8693          	mv	a3,s5
   1899c:	254050ef          	jal	1dbf0 <__eqdf2>
   189a0:	01012f03          	lw	t5,16(sp)
   189a4:	00051663          	bnez	a0,189b0 <__gdtoa+0x1630>
   189a8:	00197913          	and	s2,s2,1
   189ac:	dc091663          	bnez	s2,17f78 <__gdtoa+0xbf8>
   189b0:	000b0793          	mv	a5,s6
   189b4:	01000c93          	li	s9,16
   189b8:	03000613          	li	a2,48
   189bc:	fff7c703          	lbu	a4,-1(a5)
   189c0:	00078b13          	mv	s6,a5
   189c4:	fff78793          	add	a5,a5,-1
   189c8:	fec70ae3          	beq	a4,a2,189bc <__gdtoa+0x163c>
   189cc:	000d8b93          	mv	s7,s11
   189d0:	fe8ff06f          	j	181b8 <__gdtoa+0xe38>
   189d4:	03100693          	li	a3,49
   189d8:	001d8d93          	add	s11,s11,1
   189dc:	dc0ff06f          	j	17f9c <__gdtoa+0xc1c>
   189e0:	00070513          	mv	a0,a4
   189e4:	000a0593          	mv	a1,s4
   189e8:	06f12e23          	sw	a5,124(sp)
   189ec:	07e12823          	sw	t5,112(sp)
   189f0:	444050ef          	jal	1de34 <__muldf3>
   189f4:	ee01a783          	lw	a5,-288(gp) # 237f0 <__SDATA_BEGIN__+0x38>
   189f8:	07012f03          	lw	t5,112(sp)
   189fc:	ee41a803          	lw	a6,-284(gp) # 237f4 <__SDATA_BEGIN__+0x3c>
   18a00:	04812603          	lw	a2,72(sp)
   18a04:	02f12423          	sw	a5,40(sp)
   18a08:	07c12783          	lw	a5,124(sp)
   18a0c:	06b12623          	sw	a1,108(sp)
   18a10:	00000693          	li	a3,0
   18a14:	00100593          	li	a1,1
   18a18:	06912823          	sw	s1,112(sp)
   18a1c:	06812a23          	sw	s0,116(sp)
   18a20:	05c12483          	lw	s1,92(sp)
   18a24:	07212c23          	sw	s2,120(sp)
   18a28:	03012623          	sw	a6,44(sp)
   18a2c:	06a12423          	sw	a0,104(sp)
   18a30:	08b12623          	sw	a1,140(sp)
   18a34:	07312223          	sw	s3,100(sp)
   18a38:	000f0b13          	mv	s6,t5
   18a3c:	05e12e23          	sw	t5,92(sp)
   18a40:	00068413          	mv	s0,a3
   18a44:	00078b93          	mv	s7,a5
   18a48:	00060913          	mv	s2,a2
   18a4c:	0180006f          	j	18a64 <__gdtoa+0x16e4>
   18a50:	08612623          	sw	t1,140(sp)
   18a54:	3e0050ef          	jal	1de34 <__muldf3>
   18a58:	00050913          	mv	s2,a0
   18a5c:	00058993          	mv	s3,a1
   18a60:	00100413          	li	s0,1
   18a64:	00090513          	mv	a0,s2
   18a68:	00098593          	mv	a1,s3
   18a6c:	220060ef          	jal	1ec8c <__fixdfsi>
   18a70:	00050a13          	mv	s4,a0
   18a74:	02050463          	beqz	a0,18a9c <__gdtoa+0x171c>
   18a78:	294060ef          	jal	1ed0c <__floatsidf>
   18a7c:	00050613          	mv	a2,a0
   18a80:	00058693          	mv	a3,a1
   18a84:	00090513          	mv	a0,s2
   18a88:	00098593          	mv	a1,s3
   18a8c:	259050ef          	jal	1e4e4 <__subdf3>
   18a90:	00050913          	mv	s2,a0
   18a94:	00058993          	mv	s3,a1
   18a98:	00100413          	li	s0,1
   18a9c:	030a0793          	add	a5,s4,48
   18aa0:	001b0b13          	add	s6,s6,1
   18aa4:	0ff7f793          	zext.b	a5,a5
   18aa8:	fefb0fa3          	sb	a5,-1(s6)
   18aac:	08c12883          	lw	a7,140(sp)
   18ab0:	02812603          	lw	a2,40(sp)
   18ab4:	02c12683          	lw	a3,44(sp)
   18ab8:	00090513          	mv	a0,s2
   18abc:	00098593          	mv	a1,s3
   18ac0:	00188313          	add	t1,a7,1 # 80000001 <__BSS_END__+0x7ffdc429>
   18ac4:	f89896e3          	bne	a7,s1,18a50 <__gdtoa+0x16d0>
   18ac8:	000b8713          	mv	a4,s7
   18acc:	00040693          	mv	a3,s0
   18ad0:	00078b93          	mv	s7,a5
   18ad4:	07012483          	lw	s1,112(sp)
   18ad8:	05c12f03          	lw	t5,92(sp)
   18adc:	07412403          	lw	s0,116(sp)
   18ae0:	07812903          	lw	s2,120(sp)
   18ae4:	00070793          	mv	a5,a4
   18ae8:	00068663          	beqz	a3,18af4 <__gdtoa+0x1774>
   18aec:	04a12423          	sw	a0,72(sp)
   18af0:	07312223          	sw	s3,100(sp)
   18af4:	f001a603          	lw	a2,-256(gp) # 23810 <__SDATA_BEGIN__+0x58>
   18af8:	f041a683          	lw	a3,-252(gp) # 23814 <__SDATA_BEGIN__+0x5c>
   18afc:	06812503          	lw	a0,104(sp)
   18b00:	06c12583          	lw	a1,108(sp)
   18b04:	03e12423          	sw	t5,40(sp)
   18b08:	04f12e23          	sw	a5,92(sp)
   18b0c:	170040ef          	jal	1cc7c <__adddf3>
   18b10:	06412a03          	lw	s4,100(sp)
   18b14:	04812603          	lw	a2,72(sp)
   18b18:	000a0693          	mv	a3,s4
   18b1c:	23c050ef          	jal	1dd58 <__ledf2>
   18b20:	02812f03          	lw	t5,40(sp)
   18b24:	1e054663          	bltz	a0,18d10 <__gdtoa+0x1990>
   18b28:	06812603          	lw	a2,104(sp)
   18b2c:	06c12683          	lw	a3,108(sp)
   18b30:	f001a503          	lw	a0,-256(gp) # 23810 <__SDATA_BEGIN__+0x58>
   18b34:	f041a583          	lw	a1,-252(gp) # 23814 <__SDATA_BEGIN__+0x5c>
   18b38:	1ad050ef          	jal	1e4e4 <__subdf3>
   18b3c:	04812603          	lw	a2,72(sp)
   18b40:	000a0693          	mv	a3,s4
   18b44:	138050ef          	jal	1dc7c <__gedf2>
   18b48:	02812f03          	lw	t5,40(sp)
   18b4c:	05c12783          	lw	a5,92(sp)
   18b50:	26a04863          	bgtz	a0,18dc0 <__gdtoa+0x1a40>
   18b54:	04412703          	lw	a4,68(sp)
   18b58:	05812983          	lw	s3,88(sp)
   18b5c:	04e12423          	sw	a4,72(sp)
   18b60:	02412703          	lw	a4,36(sp)
   18b64:	d00750e3          	bgez	a4,18864 <__gdtoa+0x14e4>
   18b68:	03812b03          	lw	s6,56(sp)
   18b6c:	03012a03          	lw	s4,48(sp)
   18b70:	02012423          	sw	zero,40(sp)
   18b74:	00000993          	li	s3,0
   18b78:	c71fe06f          	j	177e8 <__gdtoa+0x468>
   18b7c:	00098a93          	mv	s5,s3
   18b80:	01812f03          	lw	t5,24(sp)
   18b84:	01c12d03          	lw	s10,28(sp)
   18b88:	000a0993          	mv	s3,s4
   18b8c:	86dff06f          	j	183f8 <__gdtoa+0x1078>
   18b90:	fffb4b83          	lbu	s7,-1(s6)
   18b94:	be4ff06f          	j	17f78 <__gdtoa+0xbf8>
   18b98:	03412783          	lw	a5,52(sp)
   18b9c:	c0078ce3          	beqz	a5,187b4 <__gdtoa+0x1434>
   18ba0:	05412783          	lw	a5,84(sp)
   18ba4:	caf054e3          	blez	a5,1884c <__gdtoa+0x14cc>
   18ba8:	ee01a603          	lw	a2,-288(gp) # 237f0 <__SDATA_BEGIN__+0x38>
   18bac:	ee41a683          	lw	a3,-284(gp) # 237f4 <__SDATA_BEGIN__+0x3c>
   18bb0:	00098593          	mv	a1,s3
   18bb4:	000b0513          	mv	a0,s6
   18bb8:	07e12423          	sw	t5,104(sp)
   18bbc:	278050ef          	jal	1de34 <__muldf3>
   18bc0:	ee81a603          	lw	a2,-280(gp) # 237f8 <__SDATA_BEGIN__+0x40>
   18bc4:	eec1a683          	lw	a3,-276(gp) # 237fc <__SDATA_BEGIN__+0x44>
   18bc8:	00058993          	mv	s3,a1
   18bcc:	04a12423          	sw	a0,72(sp)
   18bd0:	06a12223          	sw	a0,100(sp)
   18bd4:	02b12423          	sw	a1,40(sp)
   18bd8:	25c050ef          	jal	1de34 <__muldf3>
   18bdc:	ef01a603          	lw	a2,-272(gp) # 23800 <__SDATA_BEGIN__+0x48>
   18be0:	ef41a683          	lw	a3,-268(gp) # 23804 <__SDATA_BEGIN__+0x4c>
   18be4:	098040ef          	jal	1cc7c <__adddf3>
   18be8:	fcc007b7          	lui	a5,0xfcc00
   18bec:	00b78a33          	add	s4,a5,a1
   18bf0:	05412783          	lw	a5,84(sp)
   18bf4:	06412e83          	lw	t4,100(sp)
   18bf8:	06812f03          	lw	t5,104(sp)
   18bfc:	04f12e23          	sw	a5,92(sp)
   18c00:	fff00793          	li	a5,-1
   18c04:	00050713          	mv	a4,a0
   18c08:	06f12023          	sw	a5,96(sp)
   18c0c:	00098813          	mv	a6,s3
   18c10:	96cff06f          	j	17d7c <__gdtoa+0x9fc>
   18c14:	03012703          	lw	a4,48(sp)
   18c18:	02012683          	lw	a3,32(sp)
   18c1c:	08f12623          	sw	a5,140(sp)
   18c20:	00070a13          	mv	s4,a4
   18c24:	00f686b3          	add	a3,a3,a5
   18c28:	00f707b3          	add	a5,a4,a5
   18c2c:	02d12023          	sw	a3,32(sp)
   18c30:	02f12823          	sw	a5,48(sp)
   18c34:	b99fe06f          	j	177cc <__gdtoa+0x44c>
   18c38:	00200b93          	li	s7,2
   18c3c:	00000593          	li	a1,0
   18c40:	00000993          	li	s3,0
   18c44:	881ff06f          	j	184c4 <__gdtoa+0x1144>
   18c48:	03900793          	li	a5,57
   18c4c:	01812f03          	lw	t5,24(sp)
   18c50:	01c12d03          	lw	s10,28(sp)
   18c54:	a4fd82e3          	beq	s11,a5,18698 <__gdtoa+0x1318>
   18c58:	001d8d93          	add	s11,s11,1
   18c5c:	00098a93          	mv	s5,s3
   18c60:	001c0b13          	add	s6,s8,1
   18c64:	01bc0023          	sb	s11,0(s8)
   18c68:	000a0993          	mv	s3,s4
   18c6c:	02000c93          	li	s9,32
   18c70:	e58ff06f          	j	182c8 <__gdtoa+0xf48>
   18c74:	03c12783          	lw	a5,60(sp)
   18c78:	00000593          	li	a1,0
   18c7c:	00000993          	li	s3,0
   18c80:	00278b93          	add	s7,a5,2 # fcc00002 <__BSS_END__+0xfcbdc42a>
   18c84:	841ff06f          	j	184c4 <__gdtoa+0x1144>
   18c88:	00098593          	mv	a1,s3
   18c8c:	00000693          	li	a3,0
   18c90:	00a00613          	li	a2,10
   18c94:	00040513          	mv	a0,s0
   18c98:	08d000ef          	jal	19524 <__multadd>
   18c9c:	00050993          	mv	s3,a0
   18ca0:	00051463          	bnez	a0,18ca8 <__gdtoa+0x1928>
   18ca4:	f3dfe06f          	j	17be0 <__gdtoa+0x860>
   18ca8:	05412783          	lw	a5,84(sp)
   18cac:	02012f03          	lw	t5,32(sp)
   18cb0:	00f05663          	blez	a5,18cbc <__gdtoa+0x193c>
   18cb4:	02f12a23          	sw	a5,52(sp)
   18cb8:	c19fe06f          	j	178d0 <__gdtoa+0x550>
   18cbc:	01012703          	lw	a4,16(sp)
   18cc0:	00200793          	li	a5,2
   18cc4:	14e7cc63          	blt	a5,a4,18e1c <__gdtoa+0x1a9c>
   18cc8:	05412783          	lw	a5,84(sp)
   18ccc:	02f12a23          	sw	a5,52(sp)
   18cd0:	c01fe06f          	j	178d0 <__gdtoa+0x550>
   18cd4:	06412483          	lw	s1,100(sp)
   18cd8:	05c12f03          	lw	t5,92(sp)
   18cdc:	06812403          	lw	s0,104(sp)
   18ce0:	000a0513          	mv	a0,s4
   18ce4:	00098593          	mv	a1,s3
   18ce8:	00000613          	li	a2,0
   18cec:	00000693          	li	a3,0
   18cf0:	01e12823          	sw	t5,16(sp)
   18cf4:	6fd040ef          	jal	1dbf0 <__eqdf2>
   18cf8:	00a037b3          	snez	a5,a0
   18cfc:	00479c93          	sll	s9,a5,0x4
   18d00:	06012783          	lw	a5,96(sp)
   18d04:	01012f03          	lw	t5,16(sp)
   18d08:	00178b93          	add	s7,a5,1
   18d0c:	cacff06f          	j	181b8 <__gdtoa+0xe38>
   18d10:	06012783          	lw	a5,96(sp)
   18d14:	00178d93          	add	s11,a5,1
   18d18:	a60ff06f          	j	17f78 <__gdtoa+0xbf8>
   18d1c:	03412783          	lw	a5,52(sp)
   18d20:	03812703          	lw	a4,56(sp)
   18d24:	fff78693          	add	a3,a5,-1
   18d28:	8cd748e3          	blt	a4,a3,185f8 <__gdtoa+0x1278>
   18d2c:	03012583          	lw	a1,48(sp)
   18d30:	02012603          	lw	a2,32(sp)
   18d34:	08f12623          	sw	a5,140(sp)
   18d38:	00058a13          	mv	s4,a1
   18d3c:	00f60633          	add	a2,a2,a5
   18d40:	00f587b3          	add	a5,a1,a5
   18d44:	02c12023          	sw	a2,32(sp)
   18d48:	40d70b33          	sub	s6,a4,a3
   18d4c:	02f12823          	sw	a5,48(sp)
   18d50:	a7dfe06f          	j	177cc <__gdtoa+0x44c>
   18d54:	02012423          	sw	zero,40(sp)
   18d58:	9f9fe06f          	j	17750 <__gdtoa+0x3d0>
   18d5c:	04412703          	lw	a4,68(sp)
   18d60:	06412483          	lw	s1,100(sp)
   18d64:	07412b83          	lw	s7,116(sp)
   18d68:	04e12423          	sw	a4,72(sp)
   18d6c:	02412703          	lw	a4,36(sp)
   18d70:	07812c03          	lw	s8,120(sp)
   18d74:	05c12f03          	lw	t5,92(sp)
   18d78:	06812403          	lw	s0,104(sp)
   18d7c:	07c12783          	lw	a5,124(sp)
   18d80:	05812983          	lw	s3,88(sp)
   18d84:	ae0750e3          	bgez	a4,18864 <__gdtoa+0x14e4>
   18d88:	02012423          	sw	zero,40(sp)
   18d8c:	9cdfe06f          	j	17758 <__gdtoa+0x3d8>
   18d90:	03900793          	li	a5,57
   18d94:	01812f03          	lw	t5,24(sp)
   18d98:	01c12d03          	lw	s10,28(sp)
   18d9c:	8efd8ee3          	beq	s11,a5,18698 <__gdtoa+0x1318>
   18da0:	0f505063          	blez	s5,18e80 <__gdtoa+0x1b00>
   18da4:	031b0d93          	add	s11,s6,49
   18da8:	02000c93          	li	s9,32
   18dac:	00098a93          	mv	s5,s3
   18db0:	001c0b13          	add	s6,s8,1
   18db4:	01bc0023          	sb	s11,0(s8)
   18db8:	000a0993          	mv	s3,s4
   18dbc:	d0cff06f          	j	182c8 <__gdtoa+0xf48>
   18dc0:	04812503          	lw	a0,72(sp)
   18dc4:	000a0593          	mv	a1,s4
   18dc8:	00000613          	li	a2,0
   18dcc:	00000693          	li	a3,0
   18dd0:	01e12823          	sw	t5,16(sp)
   18dd4:	61d040ef          	jal	1dbf0 <__eqdf2>
   18dd8:	06012703          	lw	a4,96(sp)
   18ddc:	00a037b3          	snez	a5,a0
   18de0:	00479c93          	sll	s9,a5,0x4
   18de4:	01012f03          	lw	t5,16(sp)
   18de8:	000b0793          	mv	a5,s6
   18dec:	00170d93          	add	s11,a4,1
   18df0:	bc9ff06f          	j	189b8 <__gdtoa+0x1638>
   18df4:	0144a783          	lw	a5,20(s1)
   18df8:	cc079063          	bnez	a5,182b8 <__gdtoa+0xf38>
   18dfc:	02812c83          	lw	s9,40(sp)
   18e00:	cb8ff06f          	j	182b8 <__gdtoa+0xf38>
   18e04:	00051663          	bnez	a0,18e10 <__gdtoa+0x1a90>
   18e08:	001df793          	and	a5,s11,1
   18e0c:	b2079ce3          	bnez	a5,18944 <__gdtoa+0x15c4>
   18e10:	02000793          	li	a5,32
   18e14:	02f12423          	sw	a5,40(sp)
   18e18:	c8cff06f          	j	182a4 <__gdtoa+0xf24>
   18e1c:	05412783          	lw	a5,84(sp)
   18e20:	02f12a23          	sw	a5,52(sp)
   18e24:	e50ff06f          	j	18474 <__gdtoa+0x10f4>
   18e28:	03900793          	li	a5,57
   18e2c:	000b0f13          	mv	t5,s6
   18e30:	00fd8e63          	beq	s11,a5,18e4c <__gdtoa+0x1acc>
   18e34:	001d8d93          	add	s11,s11,1
   18e38:	02000c93          	li	s9,32
   18e3c:	c7cff06f          	j	182b8 <__gdtoa+0xf38>
   18e40:	01000c93          	li	s9,16
   18e44:	001c0913          	add	s2,s8,1
   18e48:	c70ff06f          	j	182b8 <__gdtoa+0xf38>
   18e4c:	00098a93          	mv	s5,s3
   18e50:	000c0793          	mv	a5,s8
   18e54:	000a0993          	mv	s3,s4
   18e58:	851ff06f          	j	186a8 <__gdtoa+0x1328>
   18e5c:	0104a683          	lw	a3,16(s1)
   18e60:	00100793          	li	a5,1
   18e64:	00d7d463          	bge	a5,a3,18e6c <__gdtoa+0x1aec>
   18e68:	bf5fe06f          	j	17a5c <__gdtoa+0x6dc>
   18e6c:	0144a783          	lw	a5,20(s1)
   18e70:	00078463          	beqz	a5,18e78 <__gdtoa+0x1af8>
   18e74:	be9fe06f          	j	17a5c <__gdtoa+0x6dc>
   18e78:	001c0913          	add	s2,s8,1
   18e7c:	c3cff06f          	j	182b8 <__gdtoa+0xf38>
   18e80:	0104a683          	lw	a3,16(s1)
   18e84:	00100793          	li	a5,1
   18e88:	01000c93          	li	s9,16
   18e8c:	f2d7c0e3          	blt	a5,a3,18dac <__gdtoa+0x1a2c>
   18e90:	0144a783          	lw	a5,20(s1)
   18e94:	00f037b3          	snez	a5,a5
   18e98:	00479c93          	sll	s9,a5,0x4
   18e9c:	f11ff06f          	j	18dac <__gdtoa+0x1a2c>
   18ea0:	020ac263          	bltz	s5,18ec4 <__gdtoa+0x1b44>
   18ea4:	015ceab3          	or	s5,s9,s5
   18ea8:	000a9863          	bnez	s5,18eb8 <__gdtoa+0x1b38>
   18eac:	00092703          	lw	a4,0(s2)
   18eb0:	00177713          	and	a4,a4,1
   18eb4:	00070863          	beqz	a4,18ec4 <__gdtoa+0x1b44>
   18eb8:	00f04463          	bgtz	a5,18ec0 <__gdtoa+0x1b40>
   18ebc:	a7dfe06f          	j	17938 <__gdtoa+0x5b8>
   18ec0:	a69fe06f          	j	17928 <__gdtoa+0x5a8>
   18ec4:	02812703          	lw	a4,40(sp)
   18ec8:	01812f03          	lw	t5,24(sp)
   18ecc:	01c12d03          	lw	s10,28(sp)
   18ed0:	02070863          	beqz	a4,18f00 <__gdtoa+0x1b80>
   18ed4:	0104a603          	lw	a2,16(s1)
   18ed8:	00100693          	li	a3,1
   18edc:	00c6d463          	bge	a3,a2,18ee4 <__gdtoa+0x1b64>
   18ee0:	b7dfe06f          	j	17a5c <__gdtoa+0x6dc>
   18ee4:	0144a683          	lw	a3,20(s1)
   18ee8:	00068463          	beqz	a3,18ef0 <__gdtoa+0x1b70>
   18eec:	b71fe06f          	j	17a5c <__gdtoa+0x6dc>
   18ef0:	a2f044e3          	bgtz	a5,18918 <__gdtoa+0x1598>
   18ef4:	00000c93          	li	s9,0
   18ef8:	001c0913          	add	s2,s8,1
   18efc:	bbcff06f          	j	182b8 <__gdtoa+0xf38>
   18f00:	baf05263          	blez	a5,182a4 <__gdtoa+0xf24>
   18f04:	a15ff06f          	j	18918 <__gdtoa+0x1598>

00018f08 <__rv_alloc_D2A>:
   18f08:	ff010113          	add	sp,sp,-16
   18f0c:	00812423          	sw	s0,8(sp)
   18f10:	00112623          	sw	ra,12(sp)
   18f14:	01300793          	li	a5,19
   18f18:	00000413          	li	s0,0
   18f1c:	00b7fc63          	bgeu	a5,a1,18f34 <__rv_alloc_D2A+0x2c>
   18f20:	00400793          	li	a5,4
   18f24:	00179793          	sll	a5,a5,0x1
   18f28:	01078713          	add	a4,a5,16
   18f2c:	00140413          	add	s0,s0,1
   18f30:	fee5fae3          	bgeu	a1,a4,18f24 <__rv_alloc_D2A+0x1c>
   18f34:	00040593          	mv	a1,s0
   18f38:	514000ef          	jal	1944c <_Balloc>
   18f3c:	00050663          	beqz	a0,18f48 <__rv_alloc_D2A+0x40>
   18f40:	00852023          	sw	s0,0(a0)
   18f44:	00450513          	add	a0,a0,4
   18f48:	00c12083          	lw	ra,12(sp)
   18f4c:	00812403          	lw	s0,8(sp)
   18f50:	01010113          	add	sp,sp,16
   18f54:	00008067          	ret

00018f58 <__nrv_alloc_D2A>:
   18f58:	ff010113          	add	sp,sp,-16
   18f5c:	00812423          	sw	s0,8(sp)
   18f60:	01212023          	sw	s2,0(sp)
   18f64:	00112623          	sw	ra,12(sp)
   18f68:	00912223          	sw	s1,4(sp)
   18f6c:	01300793          	li	a5,19
   18f70:	00058413          	mv	s0,a1
   18f74:	00060913          	mv	s2,a2
   18f78:	06d7fe63          	bgeu	a5,a3,18ff4 <__nrv_alloc_D2A+0x9c>
   18f7c:	00400793          	li	a5,4
   18f80:	00000493          	li	s1,0
   18f84:	00179793          	sll	a5,a5,0x1
   18f88:	01078713          	add	a4,a5,16
   18f8c:	00148493          	add	s1,s1,1
   18f90:	fee6fae3          	bgeu	a3,a4,18f84 <__nrv_alloc_D2A+0x2c>
   18f94:	00048593          	mv	a1,s1
   18f98:	4b4000ef          	jal	1944c <_Balloc>
   18f9c:	00050793          	mv	a5,a0
   18fa0:	04050e63          	beqz	a0,18ffc <__nrv_alloc_D2A+0xa4>
   18fa4:	00952023          	sw	s1,0(a0)
   18fa8:	00044703          	lbu	a4,0(s0)
   18fac:	00450513          	add	a0,a0,4
   18fb0:	00140593          	add	a1,s0,1
   18fb4:	00e78223          	sb	a4,4(a5)
   18fb8:	00050793          	mv	a5,a0
   18fbc:	00070c63          	beqz	a4,18fd4 <__nrv_alloc_D2A+0x7c>
   18fc0:	0005c703          	lbu	a4,0(a1)
   18fc4:	00178793          	add	a5,a5,1
   18fc8:	00158593          	add	a1,a1,1
   18fcc:	00e78023          	sb	a4,0(a5)
   18fd0:	fe0718e3          	bnez	a4,18fc0 <__nrv_alloc_D2A+0x68>
   18fd4:	00090463          	beqz	s2,18fdc <__nrv_alloc_D2A+0x84>
   18fd8:	00f92023          	sw	a5,0(s2)
   18fdc:	00c12083          	lw	ra,12(sp)
   18fe0:	00812403          	lw	s0,8(sp)
   18fe4:	00412483          	lw	s1,4(sp)
   18fe8:	00012903          	lw	s2,0(sp)
   18fec:	01010113          	add	sp,sp,16
   18ff0:	00008067          	ret
   18ff4:	00000493          	li	s1,0
   18ff8:	f9dff06f          	j	18f94 <__nrv_alloc_D2A+0x3c>
   18ffc:	00000513          	li	a0,0
   19000:	fddff06f          	j	18fdc <__nrv_alloc_D2A+0x84>

00019004 <__freedtoa>:
   19004:	ffc5a683          	lw	a3,-4(a1)
   19008:	00100713          	li	a4,1
   1900c:	00058793          	mv	a5,a1
   19010:	00d71733          	sll	a4,a4,a3
   19014:	ffc58593          	add	a1,a1,-4
   19018:	00d7a023          	sw	a3,0(a5)
   1901c:	00e7a223          	sw	a4,4(a5)
   19020:	4e00006f          	j	19500 <_Bfree>

00019024 <__quorem_D2A>:
   19024:	fb010113          	add	sp,sp,-80
   19028:	04912223          	sw	s1,68(sp)
   1902c:	01052783          	lw	a5,16(a0)
   19030:	0105a483          	lw	s1,16(a1)
   19034:	04112623          	sw	ra,76(sp)
   19038:	00b12423          	sw	a1,8(sp)
   1903c:	2297c263          	blt	a5,s1,19260 <__quorem_D2A+0x23c>
   19040:	fff48493          	add	s1,s1,-1
   19044:	03512a23          	sw	s5,52(sp)
   19048:	03712623          	sw	s7,44(sp)
   1904c:	00249a93          	sll	s5,s1,0x2
   19050:	01458b93          	add	s7,a1,20
   19054:	05212023          	sw	s2,64(sp)
   19058:	03312e23          	sw	s3,60(sp)
   1905c:	015b8933          	add	s2,s7,s5
   19060:	01450993          	add	s3,a0,20
   19064:	015987b3          	add	a5,s3,s5
   19068:	03812423          	sw	s8,40(sp)
   1906c:	00092c03          	lw	s8,0(s2)
   19070:	03912223          	sw	s9,36(sp)
   19074:	0007ac83          	lw	s9,0(a5)
   19078:	001c0c13          	add	s8,s8,1
   1907c:	03412c23          	sw	s4,56(sp)
   19080:	000c0593          	mv	a1,s8
   19084:	00050a13          	mv	s4,a0
   19088:	000c8513          	mv	a0,s9
   1908c:	04812423          	sw	s0,72(sp)
   19090:	00f12623          	sw	a5,12(sp)
   19094:	5ed080ef          	jal	21e80 <__hidden___udivsi3>
   19098:	00050413          	mv	s0,a0
   1909c:	0f8ce263          	bltu	s9,s8,19180 <__quorem_D2A+0x15c>
   190a0:	00010cb7          	lui	s9,0x10
   190a4:	03a12023          	sw	s10,32(sp)
   190a8:	01b12e23          	sw	s11,28(sp)
   190ac:	03612823          	sw	s6,48(sp)
   190b0:	000b8d93          	mv	s11,s7
   190b4:	00098d13          	mv	s10,s3
   190b8:	00000c13          	li	s8,0
   190bc:	00000a93          	li	s5,0
   190c0:	fffc8c93          	add	s9,s9,-1 # ffff <exit-0xa1>
   190c4:	000dab03          	lw	s6,0(s11)
   190c8:	00040593          	mv	a1,s0
   190cc:	004d0d13          	add	s10,s10,4
   190d0:	019b7533          	and	a0,s6,s9
   190d4:	581080ef          	jal	21e54 <__mulsi3>
   190d8:	00050793          	mv	a5,a0
   190dc:	00040593          	mv	a1,s0
   190e0:	010b5513          	srl	a0,s6,0x10
   190e4:	01878c33          	add	s8,a5,s8
   190e8:	56d080ef          	jal	21e54 <__mulsi3>
   190ec:	ffcd2783          	lw	a5,-4(s10)
   190f0:	019c7633          	and	a2,s8,s9
   190f4:	010c5c13          	srl	s8,s8,0x10
   190f8:	0197f733          	and	a4,a5,s9
   190fc:	40c70733          	sub	a4,a4,a2
   19100:	41570733          	sub	a4,a4,s5
   19104:	01850533          	add	a0,a0,s8
   19108:	01075693          	srl	a3,a4,0x10
   1910c:	0016f693          	and	a3,a3,1
   19110:	01957633          	and	a2,a0,s9
   19114:	00c686b3          	add	a3,a3,a2
   19118:	0107d793          	srl	a5,a5,0x10
   1911c:	40d787b3          	sub	a5,a5,a3
   19120:	01079693          	sll	a3,a5,0x10
   19124:	01977733          	and	a4,a4,s9
   19128:	00e6e733          	or	a4,a3,a4
   1912c:	0107d793          	srl	a5,a5,0x10
   19130:	004d8d93          	add	s11,s11,4
   19134:	feed2e23          	sw	a4,-4(s10)
   19138:	01055c13          	srl	s8,a0,0x10
   1913c:	0017fa93          	and	s5,a5,1
   19140:	f9b972e3          	bgeu	s2,s11,190c4 <__quorem_D2A+0xa0>
   19144:	00c12703          	lw	a4,12(sp)
   19148:	00072783          	lw	a5,0(a4)
   1914c:	12079463          	bnez	a5,19274 <__quorem_D2A+0x250>
   19150:	ffc70a93          	add	s5,a4,-4
   19154:	0159e863          	bltu	s3,s5,19164 <__quorem_D2A+0x140>
   19158:	0180006f          	j	19170 <__quorem_D2A+0x14c>
   1915c:	fff48493          	add	s1,s1,-1
   19160:	0159f863          	bgeu	s3,s5,19170 <__quorem_D2A+0x14c>
   19164:	000aa783          	lw	a5,0(s5)
   19168:	ffca8a93          	add	s5,s5,-4
   1916c:	fe0788e3          	beqz	a5,1915c <__quorem_D2A+0x138>
   19170:	03012b03          	lw	s6,48(sp)
   19174:	02012d03          	lw	s10,32(sp)
   19178:	01c12d83          	lw	s11,28(sp)
   1917c:	009a2823          	sw	s1,16(s4)
   19180:	00812583          	lw	a1,8(sp)
   19184:	000a0513          	mv	a0,s4
   19188:	60d000ef          	jal	19f94 <__mcmp>
   1918c:	0a054063          	bltz	a0,1922c <__quorem_D2A+0x208>
   19190:	00010537          	lui	a0,0x10
   19194:	00098593          	mv	a1,s3
   19198:	00000693          	li	a3,0
   1919c:	fff50513          	add	a0,a0,-1 # ffff <exit-0xa1>
   191a0:	0005a783          	lw	a5,0(a1)
   191a4:	000ba603          	lw	a2,0(s7)
   191a8:	00458593          	add	a1,a1,4
   191ac:	00a7f733          	and	a4,a5,a0
   191b0:	00a67833          	and	a6,a2,a0
   191b4:	41070733          	sub	a4,a4,a6
   191b8:	40d70733          	sub	a4,a4,a3
   191bc:	01075693          	srl	a3,a4,0x10
   191c0:	0016f693          	and	a3,a3,1
   191c4:	01065613          	srl	a2,a2,0x10
   191c8:	00c686b3          	add	a3,a3,a2
   191cc:	0107d793          	srl	a5,a5,0x10
   191d0:	40d787b3          	sub	a5,a5,a3
   191d4:	01079693          	sll	a3,a5,0x10
   191d8:	00a77733          	and	a4,a4,a0
   191dc:	00e6e733          	or	a4,a3,a4
   191e0:	0107d793          	srl	a5,a5,0x10
   191e4:	004b8b93          	add	s7,s7,4
   191e8:	fee5ae23          	sw	a4,-4(a1)
   191ec:	0017f693          	and	a3,a5,1
   191f0:	fb7978e3          	bgeu	s2,s7,191a0 <__quorem_D2A+0x17c>
   191f4:	00249793          	sll	a5,s1,0x2
   191f8:	00f987b3          	add	a5,s3,a5
   191fc:	0007a703          	lw	a4,0(a5)
   19200:	02071463          	bnez	a4,19228 <__quorem_D2A+0x204>
   19204:	ffc78793          	add	a5,a5,-4
   19208:	00f9e863          	bltu	s3,a5,19218 <__quorem_D2A+0x1f4>
   1920c:	0180006f          	j	19224 <__quorem_D2A+0x200>
   19210:	fff48493          	add	s1,s1,-1
   19214:	00f9f863          	bgeu	s3,a5,19224 <__quorem_D2A+0x200>
   19218:	0007a703          	lw	a4,0(a5)
   1921c:	ffc78793          	add	a5,a5,-4
   19220:	fe0708e3          	beqz	a4,19210 <__quorem_D2A+0x1ec>
   19224:	009a2823          	sw	s1,16(s4)
   19228:	00140413          	add	s0,s0,1
   1922c:	04c12083          	lw	ra,76(sp)
   19230:	00040513          	mv	a0,s0
   19234:	04812403          	lw	s0,72(sp)
   19238:	04012903          	lw	s2,64(sp)
   1923c:	03c12983          	lw	s3,60(sp)
   19240:	03812a03          	lw	s4,56(sp)
   19244:	03412a83          	lw	s5,52(sp)
   19248:	02c12b83          	lw	s7,44(sp)
   1924c:	02812c03          	lw	s8,40(sp)
   19250:	02412c83          	lw	s9,36(sp)
   19254:	04412483          	lw	s1,68(sp)
   19258:	05010113          	add	sp,sp,80
   1925c:	00008067          	ret
   19260:	04c12083          	lw	ra,76(sp)
   19264:	04412483          	lw	s1,68(sp)
   19268:	00000513          	li	a0,0
   1926c:	05010113          	add	sp,sp,80
   19270:	00008067          	ret
   19274:	00812583          	lw	a1,8(sp)
   19278:	000a0513          	mv	a0,s4
   1927c:	03012b03          	lw	s6,48(sp)
   19280:	02012d03          	lw	s10,32(sp)
   19284:	01c12d83          	lw	s11,28(sp)
   19288:	50d000ef          	jal	19f94 <__mcmp>
   1928c:	f00552e3          	bgez	a0,19190 <__quorem_D2A+0x16c>
   19290:	f9dff06f          	j	1922c <__quorem_D2A+0x208>

00019294 <__rshift_D2A>:
   19294:	01052803          	lw	a6,16(a0)
   19298:	4055de13          	sra	t3,a1,0x5
   1929c:	010e4863          	blt	t3,a6,192ac <__rshift_D2A+0x18>
   192a0:	00052823          	sw	zero,16(a0)
   192a4:	00052a23          	sw	zero,20(a0)
   192a8:	00008067          	ret
   192ac:	01450313          	add	t1,a0,20
   192b0:	00281613          	sll	a2,a6,0x2
   192b4:	002e1793          	sll	a5,t3,0x2
   192b8:	01f5f593          	and	a1,a1,31
   192bc:	00c30633          	add	a2,t1,a2
   192c0:	00f307b3          	add	a5,t1,a5
   192c4:	06058263          	beqz	a1,19328 <__rshift_D2A+0x94>
   192c8:	0007a683          	lw	a3,0(a5)
   192cc:	02000e93          	li	t4,32
   192d0:	00478793          	add	a5,a5,4
   192d4:	40be8eb3          	sub	t4,t4,a1
   192d8:	00b6d6b3          	srl	a3,a3,a1
   192dc:	08c7f463          	bgeu	a5,a2,19364 <__rshift_D2A+0xd0>
   192e0:	00030893          	mv	a7,t1
   192e4:	0007a703          	lw	a4,0(a5)
   192e8:	00488893          	add	a7,a7,4
   192ec:	00478793          	add	a5,a5,4
   192f0:	01d71733          	sll	a4,a4,t4
   192f4:	00d76733          	or	a4,a4,a3
   192f8:	fee8ae23          	sw	a4,-4(a7)
   192fc:	ffc7a683          	lw	a3,-4(a5)
   19300:	00b6d6b3          	srl	a3,a3,a1
   19304:	fec7e0e3          	bltu	a5,a2,192e4 <__rshift_D2A+0x50>
   19308:	41c80833          	sub	a6,a6,t3
   1930c:	00281813          	sll	a6,a6,0x2
   19310:	ffc80813          	add	a6,a6,-4
   19314:	01030833          	add	a6,t1,a6
   19318:	00d82023          	sw	a3,0(a6)
   1931c:	02068a63          	beqz	a3,19350 <__rshift_D2A+0xbc>
   19320:	00480813          	add	a6,a6,4
   19324:	02c0006f          	j	19350 <__rshift_D2A+0xbc>
   19328:	00030713          	mv	a4,t1
   1932c:	f6c7fae3          	bgeu	a5,a2,192a0 <__rshift_D2A+0xc>
   19330:	0007a683          	lw	a3,0(a5)
   19334:	00478793          	add	a5,a5,4
   19338:	00470713          	add	a4,a4,4
   1933c:	fed72e23          	sw	a3,-4(a4)
   19340:	fec7e8e3          	bltu	a5,a2,19330 <__rshift_D2A+0x9c>
   19344:	41c80833          	sub	a6,a6,t3
   19348:	00281813          	sll	a6,a6,0x2
   1934c:	01030833          	add	a6,t1,a6
   19350:	406807b3          	sub	a5,a6,t1
   19354:	4027d793          	sra	a5,a5,0x2
   19358:	00f52823          	sw	a5,16(a0)
   1935c:	f46804e3          	beq	a6,t1,192a4 <__rshift_D2A+0x10>
   19360:	00008067          	ret
   19364:	00d52a23          	sw	a3,20(a0)
   19368:	f2068ce3          	beqz	a3,192a0 <__rshift_D2A+0xc>
   1936c:	00030813          	mv	a6,t1
   19370:	00480813          	add	a6,a6,4
   19374:	fddff06f          	j	19350 <__rshift_D2A+0xbc>

00019378 <__trailz_D2A>:
   19378:	01052703          	lw	a4,16(a0)
   1937c:	fe010113          	add	sp,sp,-32
   19380:	01450513          	add	a0,a0,20
   19384:	00271713          	sll	a4,a4,0x2
   19388:	00812c23          	sw	s0,24(sp)
   1938c:	00112e23          	sw	ra,28(sp)
   19390:	00e50733          	add	a4,a0,a4
   19394:	00000413          	li	s0,0
   19398:	00e56a63          	bltu	a0,a4,193ac <__trailz_D2A+0x34>
   1939c:	02c0006f          	j	193c8 <__trailz_D2A+0x50>
   193a0:	00450513          	add	a0,a0,4
   193a4:	02040413          	add	s0,s0,32
   193a8:	02e57063          	bgeu	a0,a4,193c8 <__trailz_D2A+0x50>
   193ac:	00052783          	lw	a5,0(a0)
   193b0:	fe0788e3          	beqz	a5,193a0 <__trailz_D2A+0x28>
   193b4:	00e57a63          	bgeu	a0,a4,193c8 <__trailz_D2A+0x50>
   193b8:	00c10513          	add	a0,sp,12
   193bc:	00f12623          	sw	a5,12(sp)
   193c0:	49c000ef          	jal	1985c <__lo0bits>
   193c4:	00a40433          	add	s0,s0,a0
   193c8:	01c12083          	lw	ra,28(sp)
   193cc:	00040513          	mv	a0,s0
   193d0:	01812403          	lw	s0,24(sp)
   193d4:	02010113          	add	sp,sp,32
   193d8:	00008067          	ret

000193dc <_mbtowc_r>:
   193dc:	e1c1a783          	lw	a5,-484(gp) # 2372c <__global_locale+0xe4>
   193e0:	00078067          	jr	a5

000193e4 <__ascii_mbtowc>:
   193e4:	02058063          	beqz	a1,19404 <__ascii_mbtowc+0x20>
   193e8:	04060263          	beqz	a2,1942c <__ascii_mbtowc+0x48>
   193ec:	04068863          	beqz	a3,1943c <__ascii_mbtowc+0x58>
   193f0:	00064783          	lbu	a5,0(a2)
   193f4:	00f5a023          	sw	a5,0(a1)
   193f8:	00064503          	lbu	a0,0(a2)
   193fc:	00a03533          	snez	a0,a0
   19400:	00008067          	ret
   19404:	ff010113          	add	sp,sp,-16
   19408:	00c10593          	add	a1,sp,12
   1940c:	02060463          	beqz	a2,19434 <__ascii_mbtowc+0x50>
   19410:	02068a63          	beqz	a3,19444 <__ascii_mbtowc+0x60>
   19414:	00064783          	lbu	a5,0(a2)
   19418:	00f5a023          	sw	a5,0(a1)
   1941c:	00064503          	lbu	a0,0(a2)
   19420:	00a03533          	snez	a0,a0
   19424:	01010113          	add	sp,sp,16
   19428:	00008067          	ret
   1942c:	00000513          	li	a0,0
   19430:	00008067          	ret
   19434:	00000513          	li	a0,0
   19438:	fedff06f          	j	19424 <__ascii_mbtowc+0x40>
   1943c:	ffe00513          	li	a0,-2
   19440:	00008067          	ret
   19444:	ffe00513          	li	a0,-2
   19448:	fddff06f          	j	19424 <__ascii_mbtowc+0x40>

0001944c <_Balloc>:
   1944c:	04452783          	lw	a5,68(a0)
   19450:	ff010113          	add	sp,sp,-16
   19454:	00812423          	sw	s0,8(sp)
   19458:	00912223          	sw	s1,4(sp)
   1945c:	00112623          	sw	ra,12(sp)
   19460:	00050413          	mv	s0,a0
   19464:	00058493          	mv	s1,a1
   19468:	02078c63          	beqz	a5,194a0 <_Balloc+0x54>
   1946c:	00249713          	sll	a4,s1,0x2
   19470:	00e787b3          	add	a5,a5,a4
   19474:	0007a503          	lw	a0,0(a5)
   19478:	04050463          	beqz	a0,194c0 <_Balloc+0x74>
   1947c:	00052703          	lw	a4,0(a0)
   19480:	00e7a023          	sw	a4,0(a5)
   19484:	00052823          	sw	zero,16(a0)
   19488:	00052623          	sw	zero,12(a0)
   1948c:	00c12083          	lw	ra,12(sp)
   19490:	00812403          	lw	s0,8(sp)
   19494:	00412483          	lw	s1,4(sp)
   19498:	01010113          	add	sp,sp,16
   1949c:	00008067          	ret
   194a0:	02100613          	li	a2,33
   194a4:	00400593          	li	a1,4
   194a8:	66d010ef          	jal	1b314 <_calloc_r>
   194ac:	04a42223          	sw	a0,68(s0)
   194b0:	00050793          	mv	a5,a0
   194b4:	fa051ce3          	bnez	a0,1946c <_Balloc+0x20>
   194b8:	00000513          	li	a0,0
   194bc:	fd1ff06f          	j	1948c <_Balloc+0x40>
   194c0:	01212023          	sw	s2,0(sp)
   194c4:	00100913          	li	s2,1
   194c8:	00991933          	sll	s2,s2,s1
   194cc:	00590613          	add	a2,s2,5
   194d0:	00261613          	sll	a2,a2,0x2
   194d4:	00100593          	li	a1,1
   194d8:	00040513          	mv	a0,s0
   194dc:	639010ef          	jal	1b314 <_calloc_r>
   194e0:	00050a63          	beqz	a0,194f4 <_Balloc+0xa8>
   194e4:	01252423          	sw	s2,8(a0)
   194e8:	00952223          	sw	s1,4(a0)
   194ec:	00012903          	lw	s2,0(sp)
   194f0:	f95ff06f          	j	19484 <_Balloc+0x38>
   194f4:	00012903          	lw	s2,0(sp)
   194f8:	00000513          	li	a0,0
   194fc:	f91ff06f          	j	1948c <_Balloc+0x40>

00019500 <_Bfree>:
   19500:	02058063          	beqz	a1,19520 <_Bfree+0x20>
   19504:	0045a703          	lw	a4,4(a1)
   19508:	04452783          	lw	a5,68(a0)
   1950c:	00271713          	sll	a4,a4,0x2
   19510:	00e787b3          	add	a5,a5,a4
   19514:	0007a703          	lw	a4,0(a5)
   19518:	00e5a023          	sw	a4,0(a1)
   1951c:	00b7a023          	sw	a1,0(a5)
   19520:	00008067          	ret

00019524 <__multadd>:
   19524:	fd010113          	add	sp,sp,-48
   19528:	01412c23          	sw	s4,24(sp)
   1952c:	0105aa03          	lw	s4,16(a1)
   19530:	01912223          	sw	s9,4(sp)
   19534:	00010cb7          	lui	s9,0x10
   19538:	02912223          	sw	s1,36(sp)
   1953c:	03212023          	sw	s2,32(sp)
   19540:	01312e23          	sw	s3,28(sp)
   19544:	01512a23          	sw	s5,20(sp)
   19548:	01612823          	sw	s6,16(sp)
   1954c:	01712623          	sw	s7,12(sp)
   19550:	02112623          	sw	ra,44(sp)
   19554:	02812423          	sw	s0,40(sp)
   19558:	01812423          	sw	s8,8(sp)
   1955c:	00058a93          	mv	s5,a1
   19560:	00050b13          	mv	s6,a0
   19564:	00060993          	mv	s3,a2
   19568:	00068493          	mv	s1,a3
   1956c:	01458913          	add	s2,a1,20
   19570:	00000b93          	li	s7,0
   19574:	fffc8c93          	add	s9,s9,-1 # ffff <exit-0xa1>
   19578:	00092c03          	lw	s8,0(s2)
   1957c:	00098593          	mv	a1,s3
   19580:	00490913          	add	s2,s2,4
   19584:	019c7533          	and	a0,s8,s9
   19588:	0cd080ef          	jal	21e54 <__mulsi3>
   1958c:	00050413          	mv	s0,a0
   19590:	00098593          	mv	a1,s3
   19594:	010c5513          	srl	a0,s8,0x10
   19598:	00940433          	add	s0,s0,s1
   1959c:	0b9080ef          	jal	21e54 <__mulsi3>
   195a0:	01045793          	srl	a5,s0,0x10
   195a4:	00f50533          	add	a0,a0,a5
   195a8:	01051793          	sll	a5,a0,0x10
   195ac:	01947433          	and	s0,s0,s9
   195b0:	008787b3          	add	a5,a5,s0
   195b4:	fef92e23          	sw	a5,-4(s2)
   195b8:	001b8b93          	add	s7,s7,1
   195bc:	01055493          	srl	s1,a0,0x10
   195c0:	fb4bcce3          	blt	s7,s4,19578 <__multadd+0x54>
   195c4:	02048263          	beqz	s1,195e8 <__multadd+0xc4>
   195c8:	008aa783          	lw	a5,8(s5)
   195cc:	04fa5a63          	bge	s4,a5,19620 <__multadd+0xfc>
   195d0:	004a0793          	add	a5,s4,4
   195d4:	00279793          	sll	a5,a5,0x2
   195d8:	00fa87b3          	add	a5,s5,a5
   195dc:	0097a223          	sw	s1,4(a5)
   195e0:	001a0a13          	add	s4,s4,1
   195e4:	014aa823          	sw	s4,16(s5)
   195e8:	02c12083          	lw	ra,44(sp)
   195ec:	02812403          	lw	s0,40(sp)
   195f0:	02412483          	lw	s1,36(sp)
   195f4:	02012903          	lw	s2,32(sp)
   195f8:	01c12983          	lw	s3,28(sp)
   195fc:	01812a03          	lw	s4,24(sp)
   19600:	01012b03          	lw	s6,16(sp)
   19604:	00c12b83          	lw	s7,12(sp)
   19608:	00812c03          	lw	s8,8(sp)
   1960c:	00412c83          	lw	s9,4(sp)
   19610:	000a8513          	mv	a0,s5
   19614:	01412a83          	lw	s5,20(sp)
   19618:	03010113          	add	sp,sp,48
   1961c:	00008067          	ret
   19620:	004aa583          	lw	a1,4(s5)
   19624:	000b0513          	mv	a0,s6
   19628:	00158593          	add	a1,a1,1
   1962c:	e21ff0ef          	jal	1944c <_Balloc>
   19630:	00050413          	mv	s0,a0
   19634:	04050c63          	beqz	a0,1968c <__multadd+0x168>
   19638:	010aa603          	lw	a2,16(s5)
   1963c:	00ca8593          	add	a1,s5,12
   19640:	00c50513          	add	a0,a0,12
   19644:	00260613          	add	a2,a2,2
   19648:	00261613          	sll	a2,a2,0x2
   1964c:	c3cfd0ef          	jal	16a88 <memcpy>
   19650:	004aa703          	lw	a4,4(s5)
   19654:	044b2783          	lw	a5,68(s6)
   19658:	00271713          	sll	a4,a4,0x2
   1965c:	00e787b3          	add	a5,a5,a4
   19660:	0007a703          	lw	a4,0(a5)
   19664:	00eaa023          	sw	a4,0(s5)
   19668:	0157a023          	sw	s5,0(a5)
   1966c:	004a0793          	add	a5,s4,4
   19670:	00040a93          	mv	s5,s0
   19674:	00279793          	sll	a5,a5,0x2
   19678:	00fa87b3          	add	a5,s5,a5
   1967c:	0097a223          	sw	s1,4(a5)
   19680:	001a0a13          	add	s4,s4,1
   19684:	014aa823          	sw	s4,16(s5)
   19688:	f61ff06f          	j	195e8 <__multadd+0xc4>
   1968c:	000226b7          	lui	a3,0x22
   19690:	00022537          	lui	a0,0x22
   19694:	08868693          	add	a3,a3,136 # 22088 <__clzsi2+0x15c>
   19698:	00000613          	li	a2,0
   1969c:	0ba00593          	li	a1,186
   196a0:	09c50513          	add	a0,a0,156 # 2209c <__clzsi2+0x170>
   196a4:	409010ef          	jal	1b2ac <__assert_func>

000196a8 <__s2b>:
   196a8:	fe010113          	add	sp,sp,-32
   196ac:	00812c23          	sw	s0,24(sp)
   196b0:	01212823          	sw	s2,16(sp)
   196b4:	00058413          	mv	s0,a1
   196b8:	00050913          	mv	s2,a0
   196bc:	00900593          	li	a1,9
   196c0:	00868513          	add	a0,a3,8
   196c4:	00912a23          	sw	s1,20(sp)
   196c8:	01312623          	sw	s3,12(sp)
   196cc:	01412423          	sw	s4,8(sp)
   196d0:	00112e23          	sw	ra,28(sp)
   196d4:	00068493          	mv	s1,a3
   196d8:	00060993          	mv	s3,a2
   196dc:	00070a13          	mv	s4,a4
   196e0:	798080ef          	jal	21e78 <__divsi3>
   196e4:	00900793          	li	a5,9
   196e8:	0c97da63          	bge	a5,s1,197bc <__s2b+0x114>
   196ec:	00100793          	li	a5,1
   196f0:	00000593          	li	a1,0
   196f4:	00179793          	sll	a5,a5,0x1
   196f8:	00158593          	add	a1,a1,1
   196fc:	fea7cce3          	blt	a5,a0,196f4 <__s2b+0x4c>
   19700:	00090513          	mv	a0,s2
   19704:	d49ff0ef          	jal	1944c <_Balloc>
   19708:	00050593          	mv	a1,a0
   1970c:	0a050c63          	beqz	a0,197c4 <__s2b+0x11c>
   19710:	00100793          	li	a5,1
   19714:	00f52823          	sw	a5,16(a0)
   19718:	01452a23          	sw	s4,20(a0)
   1971c:	00900793          	li	a5,9
   19720:	0937d863          	bge	a5,s3,197b0 <__s2b+0x108>
   19724:	01512223          	sw	s5,4(sp)
   19728:	00940a93          	add	s5,s0,9
   1972c:	01340a33          	add	s4,s0,s3
   19730:	000a8413          	mv	s0,s5
   19734:	00044683          	lbu	a3,0(s0)
   19738:	00a00613          	li	a2,10
   1973c:	00090513          	mv	a0,s2
   19740:	fd068693          	add	a3,a3,-48
   19744:	de1ff0ef          	jal	19524 <__multadd>
   19748:	00140413          	add	s0,s0,1
   1974c:	00050593          	mv	a1,a0
   19750:	ff4412e3          	bne	s0,s4,19734 <__s2b+0x8c>
   19754:	ff898413          	add	s0,s3,-8
   19758:	008a8433          	add	s0,s5,s0
   1975c:	00412a83          	lw	s5,4(sp)
   19760:	0299d663          	bge	s3,s1,1978c <__s2b+0xe4>
   19764:	413484b3          	sub	s1,s1,s3
   19768:	009404b3          	add	s1,s0,s1
   1976c:	00044683          	lbu	a3,0(s0)
   19770:	00a00613          	li	a2,10
   19774:	00090513          	mv	a0,s2
   19778:	fd068693          	add	a3,a3,-48
   1977c:	da9ff0ef          	jal	19524 <__multadd>
   19780:	00140413          	add	s0,s0,1
   19784:	00050593          	mv	a1,a0
   19788:	fe9412e3          	bne	s0,s1,1976c <__s2b+0xc4>
   1978c:	01c12083          	lw	ra,28(sp)
   19790:	01812403          	lw	s0,24(sp)
   19794:	01412483          	lw	s1,20(sp)
   19798:	01012903          	lw	s2,16(sp)
   1979c:	00c12983          	lw	s3,12(sp)
   197a0:	00812a03          	lw	s4,8(sp)
   197a4:	00058513          	mv	a0,a1
   197a8:	02010113          	add	sp,sp,32
   197ac:	00008067          	ret
   197b0:	00a40413          	add	s0,s0,10
   197b4:	00900993          	li	s3,9
   197b8:	fa9ff06f          	j	19760 <__s2b+0xb8>
   197bc:	00000593          	li	a1,0
   197c0:	f41ff06f          	j	19700 <__s2b+0x58>
   197c4:	000226b7          	lui	a3,0x22
   197c8:	00022537          	lui	a0,0x22
   197cc:	08868693          	add	a3,a3,136 # 22088 <__clzsi2+0x15c>
   197d0:	00000613          	li	a2,0
   197d4:	0d300593          	li	a1,211
   197d8:	09c50513          	add	a0,a0,156 # 2209c <__clzsi2+0x170>
   197dc:	01512223          	sw	s5,4(sp)
   197e0:	2cd010ef          	jal	1b2ac <__assert_func>

000197e4 <__hi0bits>:
   197e4:	00050793          	mv	a5,a0
   197e8:	00010737          	lui	a4,0x10
   197ec:	00000513          	li	a0,0
   197f0:	00e7f663          	bgeu	a5,a4,197fc <__hi0bits+0x18>
   197f4:	01079793          	sll	a5,a5,0x10
   197f8:	01000513          	li	a0,16
   197fc:	01000737          	lui	a4,0x1000
   19800:	00e7f663          	bgeu	a5,a4,1980c <__hi0bits+0x28>
   19804:	00850513          	add	a0,a0,8
   19808:	00879793          	sll	a5,a5,0x8
   1980c:	10000737          	lui	a4,0x10000
   19810:	00e7f663          	bgeu	a5,a4,1981c <__hi0bits+0x38>
   19814:	00450513          	add	a0,a0,4
   19818:	00479793          	sll	a5,a5,0x4
   1981c:	40000737          	lui	a4,0x40000
   19820:	00e7ea63          	bltu	a5,a4,19834 <__hi0bits+0x50>
   19824:	fff7c793          	not	a5,a5
   19828:	01f7d793          	srl	a5,a5,0x1f
   1982c:	00f50533          	add	a0,a0,a5
   19830:	00008067          	ret
   19834:	00279793          	sll	a5,a5,0x2
   19838:	0007ca63          	bltz	a5,1984c <__hi0bits+0x68>
   1983c:	00179713          	sll	a4,a5,0x1
   19840:	00074a63          	bltz	a4,19854 <__hi0bits+0x70>
   19844:	02000513          	li	a0,32
   19848:	00008067          	ret
   1984c:	00250513          	add	a0,a0,2
   19850:	00008067          	ret
   19854:	00350513          	add	a0,a0,3
   19858:	00008067          	ret

0001985c <__lo0bits>:
   1985c:	00052783          	lw	a5,0(a0)
   19860:	00050713          	mv	a4,a0
   19864:	0077f693          	and	a3,a5,7
   19868:	02068463          	beqz	a3,19890 <__lo0bits+0x34>
   1986c:	0017f693          	and	a3,a5,1
   19870:	00000513          	li	a0,0
   19874:	04069e63          	bnez	a3,198d0 <__lo0bits+0x74>
   19878:	0027f693          	and	a3,a5,2
   1987c:	0a068863          	beqz	a3,1992c <__lo0bits+0xd0>
   19880:	0017d793          	srl	a5,a5,0x1
   19884:	00f72023          	sw	a5,0(a4) # 40000000 <__BSS_END__+0x3ffdc428>
   19888:	00100513          	li	a0,1
   1988c:	00008067          	ret
   19890:	01079693          	sll	a3,a5,0x10
   19894:	0106d693          	srl	a3,a3,0x10
   19898:	00000513          	li	a0,0
   1989c:	06068e63          	beqz	a3,19918 <__lo0bits+0xbc>
   198a0:	0ff7f693          	zext.b	a3,a5
   198a4:	06068063          	beqz	a3,19904 <__lo0bits+0xa8>
   198a8:	00f7f693          	and	a3,a5,15
   198ac:	04068263          	beqz	a3,198f0 <__lo0bits+0x94>
   198b0:	0037f693          	and	a3,a5,3
   198b4:	02068463          	beqz	a3,198dc <__lo0bits+0x80>
   198b8:	0017f693          	and	a3,a5,1
   198bc:	00069c63          	bnez	a3,198d4 <__lo0bits+0x78>
   198c0:	0017d793          	srl	a5,a5,0x1
   198c4:	00150513          	add	a0,a0,1
   198c8:	00079663          	bnez	a5,198d4 <__lo0bits+0x78>
   198cc:	02000513          	li	a0,32
   198d0:	00008067          	ret
   198d4:	00f72023          	sw	a5,0(a4)
   198d8:	00008067          	ret
   198dc:	0027d793          	srl	a5,a5,0x2
   198e0:	0017f693          	and	a3,a5,1
   198e4:	00250513          	add	a0,a0,2
   198e8:	fe0696e3          	bnez	a3,198d4 <__lo0bits+0x78>
   198ec:	fd5ff06f          	j	198c0 <__lo0bits+0x64>
   198f0:	0047d793          	srl	a5,a5,0x4
   198f4:	0037f693          	and	a3,a5,3
   198f8:	00450513          	add	a0,a0,4
   198fc:	fa069ee3          	bnez	a3,198b8 <__lo0bits+0x5c>
   19900:	fddff06f          	j	198dc <__lo0bits+0x80>
   19904:	0087d793          	srl	a5,a5,0x8
   19908:	00f7f693          	and	a3,a5,15
   1990c:	00850513          	add	a0,a0,8
   19910:	fa0690e3          	bnez	a3,198b0 <__lo0bits+0x54>
   19914:	fddff06f          	j	198f0 <__lo0bits+0x94>
   19918:	0107d793          	srl	a5,a5,0x10
   1991c:	0ff7f693          	zext.b	a3,a5
   19920:	01000513          	li	a0,16
   19924:	f80692e3          	bnez	a3,198a8 <__lo0bits+0x4c>
   19928:	fddff06f          	j	19904 <__lo0bits+0xa8>
   1992c:	0027d793          	srl	a5,a5,0x2
   19930:	00f72023          	sw	a5,0(a4)
   19934:	00200513          	li	a0,2
   19938:	00008067          	ret

0001993c <__i2b>:
   1993c:	04452783          	lw	a5,68(a0)
   19940:	ff010113          	add	sp,sp,-16
   19944:	00812423          	sw	s0,8(sp)
   19948:	00912223          	sw	s1,4(sp)
   1994c:	00112623          	sw	ra,12(sp)
   19950:	00050413          	mv	s0,a0
   19954:	00058493          	mv	s1,a1
   19958:	02078c63          	beqz	a5,19990 <__i2b+0x54>
   1995c:	0047a503          	lw	a0,4(a5)
   19960:	06050263          	beqz	a0,199c4 <__i2b+0x88>
   19964:	00052703          	lw	a4,0(a0)
   19968:	00e7a223          	sw	a4,4(a5)
   1996c:	00c12083          	lw	ra,12(sp)
   19970:	00812403          	lw	s0,8(sp)
   19974:	00100793          	li	a5,1
   19978:	00952a23          	sw	s1,20(a0)
   1997c:	00052623          	sw	zero,12(a0)
   19980:	00f52823          	sw	a5,16(a0)
   19984:	00412483          	lw	s1,4(sp)
   19988:	01010113          	add	sp,sp,16
   1998c:	00008067          	ret
   19990:	02100613          	li	a2,33
   19994:	00400593          	li	a1,4
   19998:	17d010ef          	jal	1b314 <_calloc_r>
   1999c:	04a42223          	sw	a0,68(s0)
   199a0:	00050793          	mv	a5,a0
   199a4:	fa051ce3          	bnez	a0,1995c <__i2b+0x20>
   199a8:	000226b7          	lui	a3,0x22
   199ac:	00022537          	lui	a0,0x22
   199b0:	08868693          	add	a3,a3,136 # 22088 <__clzsi2+0x15c>
   199b4:	00000613          	li	a2,0
   199b8:	14500593          	li	a1,325
   199bc:	09c50513          	add	a0,a0,156 # 2209c <__clzsi2+0x170>
   199c0:	0ed010ef          	jal	1b2ac <__assert_func>
   199c4:	01c00613          	li	a2,28
   199c8:	00100593          	li	a1,1
   199cc:	00040513          	mv	a0,s0
   199d0:	145010ef          	jal	1b314 <_calloc_r>
   199d4:	fc050ae3          	beqz	a0,199a8 <__i2b+0x6c>
   199d8:	00100793          	li	a5,1
   199dc:	00f52223          	sw	a5,4(a0)
   199e0:	00200793          	li	a5,2
   199e4:	00f52423          	sw	a5,8(a0)
   199e8:	f85ff06f          	j	1996c <__i2b+0x30>

000199ec <__multiply>:
   199ec:	fb010113          	add	sp,sp,-80
   199f0:	03312e23          	sw	s3,60(sp)
   199f4:	03812423          	sw	s8,40(sp)
   199f8:	01062983          	lw	s3,16(a2)
   199fc:	0105ac03          	lw	s8,16(a1)
   19a00:	04812423          	sw	s0,72(sp)
   19a04:	03412c23          	sw	s4,56(sp)
   19a08:	04112623          	sw	ra,76(sp)
   19a0c:	03712623          	sw	s7,44(sp)
   19a10:	00058a13          	mv	s4,a1
   19a14:	00060413          	mv	s0,a2
   19a18:	013c4c63          	blt	s8,s3,19a30 <__multiply+0x44>
   19a1c:	00098713          	mv	a4,s3
   19a20:	00058413          	mv	s0,a1
   19a24:	000c0993          	mv	s3,s8
   19a28:	00060a13          	mv	s4,a2
   19a2c:	00070c13          	mv	s8,a4
   19a30:	00842783          	lw	a5,8(s0)
   19a34:	00442583          	lw	a1,4(s0)
   19a38:	01898bb3          	add	s7,s3,s8
   19a3c:	0177a7b3          	slt	a5,a5,s7
   19a40:	00f585b3          	add	a1,a1,a5
   19a44:	a09ff0ef          	jal	1944c <_Balloc>
   19a48:	00a12623          	sw	a0,12(sp)
   19a4c:	22050863          	beqz	a0,19c7c <__multiply+0x290>
   19a50:	00c12783          	lw	a5,12(sp)
   19a54:	03512a23          	sw	s5,52(sp)
   19a58:	03612823          	sw	s6,48(sp)
   19a5c:	002b9a93          	sll	s5,s7,0x2
   19a60:	01478b13          	add	s6,a5,20
   19a64:	015b0ab3          	add	s5,s6,s5
   19a68:	000b0793          	mv	a5,s6
   19a6c:	015b7863          	bgeu	s6,s5,19a7c <__multiply+0x90>
   19a70:	0007a023          	sw	zero,0(a5)
   19a74:	00478793          	add	a5,a5,4
   19a78:	ff57ece3          	bltu	a5,s5,19a70 <__multiply+0x84>
   19a7c:	014a0a13          	add	s4,s4,20
   19a80:	002c1c13          	sll	s8,s8,0x2
   19a84:	01440793          	add	a5,s0,20
   19a88:	018a0733          	add	a4,s4,s8
   19a8c:	00299993          	sll	s3,s3,0x2
   19a90:	00f12423          	sw	a5,8(sp)
   19a94:	00e12023          	sw	a4,0(sp)
   19a98:	013789b3          	add	s3,a5,s3
   19a9c:	16ea7c63          	bgeu	s4,a4,19c14 <__multiply+0x228>
   19aa0:	00400713          	li	a4,4
   19aa4:	04912223          	sw	s1,68(sp)
   19aa8:	05212023          	sw	s2,64(sp)
   19aac:	03912223          	sw	s9,36(sp)
   19ab0:	03a12023          	sw	s10,32(sp)
   19ab4:	01b12e23          	sw	s11,28(sp)
   19ab8:	01540793          	add	a5,s0,21
   19abc:	00e12223          	sw	a4,4(sp)
   19ac0:	1af9f263          	bgeu	s3,a5,19c64 <__multiply+0x278>
   19ac4:	00010437          	lui	s0,0x10
   19ac8:	fff40413          	add	s0,s0,-1 # ffff <exit-0xa1>
   19acc:	01c0006f          	j	19ae8 <__multiply+0xfc>
   19ad0:	01095913          	srl	s2,s2,0x10
   19ad4:	0a091063          	bnez	s2,19b74 <__multiply+0x188>
   19ad8:	00012783          	lw	a5,0(sp)
   19adc:	004a0a13          	add	s4,s4,4
   19ae0:	004b0b13          	add	s6,s6,4
   19ae4:	10fa7e63          	bgeu	s4,a5,19c00 <__multiply+0x214>
   19ae8:	000a2903          	lw	s2,0(s4)
   19aec:	008974b3          	and	s1,s2,s0
   19af0:	fe0480e3          	beqz	s1,19ad0 <__multiply+0xe4>
   19af4:	00812c83          	lw	s9,8(sp)
   19af8:	000b0d13          	mv	s10,s6
   19afc:	00000c13          	li	s8,0
   19b00:	000cad83          	lw	s11,0(s9)
   19b04:	000d2903          	lw	s2,0(s10)
   19b08:	00048593          	mv	a1,s1
   19b0c:	008df533          	and	a0,s11,s0
   19b10:	344080ef          	jal	21e54 <__mulsi3>
   19b14:	00897733          	and	a4,s2,s0
   19b18:	00e50733          	add	a4,a0,a4
   19b1c:	00048593          	mv	a1,s1
   19b20:	010dd513          	srl	a0,s11,0x10
   19b24:	01870c33          	add	s8,a4,s8
   19b28:	01095913          	srl	s2,s2,0x10
   19b2c:	328080ef          	jal	21e54 <__mulsi3>
   19b30:	010c5713          	srl	a4,s8,0x10
   19b34:	01250533          	add	a0,a0,s2
   19b38:	00e50533          	add	a0,a0,a4
   19b3c:	008c77b3          	and	a5,s8,s0
   19b40:	01051713          	sll	a4,a0,0x10
   19b44:	004d0d13          	add	s10,s10,4
   19b48:	00f767b3          	or	a5,a4,a5
   19b4c:	004c8c93          	add	s9,s9,4
   19b50:	fefd2e23          	sw	a5,-4(s10)
   19b54:	01055c13          	srl	s8,a0,0x10
   19b58:	fb3ce4e3          	bltu	s9,s3,19b00 <__multiply+0x114>
   19b5c:	00412783          	lw	a5,4(sp)
   19b60:	00fb0733          	add	a4,s6,a5
   19b64:	01872023          	sw	s8,0(a4)
   19b68:	000a2903          	lw	s2,0(s4)
   19b6c:	01095913          	srl	s2,s2,0x10
   19b70:	f60904e3          	beqz	s2,19ad8 <__multiply+0xec>
   19b74:	000b2c83          	lw	s9,0(s6)
   19b78:	00812d03          	lw	s10,8(sp)
   19b7c:	000b0c13          	mv	s8,s6
   19b80:	000c8493          	mv	s1,s9
   19b84:	00000d93          	li	s11,0
   19b88:	000d2503          	lw	a0,0(s10)
   19b8c:	00090593          	mv	a1,s2
   19b90:	0104d493          	srl	s1,s1,0x10
   19b94:	00857533          	and	a0,a0,s0
   19b98:	2bc080ef          	jal	21e54 <__mulsi3>
   19b9c:	01b50733          	add	a4,a0,s11
   19ba0:	00970db3          	add	s11,a4,s1
   19ba4:	010d9593          	sll	a1,s11,0x10
   19ba8:	008cf7b3          	and	a5,s9,s0
   19bac:	00f5e7b3          	or	a5,a1,a5
   19bb0:	00fc2023          	sw	a5,0(s8)
   19bb4:	002d5503          	lhu	a0,2(s10)
   19bb8:	004c2483          	lw	s1,4(s8)
   19bbc:	00090593          	mv	a1,s2
   19bc0:	294080ef          	jal	21e54 <__mulsi3>
   19bc4:	0084f7b3          	and	a5,s1,s0
   19bc8:	010dd713          	srl	a4,s11,0x10
   19bcc:	00f507b3          	add	a5,a0,a5
   19bd0:	004d0d13          	add	s10,s10,4
   19bd4:	00e78cb3          	add	s9,a5,a4
   19bd8:	004c0c13          	add	s8,s8,4
   19bdc:	010cdd93          	srl	s11,s9,0x10
   19be0:	fb3d64e3          	bltu	s10,s3,19b88 <__multiply+0x19c>
   19be4:	00412783          	lw	a5,4(sp)
   19be8:	004a0a13          	add	s4,s4,4
   19bec:	00fb0733          	add	a4,s6,a5
   19bf0:	00012783          	lw	a5,0(sp)
   19bf4:	01972023          	sw	s9,0(a4)
   19bf8:	004b0b13          	add	s6,s6,4
   19bfc:	eefa66e3          	bltu	s4,a5,19ae8 <__multiply+0xfc>
   19c00:	04412483          	lw	s1,68(sp)
   19c04:	04012903          	lw	s2,64(sp)
   19c08:	02412c83          	lw	s9,36(sp)
   19c0c:	02012d03          	lw	s10,32(sp)
   19c10:	01c12d83          	lw	s11,28(sp)
   19c14:	01704863          	bgtz	s7,19c24 <__multiply+0x238>
   19c18:	0180006f          	j	19c30 <__multiply+0x244>
   19c1c:	fffb8b93          	add	s7,s7,-1
   19c20:	000b8863          	beqz	s7,19c30 <__multiply+0x244>
   19c24:	ffcaa783          	lw	a5,-4(s5)
   19c28:	ffca8a93          	add	s5,s5,-4
   19c2c:	fe0788e3          	beqz	a5,19c1c <__multiply+0x230>
   19c30:	00c12783          	lw	a5,12(sp)
   19c34:	04c12083          	lw	ra,76(sp)
   19c38:	04812403          	lw	s0,72(sp)
   19c3c:	0177a823          	sw	s7,16(a5)
   19c40:	03412a83          	lw	s5,52(sp)
   19c44:	03012b03          	lw	s6,48(sp)
   19c48:	03c12983          	lw	s3,60(sp)
   19c4c:	03812a03          	lw	s4,56(sp)
   19c50:	02c12b83          	lw	s7,44(sp)
   19c54:	02812c03          	lw	s8,40(sp)
   19c58:	00078513          	mv	a0,a5
   19c5c:	05010113          	add	sp,sp,80
   19c60:	00008067          	ret
   19c64:	408987b3          	sub	a5,s3,s0
   19c68:	feb78793          	add	a5,a5,-21
   19c6c:	ffc7f793          	and	a5,a5,-4
   19c70:	00478793          	add	a5,a5,4
   19c74:	00f12223          	sw	a5,4(sp)
   19c78:	e4dff06f          	j	19ac4 <__multiply+0xd8>
   19c7c:	000226b7          	lui	a3,0x22
   19c80:	00022537          	lui	a0,0x22
   19c84:	08868693          	add	a3,a3,136 # 22088 <__clzsi2+0x15c>
   19c88:	00000613          	li	a2,0
   19c8c:	16200593          	li	a1,354
   19c90:	09c50513          	add	a0,a0,156 # 2209c <__clzsi2+0x170>
   19c94:	04912223          	sw	s1,68(sp)
   19c98:	05212023          	sw	s2,64(sp)
   19c9c:	03512a23          	sw	s5,52(sp)
   19ca0:	03612823          	sw	s6,48(sp)
   19ca4:	03912223          	sw	s9,36(sp)
   19ca8:	03a12023          	sw	s10,32(sp)
   19cac:	01b12e23          	sw	s11,28(sp)
   19cb0:	5fc010ef          	jal	1b2ac <__assert_func>

00019cb4 <__pow5mult>:
   19cb4:	fe010113          	add	sp,sp,-32
   19cb8:	00812c23          	sw	s0,24(sp)
   19cbc:	01212823          	sw	s2,16(sp)
   19cc0:	01312623          	sw	s3,12(sp)
   19cc4:	00112e23          	sw	ra,28(sp)
   19cc8:	00367793          	and	a5,a2,3
   19ccc:	00060413          	mv	s0,a2
   19cd0:	00050993          	mv	s3,a0
   19cd4:	00058913          	mv	s2,a1
   19cd8:	0a079c63          	bnez	a5,19d90 <__pow5mult+0xdc>
   19cdc:	40245413          	sra	s0,s0,0x2
   19ce0:	06040a63          	beqz	s0,19d54 <__pow5mult+0xa0>
   19ce4:	00912a23          	sw	s1,20(sp)
   19ce8:	0409a483          	lw	s1,64(s3)
   19cec:	0c048663          	beqz	s1,19db8 <__pow5mult+0x104>
   19cf0:	00147793          	and	a5,s0,1
   19cf4:	02079063          	bnez	a5,19d14 <__pow5mult+0x60>
   19cf8:	40145413          	sra	s0,s0,0x1
   19cfc:	04040a63          	beqz	s0,19d50 <__pow5mult+0x9c>
   19d00:	0004a503          	lw	a0,0(s1)
   19d04:	06050663          	beqz	a0,19d70 <__pow5mult+0xbc>
   19d08:	00050493          	mv	s1,a0
   19d0c:	00147793          	and	a5,s0,1
   19d10:	fe0784e3          	beqz	a5,19cf8 <__pow5mult+0x44>
   19d14:	00048613          	mv	a2,s1
   19d18:	00090593          	mv	a1,s2
   19d1c:	00098513          	mv	a0,s3
   19d20:	ccdff0ef          	jal	199ec <__multiply>
   19d24:	02090063          	beqz	s2,19d44 <__pow5mult+0x90>
   19d28:	00492703          	lw	a4,4(s2)
   19d2c:	0449a783          	lw	a5,68(s3)
   19d30:	00271713          	sll	a4,a4,0x2
   19d34:	00e787b3          	add	a5,a5,a4
   19d38:	0007a703          	lw	a4,0(a5)
   19d3c:	00e92023          	sw	a4,0(s2)
   19d40:	0127a023          	sw	s2,0(a5)
   19d44:	40145413          	sra	s0,s0,0x1
   19d48:	00050913          	mv	s2,a0
   19d4c:	fa041ae3          	bnez	s0,19d00 <__pow5mult+0x4c>
   19d50:	01412483          	lw	s1,20(sp)
   19d54:	01c12083          	lw	ra,28(sp)
   19d58:	01812403          	lw	s0,24(sp)
   19d5c:	00c12983          	lw	s3,12(sp)
   19d60:	00090513          	mv	a0,s2
   19d64:	01012903          	lw	s2,16(sp)
   19d68:	02010113          	add	sp,sp,32
   19d6c:	00008067          	ret
   19d70:	00048613          	mv	a2,s1
   19d74:	00048593          	mv	a1,s1
   19d78:	00098513          	mv	a0,s3
   19d7c:	c71ff0ef          	jal	199ec <__multiply>
   19d80:	00a4a023          	sw	a0,0(s1)
   19d84:	00052023          	sw	zero,0(a0)
   19d88:	00050493          	mv	s1,a0
   19d8c:	f81ff06f          	j	19d0c <__pow5mult+0x58>
   19d90:	fff78793          	add	a5,a5,-1
   19d94:	00022737          	lui	a4,0x22
   19d98:	4f470713          	add	a4,a4,1268 # 224f4 <p05.0>
   19d9c:	00279793          	sll	a5,a5,0x2
   19da0:	00f707b3          	add	a5,a4,a5
   19da4:	0007a603          	lw	a2,0(a5)
   19da8:	00000693          	li	a3,0
   19dac:	f78ff0ef          	jal	19524 <__multadd>
   19db0:	00050913          	mv	s2,a0
   19db4:	f29ff06f          	j	19cdc <__pow5mult+0x28>
   19db8:	00100593          	li	a1,1
   19dbc:	00098513          	mv	a0,s3
   19dc0:	e8cff0ef          	jal	1944c <_Balloc>
   19dc4:	00050493          	mv	s1,a0
   19dc8:	02050063          	beqz	a0,19de8 <__pow5mult+0x134>
   19dcc:	27100793          	li	a5,625
   19dd0:	00f52a23          	sw	a5,20(a0)
   19dd4:	00100793          	li	a5,1
   19dd8:	00f52823          	sw	a5,16(a0)
   19ddc:	04a9a023          	sw	a0,64(s3)
   19de0:	00052023          	sw	zero,0(a0)
   19de4:	f0dff06f          	j	19cf0 <__pow5mult+0x3c>
   19de8:	000226b7          	lui	a3,0x22
   19dec:	00022537          	lui	a0,0x22
   19df0:	08868693          	add	a3,a3,136 # 22088 <__clzsi2+0x15c>
   19df4:	00000613          	li	a2,0
   19df8:	14500593          	li	a1,325
   19dfc:	09c50513          	add	a0,a0,156 # 2209c <__clzsi2+0x170>
   19e00:	4ac010ef          	jal	1b2ac <__assert_func>

00019e04 <__lshift>:
   19e04:	fe010113          	add	sp,sp,-32
   19e08:	01512223          	sw	s5,4(sp)
   19e0c:	0105aa83          	lw	s5,16(a1)
   19e10:	0085a783          	lw	a5,8(a1)
   19e14:	01312623          	sw	s3,12(sp)
   19e18:	40565993          	sra	s3,a2,0x5
   19e1c:	01598ab3          	add	s5,s3,s5
   19e20:	00812c23          	sw	s0,24(sp)
   19e24:	00912a23          	sw	s1,20(sp)
   19e28:	01212823          	sw	s2,16(sp)
   19e2c:	01412423          	sw	s4,8(sp)
   19e30:	00112e23          	sw	ra,28(sp)
   19e34:	001a8913          	add	s2,s5,1
   19e38:	00058493          	mv	s1,a1
   19e3c:	00060413          	mv	s0,a2
   19e40:	0045a583          	lw	a1,4(a1)
   19e44:	00050a13          	mv	s4,a0
   19e48:	0127d863          	bge	a5,s2,19e58 <__lshift+0x54>
   19e4c:	00179793          	sll	a5,a5,0x1
   19e50:	00158593          	add	a1,a1,1
   19e54:	ff27cce3          	blt	a5,s2,19e4c <__lshift+0x48>
   19e58:	000a0513          	mv	a0,s4
   19e5c:	df0ff0ef          	jal	1944c <_Balloc>
   19e60:	10050c63          	beqz	a0,19f78 <__lshift+0x174>
   19e64:	01450813          	add	a6,a0,20
   19e68:	03305463          	blez	s3,19e90 <__lshift+0x8c>
   19e6c:	00598993          	add	s3,s3,5
   19e70:	00299993          	sll	s3,s3,0x2
   19e74:	01350733          	add	a4,a0,s3
   19e78:	00080793          	mv	a5,a6
   19e7c:	00478793          	add	a5,a5,4
   19e80:	fe07ae23          	sw	zero,-4(a5)
   19e84:	fee79ce3          	bne	a5,a4,19e7c <__lshift+0x78>
   19e88:	fec98993          	add	s3,s3,-20
   19e8c:	01380833          	add	a6,a6,s3
   19e90:	0104a883          	lw	a7,16(s1)
   19e94:	01448793          	add	a5,s1,20
   19e98:	01f47613          	and	a2,s0,31
   19e9c:	00289893          	sll	a7,a7,0x2
   19ea0:	011788b3          	add	a7,a5,a7
   19ea4:	0a060463          	beqz	a2,19f4c <__lshift+0x148>
   19ea8:	02000593          	li	a1,32
   19eac:	40c585b3          	sub	a1,a1,a2
   19eb0:	00080313          	mv	t1,a6
   19eb4:	00000693          	li	a3,0
   19eb8:	0007a703          	lw	a4,0(a5)
   19ebc:	00430313          	add	t1,t1,4
   19ec0:	00478793          	add	a5,a5,4
   19ec4:	00c71733          	sll	a4,a4,a2
   19ec8:	00d76733          	or	a4,a4,a3
   19ecc:	fee32e23          	sw	a4,-4(t1)
   19ed0:	ffc7a683          	lw	a3,-4(a5)
   19ed4:	00b6d6b3          	srl	a3,a3,a1
   19ed8:	ff17e0e3          	bltu	a5,a7,19eb8 <__lshift+0xb4>
   19edc:	01548793          	add	a5,s1,21
   19ee0:	00400713          	li	a4,4
   19ee4:	00f8ea63          	bltu	a7,a5,19ef8 <__lshift+0xf4>
   19ee8:	409887b3          	sub	a5,a7,s1
   19eec:	feb78793          	add	a5,a5,-21
   19ef0:	ffc7f793          	and	a5,a5,-4
   19ef4:	00478713          	add	a4,a5,4
   19ef8:	00e80833          	add	a6,a6,a4
   19efc:	00d82023          	sw	a3,0(a6)
   19f00:	00069463          	bnez	a3,19f08 <__lshift+0x104>
   19f04:	000a8913          	mv	s2,s5
   19f08:	0044a703          	lw	a4,4(s1)
   19f0c:	044a2783          	lw	a5,68(s4)
   19f10:	01c12083          	lw	ra,28(sp)
   19f14:	00271713          	sll	a4,a4,0x2
   19f18:	00e787b3          	add	a5,a5,a4
   19f1c:	0007a703          	lw	a4,0(a5)
   19f20:	01252823          	sw	s2,16(a0)
   19f24:	01812403          	lw	s0,24(sp)
   19f28:	00e4a023          	sw	a4,0(s1)
   19f2c:	0097a023          	sw	s1,0(a5)
   19f30:	01012903          	lw	s2,16(sp)
   19f34:	01412483          	lw	s1,20(sp)
   19f38:	00c12983          	lw	s3,12(sp)
   19f3c:	00812a03          	lw	s4,8(sp)
   19f40:	00412a83          	lw	s5,4(sp)
   19f44:	02010113          	add	sp,sp,32
   19f48:	00008067          	ret
   19f4c:	0007a703          	lw	a4,0(a5)
   19f50:	00478793          	add	a5,a5,4
   19f54:	00480813          	add	a6,a6,4
   19f58:	fee82e23          	sw	a4,-4(a6)
   19f5c:	fb17f4e3          	bgeu	a5,a7,19f04 <__lshift+0x100>
   19f60:	0007a703          	lw	a4,0(a5)
   19f64:	00478793          	add	a5,a5,4
   19f68:	00480813          	add	a6,a6,4
   19f6c:	fee82e23          	sw	a4,-4(a6)
   19f70:	fd17eee3          	bltu	a5,a7,19f4c <__lshift+0x148>
   19f74:	f91ff06f          	j	19f04 <__lshift+0x100>
   19f78:	000226b7          	lui	a3,0x22
   19f7c:	00022537          	lui	a0,0x22
   19f80:	08868693          	add	a3,a3,136 # 22088 <__clzsi2+0x15c>
   19f84:	00000613          	li	a2,0
   19f88:	1de00593          	li	a1,478
   19f8c:	09c50513          	add	a0,a0,156 # 2209c <__clzsi2+0x170>
   19f90:	31c010ef          	jal	1b2ac <__assert_func>

00019f94 <__mcmp>:
   19f94:	01052703          	lw	a4,16(a0)
   19f98:	0105a783          	lw	a5,16(a1)
   19f9c:	00050813          	mv	a6,a0
   19fa0:	40f70533          	sub	a0,a4,a5
   19fa4:	04f71263          	bne	a4,a5,19fe8 <__mcmp+0x54>
   19fa8:	00279793          	sll	a5,a5,0x2
   19fac:	01480813          	add	a6,a6,20
   19fb0:	01458593          	add	a1,a1,20
   19fb4:	00f80733          	add	a4,a6,a5
   19fb8:	00f587b3          	add	a5,a1,a5
   19fbc:	0080006f          	j	19fc4 <__mcmp+0x30>
   19fc0:	02e87463          	bgeu	a6,a4,19fe8 <__mcmp+0x54>
   19fc4:	ffc72603          	lw	a2,-4(a4)
   19fc8:	ffc7a683          	lw	a3,-4(a5)
   19fcc:	ffc70713          	add	a4,a4,-4
   19fd0:	ffc78793          	add	a5,a5,-4
   19fd4:	fed606e3          	beq	a2,a3,19fc0 <__mcmp+0x2c>
   19fd8:	00100513          	li	a0,1
   19fdc:	00d67663          	bgeu	a2,a3,19fe8 <__mcmp+0x54>
   19fe0:	fff00513          	li	a0,-1
   19fe4:	00008067          	ret
   19fe8:	00008067          	ret

00019fec <__mdiff>:
   19fec:	0105a703          	lw	a4,16(a1)
   19ff0:	01062783          	lw	a5,16(a2)
   19ff4:	ff010113          	add	sp,sp,-16
   19ff8:	00812423          	sw	s0,8(sp)
   19ffc:	00912223          	sw	s1,4(sp)
   1a000:	00112623          	sw	ra,12(sp)
   1a004:	01212023          	sw	s2,0(sp)
   1a008:	00058413          	mv	s0,a1
   1a00c:	00060493          	mv	s1,a2
   1a010:	40f706b3          	sub	a3,a4,a5
   1a014:	18f71e63          	bne	a4,a5,1a1b0 <__mdiff+0x1c4>
   1a018:	00279693          	sll	a3,a5,0x2
   1a01c:	01458613          	add	a2,a1,20
   1a020:	01448713          	add	a4,s1,20
   1a024:	00d607b3          	add	a5,a2,a3
   1a028:	00d70733          	add	a4,a4,a3
   1a02c:	0080006f          	j	1a034 <__mdiff+0x48>
   1a030:	18f67c63          	bgeu	a2,a5,1a1c8 <__mdiff+0x1dc>
   1a034:	ffc7a583          	lw	a1,-4(a5)
   1a038:	ffc72683          	lw	a3,-4(a4)
   1a03c:	ffc78793          	add	a5,a5,-4
   1a040:	ffc70713          	add	a4,a4,-4
   1a044:	fed586e3          	beq	a1,a3,1a030 <__mdiff+0x44>
   1a048:	00100913          	li	s2,1
   1a04c:	00d5ea63          	bltu	a1,a3,1a060 <__mdiff+0x74>
   1a050:	00048793          	mv	a5,s1
   1a054:	00000913          	li	s2,0
   1a058:	00040493          	mv	s1,s0
   1a05c:	00078413          	mv	s0,a5
   1a060:	0044a583          	lw	a1,4(s1)
   1a064:	be8ff0ef          	jal	1944c <_Balloc>
   1a068:	1a050663          	beqz	a0,1a214 <__mdiff+0x228>
   1a06c:	0104a883          	lw	a7,16(s1)
   1a070:	01042283          	lw	t0,16(s0)
   1a074:	01448f93          	add	t6,s1,20
   1a078:	00289313          	sll	t1,a7,0x2
   1a07c:	01440813          	add	a6,s0,20
   1a080:	00229293          	sll	t0,t0,0x2
   1a084:	01450593          	add	a1,a0,20
   1a088:	00010e37          	lui	t3,0x10
   1a08c:	01252623          	sw	s2,12(a0)
   1a090:	006f8333          	add	t1,t6,t1
   1a094:	005802b3          	add	t0,a6,t0
   1a098:	00058f13          	mv	t5,a1
   1a09c:	000f8e93          	mv	t4,t6
   1a0a0:	00000693          	li	a3,0
   1a0a4:	fffe0e13          	add	t3,t3,-1 # ffff <exit-0xa1>
   1a0a8:	000ea703          	lw	a4,0(t4)
   1a0ac:	00082603          	lw	a2,0(a6)
   1a0b0:	004f0f13          	add	t5,t5,4
   1a0b4:	01c777b3          	and	a5,a4,t3
   1a0b8:	01c673b3          	and	t2,a2,t3
   1a0bc:	407787b3          	sub	a5,a5,t2
   1a0c0:	00d787b3          	add	a5,a5,a3
   1a0c4:	01075713          	srl	a4,a4,0x10
   1a0c8:	01065613          	srl	a2,a2,0x10
   1a0cc:	4107d693          	sra	a3,a5,0x10
   1a0d0:	40c70733          	sub	a4,a4,a2
   1a0d4:	00d70733          	add	a4,a4,a3
   1a0d8:	01071693          	sll	a3,a4,0x10
   1a0dc:	01c7f7b3          	and	a5,a5,t3
   1a0e0:	00d7e7b3          	or	a5,a5,a3
   1a0e4:	00480813          	add	a6,a6,4
   1a0e8:	feff2e23          	sw	a5,-4(t5)
   1a0ec:	004e8e93          	add	t4,t4,4
   1a0f0:	41075693          	sra	a3,a4,0x10
   1a0f4:	fa586ae3          	bltu	a6,t0,1a0a8 <__mdiff+0xbc>
   1a0f8:	01540713          	add	a4,s0,21
   1a0fc:	40828433          	sub	s0,t0,s0
   1a100:	feb40413          	add	s0,s0,-21
   1a104:	00e2b2b3          	sltu	t0,t0,a4
   1a108:	0012cf13          	xor	t5,t0,1
   1a10c:	00245413          	srl	s0,s0,0x2
   1a110:	00400713          	li	a4,4
   1a114:	0a028463          	beqz	t0,1a1bc <__mdiff+0x1d0>
   1a118:	00ef8fb3          	add	t6,t6,a4
   1a11c:	00e58833          	add	a6,a1,a4
   1a120:	00010eb7          	lui	t4,0x10
   1a124:	00080e13          	mv	t3,a6
   1a128:	000f8613          	mv	a2,t6
   1a12c:	fffe8e93          	add	t4,t4,-1 # ffff <exit-0xa1>
   1a130:	0c6ff463          	bgeu	t6,t1,1a1f8 <__mdiff+0x20c>
   1a134:	00062783          	lw	a5,0(a2)
   1a138:	004e0e13          	add	t3,t3,4
   1a13c:	00460613          	add	a2,a2,4
   1a140:	01d7f733          	and	a4,a5,t4
   1a144:	00d70733          	add	a4,a4,a3
   1a148:	0107d593          	srl	a1,a5,0x10
   1a14c:	41075713          	sra	a4,a4,0x10
   1a150:	00b70733          	add	a4,a4,a1
   1a154:	00d787b3          	add	a5,a5,a3
   1a158:	01d7f7b3          	and	a5,a5,t4
   1a15c:	01071693          	sll	a3,a4,0x10
   1a160:	00d7e7b3          	or	a5,a5,a3
   1a164:	fefe2e23          	sw	a5,-4(t3)
   1a168:	41075693          	sra	a3,a4,0x10
   1a16c:	fc6664e3          	bltu	a2,t1,1a134 <__mdiff+0x148>
   1a170:	fff30313          	add	t1,t1,-1
   1a174:	41f30333          	sub	t1,t1,t6
   1a178:	ffc37313          	and	t1,t1,-4
   1a17c:	00680733          	add	a4,a6,t1
   1a180:	00079a63          	bnez	a5,1a194 <__mdiff+0x1a8>
   1a184:	ffc72783          	lw	a5,-4(a4)
   1a188:	fff88893          	add	a7,a7,-1
   1a18c:	ffc70713          	add	a4,a4,-4
   1a190:	fe078ae3          	beqz	a5,1a184 <__mdiff+0x198>
   1a194:	00c12083          	lw	ra,12(sp)
   1a198:	00812403          	lw	s0,8(sp)
   1a19c:	01152823          	sw	a7,16(a0)
   1a1a0:	00412483          	lw	s1,4(sp)
   1a1a4:	00012903          	lw	s2,0(sp)
   1a1a8:	01010113          	add	sp,sp,16
   1a1ac:	00008067          	ret
   1a1b0:	00100913          	li	s2,1
   1a1b4:	e806dee3          	bgez	a3,1a050 <__mdiff+0x64>
   1a1b8:	ea9ff06f          	j	1a060 <__mdiff+0x74>
   1a1bc:	00140713          	add	a4,s0,1
   1a1c0:	00271713          	sll	a4,a4,0x2
   1a1c4:	f55ff06f          	j	1a118 <__mdiff+0x12c>
   1a1c8:	00000593          	li	a1,0
   1a1cc:	a80ff0ef          	jal	1944c <_Balloc>
   1a1d0:	06050063          	beqz	a0,1a230 <__mdiff+0x244>
   1a1d4:	00c12083          	lw	ra,12(sp)
   1a1d8:	00812403          	lw	s0,8(sp)
   1a1dc:	00100793          	li	a5,1
   1a1e0:	00f52823          	sw	a5,16(a0)
   1a1e4:	00052a23          	sw	zero,20(a0)
   1a1e8:	00412483          	lw	s1,4(sp)
   1a1ec:	00012903          	lw	s2,0(sp)
   1a1f0:	01010113          	add	sp,sp,16
   1a1f4:	00008067          	ret
   1a1f8:	00000713          	li	a4,0
   1a1fc:	000f1663          	bnez	t5,1a208 <__mdiff+0x21c>
   1a200:	00e58733          	add	a4,a1,a4
   1a204:	f7dff06f          	j	1a180 <__mdiff+0x194>
   1a208:	00241713          	sll	a4,s0,0x2
   1a20c:	00e58733          	add	a4,a1,a4
   1a210:	f71ff06f          	j	1a180 <__mdiff+0x194>
   1a214:	000226b7          	lui	a3,0x22
   1a218:	00022537          	lui	a0,0x22
   1a21c:	08868693          	add	a3,a3,136 # 22088 <__clzsi2+0x15c>
   1a220:	00000613          	li	a2,0
   1a224:	24500593          	li	a1,581
   1a228:	09c50513          	add	a0,a0,156 # 2209c <__clzsi2+0x170>
   1a22c:	080010ef          	jal	1b2ac <__assert_func>
   1a230:	000226b7          	lui	a3,0x22
   1a234:	00022537          	lui	a0,0x22
   1a238:	08868693          	add	a3,a3,136 # 22088 <__clzsi2+0x15c>
   1a23c:	00000613          	li	a2,0
   1a240:	23700593          	li	a1,567
   1a244:	09c50513          	add	a0,a0,156 # 2209c <__clzsi2+0x170>
   1a248:	064010ef          	jal	1b2ac <__assert_func>

0001a24c <__ulp>:
   1a24c:	7ff007b7          	lui	a5,0x7ff00
   1a250:	00b7f5b3          	and	a1,a5,a1
   1a254:	fcc007b7          	lui	a5,0xfcc00
   1a258:	00f585b3          	add	a1,a1,a5
   1a25c:	00000793          	li	a5,0
   1a260:	00b05663          	blez	a1,1a26c <__ulp+0x20>
   1a264:	00078513          	mv	a0,a5
   1a268:	00008067          	ret
   1a26c:	40b005b3          	neg	a1,a1
   1a270:	4145d593          	sra	a1,a1,0x14
   1a274:	01300793          	li	a5,19
   1a278:	00b7cc63          	blt	a5,a1,1a290 <__ulp+0x44>
   1a27c:	000807b7          	lui	a5,0x80
   1a280:	40b7d5b3          	sra	a1,a5,a1
   1a284:	00000793          	li	a5,0
   1a288:	00078513          	mv	a0,a5
   1a28c:	00008067          	ret
   1a290:	fec58593          	add	a1,a1,-20
   1a294:	01e00713          	li	a4,30
   1a298:	00100793          	li	a5,1
   1a29c:	00b74663          	blt	a4,a1,1a2a8 <__ulp+0x5c>
   1a2a0:	800007b7          	lui	a5,0x80000
   1a2a4:	00b7d7b3          	srl	a5,a5,a1
   1a2a8:	00000593          	li	a1,0
   1a2ac:	00078513          	mv	a0,a5
   1a2b0:	00008067          	ret

0001a2b4 <__b2d>:
   1a2b4:	fe010113          	add	sp,sp,-32
   1a2b8:	00912a23          	sw	s1,20(sp)
   1a2bc:	01052483          	lw	s1,16(a0)
   1a2c0:	00812c23          	sw	s0,24(sp)
   1a2c4:	01450413          	add	s0,a0,20
   1a2c8:	00249493          	sll	s1,s1,0x2
   1a2cc:	009404b3          	add	s1,s0,s1
   1a2d0:	01212823          	sw	s2,16(sp)
   1a2d4:	ffc4a903          	lw	s2,-4(s1)
   1a2d8:	01312623          	sw	s3,12(sp)
   1a2dc:	01412423          	sw	s4,8(sp)
   1a2e0:	00090513          	mv	a0,s2
   1a2e4:	00058993          	mv	s3,a1
   1a2e8:	00112e23          	sw	ra,28(sp)
   1a2ec:	cf8ff0ef          	jal	197e4 <__hi0bits>
   1a2f0:	02000713          	li	a4,32
   1a2f4:	40a707b3          	sub	a5,a4,a0
   1a2f8:	00f9a023          	sw	a5,0(s3)
   1a2fc:	00a00793          	li	a5,10
   1a300:	ffc48a13          	add	s4,s1,-4
   1a304:	08a7dc63          	bge	a5,a0,1a39c <__b2d+0xe8>
   1a308:	ff550613          	add	a2,a0,-11
   1a30c:	05447063          	bgeu	s0,s4,1a34c <__b2d+0x98>
   1a310:	ff84a783          	lw	a5,-8(s1)
   1a314:	04060c63          	beqz	a2,1a36c <__b2d+0xb8>
   1a318:	40c706b3          	sub	a3,a4,a2
   1a31c:	00d7d733          	srl	a4,a5,a3
   1a320:	00c91933          	sll	s2,s2,a2
   1a324:	00e96933          	or	s2,s2,a4
   1a328:	ff848593          	add	a1,s1,-8
   1a32c:	3ff00737          	lui	a4,0x3ff00
   1a330:	00e96733          	or	a4,s2,a4
   1a334:	00c797b3          	sll	a5,a5,a2
   1a338:	02b47e63          	bgeu	s0,a1,1a374 <__b2d+0xc0>
   1a33c:	ff44a603          	lw	a2,-12(s1)
   1a340:	00d656b3          	srl	a3,a2,a3
   1a344:	00d7e7b3          	or	a5,a5,a3
   1a348:	02c0006f          	j	1a374 <__b2d+0xc0>
   1a34c:	00b00793          	li	a5,11
   1a350:	00f50c63          	beq	a0,a5,1a368 <__b2d+0xb4>
   1a354:	00c91933          	sll	s2,s2,a2
   1a358:	3ff00737          	lui	a4,0x3ff00
   1a35c:	00e96733          	or	a4,s2,a4
   1a360:	00000793          	li	a5,0
   1a364:	0100006f          	j	1a374 <__b2d+0xc0>
   1a368:	00000793          	li	a5,0
   1a36c:	3ff00737          	lui	a4,0x3ff00
   1a370:	00e96733          	or	a4,s2,a4
   1a374:	01c12083          	lw	ra,28(sp)
   1a378:	01812403          	lw	s0,24(sp)
   1a37c:	01412483          	lw	s1,20(sp)
   1a380:	01012903          	lw	s2,16(sp)
   1a384:	00c12983          	lw	s3,12(sp)
   1a388:	00812a03          	lw	s4,8(sp)
   1a38c:	00078513          	mv	a0,a5
   1a390:	00070593          	mv	a1,a4
   1a394:	02010113          	add	sp,sp,32
   1a398:	00008067          	ret
   1a39c:	00b00693          	li	a3,11
   1a3a0:	40a686b3          	sub	a3,a3,a0
   1a3a4:	3ff007b7          	lui	a5,0x3ff00
   1a3a8:	00d95733          	srl	a4,s2,a3
   1a3ac:	00f76733          	or	a4,a4,a5
   1a3b0:	00000793          	li	a5,0
   1a3b4:	01447663          	bgeu	s0,s4,1a3c0 <__b2d+0x10c>
   1a3b8:	ff84a783          	lw	a5,-8(s1)
   1a3bc:	00d7d7b3          	srl	a5,a5,a3
   1a3c0:	01550513          	add	a0,a0,21
   1a3c4:	00a91933          	sll	s2,s2,a0
   1a3c8:	00f967b3          	or	a5,s2,a5
   1a3cc:	fa9ff06f          	j	1a374 <__b2d+0xc0>

0001a3d0 <__d2b>:
   1a3d0:	fd010113          	add	sp,sp,-48
   1a3d4:	01512a23          	sw	s5,20(sp)
   1a3d8:	00058a93          	mv	s5,a1
   1a3dc:	00100593          	li	a1,1
   1a3e0:	02912223          	sw	s1,36(sp)
   1a3e4:	01312e23          	sw	s3,28(sp)
   1a3e8:	01412c23          	sw	s4,24(sp)
   1a3ec:	02112623          	sw	ra,44(sp)
   1a3f0:	02812423          	sw	s0,40(sp)
   1a3f4:	03212023          	sw	s2,32(sp)
   1a3f8:	00060493          	mv	s1,a2
   1a3fc:	00068a13          	mv	s4,a3
   1a400:	00070993          	mv	s3,a4
   1a404:	848ff0ef          	jal	1944c <_Balloc>
   1a408:	10050263          	beqz	a0,1a50c <__d2b+0x13c>
   1a40c:	00100737          	lui	a4,0x100
   1a410:	0144d913          	srl	s2,s1,0x14
   1a414:	fff70793          	add	a5,a4,-1 # fffff <__BSS_END__+0xdc427>
   1a418:	7ff97913          	and	s2,s2,2047
   1a41c:	00050413          	mv	s0,a0
   1a420:	0097f7b3          	and	a5,a5,s1
   1a424:	00090463          	beqz	s2,1a42c <__d2b+0x5c>
   1a428:	00e7e7b3          	or	a5,a5,a4
   1a42c:	00f12623          	sw	a5,12(sp)
   1a430:	060a9263          	bnez	s5,1a494 <__d2b+0xc4>
   1a434:	00c10513          	add	a0,sp,12
   1a438:	c24ff0ef          	jal	1985c <__lo0bits>
   1a43c:	00c12703          	lw	a4,12(sp)
   1a440:	00100493          	li	s1,1
   1a444:	00942823          	sw	s1,16(s0)
   1a448:	00e42a23          	sw	a4,20(s0)
   1a44c:	02050793          	add	a5,a0,32
   1a450:	08090863          	beqz	s2,1a4e0 <__d2b+0x110>
   1a454:	bcd90913          	add	s2,s2,-1075
   1a458:	00f90933          	add	s2,s2,a5
   1a45c:	03500493          	li	s1,53
   1a460:	012a2023          	sw	s2,0(s4)
   1a464:	40f48533          	sub	a0,s1,a5
   1a468:	00a9a023          	sw	a0,0(s3)
   1a46c:	02c12083          	lw	ra,44(sp)
   1a470:	00040513          	mv	a0,s0
   1a474:	02812403          	lw	s0,40(sp)
   1a478:	02412483          	lw	s1,36(sp)
   1a47c:	02012903          	lw	s2,32(sp)
   1a480:	01c12983          	lw	s3,28(sp)
   1a484:	01812a03          	lw	s4,24(sp)
   1a488:	01412a83          	lw	s5,20(sp)
   1a48c:	03010113          	add	sp,sp,48
   1a490:	00008067          	ret
   1a494:	00810513          	add	a0,sp,8
   1a498:	01512423          	sw	s5,8(sp)
   1a49c:	bc0ff0ef          	jal	1985c <__lo0bits>
   1a4a0:	00c12703          	lw	a4,12(sp)
   1a4a4:	00050793          	mv	a5,a0
   1a4a8:	04050e63          	beqz	a0,1a504 <__d2b+0x134>
   1a4ac:	00812603          	lw	a2,8(sp)
   1a4b0:	02000693          	li	a3,32
   1a4b4:	40a686b3          	sub	a3,a3,a0
   1a4b8:	00d716b3          	sll	a3,a4,a3
   1a4bc:	00a75733          	srl	a4,a4,a0
   1a4c0:	00c6e6b3          	or	a3,a3,a2
   1a4c4:	00e12623          	sw	a4,12(sp)
   1a4c8:	00e034b3          	snez	s1,a4
   1a4cc:	00148493          	add	s1,s1,1
   1a4d0:	00d42a23          	sw	a3,20(s0)
   1a4d4:	00e42c23          	sw	a4,24(s0)
   1a4d8:	00942823          	sw	s1,16(s0)
   1a4dc:	f6091ce3          	bnez	s2,1a454 <__d2b+0x84>
   1a4e0:	00249713          	sll	a4,s1,0x2
   1a4e4:	00e40733          	add	a4,s0,a4
   1a4e8:	01072503          	lw	a0,16(a4)
   1a4ec:	bce78793          	add	a5,a5,-1074 # 3feffbce <__BSS_END__+0x3fedbff6>
   1a4f0:	00fa2023          	sw	a5,0(s4)
   1a4f4:	af0ff0ef          	jal	197e4 <__hi0bits>
   1a4f8:	00549493          	sll	s1,s1,0x5
   1a4fc:	40a48533          	sub	a0,s1,a0
   1a500:	f69ff06f          	j	1a468 <__d2b+0x98>
   1a504:	00812683          	lw	a3,8(sp)
   1a508:	fc1ff06f          	j	1a4c8 <__d2b+0xf8>
   1a50c:	000226b7          	lui	a3,0x22
   1a510:	00022537          	lui	a0,0x22
   1a514:	08868693          	add	a3,a3,136 # 22088 <__clzsi2+0x15c>
   1a518:	00000613          	li	a2,0
   1a51c:	30f00593          	li	a1,783
   1a520:	09c50513          	add	a0,a0,156 # 2209c <__clzsi2+0x170>
   1a524:	589000ef          	jal	1b2ac <__assert_func>

0001a528 <__ratio>:
   1a528:	fd010113          	add	sp,sp,-48
   1a52c:	03212023          	sw	s2,32(sp)
   1a530:	00058913          	mv	s2,a1
   1a534:	00810593          	add	a1,sp,8
   1a538:	02112623          	sw	ra,44(sp)
   1a53c:	02812423          	sw	s0,40(sp)
   1a540:	02912223          	sw	s1,36(sp)
   1a544:	01312e23          	sw	s3,28(sp)
   1a548:	00050993          	mv	s3,a0
   1a54c:	d69ff0ef          	jal	1a2b4 <__b2d>
   1a550:	00050493          	mv	s1,a0
   1a554:	00058413          	mv	s0,a1
   1a558:	00090513          	mv	a0,s2
   1a55c:	00c10593          	add	a1,sp,12
   1a560:	d55ff0ef          	jal	1a2b4 <__b2d>
   1a564:	01092703          	lw	a4,16(s2)
   1a568:	0109a783          	lw	a5,16(s3)
   1a56c:	00c12683          	lw	a3,12(sp)
   1a570:	40e787b3          	sub	a5,a5,a4
   1a574:	00812703          	lw	a4,8(sp)
   1a578:	00579793          	sll	a5,a5,0x5
   1a57c:	40d70733          	sub	a4,a4,a3
   1a580:	00e787b3          	add	a5,a5,a4
   1a584:	00050713          	mv	a4,a0
   1a588:	02f05e63          	blez	a5,1a5c4 <__ratio+0x9c>
   1a58c:	01479793          	sll	a5,a5,0x14
   1a590:	00878433          	add	s0,a5,s0
   1a594:	00058693          	mv	a3,a1
   1a598:	00048513          	mv	a0,s1
   1a59c:	00040593          	mv	a1,s0
   1a5a0:	00070613          	mv	a2,a4
   1a5a4:	66d020ef          	jal	1d410 <__divdf3>
   1a5a8:	02c12083          	lw	ra,44(sp)
   1a5ac:	02812403          	lw	s0,40(sp)
   1a5b0:	02412483          	lw	s1,36(sp)
   1a5b4:	02012903          	lw	s2,32(sp)
   1a5b8:	01c12983          	lw	s3,28(sp)
   1a5bc:	03010113          	add	sp,sp,48
   1a5c0:	00008067          	ret
   1a5c4:	01479793          	sll	a5,a5,0x14
   1a5c8:	40f585b3          	sub	a1,a1,a5
   1a5cc:	fc9ff06f          	j	1a594 <__ratio+0x6c>

0001a5d0 <_mprec_log10>:
   1a5d0:	ff010113          	add	sp,sp,-16
   1a5d4:	01212023          	sw	s2,0(sp)
   1a5d8:	00112623          	sw	ra,12(sp)
   1a5dc:	01700793          	li	a5,23
   1a5e0:	00050913          	mv	s2,a0
   1a5e4:	04a7da63          	bge	a5,a0,1a638 <_mprec_log10+0x68>
   1a5e8:	ed81a783          	lw	a5,-296(gp) # 237e8 <__SDATA_BEGIN__+0x30>
   1a5ec:	edc1a583          	lw	a1,-292(gp) # 237ec <__SDATA_BEGIN__+0x34>
   1a5f0:	00812423          	sw	s0,8(sp)
   1a5f4:	00912223          	sw	s1,4(sp)
   1a5f8:	ee01a403          	lw	s0,-288(gp) # 237f0 <__SDATA_BEGIN__+0x38>
   1a5fc:	ee41a483          	lw	s1,-284(gp) # 237f4 <__SDATA_BEGIN__+0x3c>
   1a600:	00078513          	mv	a0,a5
   1a604:	00040613          	mv	a2,s0
   1a608:	00048693          	mv	a3,s1
   1a60c:	029030ef          	jal	1de34 <__muldf3>
   1a610:	fff90913          	add	s2,s2,-1
   1a614:	00050793          	mv	a5,a0
   1a618:	fe0914e3          	bnez	s2,1a600 <_mprec_log10+0x30>
   1a61c:	00812403          	lw	s0,8(sp)
   1a620:	00c12083          	lw	ra,12(sp)
   1a624:	00412483          	lw	s1,4(sp)
   1a628:	00012903          	lw	s2,0(sp)
   1a62c:	00078513          	mv	a0,a5
   1a630:	01010113          	add	sp,sp,16
   1a634:	00008067          	ret
   1a638:	00022737          	lui	a4,0x22
   1a63c:	00351913          	sll	s2,a0,0x3
   1a640:	55070713          	add	a4,a4,1360 # 22550 <__mprec_tens>
   1a644:	01270733          	add	a4,a4,s2
   1a648:	00072783          	lw	a5,0(a4)
   1a64c:	00c12083          	lw	ra,12(sp)
   1a650:	00472583          	lw	a1,4(a4)
   1a654:	00012903          	lw	s2,0(sp)
   1a658:	00078513          	mv	a0,a5
   1a65c:	01010113          	add	sp,sp,16
   1a660:	00008067          	ret

0001a664 <__copybits>:
   1a664:	01062683          	lw	a3,16(a2)
   1a668:	fff58593          	add	a1,a1,-1
   1a66c:	4055d593          	sra	a1,a1,0x5
   1a670:	00158593          	add	a1,a1,1
   1a674:	01460793          	add	a5,a2,20
   1a678:	00269693          	sll	a3,a3,0x2
   1a67c:	00259593          	sll	a1,a1,0x2
   1a680:	00d786b3          	add	a3,a5,a3
   1a684:	00b505b3          	add	a1,a0,a1
   1a688:	02d7f863          	bgeu	a5,a3,1a6b8 <__copybits+0x54>
   1a68c:	00050713          	mv	a4,a0
   1a690:	0007a803          	lw	a6,0(a5)
   1a694:	00478793          	add	a5,a5,4
   1a698:	00470713          	add	a4,a4,4
   1a69c:	ff072e23          	sw	a6,-4(a4)
   1a6a0:	fed7e8e3          	bltu	a5,a3,1a690 <__copybits+0x2c>
   1a6a4:	40c687b3          	sub	a5,a3,a2
   1a6a8:	feb78793          	add	a5,a5,-21
   1a6ac:	ffc7f793          	and	a5,a5,-4
   1a6b0:	00478793          	add	a5,a5,4
   1a6b4:	00f50533          	add	a0,a0,a5
   1a6b8:	00b57863          	bgeu	a0,a1,1a6c8 <__copybits+0x64>
   1a6bc:	00450513          	add	a0,a0,4
   1a6c0:	fe052e23          	sw	zero,-4(a0)
   1a6c4:	feb56ce3          	bltu	a0,a1,1a6bc <__copybits+0x58>
   1a6c8:	00008067          	ret

0001a6cc <__any_on>:
   1a6cc:	01052703          	lw	a4,16(a0)
   1a6d0:	4055d613          	sra	a2,a1,0x5
   1a6d4:	01450693          	add	a3,a0,20
   1a6d8:	02c75263          	bge	a4,a2,1a6fc <__any_on+0x30>
   1a6dc:	00271713          	sll	a4,a4,0x2
   1a6e0:	00e687b3          	add	a5,a3,a4
   1a6e4:	04f6f263          	bgeu	a3,a5,1a728 <__any_on+0x5c>
   1a6e8:	ffc7a703          	lw	a4,-4(a5)
   1a6ec:	ffc78793          	add	a5,a5,-4
   1a6f0:	fe070ae3          	beqz	a4,1a6e4 <__any_on+0x18>
   1a6f4:	00100513          	li	a0,1
   1a6f8:	00008067          	ret
   1a6fc:	00261793          	sll	a5,a2,0x2
   1a700:	00f687b3          	add	a5,a3,a5
   1a704:	fee650e3          	bge	a2,a4,1a6e4 <__any_on+0x18>
   1a708:	01f5f593          	and	a1,a1,31
   1a70c:	fc058ce3          	beqz	a1,1a6e4 <__any_on+0x18>
   1a710:	0007a603          	lw	a2,0(a5)
   1a714:	00100513          	li	a0,1
   1a718:	00b65733          	srl	a4,a2,a1
   1a71c:	00b71733          	sll	a4,a4,a1
   1a720:	fce602e3          	beq	a2,a4,1a6e4 <__any_on+0x18>
   1a724:	00008067          	ret
   1a728:	00000513          	li	a0,0
   1a72c:	00008067          	ret

0001a730 <_realloc_r>:
   1a730:	fd010113          	add	sp,sp,-48
   1a734:	02912223          	sw	s1,36(sp)
   1a738:	02112623          	sw	ra,44(sp)
   1a73c:	00060493          	mv	s1,a2
   1a740:	1e058863          	beqz	a1,1a930 <_realloc_r+0x200>
   1a744:	02812423          	sw	s0,40(sp)
   1a748:	03212023          	sw	s2,32(sp)
   1a74c:	00058413          	mv	s0,a1
   1a750:	01312e23          	sw	s3,28(sp)
   1a754:	01512a23          	sw	s5,20(sp)
   1a758:	01412c23          	sw	s4,24(sp)
   1a75c:	00050913          	mv	s2,a0
   1a760:	c2cf70ef          	jal	11b8c <__malloc_lock>
   1a764:	ffc42703          	lw	a4,-4(s0)
   1a768:	00b48793          	add	a5,s1,11
   1a76c:	01600693          	li	a3,22
   1a770:	ff840a93          	add	s5,s0,-8
   1a774:	ffc77993          	and	s3,a4,-4
   1a778:	10f6f263          	bgeu	a3,a5,1a87c <_realloc_r+0x14c>
   1a77c:	ff87fa13          	and	s4,a5,-8
   1a780:	1007c263          	bltz	a5,1a884 <_realloc_r+0x154>
   1a784:	109a6063          	bltu	s4,s1,1a884 <_realloc_r+0x154>
   1a788:	1349d263          	bge	s3,s4,1a8ac <_realloc_r+0x17c>
   1a78c:	000237b7          	lui	a5,0x23
   1a790:	01812423          	sw	s8,8(sp)
   1a794:	24078c13          	add	s8,a5,576 # 23240 <__malloc_av_>
   1a798:	008c2603          	lw	a2,8(s8)
   1a79c:	013a86b3          	add	a3,s5,s3
   1a7a0:	0046a783          	lw	a5,4(a3)
   1a7a4:	1cd60863          	beq	a2,a3,1a974 <_realloc_r+0x244>
   1a7a8:	ffe7f613          	and	a2,a5,-2
   1a7ac:	00c68633          	add	a2,a3,a2
   1a7b0:	00462603          	lw	a2,4(a2)
   1a7b4:	00167613          	and	a2,a2,1
   1a7b8:	14061a63          	bnez	a2,1a90c <_realloc_r+0x1dc>
   1a7bc:	ffc7f793          	and	a5,a5,-4
   1a7c0:	00f98633          	add	a2,s3,a5
   1a7c4:	0d465863          	bge	a2,s4,1a894 <_realloc_r+0x164>
   1a7c8:	00177713          	and	a4,a4,1
   1a7cc:	02071c63          	bnez	a4,1a804 <_realloc_r+0xd4>
   1a7d0:	01712623          	sw	s7,12(sp)
   1a7d4:	ff842b83          	lw	s7,-8(s0)
   1a7d8:	01612823          	sw	s6,16(sp)
   1a7dc:	417a8bb3          	sub	s7,s5,s7
   1a7e0:	004ba703          	lw	a4,4(s7)
   1a7e4:	ffc77713          	and	a4,a4,-4
   1a7e8:	00e787b3          	add	a5,a5,a4
   1a7ec:	01378b33          	add	s6,a5,s3
   1a7f0:	334b5c63          	bge	s6,s4,1ab28 <_realloc_r+0x3f8>
   1a7f4:	00e98b33          	add	s6,s3,a4
   1a7f8:	294b5863          	bge	s6,s4,1aa88 <_realloc_r+0x358>
   1a7fc:	01012b03          	lw	s6,16(sp)
   1a800:	00c12b83          	lw	s7,12(sp)
   1a804:	00048593          	mv	a1,s1
   1a808:	00090513          	mv	a0,s2
   1a80c:	bc5f60ef          	jal	113d0 <_malloc_r>
   1a810:	00050493          	mv	s1,a0
   1a814:	40050863          	beqz	a0,1ac24 <_realloc_r+0x4f4>
   1a818:	ffc42783          	lw	a5,-4(s0)
   1a81c:	ff850713          	add	a4,a0,-8
   1a820:	ffe7f793          	and	a5,a5,-2
   1a824:	00fa87b3          	add	a5,s5,a5
   1a828:	24e78663          	beq	a5,a4,1aa74 <_realloc_r+0x344>
   1a82c:	ffc98613          	add	a2,s3,-4
   1a830:	02400793          	li	a5,36
   1a834:	2ec7e463          	bltu	a5,a2,1ab1c <_realloc_r+0x3ec>
   1a838:	01300713          	li	a4,19
   1a83c:	20c76a63          	bltu	a4,a2,1aa50 <_realloc_r+0x320>
   1a840:	00050793          	mv	a5,a0
   1a844:	00040713          	mv	a4,s0
   1a848:	00072683          	lw	a3,0(a4)
   1a84c:	00d7a023          	sw	a3,0(a5)
   1a850:	00472683          	lw	a3,4(a4)
   1a854:	00d7a223          	sw	a3,4(a5)
   1a858:	00872703          	lw	a4,8(a4)
   1a85c:	00e7a423          	sw	a4,8(a5)
   1a860:	00040593          	mv	a1,s0
   1a864:	00090513          	mv	a0,s2
   1a868:	865f60ef          	jal	110cc <_free_r>
   1a86c:	00090513          	mv	a0,s2
   1a870:	b20f70ef          	jal	11b90 <__malloc_unlock>
   1a874:	00812c03          	lw	s8,8(sp)
   1a878:	06c0006f          	j	1a8e4 <_realloc_r+0x1b4>
   1a87c:	01000a13          	li	s4,16
   1a880:	f09a74e3          	bgeu	s4,s1,1a788 <_realloc_r+0x58>
   1a884:	00c00793          	li	a5,12
   1a888:	00f92023          	sw	a5,0(s2)
   1a88c:	00000493          	li	s1,0
   1a890:	0540006f          	j	1a8e4 <_realloc_r+0x1b4>
   1a894:	00c6a783          	lw	a5,12(a3)
   1a898:	0086a703          	lw	a4,8(a3)
   1a89c:	00812c03          	lw	s8,8(sp)
   1a8a0:	00060993          	mv	s3,a2
   1a8a4:	00f72623          	sw	a5,12(a4)
   1a8a8:	00e7a423          	sw	a4,8(a5)
   1a8ac:	004aa783          	lw	a5,4(s5)
   1a8b0:	414986b3          	sub	a3,s3,s4
   1a8b4:	00f00613          	li	a2,15
   1a8b8:	0017f793          	and	a5,a5,1
   1a8bc:	013a8733          	add	a4,s5,s3
   1a8c0:	08d66263          	bltu	a2,a3,1a944 <_realloc_r+0x214>
   1a8c4:	0137e7b3          	or	a5,a5,s3
   1a8c8:	00faa223          	sw	a5,4(s5)
   1a8cc:	00472783          	lw	a5,4(a4)
   1a8d0:	0017e793          	or	a5,a5,1
   1a8d4:	00f72223          	sw	a5,4(a4)
   1a8d8:	00090513          	mv	a0,s2
   1a8dc:	ab4f70ef          	jal	11b90 <__malloc_unlock>
   1a8e0:	00040493          	mv	s1,s0
   1a8e4:	02812403          	lw	s0,40(sp)
   1a8e8:	02c12083          	lw	ra,44(sp)
   1a8ec:	02012903          	lw	s2,32(sp)
   1a8f0:	01c12983          	lw	s3,28(sp)
   1a8f4:	01812a03          	lw	s4,24(sp)
   1a8f8:	01412a83          	lw	s5,20(sp)
   1a8fc:	00048513          	mv	a0,s1
   1a900:	02412483          	lw	s1,36(sp)
   1a904:	03010113          	add	sp,sp,48
   1a908:	00008067          	ret
   1a90c:	00177713          	and	a4,a4,1
   1a910:	ee071ae3          	bnez	a4,1a804 <_realloc_r+0xd4>
   1a914:	01712623          	sw	s7,12(sp)
   1a918:	ff842b83          	lw	s7,-8(s0)
   1a91c:	01612823          	sw	s6,16(sp)
   1a920:	417a8bb3          	sub	s7,s5,s7
   1a924:	004ba703          	lw	a4,4(s7)
   1a928:	ffc77713          	and	a4,a4,-4
   1a92c:	ec9ff06f          	j	1a7f4 <_realloc_r+0xc4>
   1a930:	02c12083          	lw	ra,44(sp)
   1a934:	02412483          	lw	s1,36(sp)
   1a938:	00060593          	mv	a1,a2
   1a93c:	03010113          	add	sp,sp,48
   1a940:	a91f606f          	j	113d0 <_malloc_r>
   1a944:	0147e7b3          	or	a5,a5,s4
   1a948:	00faa223          	sw	a5,4(s5)
   1a94c:	014a85b3          	add	a1,s5,s4
   1a950:	0016e693          	or	a3,a3,1
   1a954:	00d5a223          	sw	a3,4(a1)
   1a958:	00472783          	lw	a5,4(a4)
   1a95c:	00858593          	add	a1,a1,8
   1a960:	00090513          	mv	a0,s2
   1a964:	0017e793          	or	a5,a5,1
   1a968:	00f72223          	sw	a5,4(a4)
   1a96c:	f60f60ef          	jal	110cc <_free_r>
   1a970:	f69ff06f          	j	1a8d8 <_realloc_r+0x1a8>
   1a974:	ffc7f793          	and	a5,a5,-4
   1a978:	013786b3          	add	a3,a5,s3
   1a97c:	010a0613          	add	a2,s4,16
   1a980:	26c6d063          	bge	a3,a2,1abe0 <_realloc_r+0x4b0>
   1a984:	00177713          	and	a4,a4,1
   1a988:	e6071ee3          	bnez	a4,1a804 <_realloc_r+0xd4>
   1a98c:	01712623          	sw	s7,12(sp)
   1a990:	ff842b83          	lw	s7,-8(s0)
   1a994:	01612823          	sw	s6,16(sp)
   1a998:	417a8bb3          	sub	s7,s5,s7
   1a99c:	004ba703          	lw	a4,4(s7)
   1a9a0:	ffc77713          	and	a4,a4,-4
   1a9a4:	00e787b3          	add	a5,a5,a4
   1a9a8:	01378b33          	add	s6,a5,s3
   1a9ac:	e4cb44e3          	blt	s6,a2,1a7f4 <_realloc_r+0xc4>
   1a9b0:	00cba783          	lw	a5,12(s7)
   1a9b4:	008ba703          	lw	a4,8(s7)
   1a9b8:	ffc98613          	add	a2,s3,-4
   1a9bc:	02400693          	li	a3,36
   1a9c0:	00f72623          	sw	a5,12(a4)
   1a9c4:	00e7a423          	sw	a4,8(a5)
   1a9c8:	008b8493          	add	s1,s7,8
   1a9cc:	28c6e463          	bltu	a3,a2,1ac54 <_realloc_r+0x524>
   1a9d0:	01300713          	li	a4,19
   1a9d4:	00048793          	mv	a5,s1
   1a9d8:	02c77263          	bgeu	a4,a2,1a9fc <_realloc_r+0x2cc>
   1a9dc:	00042703          	lw	a4,0(s0)
   1a9e0:	01b00793          	li	a5,27
   1a9e4:	00eba423          	sw	a4,8(s7)
   1a9e8:	00442703          	lw	a4,4(s0)
   1a9ec:	00eba623          	sw	a4,12(s7)
   1a9f0:	26c7ea63          	bltu	a5,a2,1ac64 <_realloc_r+0x534>
   1a9f4:	00840413          	add	s0,s0,8
   1a9f8:	010b8793          	add	a5,s7,16
   1a9fc:	00042703          	lw	a4,0(s0)
   1aa00:	00e7a023          	sw	a4,0(a5)
   1aa04:	00442703          	lw	a4,4(s0)
   1aa08:	00e7a223          	sw	a4,4(a5)
   1aa0c:	00842703          	lw	a4,8(s0)
   1aa10:	00e7a423          	sw	a4,8(a5)
   1aa14:	014b8733          	add	a4,s7,s4
   1aa18:	414b0b33          	sub	s6,s6,s4
   1aa1c:	00ec2423          	sw	a4,8(s8)
   1aa20:	001b6793          	or	a5,s6,1
   1aa24:	00f72223          	sw	a5,4(a4)
   1aa28:	004ba783          	lw	a5,4(s7)
   1aa2c:	00090513          	mv	a0,s2
   1aa30:	0017f793          	and	a5,a5,1
   1aa34:	0147e7b3          	or	a5,a5,s4
   1aa38:	00fba223          	sw	a5,4(s7)
   1aa3c:	954f70ef          	jal	11b90 <__malloc_unlock>
   1aa40:	01012b03          	lw	s6,16(sp)
   1aa44:	00c12b83          	lw	s7,12(sp)
   1aa48:	00812c03          	lw	s8,8(sp)
   1aa4c:	e99ff06f          	j	1a8e4 <_realloc_r+0x1b4>
   1aa50:	00042683          	lw	a3,0(s0)
   1aa54:	01b00713          	li	a4,27
   1aa58:	00d52023          	sw	a3,0(a0)
   1aa5c:	00442683          	lw	a3,4(s0)
   1aa60:	00d52223          	sw	a3,4(a0)
   1aa64:	14c76e63          	bltu	a4,a2,1abc0 <_realloc_r+0x490>
   1aa68:	00840713          	add	a4,s0,8
   1aa6c:	00850793          	add	a5,a0,8
   1aa70:	dd9ff06f          	j	1a848 <_realloc_r+0x118>
   1aa74:	ffc52783          	lw	a5,-4(a0)
   1aa78:	00812c03          	lw	s8,8(sp)
   1aa7c:	ffc7f793          	and	a5,a5,-4
   1aa80:	00f989b3          	add	s3,s3,a5
   1aa84:	e29ff06f          	j	1a8ac <_realloc_r+0x17c>
   1aa88:	00cba783          	lw	a5,12(s7)
   1aa8c:	008ba703          	lw	a4,8(s7)
   1aa90:	ffc98613          	add	a2,s3,-4
   1aa94:	02400693          	li	a3,36
   1aa98:	00f72623          	sw	a5,12(a4)
   1aa9c:	00e7a423          	sw	a4,8(a5)
   1aaa0:	008b8493          	add	s1,s7,8
   1aaa4:	10c6e663          	bltu	a3,a2,1abb0 <_realloc_r+0x480>
   1aaa8:	01300713          	li	a4,19
   1aaac:	00048793          	mv	a5,s1
   1aab0:	02c77c63          	bgeu	a4,a2,1aae8 <_realloc_r+0x3b8>
   1aab4:	00042703          	lw	a4,0(s0)
   1aab8:	01b00793          	li	a5,27
   1aabc:	00eba423          	sw	a4,8(s7)
   1aac0:	00442703          	lw	a4,4(s0)
   1aac4:	00eba623          	sw	a4,12(s7)
   1aac8:	14c7f863          	bgeu	a5,a2,1ac18 <_realloc_r+0x4e8>
   1aacc:	00842783          	lw	a5,8(s0)
   1aad0:	00fba823          	sw	a5,16(s7)
   1aad4:	00c42783          	lw	a5,12(s0)
   1aad8:	00fbaa23          	sw	a5,20(s7)
   1aadc:	0ad60c63          	beq	a2,a3,1ab94 <_realloc_r+0x464>
   1aae0:	01040413          	add	s0,s0,16
   1aae4:	018b8793          	add	a5,s7,24
   1aae8:	00042703          	lw	a4,0(s0)
   1aaec:	00e7a023          	sw	a4,0(a5)
   1aaf0:	00442703          	lw	a4,4(s0)
   1aaf4:	00e7a223          	sw	a4,4(a5)
   1aaf8:	00842703          	lw	a4,8(s0)
   1aafc:	00e7a423          	sw	a4,8(a5)
   1ab00:	000b0993          	mv	s3,s6
   1ab04:	000b8a93          	mv	s5,s7
   1ab08:	01012b03          	lw	s6,16(sp)
   1ab0c:	00c12b83          	lw	s7,12(sp)
   1ab10:	00812c03          	lw	s8,8(sp)
   1ab14:	00048413          	mv	s0,s1
   1ab18:	d95ff06f          	j	1a8ac <_realloc_r+0x17c>
   1ab1c:	00040593          	mv	a1,s0
   1ab20:	e5dfb0ef          	jal	1697c <memmove>
   1ab24:	d3dff06f          	j	1a860 <_realloc_r+0x130>
   1ab28:	00c6a783          	lw	a5,12(a3)
   1ab2c:	0086a703          	lw	a4,8(a3)
   1ab30:	ffc98613          	add	a2,s3,-4
   1ab34:	02400693          	li	a3,36
   1ab38:	00f72623          	sw	a5,12(a4)
   1ab3c:	00e7a423          	sw	a4,8(a5)
   1ab40:	008ba703          	lw	a4,8(s7)
   1ab44:	00cba783          	lw	a5,12(s7)
   1ab48:	008b8493          	add	s1,s7,8
   1ab4c:	00f72623          	sw	a5,12(a4)
   1ab50:	00e7a423          	sw	a4,8(a5)
   1ab54:	04c6ee63          	bltu	a3,a2,1abb0 <_realloc_r+0x480>
   1ab58:	01300713          	li	a4,19
   1ab5c:	00048793          	mv	a5,s1
   1ab60:	f8c774e3          	bgeu	a4,a2,1aae8 <_realloc_r+0x3b8>
   1ab64:	00042703          	lw	a4,0(s0)
   1ab68:	01b00793          	li	a5,27
   1ab6c:	00eba423          	sw	a4,8(s7)
   1ab70:	00442703          	lw	a4,4(s0)
   1ab74:	00eba623          	sw	a4,12(s7)
   1ab78:	0ac7f063          	bgeu	a5,a2,1ac18 <_realloc_r+0x4e8>
   1ab7c:	00842703          	lw	a4,8(s0)
   1ab80:	02400793          	li	a5,36
   1ab84:	00eba823          	sw	a4,16(s7)
   1ab88:	00c42703          	lw	a4,12(s0)
   1ab8c:	00ebaa23          	sw	a4,20(s7)
   1ab90:	f4f618e3          	bne	a2,a5,1aae0 <_realloc_r+0x3b0>
   1ab94:	01042703          	lw	a4,16(s0)
   1ab98:	020b8793          	add	a5,s7,32
   1ab9c:	01840413          	add	s0,s0,24
   1aba0:	00ebac23          	sw	a4,24(s7)
   1aba4:	ffc42703          	lw	a4,-4(s0)
   1aba8:	00ebae23          	sw	a4,28(s7)
   1abac:	f3dff06f          	j	1aae8 <_realloc_r+0x3b8>
   1abb0:	00040593          	mv	a1,s0
   1abb4:	00048513          	mv	a0,s1
   1abb8:	dc5fb0ef          	jal	1697c <memmove>
   1abbc:	f45ff06f          	j	1ab00 <_realloc_r+0x3d0>
   1abc0:	00842703          	lw	a4,8(s0)
   1abc4:	00e52423          	sw	a4,8(a0)
   1abc8:	00c42703          	lw	a4,12(s0)
   1abcc:	00e52623          	sw	a4,12(a0)
   1abd0:	06f60463          	beq	a2,a5,1ac38 <_realloc_r+0x508>
   1abd4:	01040713          	add	a4,s0,16
   1abd8:	01050793          	add	a5,a0,16
   1abdc:	c6dff06f          	j	1a848 <_realloc_r+0x118>
   1abe0:	014a8ab3          	add	s5,s5,s4
   1abe4:	414686b3          	sub	a3,a3,s4
   1abe8:	015c2423          	sw	s5,8(s8)
   1abec:	0016e793          	or	a5,a3,1
   1abf0:	00faa223          	sw	a5,4(s5)
   1abf4:	ffc42783          	lw	a5,-4(s0)
   1abf8:	00090513          	mv	a0,s2
   1abfc:	00040493          	mv	s1,s0
   1ac00:	0017f793          	and	a5,a5,1
   1ac04:	0147e7b3          	or	a5,a5,s4
   1ac08:	fef42e23          	sw	a5,-4(s0)
   1ac0c:	f85f60ef          	jal	11b90 <__malloc_unlock>
   1ac10:	00812c03          	lw	s8,8(sp)
   1ac14:	cd1ff06f          	j	1a8e4 <_realloc_r+0x1b4>
   1ac18:	00840413          	add	s0,s0,8
   1ac1c:	010b8793          	add	a5,s7,16
   1ac20:	ec9ff06f          	j	1aae8 <_realloc_r+0x3b8>
   1ac24:	00090513          	mv	a0,s2
   1ac28:	f69f60ef          	jal	11b90 <__malloc_unlock>
   1ac2c:	00000493          	li	s1,0
   1ac30:	00812c03          	lw	s8,8(sp)
   1ac34:	cb1ff06f          	j	1a8e4 <_realloc_r+0x1b4>
   1ac38:	01042683          	lw	a3,16(s0)
   1ac3c:	01840713          	add	a4,s0,24
   1ac40:	01850793          	add	a5,a0,24
   1ac44:	00d52823          	sw	a3,16(a0)
   1ac48:	01442683          	lw	a3,20(s0)
   1ac4c:	00d52a23          	sw	a3,20(a0)
   1ac50:	bf9ff06f          	j	1a848 <_realloc_r+0x118>
   1ac54:	00040593          	mv	a1,s0
   1ac58:	00048513          	mv	a0,s1
   1ac5c:	d21fb0ef          	jal	1697c <memmove>
   1ac60:	db5ff06f          	j	1aa14 <_realloc_r+0x2e4>
   1ac64:	00842783          	lw	a5,8(s0)
   1ac68:	00fba823          	sw	a5,16(s7)
   1ac6c:	00c42783          	lw	a5,12(s0)
   1ac70:	00fbaa23          	sw	a5,20(s7)
   1ac74:	00d60863          	beq	a2,a3,1ac84 <_realloc_r+0x554>
   1ac78:	01040413          	add	s0,s0,16
   1ac7c:	018b8793          	add	a5,s7,24
   1ac80:	d7dff06f          	j	1a9fc <_realloc_r+0x2cc>
   1ac84:	01042703          	lw	a4,16(s0)
   1ac88:	020b8793          	add	a5,s7,32
   1ac8c:	01840413          	add	s0,s0,24
   1ac90:	00ebac23          	sw	a4,24(s7)
   1ac94:	ffc42703          	lw	a4,-4(s0)
   1ac98:	00ebae23          	sw	a4,28(s7)
   1ac9c:	d61ff06f          	j	1a9fc <_realloc_r+0x2cc>

0001aca0 <_wctomb_r>:
   1aca0:	e181a783          	lw	a5,-488(gp) # 23728 <__global_locale+0xe0>
   1aca4:	00078067          	jr	a5

0001aca8 <__ascii_wctomb>:
   1aca8:	02058463          	beqz	a1,1acd0 <__ascii_wctomb+0x28>
   1acac:	0ff00793          	li	a5,255
   1acb0:	00c7e863          	bltu	a5,a2,1acc0 <__ascii_wctomb+0x18>
   1acb4:	00c58023          	sb	a2,0(a1)
   1acb8:	00100513          	li	a0,1
   1acbc:	00008067          	ret
   1acc0:	08a00793          	li	a5,138
   1acc4:	00f52023          	sw	a5,0(a0)
   1acc8:	fff00513          	li	a0,-1
   1accc:	00008067          	ret
   1acd0:	00000513          	li	a0,0
   1acd4:	00008067          	ret

0001acd8 <_wcrtomb_r>:
   1acd8:	fe010113          	add	sp,sp,-32
   1acdc:	00812c23          	sw	s0,24(sp)
   1ace0:	00912a23          	sw	s1,20(sp)
   1ace4:	00112e23          	sw	ra,28(sp)
   1ace8:	e181a783          	lw	a5,-488(gp) # 23728 <__global_locale+0xe0>
   1acec:	00050413          	mv	s0,a0
   1acf0:	00068493          	mv	s1,a3
   1acf4:	02058263          	beqz	a1,1ad18 <_wcrtomb_r+0x40>
   1acf8:	000780e7          	jalr	a5
   1acfc:	fff00793          	li	a5,-1
   1ad00:	02f50663          	beq	a0,a5,1ad2c <_wcrtomb_r+0x54>
   1ad04:	01c12083          	lw	ra,28(sp)
   1ad08:	01812403          	lw	s0,24(sp)
   1ad0c:	01412483          	lw	s1,20(sp)
   1ad10:	02010113          	add	sp,sp,32
   1ad14:	00008067          	ret
   1ad18:	00000613          	li	a2,0
   1ad1c:	00410593          	add	a1,sp,4
   1ad20:	000780e7          	jalr	a5
   1ad24:	fff00793          	li	a5,-1
   1ad28:	fcf51ee3          	bne	a0,a5,1ad04 <_wcrtomb_r+0x2c>
   1ad2c:	0004a023          	sw	zero,0(s1)
   1ad30:	08a00793          	li	a5,138
   1ad34:	01c12083          	lw	ra,28(sp)
   1ad38:	00f42023          	sw	a5,0(s0)
   1ad3c:	01812403          	lw	s0,24(sp)
   1ad40:	01412483          	lw	s1,20(sp)
   1ad44:	02010113          	add	sp,sp,32
   1ad48:	00008067          	ret

0001ad4c <wcrtomb>:
   1ad4c:	fe010113          	add	sp,sp,-32
   1ad50:	00812c23          	sw	s0,24(sp)
   1ad54:	00912a23          	sw	s1,20(sp)
   1ad58:	00112e23          	sw	ra,28(sp)
   1ad5c:	f101a483          	lw	s1,-240(gp) # 23820 <_impure_ptr>
   1ad60:	e181a783          	lw	a5,-488(gp) # 23728 <__global_locale+0xe0>
   1ad64:	00060413          	mv	s0,a2
   1ad68:	02050a63          	beqz	a0,1ad9c <wcrtomb+0x50>
   1ad6c:	00058613          	mv	a2,a1
   1ad70:	00040693          	mv	a3,s0
   1ad74:	00050593          	mv	a1,a0
   1ad78:	00048513          	mv	a0,s1
   1ad7c:	000780e7          	jalr	a5
   1ad80:	fff00793          	li	a5,-1
   1ad84:	02f50a63          	beq	a0,a5,1adb8 <wcrtomb+0x6c>
   1ad88:	01c12083          	lw	ra,28(sp)
   1ad8c:	01812403          	lw	s0,24(sp)
   1ad90:	01412483          	lw	s1,20(sp)
   1ad94:	02010113          	add	sp,sp,32
   1ad98:	00008067          	ret
   1ad9c:	00060693          	mv	a3,a2
   1ada0:	00410593          	add	a1,sp,4
   1ada4:	00000613          	li	a2,0
   1ada8:	00048513          	mv	a0,s1
   1adac:	000780e7          	jalr	a5
   1adb0:	fff00793          	li	a5,-1
   1adb4:	fcf51ae3          	bne	a0,a5,1ad88 <wcrtomb+0x3c>
   1adb8:	00042023          	sw	zero,0(s0)
   1adbc:	01c12083          	lw	ra,28(sp)
   1adc0:	01812403          	lw	s0,24(sp)
   1adc4:	08a00793          	li	a5,138
   1adc8:	00f4a023          	sw	a5,0(s1)
   1adcc:	01412483          	lw	s1,20(sp)
   1add0:	02010113          	add	sp,sp,32
   1add4:	00008067          	ret

0001add8 <__smakebuf_r>:
   1add8:	00c59783          	lh	a5,12(a1)
   1addc:	f8010113          	add	sp,sp,-128
   1ade0:	06812c23          	sw	s0,120(sp)
   1ade4:	06112e23          	sw	ra,124(sp)
   1ade8:	0027f713          	and	a4,a5,2
   1adec:	00058413          	mv	s0,a1
   1adf0:	02070463          	beqz	a4,1ae18 <__smakebuf_r+0x40>
   1adf4:	04358793          	add	a5,a1,67
   1adf8:	00f5a023          	sw	a5,0(a1)
   1adfc:	00f5a823          	sw	a5,16(a1)
   1ae00:	00100793          	li	a5,1
   1ae04:	00f5aa23          	sw	a5,20(a1)
   1ae08:	07c12083          	lw	ra,124(sp)
   1ae0c:	07812403          	lw	s0,120(sp)
   1ae10:	08010113          	add	sp,sp,128
   1ae14:	00008067          	ret
   1ae18:	00e59583          	lh	a1,14(a1)
   1ae1c:	06912a23          	sw	s1,116(sp)
   1ae20:	07212823          	sw	s2,112(sp)
   1ae24:	07312623          	sw	s3,108(sp)
   1ae28:	07412423          	sw	s4,104(sp)
   1ae2c:	00050493          	mv	s1,a0
   1ae30:	0805c663          	bltz	a1,1aebc <__smakebuf_r+0xe4>
   1ae34:	00810613          	add	a2,sp,8
   1ae38:	3b4000ef          	jal	1b1ec <_fstat_r>
   1ae3c:	06054e63          	bltz	a0,1aeb8 <__smakebuf_r+0xe0>
   1ae40:	00c12783          	lw	a5,12(sp)
   1ae44:	0000f937          	lui	s2,0xf
   1ae48:	000019b7          	lui	s3,0x1
   1ae4c:	00f97933          	and	s2,s2,a5
   1ae50:	ffffe7b7          	lui	a5,0xffffe
   1ae54:	00f90933          	add	s2,s2,a5
   1ae58:	00193913          	seqz	s2,s2
   1ae5c:	40000a13          	li	s4,1024
   1ae60:	80098993          	add	s3,s3,-2048 # 800 <exit-0xf8a0>
   1ae64:	000a0593          	mv	a1,s4
   1ae68:	00048513          	mv	a0,s1
   1ae6c:	d64f60ef          	jal	113d0 <_malloc_r>
   1ae70:	00c41783          	lh	a5,12(s0)
   1ae74:	06050863          	beqz	a0,1aee4 <__smakebuf_r+0x10c>
   1ae78:	0807e793          	or	a5,a5,128
   1ae7c:	00a42023          	sw	a0,0(s0)
   1ae80:	00a42823          	sw	a0,16(s0)
   1ae84:	00f41623          	sh	a5,12(s0)
   1ae88:	01442a23          	sw	s4,20(s0)
   1ae8c:	0a091063          	bnez	s2,1af2c <__smakebuf_r+0x154>
   1ae90:	0137e7b3          	or	a5,a5,s3
   1ae94:	07c12083          	lw	ra,124(sp)
   1ae98:	00f41623          	sh	a5,12(s0)
   1ae9c:	07812403          	lw	s0,120(sp)
   1aea0:	07412483          	lw	s1,116(sp)
   1aea4:	07012903          	lw	s2,112(sp)
   1aea8:	06c12983          	lw	s3,108(sp)
   1aeac:	06812a03          	lw	s4,104(sp)
   1aeb0:	08010113          	add	sp,sp,128
   1aeb4:	00008067          	ret
   1aeb8:	00c41783          	lh	a5,12(s0)
   1aebc:	0807f793          	and	a5,a5,128
   1aec0:	00000913          	li	s2,0
   1aec4:	04078e63          	beqz	a5,1af20 <__smakebuf_r+0x148>
   1aec8:	04000a13          	li	s4,64
   1aecc:	000a0593          	mv	a1,s4
   1aed0:	00048513          	mv	a0,s1
   1aed4:	cfcf60ef          	jal	113d0 <_malloc_r>
   1aed8:	00c41783          	lh	a5,12(s0)
   1aedc:	00000993          	li	s3,0
   1aee0:	f8051ce3          	bnez	a0,1ae78 <__smakebuf_r+0xa0>
   1aee4:	2007f713          	and	a4,a5,512
   1aee8:	04071e63          	bnez	a4,1af44 <__smakebuf_r+0x16c>
   1aeec:	ffc7f793          	and	a5,a5,-4
   1aef0:	0027e793          	or	a5,a5,2
   1aef4:	04340713          	add	a4,s0,67
   1aef8:	00f41623          	sh	a5,12(s0)
   1aefc:	00100793          	li	a5,1
   1af00:	07412483          	lw	s1,116(sp)
   1af04:	07012903          	lw	s2,112(sp)
   1af08:	06c12983          	lw	s3,108(sp)
   1af0c:	06812a03          	lw	s4,104(sp)
   1af10:	00e42023          	sw	a4,0(s0)
   1af14:	00e42823          	sw	a4,16(s0)
   1af18:	00f42a23          	sw	a5,20(s0)
   1af1c:	eedff06f          	j	1ae08 <__smakebuf_r+0x30>
   1af20:	40000a13          	li	s4,1024
   1af24:	00000993          	li	s3,0
   1af28:	f3dff06f          	j	1ae64 <__smakebuf_r+0x8c>
   1af2c:	00e41583          	lh	a1,14(s0)
   1af30:	00048513          	mv	a0,s1
   1af34:	31c000ef          	jal	1b250 <_isatty_r>
   1af38:	02051063          	bnez	a0,1af58 <__smakebuf_r+0x180>
   1af3c:	00c41783          	lh	a5,12(s0)
   1af40:	f51ff06f          	j	1ae90 <__smakebuf_r+0xb8>
   1af44:	07412483          	lw	s1,116(sp)
   1af48:	07012903          	lw	s2,112(sp)
   1af4c:	06c12983          	lw	s3,108(sp)
   1af50:	06812a03          	lw	s4,104(sp)
   1af54:	eb5ff06f          	j	1ae08 <__smakebuf_r+0x30>
   1af58:	00c45783          	lhu	a5,12(s0)
   1af5c:	ffc7f793          	and	a5,a5,-4
   1af60:	0017e793          	or	a5,a5,1
   1af64:	01079793          	sll	a5,a5,0x10
   1af68:	4107d793          	sra	a5,a5,0x10
   1af6c:	f25ff06f          	j	1ae90 <__smakebuf_r+0xb8>

0001af70 <__swhatbuf_r>:
   1af70:	f9010113          	add	sp,sp,-112
   1af74:	06812423          	sw	s0,104(sp)
   1af78:	00058413          	mv	s0,a1
   1af7c:	00e59583          	lh	a1,14(a1)
   1af80:	06912223          	sw	s1,100(sp)
   1af84:	07212023          	sw	s2,96(sp)
   1af88:	06112623          	sw	ra,108(sp)
   1af8c:	00060493          	mv	s1,a2
   1af90:	00068913          	mv	s2,a3
   1af94:	0405ca63          	bltz	a1,1afe8 <__swhatbuf_r+0x78>
   1af98:	00810613          	add	a2,sp,8
   1af9c:	250000ef          	jal	1b1ec <_fstat_r>
   1afa0:	04054463          	bltz	a0,1afe8 <__swhatbuf_r+0x78>
   1afa4:	00c12703          	lw	a4,12(sp)
   1afa8:	0000f7b7          	lui	a5,0xf
   1afac:	06c12083          	lw	ra,108(sp)
   1afb0:	00e7f7b3          	and	a5,a5,a4
   1afb4:	ffffe737          	lui	a4,0xffffe
   1afb8:	00e787b3          	add	a5,a5,a4
   1afbc:	06812403          	lw	s0,104(sp)
   1afc0:	0017b793          	seqz	a5,a5
   1afc4:	00f92023          	sw	a5,0(s2) # f000 <exit-0x10a0>
   1afc8:	40000713          	li	a4,1024
   1afcc:	00e4a023          	sw	a4,0(s1)
   1afd0:	00001537          	lui	a0,0x1
   1afd4:	06412483          	lw	s1,100(sp)
   1afd8:	06012903          	lw	s2,96(sp)
   1afdc:	80050513          	add	a0,a0,-2048 # 800 <exit-0xf8a0>
   1afe0:	07010113          	add	sp,sp,112
   1afe4:	00008067          	ret
   1afe8:	00c45783          	lhu	a5,12(s0)
   1afec:	0807f793          	and	a5,a5,128
   1aff0:	02078863          	beqz	a5,1b020 <__swhatbuf_r+0xb0>
   1aff4:	06c12083          	lw	ra,108(sp)
   1aff8:	06812403          	lw	s0,104(sp)
   1affc:	00000793          	li	a5,0
   1b000:	00f92023          	sw	a5,0(s2)
   1b004:	04000713          	li	a4,64
   1b008:	00e4a023          	sw	a4,0(s1)
   1b00c:	06012903          	lw	s2,96(sp)
   1b010:	06412483          	lw	s1,100(sp)
   1b014:	00000513          	li	a0,0
   1b018:	07010113          	add	sp,sp,112
   1b01c:	00008067          	ret
   1b020:	06c12083          	lw	ra,108(sp)
   1b024:	06812403          	lw	s0,104(sp)
   1b028:	00f92023          	sw	a5,0(s2)
   1b02c:	40000713          	li	a4,1024
   1b030:	00e4a023          	sw	a4,0(s1)
   1b034:	06012903          	lw	s2,96(sp)
   1b038:	06412483          	lw	s1,100(sp)
   1b03c:	00000513          	li	a0,0
   1b040:	07010113          	add	sp,sp,112
   1b044:	00008067          	ret

0001b048 <__swbuf_r>:
   1b048:	fe010113          	add	sp,sp,-32
   1b04c:	00812c23          	sw	s0,24(sp)
   1b050:	00912a23          	sw	s1,20(sp)
   1b054:	01212823          	sw	s2,16(sp)
   1b058:	00112e23          	sw	ra,28(sp)
   1b05c:	00050913          	mv	s2,a0
   1b060:	00058493          	mv	s1,a1
   1b064:	00060413          	mv	s0,a2
   1b068:	00050663          	beqz	a0,1b074 <__swbuf_r+0x2c>
   1b06c:	03452783          	lw	a5,52(a0)
   1b070:	16078063          	beqz	a5,1b1d0 <__swbuf_r+0x188>
   1b074:	01842783          	lw	a5,24(s0)
   1b078:	00c41703          	lh	a4,12(s0)
   1b07c:	00f42423          	sw	a5,8(s0)
   1b080:	00877793          	and	a5,a4,8
   1b084:	08078063          	beqz	a5,1b104 <__swbuf_r+0xbc>
   1b088:	01042783          	lw	a5,16(s0)
   1b08c:	06078c63          	beqz	a5,1b104 <__swbuf_r+0xbc>
   1b090:	01312623          	sw	s3,12(sp)
   1b094:	01271693          	sll	a3,a4,0x12
   1b098:	0ff4f993          	zext.b	s3,s1
   1b09c:	0ff4f493          	zext.b	s1,s1
   1b0a0:	0806d863          	bgez	a3,1b130 <__swbuf_r+0xe8>
   1b0a4:	00042703          	lw	a4,0(s0)
   1b0a8:	01442683          	lw	a3,20(s0)
   1b0ac:	40f707b3          	sub	a5,a4,a5
   1b0b0:	0ad7d863          	bge	a5,a3,1b160 <__swbuf_r+0x118>
   1b0b4:	00842683          	lw	a3,8(s0)
   1b0b8:	00170613          	add	a2,a4,1 # ffffe001 <__BSS_END__+0xfffda429>
   1b0bc:	00c42023          	sw	a2,0(s0)
   1b0c0:	fff68693          	add	a3,a3,-1
   1b0c4:	00d42423          	sw	a3,8(s0)
   1b0c8:	01370023          	sb	s3,0(a4)
   1b0cc:	01442703          	lw	a4,20(s0)
   1b0d0:	00178793          	add	a5,a5,1 # f001 <exit-0x109f>
   1b0d4:	0cf70263          	beq	a4,a5,1b198 <__swbuf_r+0x150>
   1b0d8:	00c45783          	lhu	a5,12(s0)
   1b0dc:	0017f793          	and	a5,a5,1
   1b0e0:	0c079a63          	bnez	a5,1b1b4 <__swbuf_r+0x16c>
   1b0e4:	00c12983          	lw	s3,12(sp)
   1b0e8:	01c12083          	lw	ra,28(sp)
   1b0ec:	01812403          	lw	s0,24(sp)
   1b0f0:	01012903          	lw	s2,16(sp)
   1b0f4:	00048513          	mv	a0,s1
   1b0f8:	01412483          	lw	s1,20(sp)
   1b0fc:	02010113          	add	sp,sp,32
   1b100:	00008067          	ret
   1b104:	00040593          	mv	a1,s0
   1b108:	00090513          	mv	a0,s2
   1b10c:	a4cfb0ef          	jal	16358 <__swsetup_r>
   1b110:	08051e63          	bnez	a0,1b1ac <__swbuf_r+0x164>
   1b114:	00c41703          	lh	a4,12(s0)
   1b118:	01312623          	sw	s3,12(sp)
   1b11c:	01042783          	lw	a5,16(s0)
   1b120:	01271693          	sll	a3,a4,0x12
   1b124:	0ff4f993          	zext.b	s3,s1
   1b128:	0ff4f493          	zext.b	s1,s1
   1b12c:	f606cce3          	bltz	a3,1b0a4 <__swbuf_r+0x5c>
   1b130:	06442683          	lw	a3,100(s0)
   1b134:	ffffe637          	lui	a2,0xffffe
   1b138:	000025b7          	lui	a1,0x2
   1b13c:	00b76733          	or	a4,a4,a1
   1b140:	fff60613          	add	a2,a2,-1 # ffffdfff <__BSS_END__+0xfffda427>
   1b144:	00c6f6b3          	and	a3,a3,a2
   1b148:	00e41623          	sh	a4,12(s0)
   1b14c:	00042703          	lw	a4,0(s0)
   1b150:	06d42223          	sw	a3,100(s0)
   1b154:	01442683          	lw	a3,20(s0)
   1b158:	40f707b3          	sub	a5,a4,a5
   1b15c:	f4d7cce3          	blt	a5,a3,1b0b4 <__swbuf_r+0x6c>
   1b160:	00040593          	mv	a1,s0
   1b164:	00090513          	mv	a0,s2
   1b168:	bf9fa0ef          	jal	15d60 <_fflush_r>
   1b16c:	02051e63          	bnez	a0,1b1a8 <__swbuf_r+0x160>
   1b170:	00042703          	lw	a4,0(s0)
   1b174:	00842683          	lw	a3,8(s0)
   1b178:	00100793          	li	a5,1
   1b17c:	00170613          	add	a2,a4,1
   1b180:	fff68693          	add	a3,a3,-1
   1b184:	00c42023          	sw	a2,0(s0)
   1b188:	00d42423          	sw	a3,8(s0)
   1b18c:	01370023          	sb	s3,0(a4)
   1b190:	01442703          	lw	a4,20(s0)
   1b194:	f4f712e3          	bne	a4,a5,1b0d8 <__swbuf_r+0x90>
   1b198:	00040593          	mv	a1,s0
   1b19c:	00090513          	mv	a0,s2
   1b1a0:	bc1fa0ef          	jal	15d60 <_fflush_r>
   1b1a4:	f40500e3          	beqz	a0,1b0e4 <__swbuf_r+0x9c>
   1b1a8:	00c12983          	lw	s3,12(sp)
   1b1ac:	fff00493          	li	s1,-1
   1b1b0:	f39ff06f          	j	1b0e8 <__swbuf_r+0xa0>
   1b1b4:	00a00793          	li	a5,10
   1b1b8:	f2f496e3          	bne	s1,a5,1b0e4 <__swbuf_r+0x9c>
   1b1bc:	00040593          	mv	a1,s0
   1b1c0:	00090513          	mv	a0,s2
   1b1c4:	b9dfa0ef          	jal	15d60 <_fflush_r>
   1b1c8:	f0050ee3          	beqz	a0,1b0e4 <__swbuf_r+0x9c>
   1b1cc:	fddff06f          	j	1b1a8 <__swbuf_r+0x160>
   1b1d0:	c3cf50ef          	jal	1060c <__sinit>
   1b1d4:	ea1ff06f          	j	1b074 <__swbuf_r+0x2c>

0001b1d8 <__swbuf>:
   1b1d8:	00050793          	mv	a5,a0
   1b1dc:	f101a503          	lw	a0,-240(gp) # 23820 <_impure_ptr>
   1b1e0:	00058613          	mv	a2,a1
   1b1e4:	00078593          	mv	a1,a5
   1b1e8:	e61ff06f          	j	1b048 <__swbuf_r>

0001b1ec <_fstat_r>:
   1b1ec:	ff010113          	add	sp,sp,-16
   1b1f0:	00058713          	mv	a4,a1
   1b1f4:	00812423          	sw	s0,8(sp)
   1b1f8:	00912223          	sw	s1,4(sp)
   1b1fc:	00050413          	mv	s0,a0
   1b200:	00060593          	mv	a1,a2
   1b204:	00070513          	mv	a0,a4
   1b208:	00112623          	sw	ra,12(sp)
   1b20c:	f201a023          	sw	zero,-224(gp) # 23830 <errno>
   1b210:	2e1000ef          	jal	1bcf0 <_fstat>
   1b214:	fff00793          	li	a5,-1
   1b218:	00f50c63          	beq	a0,a5,1b230 <_fstat_r+0x44>
   1b21c:	00c12083          	lw	ra,12(sp)
   1b220:	00812403          	lw	s0,8(sp)
   1b224:	00412483          	lw	s1,4(sp)
   1b228:	01010113          	add	sp,sp,16
   1b22c:	00008067          	ret
   1b230:	f201a783          	lw	a5,-224(gp) # 23830 <errno>
   1b234:	fe0784e3          	beqz	a5,1b21c <_fstat_r+0x30>
   1b238:	00c12083          	lw	ra,12(sp)
   1b23c:	00f42023          	sw	a5,0(s0)
   1b240:	00812403          	lw	s0,8(sp)
   1b244:	00412483          	lw	s1,4(sp)
   1b248:	01010113          	add	sp,sp,16
   1b24c:	00008067          	ret

0001b250 <_isatty_r>:
   1b250:	ff010113          	add	sp,sp,-16
   1b254:	00812423          	sw	s0,8(sp)
   1b258:	00912223          	sw	s1,4(sp)
   1b25c:	00050413          	mv	s0,a0
   1b260:	00058513          	mv	a0,a1
   1b264:	00112623          	sw	ra,12(sp)
   1b268:	f201a023          	sw	zero,-224(gp) # 23830 <errno>
   1b26c:	2c5000ef          	jal	1bd30 <_isatty>
   1b270:	fff00793          	li	a5,-1
   1b274:	00f50c63          	beq	a0,a5,1b28c <_isatty_r+0x3c>
   1b278:	00c12083          	lw	ra,12(sp)
   1b27c:	00812403          	lw	s0,8(sp)
   1b280:	00412483          	lw	s1,4(sp)
   1b284:	01010113          	add	sp,sp,16
   1b288:	00008067          	ret
   1b28c:	f201a783          	lw	a5,-224(gp) # 23830 <errno>
   1b290:	fe0784e3          	beqz	a5,1b278 <_isatty_r+0x28>
   1b294:	00c12083          	lw	ra,12(sp)
   1b298:	00f42023          	sw	a5,0(s0)
   1b29c:	00812403          	lw	s0,8(sp)
   1b2a0:	00412483          	lw	s1,4(sp)
   1b2a4:	01010113          	add	sp,sp,16
   1b2a8:	00008067          	ret

0001b2ac <__assert_func>:
   1b2ac:	f101a703          	lw	a4,-240(gp) # 23820 <_impure_ptr>
   1b2b0:	ff010113          	add	sp,sp,-16
   1b2b4:	00068793          	mv	a5,a3
   1b2b8:	00060813          	mv	a6,a2
   1b2bc:	00112623          	sw	ra,12(sp)
   1b2c0:	00c72883          	lw	a7,12(a4)
   1b2c4:	00050693          	mv	a3,a0
   1b2c8:	00058713          	mv	a4,a1
   1b2cc:	00078613          	mv	a2,a5
   1b2d0:	02080063          	beqz	a6,1b2f0 <__assert_func+0x44>
   1b2d4:	000227b7          	lui	a5,0x22
   1b2d8:	0ec78793          	add	a5,a5,236 # 220ec <__clzsi2+0x1c0>
   1b2dc:	000225b7          	lui	a1,0x22
   1b2e0:	0fc58593          	add	a1,a1,252 # 220fc <__clzsi2+0x1d0>
   1b2e4:	00088513          	mv	a0,a7
   1b2e8:	220000ef          	jal	1b508 <fiprintf>
   1b2ec:	270000ef          	jal	1b55c <abort>
   1b2f0:	00022837          	lui	a6,0x22
   1b2f4:	0f880793          	add	a5,a6,248 # 220f8 <__clzsi2+0x1cc>
   1b2f8:	0f880813          	add	a6,a6,248
   1b2fc:	fe1ff06f          	j	1b2dc <__assert_func+0x30>

0001b300 <__assert>:
   1b300:	ff010113          	add	sp,sp,-16
   1b304:	00060693          	mv	a3,a2
   1b308:	00000613          	li	a2,0
   1b30c:	00112623          	sw	ra,12(sp)
   1b310:	f9dff0ef          	jal	1b2ac <__assert_func>

0001b314 <_calloc_r>:
   1b314:	fe010113          	add	sp,sp,-32
   1b318:	00812c23          	sw	s0,24(sp)
   1b31c:	00112e23          	sw	ra,28(sp)
   1b320:	0105d693          	srl	a3,a1,0x10
   1b324:	00058793          	mv	a5,a1
   1b328:	00050413          	mv	s0,a0
   1b32c:	01065713          	srl	a4,a2,0x10
   1b330:	0c069063          	bnez	a3,1b3f0 <_calloc_r+0xdc>
   1b334:	14071a63          	bnez	a4,1b488 <_calloc_r+0x174>
   1b338:	01061593          	sll	a1,a2,0x10
   1b33c:	01079513          	sll	a0,a5,0x10
   1b340:	0105d593          	srl	a1,a1,0x10
   1b344:	01055513          	srl	a0,a0,0x10
   1b348:	30d060ef          	jal	21e54 <__mulsi3>
   1b34c:	00050593          	mv	a1,a0
   1b350:	00040513          	mv	a0,s0
   1b354:	87cf60ef          	jal	113d0 <_malloc_r>
   1b358:	00050413          	mv	s0,a0
   1b35c:	10050a63          	beqz	a0,1b470 <_calloc_r+0x15c>
   1b360:	ffc52603          	lw	a2,-4(a0)
   1b364:	02400713          	li	a4,36
   1b368:	ffc67613          	and	a2,a2,-4
   1b36c:	ffc60613          	add	a2,a2,-4
   1b370:	04c76863          	bltu	a4,a2,1b3c0 <_calloc_r+0xac>
   1b374:	01300693          	li	a3,19
   1b378:	00050793          	mv	a5,a0
   1b37c:	02c6f263          	bgeu	a3,a2,1b3a0 <_calloc_r+0x8c>
   1b380:	00052023          	sw	zero,0(a0)
   1b384:	00052223          	sw	zero,4(a0)
   1b388:	01b00793          	li	a5,27
   1b38c:	04c7f863          	bgeu	a5,a2,1b3dc <_calloc_r+0xc8>
   1b390:	00052423          	sw	zero,8(a0)
   1b394:	00052623          	sw	zero,12(a0)
   1b398:	01050793          	add	a5,a0,16
   1b39c:	10e60263          	beq	a2,a4,1b4a0 <_calloc_r+0x18c>
   1b3a0:	0007a023          	sw	zero,0(a5)
   1b3a4:	0007a223          	sw	zero,4(a5)
   1b3a8:	0007a423          	sw	zero,8(a5)
   1b3ac:	01c12083          	lw	ra,28(sp)
   1b3b0:	00040513          	mv	a0,s0
   1b3b4:	01812403          	lw	s0,24(sp)
   1b3b8:	02010113          	add	sp,sp,32
   1b3bc:	00008067          	ret
   1b3c0:	00000593          	li	a1,0
   1b3c4:	921f50ef          	jal	10ce4 <memset>
   1b3c8:	01c12083          	lw	ra,28(sp)
   1b3cc:	00040513          	mv	a0,s0
   1b3d0:	01812403          	lw	s0,24(sp)
   1b3d4:	02010113          	add	sp,sp,32
   1b3d8:	00008067          	ret
   1b3dc:	00850793          	add	a5,a0,8
   1b3e0:	0007a023          	sw	zero,0(a5)
   1b3e4:	0007a223          	sw	zero,4(a5)
   1b3e8:	0007a423          	sw	zero,8(a5)
   1b3ec:	fc1ff06f          	j	1b3ac <_calloc_r+0x98>
   1b3f0:	0c071663          	bnez	a4,1b4bc <_calloc_r+0x1a8>
   1b3f4:	01212823          	sw	s2,16(sp)
   1b3f8:	01312623          	sw	s3,12(sp)
   1b3fc:	00912a23          	sw	s1,20(sp)
   1b400:	00068913          	mv	s2,a3
   1b404:	00060993          	mv	s3,a2
   1b408:	01079513          	sll	a0,a5,0x10
   1b40c:	01061593          	sll	a1,a2,0x10
   1b410:	0105d593          	srl	a1,a1,0x10
   1b414:	01055513          	srl	a0,a0,0x10
   1b418:	23d060ef          	jal	21e54 <__mulsi3>
   1b41c:	00050493          	mv	s1,a0
   1b420:	01091593          	sll	a1,s2,0x10
   1b424:	01099513          	sll	a0,s3,0x10
   1b428:	0105d593          	srl	a1,a1,0x10
   1b42c:	01055513          	srl	a0,a0,0x10
   1b430:	225060ef          	jal	21e54 <__mulsi3>
   1b434:	0104d793          	srl	a5,s1,0x10
   1b438:	00f505b3          	add	a1,a0,a5
   1b43c:	0105d793          	srl	a5,a1,0x10
   1b440:	06079863          	bnez	a5,1b4b0 <_calloc_r+0x19c>
   1b444:	01049493          	sll	s1,s1,0x10
   1b448:	0104d493          	srl	s1,s1,0x10
   1b44c:	01059593          	sll	a1,a1,0x10
   1b450:	0095e5b3          	or	a1,a1,s1
   1b454:	00040513          	mv	a0,s0
   1b458:	01412483          	lw	s1,20(sp)
   1b45c:	01012903          	lw	s2,16(sp)
   1b460:	00c12983          	lw	s3,12(sp)
   1b464:	f6df50ef          	jal	113d0 <_malloc_r>
   1b468:	00050413          	mv	s0,a0
   1b46c:	ee051ae3          	bnez	a0,1b360 <_calloc_r+0x4c>
   1b470:	00000413          	li	s0,0
   1b474:	01c12083          	lw	ra,28(sp)
   1b478:	00040513          	mv	a0,s0
   1b47c:	01812403          	lw	s0,24(sp)
   1b480:	02010113          	add	sp,sp,32
   1b484:	00008067          	ret
   1b488:	01212823          	sw	s2,16(sp)
   1b48c:	01312623          	sw	s3,12(sp)
   1b490:	00912a23          	sw	s1,20(sp)
   1b494:	00070913          	mv	s2,a4
   1b498:	00058993          	mv	s3,a1
   1b49c:	f6dff06f          	j	1b408 <_calloc_r+0xf4>
   1b4a0:	00052823          	sw	zero,16(a0)
   1b4a4:	01850793          	add	a5,a0,24
   1b4a8:	00052a23          	sw	zero,20(a0)
   1b4ac:	ef5ff06f          	j	1b3a0 <_calloc_r+0x8c>
   1b4b0:	01412483          	lw	s1,20(sp)
   1b4b4:	01012903          	lw	s2,16(sp)
   1b4b8:	00c12983          	lw	s3,12(sp)
   1b4bc:	098000ef          	jal	1b554 <__errno>
   1b4c0:	00c00793          	li	a5,12
   1b4c4:	00f52023          	sw	a5,0(a0)
   1b4c8:	00000413          	li	s0,0
   1b4cc:	fa9ff06f          	j	1b474 <_calloc_r+0x160>

0001b4d0 <_fiprintf_r>:
   1b4d0:	fc010113          	add	sp,sp,-64
   1b4d4:	02c10313          	add	t1,sp,44
   1b4d8:	02d12623          	sw	a3,44(sp)
   1b4dc:	00030693          	mv	a3,t1
   1b4e0:	00112e23          	sw	ra,28(sp)
   1b4e4:	02e12823          	sw	a4,48(sp)
   1b4e8:	02f12a23          	sw	a5,52(sp)
   1b4ec:	03012c23          	sw	a6,56(sp)
   1b4f0:	03112e23          	sw	a7,60(sp)
   1b4f4:	00612623          	sw	t1,12(sp)
   1b4f8:	944f90ef          	jal	1463c <_vfiprintf_r>
   1b4fc:	01c12083          	lw	ra,28(sp)
   1b500:	04010113          	add	sp,sp,64
   1b504:	00008067          	ret

0001b508 <fiprintf>:
   1b508:	00050e13          	mv	t3,a0
   1b50c:	fc010113          	add	sp,sp,-64
   1b510:	f101a503          	lw	a0,-240(gp) # 23820 <_impure_ptr>
   1b514:	02810313          	add	t1,sp,40
   1b518:	02c12423          	sw	a2,40(sp)
   1b51c:	02d12623          	sw	a3,44(sp)
   1b520:	00058613          	mv	a2,a1
   1b524:	00030693          	mv	a3,t1
   1b528:	000e0593          	mv	a1,t3
   1b52c:	00112e23          	sw	ra,28(sp)
   1b530:	02e12823          	sw	a4,48(sp)
   1b534:	02f12a23          	sw	a5,52(sp)
   1b538:	03012c23          	sw	a6,56(sp)
   1b53c:	03112e23          	sw	a7,60(sp)
   1b540:	00612623          	sw	t1,12(sp)
   1b544:	8f8f90ef          	jal	1463c <_vfiprintf_r>
   1b548:	01c12083          	lw	ra,28(sp)
   1b54c:	04010113          	add	sp,sp,64
   1b550:	00008067          	ret

0001b554 <__errno>:
   1b554:	f101a503          	lw	a0,-240(gp) # 23820 <_impure_ptr>
   1b558:	00008067          	ret

0001b55c <abort>:
   1b55c:	ff010113          	add	sp,sp,-16
   1b560:	00600513          	li	a0,6
   1b564:	00112623          	sw	ra,12(sp)
   1b568:	2a8000ef          	jal	1b810 <raise>
   1b56c:	00100513          	li	a0,1
   1b570:	670000ef          	jal	1bbe0 <_exit>

0001b574 <_init_signal_r>:
   1b574:	11852783          	lw	a5,280(a0)
   1b578:	00078663          	beqz	a5,1b584 <_init_signal_r+0x10>
   1b57c:	00000513          	li	a0,0
   1b580:	00008067          	ret
   1b584:	ff010113          	add	sp,sp,-16
   1b588:	08000593          	li	a1,128
   1b58c:	00812423          	sw	s0,8(sp)
   1b590:	00112623          	sw	ra,12(sp)
   1b594:	00050413          	mv	s0,a0
   1b598:	e39f50ef          	jal	113d0 <_malloc_r>
   1b59c:	10a42c23          	sw	a0,280(s0)
   1b5a0:	02050463          	beqz	a0,1b5c8 <_init_signal_r+0x54>
   1b5a4:	08050793          	add	a5,a0,128
   1b5a8:	00052023          	sw	zero,0(a0)
   1b5ac:	00450513          	add	a0,a0,4
   1b5b0:	fef51ce3          	bne	a0,a5,1b5a8 <_init_signal_r+0x34>
   1b5b4:	00000513          	li	a0,0
   1b5b8:	00c12083          	lw	ra,12(sp)
   1b5bc:	00812403          	lw	s0,8(sp)
   1b5c0:	01010113          	add	sp,sp,16
   1b5c4:	00008067          	ret
   1b5c8:	fff00513          	li	a0,-1
   1b5cc:	fedff06f          	j	1b5b8 <_init_signal_r+0x44>

0001b5d0 <_signal_r>:
   1b5d0:	fe010113          	add	sp,sp,-32
   1b5d4:	00912a23          	sw	s1,20(sp)
   1b5d8:	00112e23          	sw	ra,28(sp)
   1b5dc:	01f00793          	li	a5,31
   1b5e0:	00050493          	mv	s1,a0
   1b5e4:	02b7ec63          	bltu	a5,a1,1b61c <_signal_r+0x4c>
   1b5e8:	11852783          	lw	a5,280(a0)
   1b5ec:	00812c23          	sw	s0,24(sp)
   1b5f0:	00058413          	mv	s0,a1
   1b5f4:	02078c63          	beqz	a5,1b62c <_signal_r+0x5c>
   1b5f8:	00241413          	sll	s0,s0,0x2
   1b5fc:	008787b3          	add	a5,a5,s0
   1b600:	01812403          	lw	s0,24(sp)
   1b604:	0007a503          	lw	a0,0(a5)
   1b608:	00c7a023          	sw	a2,0(a5)
   1b60c:	01c12083          	lw	ra,28(sp)
   1b610:	01412483          	lw	s1,20(sp)
   1b614:	02010113          	add	sp,sp,32
   1b618:	00008067          	ret
   1b61c:	01600793          	li	a5,22
   1b620:	00f52023          	sw	a5,0(a0)
   1b624:	fff00513          	li	a0,-1
   1b628:	fe5ff06f          	j	1b60c <_signal_r+0x3c>
   1b62c:	08000593          	li	a1,128
   1b630:	00c12623          	sw	a2,12(sp)
   1b634:	d9df50ef          	jal	113d0 <_malloc_r>
   1b638:	10a4ac23          	sw	a0,280(s1)
   1b63c:	00c12603          	lw	a2,12(sp)
   1b640:	00050793          	mv	a5,a0
   1b644:	00050713          	mv	a4,a0
   1b648:	08050693          	add	a3,a0,128
   1b64c:	00050a63          	beqz	a0,1b660 <_signal_r+0x90>
   1b650:	00072023          	sw	zero,0(a4)
   1b654:	00470713          	add	a4,a4,4
   1b658:	fed71ce3          	bne	a4,a3,1b650 <_signal_r+0x80>
   1b65c:	f9dff06f          	j	1b5f8 <_signal_r+0x28>
   1b660:	01812403          	lw	s0,24(sp)
   1b664:	fff00513          	li	a0,-1
   1b668:	fa5ff06f          	j	1b60c <_signal_r+0x3c>

0001b66c <_raise_r>:
   1b66c:	ff010113          	add	sp,sp,-16
   1b670:	00912223          	sw	s1,4(sp)
   1b674:	00112623          	sw	ra,12(sp)
   1b678:	01f00793          	li	a5,31
   1b67c:	00050493          	mv	s1,a0
   1b680:	0ab7e063          	bltu	a5,a1,1b720 <_raise_r+0xb4>
   1b684:	11852783          	lw	a5,280(a0)
   1b688:	00812423          	sw	s0,8(sp)
   1b68c:	00058413          	mv	s0,a1
   1b690:	04078463          	beqz	a5,1b6d8 <_raise_r+0x6c>
   1b694:	00259713          	sll	a4,a1,0x2
   1b698:	00e787b3          	add	a5,a5,a4
   1b69c:	0007a703          	lw	a4,0(a5)
   1b6a0:	02070c63          	beqz	a4,1b6d8 <_raise_r+0x6c>
   1b6a4:	00100693          	li	a3,1
   1b6a8:	00d70c63          	beq	a4,a3,1b6c0 <_raise_r+0x54>
   1b6ac:	fff00693          	li	a3,-1
   1b6b0:	04d70863          	beq	a4,a3,1b700 <_raise_r+0x94>
   1b6b4:	0007a023          	sw	zero,0(a5)
   1b6b8:	00058513          	mv	a0,a1
   1b6bc:	000700e7          	jalr	a4
   1b6c0:	00812403          	lw	s0,8(sp)
   1b6c4:	00000513          	li	a0,0
   1b6c8:	00c12083          	lw	ra,12(sp)
   1b6cc:	00412483          	lw	s1,4(sp)
   1b6d0:	01010113          	add	sp,sp,16
   1b6d4:	00008067          	ret
   1b6d8:	00048513          	mv	a0,s1
   1b6dc:	43c000ef          	jal	1bb18 <_getpid_r>
   1b6e0:	00040613          	mv	a2,s0
   1b6e4:	00812403          	lw	s0,8(sp)
   1b6e8:	00c12083          	lw	ra,12(sp)
   1b6ec:	00050593          	mv	a1,a0
   1b6f0:	00048513          	mv	a0,s1
   1b6f4:	00412483          	lw	s1,4(sp)
   1b6f8:	01010113          	add	sp,sp,16
   1b6fc:	3b80006f          	j	1bab4 <_kill_r>
   1b700:	00812403          	lw	s0,8(sp)
   1b704:	00c12083          	lw	ra,12(sp)
   1b708:	01600793          	li	a5,22
   1b70c:	00f52023          	sw	a5,0(a0)
   1b710:	00412483          	lw	s1,4(sp)
   1b714:	00100513          	li	a0,1
   1b718:	01010113          	add	sp,sp,16
   1b71c:	00008067          	ret
   1b720:	01600793          	li	a5,22
   1b724:	00f52023          	sw	a5,0(a0)
   1b728:	fff00513          	li	a0,-1
   1b72c:	f9dff06f          	j	1b6c8 <_raise_r+0x5c>

0001b730 <__sigtramp_r>:
   1b730:	01f00793          	li	a5,31
   1b734:	0cb7ea63          	bltu	a5,a1,1b808 <__sigtramp_r+0xd8>
   1b738:	11852783          	lw	a5,280(a0)
   1b73c:	ff010113          	add	sp,sp,-16
   1b740:	00812423          	sw	s0,8(sp)
   1b744:	00912223          	sw	s1,4(sp)
   1b748:	00112623          	sw	ra,12(sp)
   1b74c:	00058413          	mv	s0,a1
   1b750:	00050493          	mv	s1,a0
   1b754:	08078063          	beqz	a5,1b7d4 <__sigtramp_r+0xa4>
   1b758:	00241713          	sll	a4,s0,0x2
   1b75c:	00e787b3          	add	a5,a5,a4
   1b760:	0007a703          	lw	a4,0(a5)
   1b764:	02070c63          	beqz	a4,1b79c <__sigtramp_r+0x6c>
   1b768:	fff00693          	li	a3,-1
   1b76c:	06d70063          	beq	a4,a3,1b7cc <__sigtramp_r+0x9c>
   1b770:	00100693          	li	a3,1
   1b774:	04d70063          	beq	a4,a3,1b7b4 <__sigtramp_r+0x84>
   1b778:	00040513          	mv	a0,s0
   1b77c:	0007a023          	sw	zero,0(a5)
   1b780:	000700e7          	jalr	a4
   1b784:	00000513          	li	a0,0
   1b788:	00c12083          	lw	ra,12(sp)
   1b78c:	00812403          	lw	s0,8(sp)
   1b790:	00412483          	lw	s1,4(sp)
   1b794:	01010113          	add	sp,sp,16
   1b798:	00008067          	ret
   1b79c:	00c12083          	lw	ra,12(sp)
   1b7a0:	00812403          	lw	s0,8(sp)
   1b7a4:	00412483          	lw	s1,4(sp)
   1b7a8:	00100513          	li	a0,1
   1b7ac:	01010113          	add	sp,sp,16
   1b7b0:	00008067          	ret
   1b7b4:	00c12083          	lw	ra,12(sp)
   1b7b8:	00812403          	lw	s0,8(sp)
   1b7bc:	00412483          	lw	s1,4(sp)
   1b7c0:	00300513          	li	a0,3
   1b7c4:	01010113          	add	sp,sp,16
   1b7c8:	00008067          	ret
   1b7cc:	00200513          	li	a0,2
   1b7d0:	fb9ff06f          	j	1b788 <__sigtramp_r+0x58>
   1b7d4:	08000593          	li	a1,128
   1b7d8:	bf9f50ef          	jal	113d0 <_malloc_r>
   1b7dc:	10a4ac23          	sw	a0,280(s1)
   1b7e0:	00050793          	mv	a5,a0
   1b7e4:	00050e63          	beqz	a0,1b800 <__sigtramp_r+0xd0>
   1b7e8:	00050713          	mv	a4,a0
   1b7ec:	08050693          	add	a3,a0,128
   1b7f0:	00072023          	sw	zero,0(a4)
   1b7f4:	00470713          	add	a4,a4,4
   1b7f8:	fed71ce3          	bne	a4,a3,1b7f0 <__sigtramp_r+0xc0>
   1b7fc:	f5dff06f          	j	1b758 <__sigtramp_r+0x28>
   1b800:	fff00513          	li	a0,-1
   1b804:	f85ff06f          	j	1b788 <__sigtramp_r+0x58>
   1b808:	fff00513          	li	a0,-1
   1b80c:	00008067          	ret

0001b810 <raise>:
   1b810:	ff010113          	add	sp,sp,-16
   1b814:	00912223          	sw	s1,4(sp)
   1b818:	00112623          	sw	ra,12(sp)
   1b81c:	01f00793          	li	a5,31
   1b820:	f101a483          	lw	s1,-240(gp) # 23820 <_impure_ptr>
   1b824:	08a7ee63          	bltu	a5,a0,1b8c0 <raise+0xb0>
   1b828:	1184a783          	lw	a5,280(s1)
   1b82c:	00812423          	sw	s0,8(sp)
   1b830:	00050413          	mv	s0,a0
   1b834:	04078263          	beqz	a5,1b878 <raise+0x68>
   1b838:	00251713          	sll	a4,a0,0x2
   1b83c:	00e787b3          	add	a5,a5,a4
   1b840:	0007a703          	lw	a4,0(a5)
   1b844:	02070a63          	beqz	a4,1b878 <raise+0x68>
   1b848:	00100693          	li	a3,1
   1b84c:	00d70a63          	beq	a4,a3,1b860 <raise+0x50>
   1b850:	fff00693          	li	a3,-1
   1b854:	04d70663          	beq	a4,a3,1b8a0 <raise+0x90>
   1b858:	0007a023          	sw	zero,0(a5)
   1b85c:	000700e7          	jalr	a4
   1b860:	00812403          	lw	s0,8(sp)
   1b864:	00000513          	li	a0,0
   1b868:	00c12083          	lw	ra,12(sp)
   1b86c:	00412483          	lw	s1,4(sp)
   1b870:	01010113          	add	sp,sp,16
   1b874:	00008067          	ret
   1b878:	00048513          	mv	a0,s1
   1b87c:	29c000ef          	jal	1bb18 <_getpid_r>
   1b880:	00040613          	mv	a2,s0
   1b884:	00812403          	lw	s0,8(sp)
   1b888:	00c12083          	lw	ra,12(sp)
   1b88c:	00050593          	mv	a1,a0
   1b890:	00048513          	mv	a0,s1
   1b894:	00412483          	lw	s1,4(sp)
   1b898:	01010113          	add	sp,sp,16
   1b89c:	2180006f          	j	1bab4 <_kill_r>
   1b8a0:	00812403          	lw	s0,8(sp)
   1b8a4:	00c12083          	lw	ra,12(sp)
   1b8a8:	01600793          	li	a5,22
   1b8ac:	00f4a023          	sw	a5,0(s1)
   1b8b0:	00100513          	li	a0,1
   1b8b4:	00412483          	lw	s1,4(sp)
   1b8b8:	01010113          	add	sp,sp,16
   1b8bc:	00008067          	ret
   1b8c0:	01600793          	li	a5,22
   1b8c4:	00f4a023          	sw	a5,0(s1)
   1b8c8:	fff00513          	li	a0,-1
   1b8cc:	f9dff06f          	j	1b868 <raise+0x58>

0001b8d0 <signal>:
   1b8d0:	ff010113          	add	sp,sp,-16
   1b8d4:	01212023          	sw	s2,0(sp)
   1b8d8:	00112623          	sw	ra,12(sp)
   1b8dc:	01f00793          	li	a5,31
   1b8e0:	f101a903          	lw	s2,-240(gp) # 23820 <_impure_ptr>
   1b8e4:	04a7e263          	bltu	a5,a0,1b928 <signal+0x58>
   1b8e8:	00812423          	sw	s0,8(sp)
   1b8ec:	00050413          	mv	s0,a0
   1b8f0:	11892503          	lw	a0,280(s2)
   1b8f4:	00912223          	sw	s1,4(sp)
   1b8f8:	00058493          	mv	s1,a1
   1b8fc:	02050e63          	beqz	a0,1b938 <signal+0x68>
   1b900:	00241413          	sll	s0,s0,0x2
   1b904:	008507b3          	add	a5,a0,s0
   1b908:	0007a503          	lw	a0,0(a5)
   1b90c:	00812403          	lw	s0,8(sp)
   1b910:	0097a023          	sw	s1,0(a5)
   1b914:	00412483          	lw	s1,4(sp)
   1b918:	00c12083          	lw	ra,12(sp)
   1b91c:	00012903          	lw	s2,0(sp)
   1b920:	01010113          	add	sp,sp,16
   1b924:	00008067          	ret
   1b928:	01600793          	li	a5,22
   1b92c:	00f92023          	sw	a5,0(s2)
   1b930:	fff00513          	li	a0,-1
   1b934:	fe5ff06f          	j	1b918 <signal+0x48>
   1b938:	08000593          	li	a1,128
   1b93c:	00090513          	mv	a0,s2
   1b940:	a91f50ef          	jal	113d0 <_malloc_r>
   1b944:	10a92c23          	sw	a0,280(s2)
   1b948:	00050793          	mv	a5,a0
   1b94c:	08050713          	add	a4,a0,128
   1b950:	00050a63          	beqz	a0,1b964 <signal+0x94>
   1b954:	0007a023          	sw	zero,0(a5)
   1b958:	00478793          	add	a5,a5,4
   1b95c:	fef71ce3          	bne	a4,a5,1b954 <signal+0x84>
   1b960:	fa1ff06f          	j	1b900 <signal+0x30>
   1b964:	00812403          	lw	s0,8(sp)
   1b968:	00412483          	lw	s1,4(sp)
   1b96c:	fff00513          	li	a0,-1
   1b970:	fa9ff06f          	j	1b918 <signal+0x48>

0001b974 <_init_signal>:
   1b974:	ff010113          	add	sp,sp,-16
   1b978:	00812423          	sw	s0,8(sp)
   1b97c:	f101a403          	lw	s0,-240(gp) # 23820 <_impure_ptr>
   1b980:	00112623          	sw	ra,12(sp)
   1b984:	11842783          	lw	a5,280(s0)
   1b988:	00078c63          	beqz	a5,1b9a0 <_init_signal+0x2c>
   1b98c:	00000513          	li	a0,0
   1b990:	00c12083          	lw	ra,12(sp)
   1b994:	00812403          	lw	s0,8(sp)
   1b998:	01010113          	add	sp,sp,16
   1b99c:	00008067          	ret
   1b9a0:	08000593          	li	a1,128
   1b9a4:	00040513          	mv	a0,s0
   1b9a8:	a29f50ef          	jal	113d0 <_malloc_r>
   1b9ac:	10a42c23          	sw	a0,280(s0)
   1b9b0:	00050c63          	beqz	a0,1b9c8 <_init_signal+0x54>
   1b9b4:	08050793          	add	a5,a0,128
   1b9b8:	00052023          	sw	zero,0(a0)
   1b9bc:	00450513          	add	a0,a0,4
   1b9c0:	fef51ce3          	bne	a0,a5,1b9b8 <_init_signal+0x44>
   1b9c4:	fc9ff06f          	j	1b98c <_init_signal+0x18>
   1b9c8:	fff00513          	li	a0,-1
   1b9cc:	fc5ff06f          	j	1b990 <_init_signal+0x1c>

0001b9d0 <__sigtramp>:
   1b9d0:	ff010113          	add	sp,sp,-16
   1b9d4:	00912223          	sw	s1,4(sp)
   1b9d8:	00112623          	sw	ra,12(sp)
   1b9dc:	01f00793          	li	a5,31
   1b9e0:	f101a483          	lw	s1,-240(gp) # 23820 <_impure_ptr>
   1b9e4:	0ca7e463          	bltu	a5,a0,1baac <__sigtramp+0xdc>
   1b9e8:	1184a783          	lw	a5,280(s1)
   1b9ec:	00812423          	sw	s0,8(sp)
   1b9f0:	00050413          	mv	s0,a0
   1b9f4:	08078263          	beqz	a5,1ba78 <__sigtramp+0xa8>
   1b9f8:	00241713          	sll	a4,s0,0x2
   1b9fc:	00e787b3          	add	a5,a5,a4
   1ba00:	0007a703          	lw	a4,0(a5)
   1ba04:	02070c63          	beqz	a4,1ba3c <__sigtramp+0x6c>
   1ba08:	fff00693          	li	a3,-1
   1ba0c:	06d70063          	beq	a4,a3,1ba6c <__sigtramp+0x9c>
   1ba10:	00100693          	li	a3,1
   1ba14:	04d70063          	beq	a4,a3,1ba54 <__sigtramp+0x84>
   1ba18:	00040513          	mv	a0,s0
   1ba1c:	0007a023          	sw	zero,0(a5)
   1ba20:	000700e7          	jalr	a4
   1ba24:	00812403          	lw	s0,8(sp)
   1ba28:	00000513          	li	a0,0
   1ba2c:	00c12083          	lw	ra,12(sp)
   1ba30:	00412483          	lw	s1,4(sp)
   1ba34:	01010113          	add	sp,sp,16
   1ba38:	00008067          	ret
   1ba3c:	00812403          	lw	s0,8(sp)
   1ba40:	00c12083          	lw	ra,12(sp)
   1ba44:	00412483          	lw	s1,4(sp)
   1ba48:	00100513          	li	a0,1
   1ba4c:	01010113          	add	sp,sp,16
   1ba50:	00008067          	ret
   1ba54:	00812403          	lw	s0,8(sp)
   1ba58:	00c12083          	lw	ra,12(sp)
   1ba5c:	00412483          	lw	s1,4(sp)
   1ba60:	00300513          	li	a0,3
   1ba64:	01010113          	add	sp,sp,16
   1ba68:	00008067          	ret
   1ba6c:	00812403          	lw	s0,8(sp)
   1ba70:	00200513          	li	a0,2
   1ba74:	fb9ff06f          	j	1ba2c <__sigtramp+0x5c>
   1ba78:	08000593          	li	a1,128
   1ba7c:	00048513          	mv	a0,s1
   1ba80:	951f50ef          	jal	113d0 <_malloc_r>
   1ba84:	10a4ac23          	sw	a0,280(s1)
   1ba88:	00050793          	mv	a5,a0
   1ba8c:	00050e63          	beqz	a0,1baa8 <__sigtramp+0xd8>
   1ba90:	00050713          	mv	a4,a0
   1ba94:	08050693          	add	a3,a0,128
   1ba98:	00072023          	sw	zero,0(a4)
   1ba9c:	00470713          	add	a4,a4,4
   1baa0:	fee69ce3          	bne	a3,a4,1ba98 <__sigtramp+0xc8>
   1baa4:	f55ff06f          	j	1b9f8 <__sigtramp+0x28>
   1baa8:	00812403          	lw	s0,8(sp)
   1baac:	fff00513          	li	a0,-1
   1bab0:	f7dff06f          	j	1ba2c <__sigtramp+0x5c>

0001bab4 <_kill_r>:
   1bab4:	ff010113          	add	sp,sp,-16
   1bab8:	00058713          	mv	a4,a1
   1babc:	00812423          	sw	s0,8(sp)
   1bac0:	00912223          	sw	s1,4(sp)
   1bac4:	00050413          	mv	s0,a0
   1bac8:	00060593          	mv	a1,a2
   1bacc:	00070513          	mv	a0,a4
   1bad0:	00112623          	sw	ra,12(sp)
   1bad4:	f201a023          	sw	zero,-224(gp) # 23830 <errno>
   1bad8:	04c000ef          	jal	1bb24 <_kill>
   1badc:	fff00793          	li	a5,-1
   1bae0:	00f50c63          	beq	a0,a5,1baf8 <_kill_r+0x44>
   1bae4:	00c12083          	lw	ra,12(sp)
   1bae8:	00812403          	lw	s0,8(sp)
   1baec:	00412483          	lw	s1,4(sp)
   1baf0:	01010113          	add	sp,sp,16
   1baf4:	00008067          	ret
   1baf8:	f201a783          	lw	a5,-224(gp) # 23830 <errno>
   1bafc:	fe0784e3          	beqz	a5,1bae4 <_kill_r+0x30>
   1bb00:	00c12083          	lw	ra,12(sp)
   1bb04:	00f42023          	sw	a5,0(s0)
   1bb08:	00812403          	lw	s0,8(sp)
   1bb0c:	00412483          	lw	s1,4(sp)
   1bb10:	01010113          	add	sp,sp,16
   1bb14:	00008067          	ret

0001bb18 <_getpid_r>:
   1bb18:	0040006f          	j	1bb1c <_getpid>

0001bb1c <_getpid>:
   1bb1c:	00100513          	li	a0,1
   1bb20:	00008067          	ret

0001bb24 <_kill>:
   1bb24:	ff010113          	add	sp,sp,-16
   1bb28:	00112623          	sw	ra,12(sp)
   1bb2c:	a29ff0ef          	jal	1b554 <__errno>
   1bb30:	00c12083          	lw	ra,12(sp)
   1bb34:	01600793          	li	a5,22
   1bb38:	00f52023          	sw	a5,0(a0)
   1bb3c:	fff00513          	li	a0,-1
   1bb40:	01010113          	add	sp,sp,16
   1bb44:	00008067          	ret
	...

0001bb50 <_close>:
   1bb50:	fe010113          	add	sp,sp,-32
   1bb54:	00912a23          	sw	s1,20(sp)
   1bb58:	00112e23          	sw	ra,28(sp)
   1bb5c:	00812c23          	sw	s0,24(sp)
   1bb60:	00050493          	mv	s1,a0
   1bb64:	12c000ef          	jal	1bc90 <__get_fdentry>
   1bb68:	06050463          	beqz	a0,1bbd0 <_close+0x80>
   1bb6c:	00052783          	lw	a5,0(a0)
   1bb70:	00c10593          	add	a1,sp,12
   1bb74:	00200513          	li	a0,2
   1bb78:	00f12623          	sw	a5,12(sp)
   1bb7c:	00000013          	nop
   1bb80:	01f01013          	sll	zero,zero,0x1f
   1bb84:	00100073          	ebreak
   1bb88:	40705013          	sra	zero,zero,0x7
   1bb8c:	00050413          	mv	s0,a0
   1bb90:	02054463          	bltz	a0,1bbb8 <_close+0x68>
   1bb94:	00051663          	bnez	a0,1bba0 <_close+0x50>
   1bb98:	00048513          	mv	a0,s1
   1bb9c:	13c000ef          	jal	1bcd8 <__remove_fdentry>
   1bba0:	01c12083          	lw	ra,28(sp)
   1bba4:	00040513          	mv	a0,s0
   1bba8:	01812403          	lw	s0,24(sp)
   1bbac:	01412483          	lw	s1,20(sp)
   1bbb0:	02010113          	add	sp,sp,32
   1bbb4:	00008067          	ret
   1bbb8:	01300513          	li	a0,19
   1bbbc:	00000593          	li	a1,0
   1bbc0:	01f01013          	sll	zero,zero,0x1f
   1bbc4:	00100073          	ebreak
   1bbc8:	40705013          	sra	zero,zero,0x7
   1bbcc:	f2a1a023          	sw	a0,-224(gp) # 23830 <errno>
   1bbd0:	fff00413          	li	s0,-1
   1bbd4:	fcdff06f          	j	1bba0 <_close+0x50>
	...

0001bbe0 <_exit>:
   1bbe0:	000205b7          	lui	a1,0x20
   1bbe4:	01800513          	li	a0,24
   1bbe8:	02658593          	add	a1,a1,38 # 20026 <__multf3+0xf46>
   1bbec:	00000013          	nop
   1bbf0:	01f01013          	sll	zero,zero,0x1f
   1bbf4:	00100073          	ebreak
   1bbf8:	40705013          	sra	zero,zero,0x7
   1bbfc:	00054463          	bltz	a0,1bc04 <_exit+0x24>
   1bc00:	0000006f          	j	1bc00 <_exit+0x20>
   1bc04:	01300513          	li	a0,19
   1bc08:	00000593          	li	a1,0
   1bc0c:	00000013          	nop
   1bc10:	01f01013          	sll	zero,zero,0x1f
   1bc14:	00100073          	ebreak
   1bc18:	40705013          	sra	zero,zero,0x7
   1bc1c:	f2a1a023          	sw	a0,-224(gp) # 23830 <errno>
   1bc20:	fe1ff06f          	j	1bc00 <_exit+0x20>
	...

0001bc2c <__add_fdentry>:
   1bc2c:	00050593          	mv	a1,a0
   1bc30:	24818813          	add	a6,gp,584 # 23b58 <fdtable>
   1bc34:	00000513          	li	a0,0
   1bc38:	24818793          	add	a5,gp,584 # 23b58 <fdtable>
   1bc3c:	fff00693          	li	a3,-1
   1bc40:	01000613          	li	a2,16
   1bc44:	0007a703          	lw	a4,0(a5)
   1bc48:	00878793          	add	a5,a5,8
   1bc4c:	02d70863          	beq	a4,a3,1bc7c <__add_fdentry+0x50>
   1bc50:	00150513          	add	a0,a0,1
   1bc54:	fec518e3          	bne	a0,a2,1bc44 <__add_fdentry+0x18>
   1bc58:	ff010113          	add	sp,sp,-16
   1bc5c:	00112623          	sw	ra,12(sp)
   1bc60:	8f5ff0ef          	jal	1b554 <__errno>
   1bc64:	00c12083          	lw	ra,12(sp)
   1bc68:	01700793          	li	a5,23
   1bc6c:	00f52023          	sw	a5,0(a0)
   1bc70:	fff00513          	li	a0,-1
   1bc74:	01010113          	add	sp,sp,16
   1bc78:	00008067          	ret
   1bc7c:	00351793          	sll	a5,a0,0x3
   1bc80:	00f80833          	add	a6,a6,a5
   1bc84:	00b82023          	sw	a1,0(a6)
   1bc88:	00082223          	sw	zero,4(a6)
   1bc8c:	00008067          	ret

0001bc90 <__get_fdentry>:
   1bc90:	00f00793          	li	a5,15
   1bc94:	02a7e063          	bltu	a5,a0,1bcb4 <__get_fdentry+0x24>
   1bc98:	00351713          	sll	a4,a0,0x3
   1bc9c:	24818513          	add	a0,gp,584 # 23b58 <fdtable>
   1bca0:	00e50533          	add	a0,a0,a4
   1bca4:	00052703          	lw	a4,0(a0)
   1bca8:	fff00793          	li	a5,-1
   1bcac:	00f70463          	beq	a4,a5,1bcb4 <__get_fdentry+0x24>
   1bcb0:	00008067          	ret
   1bcb4:	ff010113          	add	sp,sp,-16
   1bcb8:	00112623          	sw	ra,12(sp)
   1bcbc:	899ff0ef          	jal	1b554 <__errno>
   1bcc0:	00c12083          	lw	ra,12(sp)
   1bcc4:	00900793          	li	a5,9
   1bcc8:	00f52023          	sw	a5,0(a0)
   1bccc:	00000513          	li	a0,0
   1bcd0:	01010113          	add	sp,sp,16
   1bcd4:	00008067          	ret

0001bcd8 <__remove_fdentry>:
   1bcd8:	00351513          	sll	a0,a0,0x3
   1bcdc:	24818793          	add	a5,gp,584 # 23b58 <fdtable>
   1bce0:	00a787b3          	add	a5,a5,a0
   1bce4:	fff00713          	li	a4,-1
   1bce8:	00e7a023          	sw	a4,0(a5)
   1bcec:	00008067          	ret

0001bcf0 <_fstat>:
   1bcf0:	ff010113          	add	sp,sp,-16
   1bcf4:	00058793          	mv	a5,a1
   1bcf8:	00812423          	sw	s0,8(sp)
   1bcfc:	00000593          	li	a1,0
   1bd00:	00050413          	mv	s0,a0
   1bd04:	05800613          	li	a2,88
   1bd08:	00078513          	mv	a0,a5
   1bd0c:	00112623          	sw	ra,12(sp)
   1bd10:	fd5f40ef          	jal	10ce4 <memset>
   1bd14:	00050593          	mv	a1,a0
   1bd18:	00040513          	mv	a0,s0
   1bd1c:	00812403          	lw	s0,8(sp)
   1bd20:	00c12083          	lw	ra,12(sp)
   1bd24:	01010113          	add	sp,sp,16
   1bd28:	3980006f          	j	1c0c0 <__stat_common>
   1bd2c:	0000                	.insn	2, 0x
	...

0001bd30 <_isatty>:
   1bd30:	fe010113          	add	sp,sp,-32
   1bd34:	00112e23          	sw	ra,28(sp)
   1bd38:	f59ff0ef          	jal	1bc90 <__get_fdentry>
   1bd3c:	04050a63          	beqz	a0,1bd90 <_isatty+0x60>
   1bd40:	00052783          	lw	a5,0(a0)
   1bd44:	00c10593          	add	a1,sp,12
   1bd48:	00900513          	li	a0,9
   1bd4c:	00f12623          	sw	a5,12(sp)
   1bd50:	01f01013          	sll	zero,zero,0x1f
   1bd54:	00100073          	ebreak
   1bd58:	40705013          	sra	zero,zero,0x7
   1bd5c:	00054863          	bltz	a0,1bd6c <_isatty+0x3c>
   1bd60:	01c12083          	lw	ra,28(sp)
   1bd64:	02010113          	add	sp,sp,32
   1bd68:	00008067          	ret
   1bd6c:	01300513          	li	a0,19
   1bd70:	00000593          	li	a1,0
   1bd74:	00000013          	nop
   1bd78:	00000013          	nop
   1bd7c:	00000013          	nop
   1bd80:	01f01013          	sll	zero,zero,0x1f
   1bd84:	00100073          	ebreak
   1bd88:	40705013          	sra	zero,zero,0x7
   1bd8c:	f2a1a023          	sw	a0,-224(gp) # 23830 <errno>
   1bd90:	fff00513          	li	a0,-1
   1bd94:	fcdff06f          	j	1bd60 <_isatty+0x30>
	...

0001bda0 <_lseek>:
   1bda0:	fe010113          	add	sp,sp,-32
   1bda4:	00812c23          	sw	s0,24(sp)
   1bda8:	00912a23          	sw	s1,20(sp)
   1bdac:	00112e23          	sw	ra,28(sp)
   1bdb0:	00058413          	mv	s0,a1
   1bdb4:	00060493          	mv	s1,a2
   1bdb8:	ed9ff0ef          	jal	1bc90 <__get_fdentry>
   1bdbc:	0e050e63          	beqz	a0,1beb8 <_lseek+0x118>
   1bdc0:	00100713          	li	a4,1
   1bdc4:	00050793          	mv	a5,a0
   1bdc8:	08e48e63          	beq	s1,a4,1be64 <_lseek+0xc4>
   1bdcc:	00052703          	lw	a4,0(a0)
   1bdd0:	00e12423          	sw	a4,8(sp)
   1bdd4:	02048863          	beqz	s1,1be04 <_lseek+0x64>
   1bdd8:	00200713          	li	a4,2
   1bddc:	0ae49063          	bne	s1,a4,1be7c <_lseek+0xdc>
   1bde0:	00012623          	sw	zero,12(sp)
   1bde4:	00c00513          	li	a0,12
   1bde8:	00810593          	add	a1,sp,8
   1bdec:	00000013          	nop
   1bdf0:	01f01013          	sll	zero,zero,0x1f
   1bdf4:	00100073          	ebreak
   1bdf8:	40705013          	sra	zero,zero,0x7
   1bdfc:	00a40433          	add	s0,s0,a0
   1be00:	08054863          	bltz	a0,1be90 <_lseek+0xf0>
   1be04:	06044c63          	bltz	s0,1be7c <_lseek+0xdc>
   1be08:	00812623          	sw	s0,12(sp)
   1be0c:	00a00513          	li	a0,10
   1be10:	00810593          	add	a1,sp,8
   1be14:	00000013          	nop
   1be18:	00000013          	nop
   1be1c:	00000013          	nop
   1be20:	01f01013          	sll	zero,zero,0x1f
   1be24:	00100073          	ebreak
   1be28:	40705013          	sra	zero,zero,0x7
   1be2c:	06054263          	bltz	a0,1be90 <_lseek+0xf0>
   1be30:	00050c63          	beqz	a0,1be48 <_lseek+0xa8>
   1be34:	01c12083          	lw	ra,28(sp)
   1be38:	01812403          	lw	s0,24(sp)
   1be3c:	01412483          	lw	s1,20(sp)
   1be40:	02010113          	add	sp,sp,32
   1be44:	00008067          	ret
   1be48:	01c12083          	lw	ra,28(sp)
   1be4c:	0087a223          	sw	s0,4(a5)
   1be50:	00040513          	mv	a0,s0
   1be54:	01812403          	lw	s0,24(sp)
   1be58:	01412483          	lw	s1,20(sp)
   1be5c:	02010113          	add	sp,sp,32
   1be60:	00008067          	ret
   1be64:	00452503          	lw	a0,4(a0)
   1be68:	fc0406e3          	beqz	s0,1be34 <_lseek+0x94>
   1be6c:	0007a703          	lw	a4,0(a5)
   1be70:	00a40433          	add	s0,s0,a0
   1be74:	00e12423          	sw	a4,8(sp)
   1be78:	f8dff06f          	j	1be04 <_lseek+0x64>
   1be7c:	ed8ff0ef          	jal	1b554 <__errno>
   1be80:	01600793          	li	a5,22
   1be84:	00f52023          	sw	a5,0(a0)
   1be88:	fff00513          	li	a0,-1
   1be8c:	fa9ff06f          	j	1be34 <_lseek+0x94>
   1be90:	ec4ff0ef          	jal	1b554 <__errno>
   1be94:	00050793          	mv	a5,a0
   1be98:	00000593          	li	a1,0
   1be9c:	01300513          	li	a0,19
   1bea0:	01f01013          	sll	zero,zero,0x1f
   1bea4:	00100073          	ebreak
   1bea8:	40705013          	sra	zero,zero,0x7
   1beac:	00a7a023          	sw	a0,0(a5)
   1beb0:	fff00513          	li	a0,-1
   1beb4:	f81ff06f          	j	1be34 <_lseek+0x94>
   1beb8:	e9cff0ef          	jal	1b554 <__errno>
   1bebc:	00900793          	li	a5,9
   1bec0:	00f52023          	sw	a5,0(a0)
   1bec4:	fff00513          	li	a0,-1
   1bec8:	f6dff06f          	j	1be34 <_lseek+0x94>
   1becc:	0000                	.insn	2, 0x
	...

0001bed0 <_open>:
   1bed0:	fc010113          	add	sp,sp,-64
   1bed4:	02f12a23          	sw	a5,52(sp)
   1bed8:	00112e23          	sw	ra,28(sp)
   1bedc:	02c12423          	sw	a2,40(sp)
   1bee0:	02d12623          	sw	a3,44(sp)
   1bee4:	02e12823          	sw	a4,48(sp)
   1bee8:	03012c23          	sw	a6,56(sp)
   1beec:	03112e23          	sw	a7,60(sp)
   1bef0:	0035f793          	and	a5,a1,3
   1bef4:	04078063          	beqz	a5,1bf34 <_open+0x64>
   1bef8:	6015f793          	and	a5,a1,1537
   1befc:	60100713          	li	a4,1537
   1bf00:	06e78863          	beq	a5,a4,1bf70 <_open+0xa0>
   1bf04:	2095f793          	and	a5,a1,521
   1bf08:	20900713          	li	a4,521
   1bf0c:	06e78a63          	beq	a5,a4,1bf80 <_open+0xb0>
   1bf10:	6025f793          	and	a5,a1,1538
   1bf14:	60200713          	li	a4,1538
   1bf18:	06e78063          	beq	a5,a4,1bf78 <_open+0xa8>
   1bf1c:	20a5f793          	and	a5,a1,522
   1bf20:	20a00713          	li	a4,522
   1bf24:	06e78263          	beq	a5,a4,1bf88 <_open+0xb8>
   1bf28:	0025f593          	and	a1,a1,2
   1bf2c:	00200793          	li	a5,2
   1bf30:	06058063          	beqz	a1,1bf90 <_open+0xc0>
   1bf34:	00a12223          	sw	a0,4(sp)
   1bf38:	00f12423          	sw	a5,8(sp)
   1bf3c:	e85f40ef          	jal	10dc0 <strlen>
   1bf40:	00a12623          	sw	a0,12(sp)
   1bf44:	00410593          	add	a1,sp,4
   1bf48:	00100513          	li	a0,1
   1bf4c:	00000013          	nop
   1bf50:	01f01013          	sll	zero,zero,0x1f
   1bf54:	00100073          	ebreak
   1bf58:	40705013          	sra	zero,zero,0x7
   1bf5c:	04054463          	bltz	a0,1bfa4 <_open+0xd4>
   1bf60:	ccdff0ef          	jal	1bc2c <__add_fdentry>
   1bf64:	01c12083          	lw	ra,28(sp)
   1bf68:	04010113          	add	sp,sp,64
   1bf6c:	00008067          	ret
   1bf70:	00400793          	li	a5,4
   1bf74:	fc1ff06f          	j	1bf34 <_open+0x64>
   1bf78:	00600793          	li	a5,6
   1bf7c:	fb9ff06f          	j	1bf34 <_open+0x64>
   1bf80:	00800793          	li	a5,8
   1bf84:	fb1ff06f          	j	1bf34 <_open+0x64>
   1bf88:	00a00793          	li	a5,10
   1bf8c:	fa9ff06f          	j	1bf34 <_open+0x64>
   1bf90:	dc4ff0ef          	jal	1b554 <__errno>
   1bf94:	01600793          	li	a5,22
   1bf98:	00f52023          	sw	a5,0(a0)
   1bf9c:	fff00513          	li	a0,-1
   1bfa0:	fc5ff06f          	j	1bf64 <_open+0x94>
   1bfa4:	01300513          	li	a0,19
   1bfa8:	00000593          	li	a1,0
   1bfac:	00000013          	nop
   1bfb0:	01f01013          	sll	zero,zero,0x1f
   1bfb4:	00100073          	ebreak
   1bfb8:	40705013          	sra	zero,zero,0x7
   1bfbc:	f2a1a023          	sw	a0,-224(gp) # 23830 <errno>
   1bfc0:	fff00513          	li	a0,-1
   1bfc4:	fa1ff06f          	j	1bf64 <_open+0x94>
	...

0001bfd0 <_read>:
   1bfd0:	fe010113          	add	sp,sp,-32
   1bfd4:	00812c23          	sw	s0,24(sp)
   1bfd8:	00912a23          	sw	s1,20(sp)
   1bfdc:	00112e23          	sw	ra,28(sp)
   1bfe0:	00058493          	mv	s1,a1
   1bfe4:	00060413          	mv	s0,a2
   1bfe8:	ca9ff0ef          	jal	1bc90 <__get_fdentry>
   1bfec:	08050263          	beqz	a0,1c070 <_read+0xa0>
   1bff0:	00052703          	lw	a4,0(a0)
   1bff4:	00050793          	mv	a5,a0
   1bff8:	00912423          	sw	s1,8(sp)
   1bffc:	00600513          	li	a0,6
   1c000:	00e12223          	sw	a4,4(sp)
   1c004:	00812623          	sw	s0,12(sp)
   1c008:	00410593          	add	a1,sp,4
   1c00c:	00000013          	nop
   1c010:	01f01013          	sll	zero,zero,0x1f
   1c014:	00100073          	ebreak
   1c018:	40705013          	sra	zero,zero,0x7
   1c01c:	02054463          	bltz	a0,1c044 <_read+0x74>
   1c020:	0047a703          	lw	a4,4(a5)
   1c024:	40a40533          	sub	a0,s0,a0
   1c028:	01c12083          	lw	ra,28(sp)
   1c02c:	01812403          	lw	s0,24(sp)
   1c030:	00a70733          	add	a4,a4,a0
   1c034:	00e7a223          	sw	a4,4(a5)
   1c038:	01412483          	lw	s1,20(sp)
   1c03c:	02010113          	add	sp,sp,32
   1c040:	00008067          	ret
   1c044:	d10ff0ef          	jal	1b554 <__errno>
   1c048:	00050793          	mv	a5,a0
   1c04c:	00000593          	li	a1,0
   1c050:	01300513          	li	a0,19
   1c054:	00000013          	nop
   1c058:	00000013          	nop
   1c05c:	00000013          	nop
   1c060:	01f01013          	sll	zero,zero,0x1f
   1c064:	00100073          	ebreak
   1c068:	40705013          	sra	zero,zero,0x7
   1c06c:	00a7a023          	sw	a0,0(a5)
   1c070:	01c12083          	lw	ra,28(sp)
   1c074:	01812403          	lw	s0,24(sp)
   1c078:	01412483          	lw	s1,20(sp)
   1c07c:	fff00513          	li	a0,-1
   1c080:	02010113          	add	sp,sp,32
   1c084:	00008067          	ret
	...

0001c090 <_sbrk>:
   1c090:	f381a783          	lw	a5,-200(gp) # 23848 <heap_ptr>
   1c094:	00078a63          	beqz	a5,1c0a8 <_sbrk+0x18>
   1c098:	00a78533          	add	a0,a5,a0
   1c09c:	f2a1ac23          	sw	a0,-200(gp) # 23848 <heap_ptr>
   1c0a0:	00078513          	mv	a0,a5
   1c0a4:	00008067          	ret
   1c0a8:	2c818793          	add	a5,gp,712 # 23bd8 <__BSS_END__>
   1c0ac:	00a78533          	add	a0,a5,a0
   1c0b0:	f2a1ac23          	sw	a0,-200(gp) # 23848 <heap_ptr>
   1c0b4:	00078513          	mv	a0,a5
   1c0b8:	00008067          	ret
   1c0bc:	0000                	.insn	2, 0x
	...

0001c0c0 <__stat_common>:
   1c0c0:	fe010113          	add	sp,sp,-32
   1c0c4:	00812c23          	sw	s0,24(sp)
   1c0c8:	00112e23          	sw	ra,28(sp)
   1c0cc:	00058413          	mv	s0,a1
   1c0d0:	bc1ff0ef          	jal	1bc90 <__get_fdentry>
   1c0d4:	06050663          	beqz	a0,1c140 <__stat_common+0x80>
   1c0d8:	00442783          	lw	a5,4(s0)
   1c0dc:	00052703          	lw	a4,0(a0)
   1c0e0:	000026b7          	lui	a3,0x2
   1c0e4:	00d7e7b3          	or	a5,a5,a3
   1c0e8:	00f42223          	sw	a5,4(s0)
   1c0ec:	000017b7          	lui	a5,0x1
   1c0f0:	00e12623          	sw	a4,12(sp)
   1c0f4:	04f42423          	sw	a5,72(s0)
   1c0f8:	00c00513          	li	a0,12
   1c0fc:	00c10593          	add	a1,sp,12
   1c100:	01f01013          	sll	zero,zero,0x1f
   1c104:	00100073          	ebreak
   1c108:	40705013          	sra	zero,zero,0x7
   1c10c:	00054e63          	bltz	a0,1c128 <__stat_common+0x68>
   1c110:	00a42823          	sw	a0,16(s0)
   1c114:	00000513          	li	a0,0
   1c118:	01c12083          	lw	ra,28(sp)
   1c11c:	01812403          	lw	s0,24(sp)
   1c120:	02010113          	add	sp,sp,32
   1c124:	00008067          	ret
   1c128:	01300513          	li	a0,19
   1c12c:	00000593          	li	a1,0
   1c130:	01f01013          	sll	zero,zero,0x1f
   1c134:	00100073          	ebreak
   1c138:	40705013          	sra	zero,zero,0x7
   1c13c:	f2a1a023          	sw	a0,-224(gp) # 23830 <errno>
   1c140:	fff00513          	li	a0,-1
   1c144:	fd5ff06f          	j	1c118 <__stat_common+0x58>
	...

0001c150 <_write>:
   1c150:	fe010113          	add	sp,sp,-32
   1c154:	00812c23          	sw	s0,24(sp)
   1c158:	00912a23          	sw	s1,20(sp)
   1c15c:	00112e23          	sw	ra,28(sp)
   1c160:	00058493          	mv	s1,a1
   1c164:	00060413          	mv	s0,a2
   1c168:	b29ff0ef          	jal	1bc90 <__get_fdentry>
   1c16c:	06050a63          	beqz	a0,1c1e0 <_write+0x90>
   1c170:	00052703          	lw	a4,0(a0)
   1c174:	00050793          	mv	a5,a0
   1c178:	00912423          	sw	s1,8(sp)
   1c17c:	00500513          	li	a0,5
   1c180:	00e12223          	sw	a4,4(sp)
   1c184:	00812623          	sw	s0,12(sp)
   1c188:	00410593          	add	a1,sp,4
   1c18c:	00000013          	nop
   1c190:	01f01013          	sll	zero,zero,0x1f
   1c194:	00100073          	ebreak
   1c198:	40705013          	sra	zero,zero,0x7
   1c19c:	02054463          	bltz	a0,1c1c4 <_write+0x74>
   1c1a0:	0047a703          	lw	a4,4(a5) # 1004 <exit-0xf09c>
   1c1a4:	40a40533          	sub	a0,s0,a0
   1c1a8:	00a70733          	add	a4,a4,a0
   1c1ac:	00e7a223          	sw	a4,4(a5)
   1c1b0:	01c12083          	lw	ra,28(sp)
   1c1b4:	01812403          	lw	s0,24(sp)
   1c1b8:	01412483          	lw	s1,20(sp)
   1c1bc:	02010113          	add	sp,sp,32
   1c1c0:	00008067          	ret
   1c1c4:	01300513          	li	a0,19
   1c1c8:	00000593          	li	a1,0
   1c1cc:	00000013          	nop
   1c1d0:	01f01013          	sll	zero,zero,0x1f
   1c1d4:	00100073          	ebreak
   1c1d8:	40705013          	sra	zero,zero,0x7
   1c1dc:	f2a1a023          	sw	a0,-224(gp) # 23830 <errno>
   1c1e0:	fff00513          	li	a0,-1
   1c1e4:	fcdff06f          	j	1c1b0 <_write+0x60>

0001c1e8 <__udivdi3>:
   1c1e8:	fd010113          	add	sp,sp,-48
   1c1ec:	01412c23          	sw	s4,24(sp)
   1c1f0:	02112623          	sw	ra,44(sp)
   1c1f4:	02812423          	sw	s0,40(sp)
   1c1f8:	02912223          	sw	s1,36(sp)
   1c1fc:	03212023          	sw	s2,32(sp)
   1c200:	01312e23          	sw	s3,28(sp)
   1c204:	01512a23          	sw	s5,20(sp)
   1c208:	01612823          	sw	s6,16(sp)
   1c20c:	01712623          	sw	s7,12(sp)
   1c210:	01812423          	sw	s8,8(sp)
   1c214:	01912223          	sw	s9,4(sp)
   1c218:	00050a13          	mv	s4,a0
   1c21c:	38069463          	bnez	a3,1c5a4 <__udivdi3+0x3bc>
   1c220:	000227b7          	lui	a5,0x22
   1c224:	00060993          	mv	s3,a2
   1c228:	00050493          	mv	s1,a0
   1c22c:	75878793          	add	a5,a5,1880 # 22758 <__clz_tab>
   1c230:	12c5f863          	bgeu	a1,a2,1c360 <__udivdi3+0x178>
   1c234:	00010737          	lui	a4,0x10
   1c238:	00058913          	mv	s2,a1
   1c23c:	10e67863          	bgeu	a2,a4,1c34c <__udivdi3+0x164>
   1c240:	10063713          	sltiu	a4,a2,256
   1c244:	00173713          	seqz	a4,a4
   1c248:	00371713          	sll	a4,a4,0x3
   1c24c:	00e656b3          	srl	a3,a2,a4
   1c250:	00d787b3          	add	a5,a5,a3
   1c254:	0007c783          	lbu	a5,0(a5)
   1c258:	02000693          	li	a3,32
   1c25c:	00e787b3          	add	a5,a5,a4
   1c260:	40f68733          	sub	a4,a3,a5
   1c264:	00f68c63          	beq	a3,a5,1c27c <__udivdi3+0x94>
   1c268:	00e59933          	sll	s2,a1,a4
   1c26c:	00fa57b3          	srl	a5,s4,a5
   1c270:	00e619b3          	sll	s3,a2,a4
   1c274:	0127e933          	or	s2,a5,s2
   1c278:	00ea14b3          	sll	s1,s4,a4
   1c27c:	0109da93          	srl	s5,s3,0x10
   1c280:	000a8593          	mv	a1,s5
   1c284:	00090513          	mv	a0,s2
   1c288:	01099b13          	sll	s6,s3,0x10
   1c28c:	3f5050ef          	jal	21e80 <__hidden___udivsi3>
   1c290:	010b5b13          	srl	s6,s6,0x10
   1c294:	00050593          	mv	a1,a0
   1c298:	00050a13          	mv	s4,a0
   1c29c:	000b0513          	mv	a0,s6
   1c2a0:	3b5050ef          	jal	21e54 <__mulsi3>
   1c2a4:	00050413          	mv	s0,a0
   1c2a8:	000a8593          	mv	a1,s5
   1c2ac:	00090513          	mv	a0,s2
   1c2b0:	419050ef          	jal	21ec8 <__umodsi3>
   1c2b4:	01051513          	sll	a0,a0,0x10
   1c2b8:	0104d713          	srl	a4,s1,0x10
   1c2bc:	00a76733          	or	a4,a4,a0
   1c2c0:	000a0913          	mv	s2,s4
   1c2c4:	00877e63          	bgeu	a4,s0,1c2e0 <__udivdi3+0xf8>
   1c2c8:	00e98733          	add	a4,s3,a4
   1c2cc:	fffa0913          	add	s2,s4,-1
   1c2d0:	01376863          	bltu	a4,s3,1c2e0 <__udivdi3+0xf8>
   1c2d4:	00877663          	bgeu	a4,s0,1c2e0 <__udivdi3+0xf8>
   1c2d8:	ffea0913          	add	s2,s4,-2
   1c2dc:	01370733          	add	a4,a4,s3
   1c2e0:	40870433          	sub	s0,a4,s0
   1c2e4:	000a8593          	mv	a1,s5
   1c2e8:	00040513          	mv	a0,s0
   1c2ec:	395050ef          	jal	21e80 <__hidden___udivsi3>
   1c2f0:	00050593          	mv	a1,a0
   1c2f4:	00050a13          	mv	s4,a0
   1c2f8:	000b0513          	mv	a0,s6
   1c2fc:	359050ef          	jal	21e54 <__mulsi3>
   1c300:	00050b13          	mv	s6,a0
   1c304:	000a8593          	mv	a1,s5
   1c308:	00040513          	mv	a0,s0
   1c30c:	3bd050ef          	jal	21ec8 <__umodsi3>
   1c310:	01049493          	sll	s1,s1,0x10
   1c314:	01051513          	sll	a0,a0,0x10
   1c318:	0104d493          	srl	s1,s1,0x10
   1c31c:	00a4e4b3          	or	s1,s1,a0
   1c320:	000a0713          	mv	a4,s4
   1c324:	0164fc63          	bgeu	s1,s6,1c33c <__udivdi3+0x154>
   1c328:	009984b3          	add	s1,s3,s1
   1c32c:	fffa0713          	add	a4,s4,-1
   1c330:	0134e663          	bltu	s1,s3,1c33c <__udivdi3+0x154>
   1c334:	0164f463          	bgeu	s1,s6,1c33c <__udivdi3+0x154>
   1c338:	ffea0713          	add	a4,s4,-2
   1c33c:	01091793          	sll	a5,s2,0x10
   1c340:	00e7e7b3          	or	a5,a5,a4
   1c344:	00000913          	li	s2,0
   1c348:	1200006f          	j	1c468 <__udivdi3+0x280>
   1c34c:	010006b7          	lui	a3,0x1000
   1c350:	01800713          	li	a4,24
   1c354:	eed67ce3          	bgeu	a2,a3,1c24c <__udivdi3+0x64>
   1c358:	01000713          	li	a4,16
   1c35c:	ef1ff06f          	j	1c24c <__udivdi3+0x64>
   1c360:	00000713          	li	a4,0
   1c364:	00060c63          	beqz	a2,1c37c <__udivdi3+0x194>
   1c368:	00010737          	lui	a4,0x10
   1c36c:	12e67c63          	bgeu	a2,a4,1c4a4 <__udivdi3+0x2bc>
   1c370:	10063713          	sltiu	a4,a2,256
   1c374:	00173713          	seqz	a4,a4
   1c378:	00371713          	sll	a4,a4,0x3
   1c37c:	00e656b3          	srl	a3,a2,a4
   1c380:	00d787b3          	add	a5,a5,a3
   1c384:	0007c783          	lbu	a5,0(a5)
   1c388:	02000693          	li	a3,32
   1c38c:	00e787b3          	add	a5,a5,a4
   1c390:	40f68733          	sub	a4,a3,a5
   1c394:	12f69263          	bne	a3,a5,1c4b8 <__udivdi3+0x2d0>
   1c398:	40c58a33          	sub	s4,a1,a2
   1c39c:	00100913          	li	s2,1
   1c3a0:	0109db13          	srl	s6,s3,0x10
   1c3a4:	000b0593          	mv	a1,s6
   1c3a8:	000a0513          	mv	a0,s4
   1c3ac:	01099b93          	sll	s7,s3,0x10
   1c3b0:	2d1050ef          	jal	21e80 <__hidden___udivsi3>
   1c3b4:	010bdb93          	srl	s7,s7,0x10
   1c3b8:	00050593          	mv	a1,a0
   1c3bc:	00050c13          	mv	s8,a0
   1c3c0:	000b8513          	mv	a0,s7
   1c3c4:	291050ef          	jal	21e54 <__mulsi3>
   1c3c8:	00050a93          	mv	s5,a0
   1c3cc:	000b0593          	mv	a1,s6
   1c3d0:	000a0513          	mv	a0,s4
   1c3d4:	2f5050ef          	jal	21ec8 <__umodsi3>
   1c3d8:	01051513          	sll	a0,a0,0x10
   1c3dc:	0104d713          	srl	a4,s1,0x10
   1c3e0:	00a76733          	or	a4,a4,a0
   1c3e4:	000c0a13          	mv	s4,s8
   1c3e8:	01577e63          	bgeu	a4,s5,1c404 <__udivdi3+0x21c>
   1c3ec:	00e98733          	add	a4,s3,a4
   1c3f0:	fffc0a13          	add	s4,s8,-1
   1c3f4:	01376863          	bltu	a4,s3,1c404 <__udivdi3+0x21c>
   1c3f8:	01577663          	bgeu	a4,s5,1c404 <__udivdi3+0x21c>
   1c3fc:	ffec0a13          	add	s4,s8,-2
   1c400:	01370733          	add	a4,a4,s3
   1c404:	41570433          	sub	s0,a4,s5
   1c408:	000b0593          	mv	a1,s6
   1c40c:	00040513          	mv	a0,s0
   1c410:	271050ef          	jal	21e80 <__hidden___udivsi3>
   1c414:	00050593          	mv	a1,a0
   1c418:	00050a93          	mv	s5,a0
   1c41c:	000b8513          	mv	a0,s7
   1c420:	235050ef          	jal	21e54 <__mulsi3>
   1c424:	00050b93          	mv	s7,a0
   1c428:	000b0593          	mv	a1,s6
   1c42c:	00040513          	mv	a0,s0
   1c430:	299050ef          	jal	21ec8 <__umodsi3>
   1c434:	01049493          	sll	s1,s1,0x10
   1c438:	01051513          	sll	a0,a0,0x10
   1c43c:	0104d493          	srl	s1,s1,0x10
   1c440:	00a4e4b3          	or	s1,s1,a0
   1c444:	000a8713          	mv	a4,s5
   1c448:	0174fc63          	bgeu	s1,s7,1c460 <__udivdi3+0x278>
   1c44c:	009984b3          	add	s1,s3,s1
   1c450:	fffa8713          	add	a4,s5,-1
   1c454:	0134e663          	bltu	s1,s3,1c460 <__udivdi3+0x278>
   1c458:	0174f463          	bgeu	s1,s7,1c460 <__udivdi3+0x278>
   1c45c:	ffea8713          	add	a4,s5,-2
   1c460:	010a1793          	sll	a5,s4,0x10
   1c464:	00e7e7b3          	or	a5,a5,a4
   1c468:	02c12083          	lw	ra,44(sp)
   1c46c:	02812403          	lw	s0,40(sp)
   1c470:	02412483          	lw	s1,36(sp)
   1c474:	01c12983          	lw	s3,28(sp)
   1c478:	01812a03          	lw	s4,24(sp)
   1c47c:	01412a83          	lw	s5,20(sp)
   1c480:	01012b03          	lw	s6,16(sp)
   1c484:	00c12b83          	lw	s7,12(sp)
   1c488:	00812c03          	lw	s8,8(sp)
   1c48c:	00412c83          	lw	s9,4(sp)
   1c490:	00090593          	mv	a1,s2
   1c494:	00078513          	mv	a0,a5
   1c498:	02012903          	lw	s2,32(sp)
   1c49c:	03010113          	add	sp,sp,48
   1c4a0:	00008067          	ret
   1c4a4:	010006b7          	lui	a3,0x1000
   1c4a8:	01800713          	li	a4,24
   1c4ac:	ecd678e3          	bgeu	a2,a3,1c37c <__udivdi3+0x194>
   1c4b0:	01000713          	li	a4,16
   1c4b4:	ec9ff06f          	j	1c37c <__udivdi3+0x194>
   1c4b8:	00e619b3          	sll	s3,a2,a4
   1c4bc:	00f5d933          	srl	s2,a1,a5
   1c4c0:	0109db93          	srl	s7,s3,0x10
   1c4c4:	00e595b3          	sll	a1,a1,a4
   1c4c8:	00fa57b3          	srl	a5,s4,a5
   1c4cc:	00b7eab3          	or	s5,a5,a1
   1c4d0:	00ea14b3          	sll	s1,s4,a4
   1c4d4:	000b8593          	mv	a1,s7
   1c4d8:	00090513          	mv	a0,s2
   1c4dc:	01099a13          	sll	s4,s3,0x10
   1c4e0:	1a1050ef          	jal	21e80 <__hidden___udivsi3>
   1c4e4:	010a5a13          	srl	s4,s4,0x10
   1c4e8:	00050593          	mv	a1,a0
   1c4ec:	00050b13          	mv	s6,a0
   1c4f0:	000a0513          	mv	a0,s4
   1c4f4:	161050ef          	jal	21e54 <__mulsi3>
   1c4f8:	00050413          	mv	s0,a0
   1c4fc:	000b8593          	mv	a1,s7
   1c500:	00090513          	mv	a0,s2
   1c504:	1c5050ef          	jal	21ec8 <__umodsi3>
   1c508:	01051513          	sll	a0,a0,0x10
   1c50c:	010ad713          	srl	a4,s5,0x10
   1c510:	00a76733          	or	a4,a4,a0
   1c514:	000b0913          	mv	s2,s6
   1c518:	00877e63          	bgeu	a4,s0,1c534 <__udivdi3+0x34c>
   1c51c:	00e98733          	add	a4,s3,a4
   1c520:	fffb0913          	add	s2,s6,-1
   1c524:	01376863          	bltu	a4,s3,1c534 <__udivdi3+0x34c>
   1c528:	00877663          	bgeu	a4,s0,1c534 <__udivdi3+0x34c>
   1c52c:	ffeb0913          	add	s2,s6,-2
   1c530:	01370733          	add	a4,a4,s3
   1c534:	40870433          	sub	s0,a4,s0
   1c538:	000b8593          	mv	a1,s7
   1c53c:	00040513          	mv	a0,s0
   1c540:	141050ef          	jal	21e80 <__hidden___udivsi3>
   1c544:	00050593          	mv	a1,a0
   1c548:	00050b13          	mv	s6,a0
   1c54c:	000a0513          	mv	a0,s4
   1c550:	105050ef          	jal	21e54 <__mulsi3>
   1c554:	00050a13          	mv	s4,a0
   1c558:	000b8593          	mv	a1,s7
   1c55c:	00040513          	mv	a0,s0
   1c560:	169050ef          	jal	21ec8 <__umodsi3>
   1c564:	010a9793          	sll	a5,s5,0x10
   1c568:	01051513          	sll	a0,a0,0x10
   1c56c:	0107d793          	srl	a5,a5,0x10
   1c570:	00a7e7b3          	or	a5,a5,a0
   1c574:	000b0713          	mv	a4,s6
   1c578:	0147fe63          	bgeu	a5,s4,1c594 <__udivdi3+0x3ac>
   1c57c:	00f987b3          	add	a5,s3,a5
   1c580:	fffb0713          	add	a4,s6,-1
   1c584:	0137e863          	bltu	a5,s3,1c594 <__udivdi3+0x3ac>
   1c588:	0147f663          	bgeu	a5,s4,1c594 <__udivdi3+0x3ac>
   1c58c:	ffeb0713          	add	a4,s6,-2
   1c590:	013787b3          	add	a5,a5,s3
   1c594:	01091913          	sll	s2,s2,0x10
   1c598:	41478a33          	sub	s4,a5,s4
   1c59c:	00e96933          	or	s2,s2,a4
   1c5a0:	e01ff06f          	j	1c3a0 <__udivdi3+0x1b8>
   1c5a4:	1ed5ee63          	bltu	a1,a3,1c7a0 <__udivdi3+0x5b8>
   1c5a8:	000107b7          	lui	a5,0x10
   1c5ac:	04f6f463          	bgeu	a3,a5,1c5f4 <__udivdi3+0x40c>
   1c5b0:	1006b713          	sltiu	a4,a3,256
   1c5b4:	00173713          	seqz	a4,a4
   1c5b8:	00371713          	sll	a4,a4,0x3
   1c5bc:	000227b7          	lui	a5,0x22
   1c5c0:	00e6d533          	srl	a0,a3,a4
   1c5c4:	75878793          	add	a5,a5,1880 # 22758 <__clz_tab>
   1c5c8:	00a787b3          	add	a5,a5,a0
   1c5cc:	0007c803          	lbu	a6,0(a5)
   1c5d0:	02000793          	li	a5,32
   1c5d4:	00e80833          	add	a6,a6,a4
   1c5d8:	41078933          	sub	s2,a5,a6
   1c5dc:	03079663          	bne	a5,a6,1c608 <__udivdi3+0x420>
   1c5e0:	00100793          	li	a5,1
   1c5e4:	e8b6e2e3          	bltu	a3,a1,1c468 <__udivdi3+0x280>
   1c5e8:	00ca37b3          	sltu	a5,s4,a2
   1c5ec:	0017b793          	seqz	a5,a5
   1c5f0:	e79ff06f          	j	1c468 <__udivdi3+0x280>
   1c5f4:	010007b7          	lui	a5,0x1000
   1c5f8:	01800713          	li	a4,24
   1c5fc:	fcf6f0e3          	bgeu	a3,a5,1c5bc <__udivdi3+0x3d4>
   1c600:	01000713          	li	a4,16
   1c604:	fb9ff06f          	j	1c5bc <__udivdi3+0x3d4>
   1c608:	012696b3          	sll	a3,a3,s2
   1c60c:	01065b33          	srl	s6,a2,a6
   1c610:	00db6b33          	or	s6,s6,a3
   1c614:	0105d4b3          	srl	s1,a1,a6
   1c618:	010b5c13          	srl	s8,s6,0x10
   1c61c:	010a5833          	srl	a6,s4,a6
   1c620:	012595b3          	sll	a1,a1,s2
   1c624:	00b869b3          	or	s3,a6,a1
   1c628:	00048513          	mv	a0,s1
   1c62c:	000c0593          	mv	a1,s8
   1c630:	010b1b93          	sll	s7,s6,0x10
   1c634:	01261433          	sll	s0,a2,s2
   1c638:	010bdb93          	srl	s7,s7,0x10
   1c63c:	045050ef          	jal	21e80 <__hidden___udivsi3>
   1c640:	00050593          	mv	a1,a0
   1c644:	00050c93          	mv	s9,a0
   1c648:	000b8513          	mv	a0,s7
   1c64c:	009050ef          	jal	21e54 <__mulsi3>
   1c650:	00050a93          	mv	s5,a0
   1c654:	000c0593          	mv	a1,s8
   1c658:	00048513          	mv	a0,s1
   1c65c:	06d050ef          	jal	21ec8 <__umodsi3>
   1c660:	01051513          	sll	a0,a0,0x10
   1c664:	0109d693          	srl	a3,s3,0x10
   1c668:	00a6e6b3          	or	a3,a3,a0
   1c66c:	000c8493          	mv	s1,s9
   1c670:	0156fe63          	bgeu	a3,s5,1c68c <__udivdi3+0x4a4>
   1c674:	00db06b3          	add	a3,s6,a3
   1c678:	fffc8493          	add	s1,s9,-1
   1c67c:	0166e863          	bltu	a3,s6,1c68c <__udivdi3+0x4a4>
   1c680:	0156f663          	bgeu	a3,s5,1c68c <__udivdi3+0x4a4>
   1c684:	ffec8493          	add	s1,s9,-2
   1c688:	016686b3          	add	a3,a3,s6
   1c68c:	41568ab3          	sub	s5,a3,s5
   1c690:	000c0593          	mv	a1,s8
   1c694:	000a8513          	mv	a0,s5
   1c698:	7e8050ef          	jal	21e80 <__hidden___udivsi3>
   1c69c:	00050593          	mv	a1,a0
   1c6a0:	00050c93          	mv	s9,a0
   1c6a4:	000b8513          	mv	a0,s7
   1c6a8:	7ac050ef          	jal	21e54 <__mulsi3>
   1c6ac:	00050b93          	mv	s7,a0
   1c6b0:	000c0593          	mv	a1,s8
   1c6b4:	000a8513          	mv	a0,s5
   1c6b8:	011050ef          	jal	21ec8 <__umodsi3>
   1c6bc:	01099713          	sll	a4,s3,0x10
   1c6c0:	01051513          	sll	a0,a0,0x10
   1c6c4:	01075713          	srl	a4,a4,0x10
   1c6c8:	00a76733          	or	a4,a4,a0
   1c6cc:	000c8693          	mv	a3,s9
   1c6d0:	01777e63          	bgeu	a4,s7,1c6ec <__udivdi3+0x504>
   1c6d4:	00eb0733          	add	a4,s6,a4
   1c6d8:	fffc8693          	add	a3,s9,-1
   1c6dc:	01676863          	bltu	a4,s6,1c6ec <__udivdi3+0x504>
   1c6e0:	01777663          	bgeu	a4,s7,1c6ec <__udivdi3+0x504>
   1c6e4:	ffec8693          	add	a3,s9,-2
   1c6e8:	01670733          	add	a4,a4,s6
   1c6ec:	01049793          	sll	a5,s1,0x10
   1c6f0:	00010e37          	lui	t3,0x10
   1c6f4:	00d7e7b3          	or	a5,a5,a3
   1c6f8:	fffe0313          	add	t1,t3,-1 # ffff <exit-0xa1>
   1c6fc:	0067f8b3          	and	a7,a5,t1
   1c700:	00647333          	and	t1,s0,t1
   1c704:	41770733          	sub	a4,a4,s7
   1c708:	0107de93          	srl	t4,a5,0x10
   1c70c:	01045413          	srl	s0,s0,0x10
   1c710:	00088513          	mv	a0,a7
   1c714:	00030593          	mv	a1,t1
   1c718:	73c050ef          	jal	21e54 <__mulsi3>
   1c71c:	00050813          	mv	a6,a0
   1c720:	00040593          	mv	a1,s0
   1c724:	00088513          	mv	a0,a7
   1c728:	72c050ef          	jal	21e54 <__mulsi3>
   1c72c:	00050893          	mv	a7,a0
   1c730:	00030593          	mv	a1,t1
   1c734:	000e8513          	mv	a0,t4
   1c738:	71c050ef          	jal	21e54 <__mulsi3>
   1c73c:	00050313          	mv	t1,a0
   1c740:	00040593          	mv	a1,s0
   1c744:	000e8513          	mv	a0,t4
   1c748:	70c050ef          	jal	21e54 <__mulsi3>
   1c74c:	01085693          	srl	a3,a6,0x10
   1c750:	006888b3          	add	a7,a7,t1
   1c754:	011686b3          	add	a3,a3,a7
   1c758:	00050613          	mv	a2,a0
   1c75c:	0066f463          	bgeu	a3,t1,1c764 <__udivdi3+0x57c>
   1c760:	01c50633          	add	a2,a0,t3
   1c764:	0106d593          	srl	a1,a3,0x10
   1c768:	00c58633          	add	a2,a1,a2
   1c76c:	02c76663          	bltu	a4,a2,1c798 <__udivdi3+0x5b0>
   1c770:	bcc71ae3          	bne	a4,a2,1c344 <__udivdi3+0x15c>
   1c774:	00010637          	lui	a2,0x10
   1c778:	fff60613          	add	a2,a2,-1 # ffff <exit-0xa1>
   1c77c:	00c6f6b3          	and	a3,a3,a2
   1c780:	01069693          	sll	a3,a3,0x10
   1c784:	00c87833          	and	a6,a6,a2
   1c788:	012a1733          	sll	a4,s4,s2
   1c78c:	010686b3          	add	a3,a3,a6
   1c790:	00000913          	li	s2,0
   1c794:	ccd77ae3          	bgeu	a4,a3,1c468 <__udivdi3+0x280>
   1c798:	fff78793          	add	a5,a5,-1 # ffffff <__BSS_END__+0xfdc427>
   1c79c:	ba9ff06f          	j	1c344 <__udivdi3+0x15c>
   1c7a0:	00000913          	li	s2,0
   1c7a4:	00000793          	li	a5,0
   1c7a8:	cc1ff06f          	j	1c468 <__udivdi3+0x280>

0001c7ac <__umoddi3>:
   1c7ac:	fd010113          	add	sp,sp,-48
   1c7b0:	02812423          	sw	s0,40(sp)
   1c7b4:	02912223          	sw	s1,36(sp)
   1c7b8:	02112623          	sw	ra,44(sp)
   1c7bc:	03212023          	sw	s2,32(sp)
   1c7c0:	01312e23          	sw	s3,28(sp)
   1c7c4:	01412c23          	sw	s4,24(sp)
   1c7c8:	01512a23          	sw	s5,20(sp)
   1c7cc:	01612823          	sw	s6,16(sp)
   1c7d0:	01712623          	sw	s7,12(sp)
   1c7d4:	01812423          	sw	s8,8(sp)
   1c7d8:	01912223          	sw	s9,4(sp)
   1c7dc:	01a12023          	sw	s10,0(sp)
   1c7e0:	00050413          	mv	s0,a0
   1c7e4:	00058493          	mv	s1,a1
   1c7e8:	24069c63          	bnez	a3,1ca40 <__umoddi3+0x294>
   1c7ec:	000227b7          	lui	a5,0x22
   1c7f0:	00060993          	mv	s3,a2
   1c7f4:	75878793          	add	a5,a5,1880 # 22758 <__clz_tab>
   1c7f8:	12c5fe63          	bgeu	a1,a2,1c934 <__umoddi3+0x188>
   1c7fc:	00010737          	lui	a4,0x10
   1c800:	12e67063          	bgeu	a2,a4,1c920 <__umoddi3+0x174>
   1c804:	10063713          	sltiu	a4,a2,256
   1c808:	00173713          	seqz	a4,a4
   1c80c:	00371713          	sll	a4,a4,0x3
   1c810:	00e656b3          	srl	a3,a2,a4
   1c814:	00d787b3          	add	a5,a5,a3
   1c818:	0007c783          	lbu	a5,0(a5)
   1c81c:	00e787b3          	add	a5,a5,a4
   1c820:	02000713          	li	a4,32
   1c824:	40f70933          	sub	s2,a4,a5
   1c828:	00f70c63          	beq	a4,a5,1c840 <__umoddi3+0x94>
   1c82c:	012594b3          	sll	s1,a1,s2
   1c830:	00f557b3          	srl	a5,a0,a5
   1c834:	012619b3          	sll	s3,a2,s2
   1c838:	0097e4b3          	or	s1,a5,s1
   1c83c:	01251433          	sll	s0,a0,s2
   1c840:	0109da93          	srl	s5,s3,0x10
   1c844:	000a8593          	mv	a1,s5
   1c848:	01099b13          	sll	s6,s3,0x10
   1c84c:	00048513          	mv	a0,s1
   1c850:	630050ef          	jal	21e80 <__hidden___udivsi3>
   1c854:	010b5b13          	srl	s6,s6,0x10
   1c858:	000b0593          	mv	a1,s6
   1c85c:	5f8050ef          	jal	21e54 <__mulsi3>
   1c860:	00050a13          	mv	s4,a0
   1c864:	000a8593          	mv	a1,s5
   1c868:	00048513          	mv	a0,s1
   1c86c:	65c050ef          	jal	21ec8 <__umodsi3>
   1c870:	01051513          	sll	a0,a0,0x10
   1c874:	01045793          	srl	a5,s0,0x10
   1c878:	00a7e7b3          	or	a5,a5,a0
   1c87c:	0147fa63          	bgeu	a5,s4,1c890 <__umoddi3+0xe4>
   1c880:	00f987b3          	add	a5,s3,a5
   1c884:	0137e663          	bltu	a5,s3,1c890 <__umoddi3+0xe4>
   1c888:	0147f463          	bgeu	a5,s4,1c890 <__umoddi3+0xe4>
   1c88c:	013787b3          	add	a5,a5,s3
   1c890:	414784b3          	sub	s1,a5,s4
   1c894:	000a8593          	mv	a1,s5
   1c898:	00048513          	mv	a0,s1
   1c89c:	5e4050ef          	jal	21e80 <__hidden___udivsi3>
   1c8a0:	000b0593          	mv	a1,s6
   1c8a4:	5b0050ef          	jal	21e54 <__mulsi3>
   1c8a8:	00050a13          	mv	s4,a0
   1c8ac:	000a8593          	mv	a1,s5
   1c8b0:	00048513          	mv	a0,s1
   1c8b4:	614050ef          	jal	21ec8 <__umodsi3>
   1c8b8:	01041413          	sll	s0,s0,0x10
   1c8bc:	01051513          	sll	a0,a0,0x10
   1c8c0:	01045413          	srl	s0,s0,0x10
   1c8c4:	00a46433          	or	s0,s0,a0
   1c8c8:	01447a63          	bgeu	s0,s4,1c8dc <__umoddi3+0x130>
   1c8cc:	00898433          	add	s0,s3,s0
   1c8d0:	01346663          	bltu	s0,s3,1c8dc <__umoddi3+0x130>
   1c8d4:	01447463          	bgeu	s0,s4,1c8dc <__umoddi3+0x130>
   1c8d8:	01340433          	add	s0,s0,s3
   1c8dc:	41440433          	sub	s0,s0,s4
   1c8e0:	01245533          	srl	a0,s0,s2
   1c8e4:	00000593          	li	a1,0
   1c8e8:	02c12083          	lw	ra,44(sp)
   1c8ec:	02812403          	lw	s0,40(sp)
   1c8f0:	02412483          	lw	s1,36(sp)
   1c8f4:	02012903          	lw	s2,32(sp)
   1c8f8:	01c12983          	lw	s3,28(sp)
   1c8fc:	01812a03          	lw	s4,24(sp)
   1c900:	01412a83          	lw	s5,20(sp)
   1c904:	01012b03          	lw	s6,16(sp)
   1c908:	00c12b83          	lw	s7,12(sp)
   1c90c:	00812c03          	lw	s8,8(sp)
   1c910:	00412c83          	lw	s9,4(sp)
   1c914:	00012d03          	lw	s10,0(sp)
   1c918:	03010113          	add	sp,sp,48
   1c91c:	00008067          	ret
   1c920:	010006b7          	lui	a3,0x1000
   1c924:	01800713          	li	a4,24
   1c928:	eed674e3          	bgeu	a2,a3,1c810 <__umoddi3+0x64>
   1c92c:	01000713          	li	a4,16
   1c930:	ee1ff06f          	j	1c810 <__umoddi3+0x64>
   1c934:	00000713          	li	a4,0
   1c938:	00060c63          	beqz	a2,1c950 <__umoddi3+0x1a4>
   1c93c:	00010737          	lui	a4,0x10
   1c940:	0ee67663          	bgeu	a2,a4,1ca2c <__umoddi3+0x280>
   1c944:	10063713          	sltiu	a4,a2,256
   1c948:	00173713          	seqz	a4,a4
   1c94c:	00371713          	sll	a4,a4,0x3
   1c950:	00e656b3          	srl	a3,a2,a4
   1c954:	00d787b3          	add	a5,a5,a3
   1c958:	0007c783          	lbu	a5,0(a5)
   1c95c:	40c584b3          	sub	s1,a1,a2
   1c960:	00e787b3          	add	a5,a5,a4
   1c964:	02000713          	li	a4,32
   1c968:	40f70933          	sub	s2,a4,a5
   1c96c:	ecf70ae3          	beq	a4,a5,1c840 <__umoddi3+0x94>
   1c970:	012619b3          	sll	s3,a2,s2
   1c974:	00f5dbb3          	srl	s7,a1,a5
   1c978:	0109db13          	srl	s6,s3,0x10
   1c97c:	00f557b3          	srl	a5,a0,a5
   1c980:	012595b3          	sll	a1,a1,s2
   1c984:	00b7ea33          	or	s4,a5,a1
   1c988:	01251433          	sll	s0,a0,s2
   1c98c:	000b0593          	mv	a1,s6
   1c990:	01099a93          	sll	s5,s3,0x10
   1c994:	000b8513          	mv	a0,s7
   1c998:	4e8050ef          	jal	21e80 <__hidden___udivsi3>
   1c99c:	010ada93          	srl	s5,s5,0x10
   1c9a0:	000a8593          	mv	a1,s5
   1c9a4:	4b0050ef          	jal	21e54 <__mulsi3>
   1c9a8:	00050493          	mv	s1,a0
   1c9ac:	000b0593          	mv	a1,s6
   1c9b0:	000b8513          	mv	a0,s7
   1c9b4:	514050ef          	jal	21ec8 <__umodsi3>
   1c9b8:	01051513          	sll	a0,a0,0x10
   1c9bc:	010a5713          	srl	a4,s4,0x10
   1c9c0:	00a76733          	or	a4,a4,a0
   1c9c4:	00977a63          	bgeu	a4,s1,1c9d8 <__umoddi3+0x22c>
   1c9c8:	00e98733          	add	a4,s3,a4
   1c9cc:	01376663          	bltu	a4,s3,1c9d8 <__umoddi3+0x22c>
   1c9d0:	00977463          	bgeu	a4,s1,1c9d8 <__umoddi3+0x22c>
   1c9d4:	01370733          	add	a4,a4,s3
   1c9d8:	409704b3          	sub	s1,a4,s1
   1c9dc:	000b0593          	mv	a1,s6
   1c9e0:	00048513          	mv	a0,s1
   1c9e4:	49c050ef          	jal	21e80 <__hidden___udivsi3>
   1c9e8:	000a8593          	mv	a1,s5
   1c9ec:	468050ef          	jal	21e54 <__mulsi3>
   1c9f0:	00050a93          	mv	s5,a0
   1c9f4:	000b0593          	mv	a1,s6
   1c9f8:	00048513          	mv	a0,s1
   1c9fc:	4cc050ef          	jal	21ec8 <__umodsi3>
   1ca00:	010a1793          	sll	a5,s4,0x10
   1ca04:	01051513          	sll	a0,a0,0x10
   1ca08:	0107d793          	srl	a5,a5,0x10
   1ca0c:	00a7e7b3          	or	a5,a5,a0
   1ca10:	0157fa63          	bgeu	a5,s5,1ca24 <__umoddi3+0x278>
   1ca14:	00f987b3          	add	a5,s3,a5
   1ca18:	0137e663          	bltu	a5,s3,1ca24 <__umoddi3+0x278>
   1ca1c:	0157f463          	bgeu	a5,s5,1ca24 <__umoddi3+0x278>
   1ca20:	013787b3          	add	a5,a5,s3
   1ca24:	415784b3          	sub	s1,a5,s5
   1ca28:	e19ff06f          	j	1c840 <__umoddi3+0x94>
   1ca2c:	010006b7          	lui	a3,0x1000
   1ca30:	01800713          	li	a4,24
   1ca34:	f0d67ee3          	bgeu	a2,a3,1c950 <__umoddi3+0x1a4>
   1ca38:	01000713          	li	a4,16
   1ca3c:	f15ff06f          	j	1c950 <__umoddi3+0x1a4>
   1ca40:	ead5e4e3          	bltu	a1,a3,1c8e8 <__umoddi3+0x13c>
   1ca44:	000107b7          	lui	a5,0x10
   1ca48:	04f6fe63          	bgeu	a3,a5,1caa4 <__umoddi3+0x2f8>
   1ca4c:	1006b793          	sltiu	a5,a3,256
   1ca50:	0017b793          	seqz	a5,a5
   1ca54:	00379793          	sll	a5,a5,0x3
   1ca58:	00022737          	lui	a4,0x22
   1ca5c:	00f6d833          	srl	a6,a3,a5
   1ca60:	75870713          	add	a4,a4,1880 # 22758 <__clz_tab>
   1ca64:	01070733          	add	a4,a4,a6
   1ca68:	00074a83          	lbu	s5,0(a4)
   1ca6c:	00fa8ab3          	add	s5,s5,a5
   1ca70:	02000793          	li	a5,32
   1ca74:	41578a33          	sub	s4,a5,s5
   1ca78:	05579063          	bne	a5,s5,1cab8 <__umoddi3+0x30c>
   1ca7c:	00b6e463          	bltu	a3,a1,1ca84 <__umoddi3+0x2d8>
   1ca80:	00c56c63          	bltu	a0,a2,1ca98 <__umoddi3+0x2ec>
   1ca84:	40c50933          	sub	s2,a0,a2
   1ca88:	40d586b3          	sub	a3,a1,a3
   1ca8c:	012534b3          	sltu	s1,a0,s2
   1ca90:	00090413          	mv	s0,s2
   1ca94:	409684b3          	sub	s1,a3,s1
   1ca98:	00040513          	mv	a0,s0
   1ca9c:	00048593          	mv	a1,s1
   1caa0:	e49ff06f          	j	1c8e8 <__umoddi3+0x13c>
   1caa4:	01000737          	lui	a4,0x1000
   1caa8:	01800793          	li	a5,24
   1caac:	fae6f6e3          	bgeu	a3,a4,1ca58 <__umoddi3+0x2ac>
   1cab0:	01000793          	li	a5,16
   1cab4:	fa5ff06f          	j	1ca58 <__umoddi3+0x2ac>
   1cab8:	014696b3          	sll	a3,a3,s4
   1cabc:	01565bb3          	srl	s7,a2,s5
   1cac0:	00dbebb3          	or	s7,s7,a3
   1cac4:	0155d9b3          	srl	s3,a1,s5
   1cac8:	01555433          	srl	s0,a0,s5
   1cacc:	014595b3          	sll	a1,a1,s4
   1cad0:	010bd493          	srl	s1,s7,0x10
   1cad4:	00b46433          	or	s0,s0,a1
   1cad8:	01451b33          	sll	s6,a0,s4
   1cadc:	00048593          	mv	a1,s1
   1cae0:	00098513          	mv	a0,s3
   1cae4:	010b9c13          	sll	s8,s7,0x10
   1cae8:	01461933          	sll	s2,a2,s4
   1caec:	010c5c13          	srl	s8,s8,0x10
   1caf0:	390050ef          	jal	21e80 <__hidden___udivsi3>
   1caf4:	00050593          	mv	a1,a0
   1caf8:	00050d13          	mv	s10,a0
   1cafc:	000c0513          	mv	a0,s8
   1cb00:	354050ef          	jal	21e54 <__mulsi3>
   1cb04:	00050c93          	mv	s9,a0
   1cb08:	00048593          	mv	a1,s1
   1cb0c:	00098513          	mv	a0,s3
   1cb10:	3b8050ef          	jal	21ec8 <__umodsi3>
   1cb14:	01051513          	sll	a0,a0,0x10
   1cb18:	01045793          	srl	a5,s0,0x10
   1cb1c:	00a7e7b3          	or	a5,a5,a0
   1cb20:	000d0993          	mv	s3,s10
   1cb24:	0197fe63          	bgeu	a5,s9,1cb40 <__umoddi3+0x394>
   1cb28:	00fb87b3          	add	a5,s7,a5
   1cb2c:	fffd0993          	add	s3,s10,-1
   1cb30:	0177e863          	bltu	a5,s7,1cb40 <__umoddi3+0x394>
   1cb34:	0197f663          	bgeu	a5,s9,1cb40 <__umoddi3+0x394>
   1cb38:	ffed0993          	add	s3,s10,-2
   1cb3c:	017787b3          	add	a5,a5,s7
   1cb40:	41978cb3          	sub	s9,a5,s9
   1cb44:	00048593          	mv	a1,s1
   1cb48:	000c8513          	mv	a0,s9
   1cb4c:	334050ef          	jal	21e80 <__hidden___udivsi3>
   1cb50:	00050593          	mv	a1,a0
   1cb54:	00050d13          	mv	s10,a0
   1cb58:	000c0513          	mv	a0,s8
   1cb5c:	2f8050ef          	jal	21e54 <__mulsi3>
   1cb60:	00048593          	mv	a1,s1
   1cb64:	00050c13          	mv	s8,a0
   1cb68:	000c8513          	mv	a0,s9
   1cb6c:	35c050ef          	jal	21ec8 <__umodsi3>
   1cb70:	01041593          	sll	a1,s0,0x10
   1cb74:	01051513          	sll	a0,a0,0x10
   1cb78:	0105d593          	srl	a1,a1,0x10
   1cb7c:	00a5e5b3          	or	a1,a1,a0
   1cb80:	000d0793          	mv	a5,s10
   1cb84:	0185fe63          	bgeu	a1,s8,1cba0 <__umoddi3+0x3f4>
   1cb88:	00bb85b3          	add	a1,s7,a1
   1cb8c:	fffd0793          	add	a5,s10,-1
   1cb90:	0175e863          	bltu	a1,s7,1cba0 <__umoddi3+0x3f4>
   1cb94:	0185f663          	bgeu	a1,s8,1cba0 <__umoddi3+0x3f4>
   1cb98:	ffed0793          	add	a5,s10,-2
   1cb9c:	017585b3          	add	a1,a1,s7
   1cba0:	00010e37          	lui	t3,0x10
   1cba4:	01099993          	sll	s3,s3,0x10
   1cba8:	00f9e9b3          	or	s3,s3,a5
   1cbac:	fffe0793          	add	a5,t3,-1 # ffff <exit-0xa1>
   1cbb0:	00f9f733          	and	a4,s3,a5
   1cbb4:	00f977b3          	and	a5,s2,a5
   1cbb8:	418584b3          	sub	s1,a1,s8
   1cbbc:	0109d993          	srl	s3,s3,0x10
   1cbc0:	01095313          	srl	t1,s2,0x10
   1cbc4:	00070513          	mv	a0,a4
   1cbc8:	00078593          	mv	a1,a5
   1cbcc:	288050ef          	jal	21e54 <__mulsi3>
   1cbd0:	00050813          	mv	a6,a0
   1cbd4:	00030593          	mv	a1,t1
   1cbd8:	00070513          	mv	a0,a4
   1cbdc:	278050ef          	jal	21e54 <__mulsi3>
   1cbe0:	00050713          	mv	a4,a0
   1cbe4:	00078593          	mv	a1,a5
   1cbe8:	00098513          	mv	a0,s3
   1cbec:	268050ef          	jal	21e54 <__mulsi3>
   1cbf0:	00050893          	mv	a7,a0
   1cbf4:	00030593          	mv	a1,t1
   1cbf8:	00098513          	mv	a0,s3
   1cbfc:	258050ef          	jal	21e54 <__mulsi3>
   1cc00:	01085793          	srl	a5,a6,0x10
   1cc04:	01170733          	add	a4,a4,a7
   1cc08:	00e787b3          	add	a5,a5,a4
   1cc0c:	00050693          	mv	a3,a0
   1cc10:	0117f463          	bgeu	a5,a7,1cc18 <__umoddi3+0x46c>
   1cc14:	01c506b3          	add	a3,a0,t3
   1cc18:	0107d713          	srl	a4,a5,0x10
   1cc1c:	00d70733          	add	a4,a4,a3
   1cc20:	000106b7          	lui	a3,0x10
   1cc24:	fff68693          	add	a3,a3,-1 # ffff <exit-0xa1>
   1cc28:	00d7f7b3          	and	a5,a5,a3
   1cc2c:	01079793          	sll	a5,a5,0x10
   1cc30:	00d87833          	and	a6,a6,a3
   1cc34:	010787b3          	add	a5,a5,a6
   1cc38:	00e4e663          	bltu	s1,a4,1cc44 <__umoddi3+0x498>
   1cc3c:	00e49e63          	bne	s1,a4,1cc58 <__umoddi3+0x4ac>
   1cc40:	00fb7c63          	bgeu	s6,a5,1cc58 <__umoddi3+0x4ac>
   1cc44:	41278933          	sub	s2,a5,s2
   1cc48:	0127b6b3          	sltu	a3,a5,s2
   1cc4c:	017686b3          	add	a3,a3,s7
   1cc50:	00090793          	mv	a5,s2
   1cc54:	40d70733          	sub	a4,a4,a3
   1cc58:	40fb07b3          	sub	a5,s6,a5
   1cc5c:	00fb3b33          	sltu	s6,s6,a5
   1cc60:	40e485b3          	sub	a1,s1,a4
   1cc64:	416585b3          	sub	a1,a1,s6
   1cc68:	01559ab3          	sll	s5,a1,s5
   1cc6c:	0147d7b3          	srl	a5,a5,s4
   1cc70:	00fae533          	or	a0,s5,a5
   1cc74:	0145d5b3          	srl	a1,a1,s4
   1cc78:	c71ff06f          	j	1c8e8 <__umoddi3+0x13c>

0001cc7c <__adddf3>:
   1cc7c:	00100837          	lui	a6,0x100
   1cc80:	fff80813          	add	a6,a6,-1 # fffff <__BSS_END__+0xdc427>
   1cc84:	fe010113          	add	sp,sp,-32
   1cc88:	00b878b3          	and	a7,a6,a1
   1cc8c:	0145d713          	srl	a4,a1,0x14
   1cc90:	01d55793          	srl	a5,a0,0x1d
   1cc94:	00d87833          	and	a6,a6,a3
   1cc98:	00912a23          	sw	s1,20(sp)
   1cc9c:	7ff77493          	and	s1,a4,2047
   1cca0:	00389713          	sll	a4,a7,0x3
   1cca4:	0146d893          	srl	a7,a3,0x14
   1cca8:	00381813          	sll	a6,a6,0x3
   1ccac:	01212823          	sw	s2,16(sp)
   1ccb0:	00e7e7b3          	or	a5,a5,a4
   1ccb4:	7ff8f893          	and	a7,a7,2047
   1ccb8:	01d65713          	srl	a4,a2,0x1d
   1ccbc:	00112e23          	sw	ra,28(sp)
   1ccc0:	00812c23          	sw	s0,24(sp)
   1ccc4:	01312623          	sw	s3,12(sp)
   1ccc8:	01f5d913          	srl	s2,a1,0x1f
   1cccc:	01f6d693          	srl	a3,a3,0x1f
   1ccd0:	01076733          	or	a4,a4,a6
   1ccd4:	00351513          	sll	a0,a0,0x3
   1ccd8:	00361613          	sll	a2,a2,0x3
   1ccdc:	41148833          	sub	a6,s1,a7
   1cce0:	2ad91a63          	bne	s2,a3,1cf94 <__adddf3+0x318>
   1cce4:	11005c63          	blez	a6,1cdfc <__adddf3+0x180>
   1cce8:	04089063          	bnez	a7,1cd28 <__adddf3+0xac>
   1ccec:	00c766b3          	or	a3,a4,a2
   1ccf0:	66068063          	beqz	a3,1d350 <__adddf3+0x6d4>
   1ccf4:	fff80593          	add	a1,a6,-1
   1ccf8:	02059063          	bnez	a1,1cd18 <__adddf3+0x9c>
   1ccfc:	00c50633          	add	a2,a0,a2
   1cd00:	00a636b3          	sltu	a3,a2,a0
   1cd04:	00e78733          	add	a4,a5,a4
   1cd08:	00060513          	mv	a0,a2
   1cd0c:	00d707b3          	add	a5,a4,a3
   1cd10:	00100493          	li	s1,1
   1cd14:	06c0006f          	j	1cd80 <__adddf3+0x104>
   1cd18:	7ff00693          	li	a3,2047
   1cd1c:	02d81063          	bne	a6,a3,1cd3c <__adddf3+0xc0>
   1cd20:	7ff00493          	li	s1,2047
   1cd24:	1f80006f          	j	1cf1c <__adddf3+0x2a0>
   1cd28:	7ff00693          	li	a3,2047
   1cd2c:	1ed48863          	beq	s1,a3,1cf1c <__adddf3+0x2a0>
   1cd30:	008006b7          	lui	a3,0x800
   1cd34:	00d76733          	or	a4,a4,a3
   1cd38:	00080593          	mv	a1,a6
   1cd3c:	03800693          	li	a3,56
   1cd40:	0ab6c863          	blt	a3,a1,1cdf0 <__adddf3+0x174>
   1cd44:	01f00693          	li	a3,31
   1cd48:	06b6ca63          	blt	a3,a1,1cdbc <__adddf3+0x140>
   1cd4c:	02000813          	li	a6,32
   1cd50:	40b80833          	sub	a6,a6,a1
   1cd54:	010716b3          	sll	a3,a4,a6
   1cd58:	00b658b3          	srl	a7,a2,a1
   1cd5c:	01061833          	sll	a6,a2,a6
   1cd60:	0116e6b3          	or	a3,a3,a7
   1cd64:	01003833          	snez	a6,a6
   1cd68:	0106e6b3          	or	a3,a3,a6
   1cd6c:	00b755b3          	srl	a1,a4,a1
   1cd70:	00a68533          	add	a0,a3,a0
   1cd74:	00f585b3          	add	a1,a1,a5
   1cd78:	00d536b3          	sltu	a3,a0,a3
   1cd7c:	00d587b3          	add	a5,a1,a3
   1cd80:	00879713          	sll	a4,a5,0x8
   1cd84:	18075c63          	bgez	a4,1cf1c <__adddf3+0x2a0>
   1cd88:	00148493          	add	s1,s1,1
   1cd8c:	7ff00713          	li	a4,2047
   1cd90:	5ae48a63          	beq	s1,a4,1d344 <__adddf3+0x6c8>
   1cd94:	ff800737          	lui	a4,0xff800
   1cd98:	fff70713          	add	a4,a4,-1 # ff7fffff <__BSS_END__+0xff7dc427>
   1cd9c:	00e7f733          	and	a4,a5,a4
   1cda0:	00155793          	srl	a5,a0,0x1
   1cda4:	00157513          	and	a0,a0,1
   1cda8:	00a7e7b3          	or	a5,a5,a0
   1cdac:	01f71513          	sll	a0,a4,0x1f
   1cdb0:	00f56533          	or	a0,a0,a5
   1cdb4:	00175793          	srl	a5,a4,0x1
   1cdb8:	1640006f          	j	1cf1c <__adddf3+0x2a0>
   1cdbc:	fe058693          	add	a3,a1,-32
   1cdc0:	02000893          	li	a7,32
   1cdc4:	00d756b3          	srl	a3,a4,a3
   1cdc8:	00000813          	li	a6,0
   1cdcc:	01158863          	beq	a1,a7,1cddc <__adddf3+0x160>
   1cdd0:	04000813          	li	a6,64
   1cdd4:	40b80833          	sub	a6,a6,a1
   1cdd8:	01071833          	sll	a6,a4,a6
   1cddc:	00c86833          	or	a6,a6,a2
   1cde0:	01003833          	snez	a6,a6
   1cde4:	0106e6b3          	or	a3,a3,a6
   1cde8:	00000593          	li	a1,0
   1cdec:	f85ff06f          	j	1cd70 <__adddf3+0xf4>
   1cdf0:	00c766b3          	or	a3,a4,a2
   1cdf4:	00d036b3          	snez	a3,a3
   1cdf8:	ff1ff06f          	j	1cde8 <__adddf3+0x16c>
   1cdfc:	0c080a63          	beqz	a6,1ced0 <__adddf3+0x254>
   1ce00:	409886b3          	sub	a3,a7,s1
   1ce04:	02049463          	bnez	s1,1ce2c <__adddf3+0x1b0>
   1ce08:	00a7e5b3          	or	a1,a5,a0
   1ce0c:	50058e63          	beqz	a1,1d328 <__adddf3+0x6ac>
   1ce10:	fff68593          	add	a1,a3,-1 # 7fffff <__BSS_END__+0x7dc427>
   1ce14:	ee0584e3          	beqz	a1,1ccfc <__adddf3+0x80>
   1ce18:	7ff00813          	li	a6,2047
   1ce1c:	03069263          	bne	a3,a6,1ce40 <__adddf3+0x1c4>
   1ce20:	00070793          	mv	a5,a4
   1ce24:	00060513          	mv	a0,a2
   1ce28:	ef9ff06f          	j	1cd20 <__adddf3+0xa4>
   1ce2c:	7ff00593          	li	a1,2047
   1ce30:	feb888e3          	beq	a7,a1,1ce20 <__adddf3+0x1a4>
   1ce34:	008005b7          	lui	a1,0x800
   1ce38:	00b7e7b3          	or	a5,a5,a1
   1ce3c:	00068593          	mv	a1,a3
   1ce40:	03800693          	li	a3,56
   1ce44:	08b6c063          	blt	a3,a1,1cec4 <__adddf3+0x248>
   1ce48:	01f00693          	li	a3,31
   1ce4c:	04b6c263          	blt	a3,a1,1ce90 <__adddf3+0x214>
   1ce50:	02000813          	li	a6,32
   1ce54:	40b80833          	sub	a6,a6,a1
   1ce58:	010796b3          	sll	a3,a5,a6
   1ce5c:	00b55333          	srl	t1,a0,a1
   1ce60:	01051833          	sll	a6,a0,a6
   1ce64:	0066e6b3          	or	a3,a3,t1
   1ce68:	01003833          	snez	a6,a6
   1ce6c:	0106e6b3          	or	a3,a3,a6
   1ce70:	00b7d5b3          	srl	a1,a5,a1
   1ce74:	00c68633          	add	a2,a3,a2
   1ce78:	00e585b3          	add	a1,a1,a4
   1ce7c:	00d636b3          	sltu	a3,a2,a3
   1ce80:	00060513          	mv	a0,a2
   1ce84:	00d587b3          	add	a5,a1,a3
   1ce88:	00088493          	mv	s1,a7
   1ce8c:	ef5ff06f          	j	1cd80 <__adddf3+0x104>
   1ce90:	fe058693          	add	a3,a1,-32 # 7fffe0 <__BSS_END__+0x7dc408>
   1ce94:	02000313          	li	t1,32
   1ce98:	00d7d6b3          	srl	a3,a5,a3
   1ce9c:	00000813          	li	a6,0
   1cea0:	00658863          	beq	a1,t1,1ceb0 <__adddf3+0x234>
   1cea4:	04000813          	li	a6,64
   1cea8:	40b80833          	sub	a6,a6,a1
   1ceac:	01079833          	sll	a6,a5,a6
   1ceb0:	00a86833          	or	a6,a6,a0
   1ceb4:	01003833          	snez	a6,a6
   1ceb8:	0106e6b3          	or	a3,a3,a6
   1cebc:	00000593          	li	a1,0
   1cec0:	fb5ff06f          	j	1ce74 <__adddf3+0x1f8>
   1cec4:	00a7e6b3          	or	a3,a5,a0
   1cec8:	00d036b3          	snez	a3,a3
   1cecc:	ff1ff06f          	j	1cebc <__adddf3+0x240>
   1ced0:	00148693          	add	a3,s1,1
   1ced4:	7fe6f593          	and	a1,a3,2046
   1ced8:	08059663          	bnez	a1,1cf64 <__adddf3+0x2e8>
   1cedc:	00a7e6b3          	or	a3,a5,a0
   1cee0:	06049263          	bnez	s1,1cf44 <__adddf3+0x2c8>
   1cee4:	44068863          	beqz	a3,1d334 <__adddf3+0x6b8>
   1cee8:	00c766b3          	or	a3,a4,a2
   1ceec:	02068863          	beqz	a3,1cf1c <__adddf3+0x2a0>
   1cef0:	00c50633          	add	a2,a0,a2
   1cef4:	00a636b3          	sltu	a3,a2,a0
   1cef8:	00e78733          	add	a4,a5,a4
   1cefc:	00d707b3          	add	a5,a4,a3
   1cf00:	00879713          	sll	a4,a5,0x8
   1cf04:	00060513          	mv	a0,a2
   1cf08:	00075a63          	bgez	a4,1cf1c <__adddf3+0x2a0>
   1cf0c:	ff800737          	lui	a4,0xff800
   1cf10:	fff70713          	add	a4,a4,-1 # ff7fffff <__BSS_END__+0xff7dc427>
   1cf14:	00e7f7b3          	and	a5,a5,a4
   1cf18:	00100493          	li	s1,1
   1cf1c:	00757713          	and	a4,a0,7
   1cf20:	44070863          	beqz	a4,1d370 <__adddf3+0x6f4>
   1cf24:	00f57713          	and	a4,a0,15
   1cf28:	00400693          	li	a3,4
   1cf2c:	44d70263          	beq	a4,a3,1d370 <__adddf3+0x6f4>
   1cf30:	00450713          	add	a4,a0,4
   1cf34:	00a736b3          	sltu	a3,a4,a0
   1cf38:	00d787b3          	add	a5,a5,a3
   1cf3c:	00070513          	mv	a0,a4
   1cf40:	4300006f          	j	1d370 <__adddf3+0x6f4>
   1cf44:	ec068ee3          	beqz	a3,1ce20 <__adddf3+0x1a4>
   1cf48:	00c76633          	or	a2,a4,a2
   1cf4c:	dc060ae3          	beqz	a2,1cd20 <__adddf3+0xa4>
   1cf50:	00000913          	li	s2,0
   1cf54:	004007b7          	lui	a5,0x400
   1cf58:	00000513          	li	a0,0
   1cf5c:	7ff00493          	li	s1,2047
   1cf60:	4100006f          	j	1d370 <__adddf3+0x6f4>
   1cf64:	7ff00593          	li	a1,2047
   1cf68:	3cb68c63          	beq	a3,a1,1d340 <__adddf3+0x6c4>
   1cf6c:	00c50633          	add	a2,a0,a2
   1cf70:	00a63533          	sltu	a0,a2,a0
   1cf74:	00e78733          	add	a4,a5,a4
   1cf78:	00a70733          	add	a4,a4,a0
   1cf7c:	01f71513          	sll	a0,a4,0x1f
   1cf80:	00165613          	srl	a2,a2,0x1
   1cf84:	00c56533          	or	a0,a0,a2
   1cf88:	00175793          	srl	a5,a4,0x1
   1cf8c:	00068493          	mv	s1,a3
   1cf90:	f8dff06f          	j	1cf1c <__adddf3+0x2a0>
   1cf94:	0f005c63          	blez	a6,1d08c <__adddf3+0x410>
   1cf98:	08089e63          	bnez	a7,1d034 <__adddf3+0x3b8>
   1cf9c:	00c766b3          	or	a3,a4,a2
   1cfa0:	3a068863          	beqz	a3,1d350 <__adddf3+0x6d4>
   1cfa4:	fff80693          	add	a3,a6,-1
   1cfa8:	02069063          	bnez	a3,1cfc8 <__adddf3+0x34c>
   1cfac:	40c50633          	sub	a2,a0,a2
   1cfb0:	00c536b3          	sltu	a3,a0,a2
   1cfb4:	40e78733          	sub	a4,a5,a4
   1cfb8:	00060513          	mv	a0,a2
   1cfbc:	40d707b3          	sub	a5,a4,a3
   1cfc0:	00100493          	li	s1,1
   1cfc4:	0540006f          	j	1d018 <__adddf3+0x39c>
   1cfc8:	7ff00593          	li	a1,2047
   1cfcc:	d4b80ae3          	beq	a6,a1,1cd20 <__adddf3+0xa4>
   1cfd0:	03800593          	li	a1,56
   1cfd4:	0ad5c663          	blt	a1,a3,1d080 <__adddf3+0x404>
   1cfd8:	01f00593          	li	a1,31
   1cfdc:	06d5c863          	blt	a1,a3,1d04c <__adddf3+0x3d0>
   1cfe0:	02000813          	li	a6,32
   1cfe4:	40d80833          	sub	a6,a6,a3
   1cfe8:	00d658b3          	srl	a7,a2,a3
   1cfec:	010715b3          	sll	a1,a4,a6
   1cff0:	01061833          	sll	a6,a2,a6
   1cff4:	0115e5b3          	or	a1,a1,a7
   1cff8:	01003833          	snez	a6,a6
   1cffc:	0105e633          	or	a2,a1,a6
   1d000:	00d756b3          	srl	a3,a4,a3
   1d004:	40c50633          	sub	a2,a0,a2
   1d008:	00c53733          	sltu	a4,a0,a2
   1d00c:	40d786b3          	sub	a3,a5,a3
   1d010:	00060513          	mv	a0,a2
   1d014:	40e687b3          	sub	a5,a3,a4
   1d018:	00879713          	sll	a4,a5,0x8
   1d01c:	f00750e3          	bgez	a4,1cf1c <__adddf3+0x2a0>
   1d020:	00800437          	lui	s0,0x800
   1d024:	fff40413          	add	s0,s0,-1 # 7fffff <__BSS_END__+0x7dc427>
   1d028:	0087f433          	and	s0,a5,s0
   1d02c:	00050993          	mv	s3,a0
   1d030:	2100006f          	j	1d240 <__adddf3+0x5c4>
   1d034:	7ff00693          	li	a3,2047
   1d038:	eed482e3          	beq	s1,a3,1cf1c <__adddf3+0x2a0>
   1d03c:	008006b7          	lui	a3,0x800
   1d040:	00d76733          	or	a4,a4,a3
   1d044:	00080693          	mv	a3,a6
   1d048:	f89ff06f          	j	1cfd0 <__adddf3+0x354>
   1d04c:	fe068593          	add	a1,a3,-32 # 7fffe0 <__BSS_END__+0x7dc408>
   1d050:	02000893          	li	a7,32
   1d054:	00b755b3          	srl	a1,a4,a1
   1d058:	00000813          	li	a6,0
   1d05c:	01168863          	beq	a3,a7,1d06c <__adddf3+0x3f0>
   1d060:	04000813          	li	a6,64
   1d064:	40d80833          	sub	a6,a6,a3
   1d068:	01071833          	sll	a6,a4,a6
   1d06c:	00c86833          	or	a6,a6,a2
   1d070:	01003833          	snez	a6,a6
   1d074:	0105e633          	or	a2,a1,a6
   1d078:	00000693          	li	a3,0
   1d07c:	f89ff06f          	j	1d004 <__adddf3+0x388>
   1d080:	00c76633          	or	a2,a4,a2
   1d084:	00c03633          	snez	a2,a2
   1d088:	ff1ff06f          	j	1d078 <__adddf3+0x3fc>
   1d08c:	0e080863          	beqz	a6,1d17c <__adddf3+0x500>
   1d090:	40988833          	sub	a6,a7,s1
   1d094:	04049263          	bnez	s1,1d0d8 <__adddf3+0x45c>
   1d098:	00a7e5b3          	or	a1,a5,a0
   1d09c:	2a058e63          	beqz	a1,1d358 <__adddf3+0x6dc>
   1d0a0:	fff80593          	add	a1,a6,-1
   1d0a4:	00059e63          	bnez	a1,1d0c0 <__adddf3+0x444>
   1d0a8:	40a60533          	sub	a0,a2,a0
   1d0ac:	40f70733          	sub	a4,a4,a5
   1d0b0:	00a63633          	sltu	a2,a2,a0
   1d0b4:	40c707b3          	sub	a5,a4,a2
   1d0b8:	00068913          	mv	s2,a3
   1d0bc:	f05ff06f          	j	1cfc0 <__adddf3+0x344>
   1d0c0:	7ff00313          	li	t1,2047
   1d0c4:	02681463          	bne	a6,t1,1d0ec <__adddf3+0x470>
   1d0c8:	00070793          	mv	a5,a4
   1d0cc:	00060513          	mv	a0,a2
   1d0d0:	7ff00493          	li	s1,2047
   1d0d4:	0d00006f          	j	1d1a4 <__adddf3+0x528>
   1d0d8:	7ff00593          	li	a1,2047
   1d0dc:	feb886e3          	beq	a7,a1,1d0c8 <__adddf3+0x44c>
   1d0e0:	008005b7          	lui	a1,0x800
   1d0e4:	00b7e7b3          	or	a5,a5,a1
   1d0e8:	00080593          	mv	a1,a6
   1d0ec:	03800813          	li	a6,56
   1d0f0:	08b84063          	blt	a6,a1,1d170 <__adddf3+0x4f4>
   1d0f4:	01f00813          	li	a6,31
   1d0f8:	04b84263          	blt	a6,a1,1d13c <__adddf3+0x4c0>
   1d0fc:	02000313          	li	t1,32
   1d100:	40b30333          	sub	t1,t1,a1
   1d104:	00b55e33          	srl	t3,a0,a1
   1d108:	00679833          	sll	a6,a5,t1
   1d10c:	00651333          	sll	t1,a0,t1
   1d110:	01c86833          	or	a6,a6,t3
   1d114:	00603333          	snez	t1,t1
   1d118:	00686533          	or	a0,a6,t1
   1d11c:	00b7d5b3          	srl	a1,a5,a1
   1d120:	40a60533          	sub	a0,a2,a0
   1d124:	40b705b3          	sub	a1,a4,a1
   1d128:	00a63633          	sltu	a2,a2,a0
   1d12c:	40c587b3          	sub	a5,a1,a2
   1d130:	00088493          	mv	s1,a7
   1d134:	00068913          	mv	s2,a3
   1d138:	ee1ff06f          	j	1d018 <__adddf3+0x39c>
   1d13c:	fe058813          	add	a6,a1,-32 # 7fffe0 <__BSS_END__+0x7dc408>
   1d140:	02000e13          	li	t3,32
   1d144:	0107d833          	srl	a6,a5,a6
   1d148:	00000313          	li	t1,0
   1d14c:	01c58863          	beq	a1,t3,1d15c <__adddf3+0x4e0>
   1d150:	04000313          	li	t1,64
   1d154:	40b30333          	sub	t1,t1,a1
   1d158:	00679333          	sll	t1,a5,t1
   1d15c:	00a36333          	or	t1,t1,a0
   1d160:	00603333          	snez	t1,t1
   1d164:	00686533          	or	a0,a6,t1
   1d168:	00000593          	li	a1,0
   1d16c:	fb5ff06f          	j	1d120 <__adddf3+0x4a4>
   1d170:	00a7e533          	or	a0,a5,a0
   1d174:	00a03533          	snez	a0,a0
   1d178:	ff1ff06f          	j	1d168 <__adddf3+0x4ec>
   1d17c:	00148593          	add	a1,s1,1
   1d180:	7fe5f593          	and	a1,a1,2046
   1d184:	08059663          	bnez	a1,1d210 <__adddf3+0x594>
   1d188:	00a7e833          	or	a6,a5,a0
   1d18c:	00c765b3          	or	a1,a4,a2
   1d190:	06049063          	bnez	s1,1d1f0 <__adddf3+0x574>
   1d194:	00081c63          	bnez	a6,1d1ac <__adddf3+0x530>
   1d198:	10058e63          	beqz	a1,1d2b4 <__adddf3+0x638>
   1d19c:	00070793          	mv	a5,a4
   1d1a0:	00060513          	mv	a0,a2
   1d1a4:	00068913          	mv	s2,a3
   1d1a8:	d75ff06f          	j	1cf1c <__adddf3+0x2a0>
   1d1ac:	d60588e3          	beqz	a1,1cf1c <__adddf3+0x2a0>
   1d1b0:	40c50833          	sub	a6,a0,a2
   1d1b4:	010538b3          	sltu	a7,a0,a6
   1d1b8:	40e785b3          	sub	a1,a5,a4
   1d1bc:	411585b3          	sub	a1,a1,a7
   1d1c0:	00859893          	sll	a7,a1,0x8
   1d1c4:	0008dc63          	bgez	a7,1d1dc <__adddf3+0x560>
   1d1c8:	40a60533          	sub	a0,a2,a0
   1d1cc:	40f70733          	sub	a4,a4,a5
   1d1d0:	00a63633          	sltu	a2,a2,a0
   1d1d4:	40c707b3          	sub	a5,a4,a2
   1d1d8:	fcdff06f          	j	1d1a4 <__adddf3+0x528>
   1d1dc:	00b86533          	or	a0,a6,a1
   1d1e0:	18050463          	beqz	a0,1d368 <__adddf3+0x6ec>
   1d1e4:	00058793          	mv	a5,a1
   1d1e8:	00080513          	mv	a0,a6
   1d1ec:	d31ff06f          	j	1cf1c <__adddf3+0x2a0>
   1d1f0:	00081c63          	bnez	a6,1d208 <__adddf3+0x58c>
   1d1f4:	d4058ee3          	beqz	a1,1cf50 <__adddf3+0x2d4>
   1d1f8:	00070793          	mv	a5,a4
   1d1fc:	00060513          	mv	a0,a2
   1d200:	00068913          	mv	s2,a3
   1d204:	b1dff06f          	j	1cd20 <__adddf3+0xa4>
   1d208:	b0058ce3          	beqz	a1,1cd20 <__adddf3+0xa4>
   1d20c:	d45ff06f          	j	1cf50 <__adddf3+0x2d4>
   1d210:	40c505b3          	sub	a1,a0,a2
   1d214:	00b53833          	sltu	a6,a0,a1
   1d218:	40e78433          	sub	s0,a5,a4
   1d21c:	41040433          	sub	s0,s0,a6
   1d220:	00841813          	sll	a6,s0,0x8
   1d224:	00058993          	mv	s3,a1
   1d228:	08085063          	bgez	a6,1d2a8 <__adddf3+0x62c>
   1d22c:	40a609b3          	sub	s3,a2,a0
   1d230:	40f70433          	sub	s0,a4,a5
   1d234:	01363633          	sltu	a2,a2,s3
   1d238:	40c40433          	sub	s0,s0,a2
   1d23c:	00068913          	mv	s2,a3
   1d240:	06040e63          	beqz	s0,1d2bc <__adddf3+0x640>
   1d244:	00040513          	mv	a0,s0
   1d248:	4e5040ef          	jal	21f2c <__clzsi2>
   1d24c:	ff850693          	add	a3,a0,-8
   1d250:	02000793          	li	a5,32
   1d254:	40d787b3          	sub	a5,a5,a3
   1d258:	00d41433          	sll	s0,s0,a3
   1d25c:	00f9d7b3          	srl	a5,s3,a5
   1d260:	0087e7b3          	or	a5,a5,s0
   1d264:	00d99433          	sll	s0,s3,a3
   1d268:	0a96c463          	blt	a3,s1,1d310 <__adddf3+0x694>
   1d26c:	409686b3          	sub	a3,a3,s1
   1d270:	00168613          	add	a2,a3,1
   1d274:	01f00713          	li	a4,31
   1d278:	06c74263          	blt	a4,a2,1d2dc <__adddf3+0x660>
   1d27c:	02000713          	li	a4,32
   1d280:	40c70733          	sub	a4,a4,a2
   1d284:	00e79533          	sll	a0,a5,a4
   1d288:	00c456b3          	srl	a3,s0,a2
   1d28c:	00e41733          	sll	a4,s0,a4
   1d290:	00d56533          	or	a0,a0,a3
   1d294:	00e03733          	snez	a4,a4
   1d298:	00e56533          	or	a0,a0,a4
   1d29c:	00c7d7b3          	srl	a5,a5,a2
   1d2a0:	00000493          	li	s1,0
   1d2a4:	c79ff06f          	j	1cf1c <__adddf3+0x2a0>
   1d2a8:	0085e5b3          	or	a1,a1,s0
   1d2ac:	f8059ae3          	bnez	a1,1d240 <__adddf3+0x5c4>
   1d2b0:	00000493          	li	s1,0
   1d2b4:	00000913          	li	s2,0
   1d2b8:	08c0006f          	j	1d344 <__adddf3+0x6c8>
   1d2bc:	00098513          	mv	a0,s3
   1d2c0:	46d040ef          	jal	21f2c <__clzsi2>
   1d2c4:	01850693          	add	a3,a0,24
   1d2c8:	01f00793          	li	a5,31
   1d2cc:	f8d7d2e3          	bge	a5,a3,1d250 <__adddf3+0x5d4>
   1d2d0:	ff850793          	add	a5,a0,-8
   1d2d4:	00f997b3          	sll	a5,s3,a5
   1d2d8:	f91ff06f          	j	1d268 <__adddf3+0x5ec>
   1d2dc:	fe168693          	add	a3,a3,-31
   1d2e0:	00d7d533          	srl	a0,a5,a3
   1d2e4:	02000693          	li	a3,32
   1d2e8:	00000713          	li	a4,0
   1d2ec:	00d60863          	beq	a2,a3,1d2fc <__adddf3+0x680>
   1d2f0:	04000713          	li	a4,64
   1d2f4:	40c70733          	sub	a4,a4,a2
   1d2f8:	00e79733          	sll	a4,a5,a4
   1d2fc:	00e46733          	or	a4,s0,a4
   1d300:	00e03733          	snez	a4,a4
   1d304:	00e56533          	or	a0,a0,a4
   1d308:	00000793          	li	a5,0
   1d30c:	f95ff06f          	j	1d2a0 <__adddf3+0x624>
   1d310:	ff800737          	lui	a4,0xff800
   1d314:	fff70713          	add	a4,a4,-1 # ff7fffff <__BSS_END__+0xff7dc427>
   1d318:	40d484b3          	sub	s1,s1,a3
   1d31c:	00e7f7b3          	and	a5,a5,a4
   1d320:	00040513          	mv	a0,s0
   1d324:	bf9ff06f          	j	1cf1c <__adddf3+0x2a0>
   1d328:	00070793          	mv	a5,a4
   1d32c:	00060513          	mv	a0,a2
   1d330:	c5dff06f          	j	1cf8c <__adddf3+0x310>
   1d334:	00070793          	mv	a5,a4
   1d338:	00060513          	mv	a0,a2
   1d33c:	be1ff06f          	j	1cf1c <__adddf3+0x2a0>
   1d340:	7ff00493          	li	s1,2047
   1d344:	00000793          	li	a5,0
   1d348:	00000513          	li	a0,0
   1d34c:	0240006f          	j	1d370 <__adddf3+0x6f4>
   1d350:	00080493          	mv	s1,a6
   1d354:	bc9ff06f          	j	1cf1c <__adddf3+0x2a0>
   1d358:	00070793          	mv	a5,a4
   1d35c:	00060513          	mv	a0,a2
   1d360:	00080493          	mv	s1,a6
   1d364:	e41ff06f          	j	1d1a4 <__adddf3+0x528>
   1d368:	00000793          	li	a5,0
   1d36c:	00000913          	li	s2,0
   1d370:	00879713          	sll	a4,a5,0x8
   1d374:	00075e63          	bgez	a4,1d390 <__adddf3+0x714>
   1d378:	00148493          	add	s1,s1,1
   1d37c:	7ff00713          	li	a4,2047
   1d380:	08e48263          	beq	s1,a4,1d404 <__adddf3+0x788>
   1d384:	ff800737          	lui	a4,0xff800
   1d388:	fff70713          	add	a4,a4,-1 # ff7fffff <__BSS_END__+0xff7dc427>
   1d38c:	00e7f7b3          	and	a5,a5,a4
   1d390:	01d79693          	sll	a3,a5,0x1d
   1d394:	00355513          	srl	a0,a0,0x3
   1d398:	7ff00713          	li	a4,2047
   1d39c:	00a6e6b3          	or	a3,a3,a0
   1d3a0:	0037d793          	srl	a5,a5,0x3
   1d3a4:	00e49e63          	bne	s1,a4,1d3c0 <__adddf3+0x744>
   1d3a8:	00f6e6b3          	or	a3,a3,a5
   1d3ac:	00000793          	li	a5,0
   1d3b0:	00068863          	beqz	a3,1d3c0 <__adddf3+0x744>
   1d3b4:	000807b7          	lui	a5,0x80
   1d3b8:	00000693          	li	a3,0
   1d3bc:	00000913          	li	s2,0
   1d3c0:	01449713          	sll	a4,s1,0x14
   1d3c4:	7ff00637          	lui	a2,0x7ff00
   1d3c8:	00c79793          	sll	a5,a5,0xc
   1d3cc:	00c77733          	and	a4,a4,a2
   1d3d0:	01c12083          	lw	ra,28(sp)
   1d3d4:	01812403          	lw	s0,24(sp)
   1d3d8:	00c7d793          	srl	a5,a5,0xc
   1d3dc:	00f767b3          	or	a5,a4,a5
   1d3e0:	01f91713          	sll	a4,s2,0x1f
   1d3e4:	00e7e633          	or	a2,a5,a4
   1d3e8:	01412483          	lw	s1,20(sp)
   1d3ec:	01012903          	lw	s2,16(sp)
   1d3f0:	00c12983          	lw	s3,12(sp)
   1d3f4:	00068513          	mv	a0,a3
   1d3f8:	00060593          	mv	a1,a2
   1d3fc:	02010113          	add	sp,sp,32
   1d400:	00008067          	ret
   1d404:	00000793          	li	a5,0
   1d408:	00000513          	li	a0,0
   1d40c:	f85ff06f          	j	1d390 <__adddf3+0x714>

0001d410 <__divdf3>:
   1d410:	fb010113          	add	sp,sp,-80
   1d414:	05212023          	sw	s2,64(sp)
   1d418:	0145d913          	srl	s2,a1,0x14
   1d41c:	04912223          	sw	s1,68(sp)
   1d420:	03312e23          	sw	s3,60(sp)
   1d424:	03412c23          	sw	s4,56(sp)
   1d428:	03512a23          	sw	s5,52(sp)
   1d42c:	03712623          	sw	s7,44(sp)
   1d430:	00c59493          	sll	s1,a1,0xc
   1d434:	04112623          	sw	ra,76(sp)
   1d438:	04812423          	sw	s0,72(sp)
   1d43c:	03612823          	sw	s6,48(sp)
   1d440:	03812423          	sw	s8,40(sp)
   1d444:	03912223          	sw	s9,36(sp)
   1d448:	03a12023          	sw	s10,32(sp)
   1d44c:	01b12e23          	sw	s11,28(sp)
   1d450:	7ff97913          	and	s2,s2,2047
   1d454:	00050993          	mv	s3,a0
   1d458:	00060b93          	mv	s7,a2
   1d45c:	00068a13          	mv	s4,a3
   1d460:	00c4d493          	srl	s1,s1,0xc
   1d464:	01f5da93          	srl	s5,a1,0x1f
   1d468:	0a090063          	beqz	s2,1d508 <__divdf3+0xf8>
   1d46c:	7ff00793          	li	a5,2047
   1d470:	10f90063          	beq	s2,a5,1d570 <__divdf3+0x160>
   1d474:	01d55d13          	srl	s10,a0,0x1d
   1d478:	00349493          	sll	s1,s1,0x3
   1d47c:	009d6d33          	or	s10,s10,s1
   1d480:	008007b7          	lui	a5,0x800
   1d484:	00fd6d33          	or	s10,s10,a5
   1d488:	00351413          	sll	s0,a0,0x3
   1d48c:	c0190913          	add	s2,s2,-1023
   1d490:	00000b13          	li	s6,0
   1d494:	014a5713          	srl	a4,s4,0x14
   1d498:	00ca1993          	sll	s3,s4,0xc
   1d49c:	7ff77713          	and	a4,a4,2047
   1d4a0:	00c9d993          	srl	s3,s3,0xc
   1d4a4:	01fa5a13          	srl	s4,s4,0x1f
   1d4a8:	10070263          	beqz	a4,1d5ac <__divdf3+0x19c>
   1d4ac:	7ff00793          	li	a5,2047
   1d4b0:	16f70663          	beq	a4,a5,1d61c <__divdf3+0x20c>
   1d4b4:	00399993          	sll	s3,s3,0x3
   1d4b8:	01dbd793          	srl	a5,s7,0x1d
   1d4bc:	0137e7b3          	or	a5,a5,s3
   1d4c0:	008009b7          	lui	s3,0x800
   1d4c4:	0137e9b3          	or	s3,a5,s3
   1d4c8:	003b9693          	sll	a3,s7,0x3
   1d4cc:	c0170713          	add	a4,a4,-1023
   1d4d0:	00000793          	li	a5,0
   1d4d4:	40e90933          	sub	s2,s2,a4
   1d4d8:	002b1713          	sll	a4,s6,0x2
   1d4dc:	00f76733          	or	a4,a4,a5
   1d4e0:	fff70713          	add	a4,a4,-1
   1d4e4:	00e00613          	li	a2,14
   1d4e8:	014ac4b3          	xor	s1,s5,s4
   1d4ec:	16e66463          	bltu	a2,a4,1d654 <__divdf3+0x244>
   1d4f0:	00022637          	lui	a2,0x22
   1d4f4:	00271713          	sll	a4,a4,0x2
   1d4f8:	71c60613          	add	a2,a2,1820 # 2271c <_ctype_+0x104>
   1d4fc:	00c70733          	add	a4,a4,a2
   1d500:	00072703          	lw	a4,0(a4)
   1d504:	00070067          	jr	a4
   1d508:	00a4ed33          	or	s10,s1,a0
   1d50c:	060d0e63          	beqz	s10,1d588 <__divdf3+0x178>
   1d510:	02048e63          	beqz	s1,1d54c <__divdf3+0x13c>
   1d514:	00048513          	mv	a0,s1
   1d518:	215040ef          	jal	21f2c <__clzsi2>
   1d51c:	ff550793          	add	a5,a0,-11
   1d520:	01d00d13          	li	s10,29
   1d524:	ff850713          	add	a4,a0,-8
   1d528:	40fd0d33          	sub	s10,s10,a5
   1d52c:	00e494b3          	sll	s1,s1,a4
   1d530:	01a9dd33          	srl	s10,s3,s10
   1d534:	009d6d33          	or	s10,s10,s1
   1d538:	00e994b3          	sll	s1,s3,a4
   1d53c:	c0d00913          	li	s2,-1011
   1d540:	40a90933          	sub	s2,s2,a0
   1d544:	00048413          	mv	s0,s1
   1d548:	f49ff06f          	j	1d490 <__divdf3+0x80>
   1d54c:	1e1040ef          	jal	21f2c <__clzsi2>
   1d550:	00050d13          	mv	s10,a0
   1d554:	015d0793          	add	a5,s10,21
   1d558:	01c00713          	li	a4,28
   1d55c:	02050513          	add	a0,a0,32
   1d560:	fcf750e3          	bge	a4,a5,1d520 <__divdf3+0x110>
   1d564:	ff8d0d13          	add	s10,s10,-8
   1d568:	01a99d33          	sll	s10,s3,s10
   1d56c:	fd1ff06f          	j	1d53c <__divdf3+0x12c>
   1d570:	00a4ed33          	or	s10,s1,a0
   1d574:	020d1263          	bnez	s10,1d598 <__divdf3+0x188>
   1d578:	00000413          	li	s0,0
   1d57c:	7ff00913          	li	s2,2047
   1d580:	00200b13          	li	s6,2
   1d584:	f11ff06f          	j	1d494 <__divdf3+0x84>
   1d588:	00000413          	li	s0,0
   1d58c:	00000913          	li	s2,0
   1d590:	00100b13          	li	s6,1
   1d594:	f01ff06f          	j	1d494 <__divdf3+0x84>
   1d598:	00050413          	mv	s0,a0
   1d59c:	00048d13          	mv	s10,s1
   1d5a0:	7ff00913          	li	s2,2047
   1d5a4:	00300b13          	li	s6,3
   1d5a8:	eedff06f          	j	1d494 <__divdf3+0x84>
   1d5ac:	0179e6b3          	or	a3,s3,s7
   1d5b0:	08068263          	beqz	a3,1d634 <__divdf3+0x224>
   1d5b4:	04098063          	beqz	s3,1d5f4 <__divdf3+0x1e4>
   1d5b8:	00098513          	mv	a0,s3
   1d5bc:	171040ef          	jal	21f2c <__clzsi2>
   1d5c0:	ff550713          	add	a4,a0,-11
   1d5c4:	01d00793          	li	a5,29
   1d5c8:	ff850693          	add	a3,a0,-8
   1d5cc:	40e787b3          	sub	a5,a5,a4
   1d5d0:	00d999b3          	sll	s3,s3,a3
   1d5d4:	00fbd7b3          	srl	a5,s7,a5
   1d5d8:	0137e7b3          	or	a5,a5,s3
   1d5dc:	00db99b3          	sll	s3,s7,a3
   1d5e0:	c0d00713          	li	a4,-1011
   1d5e4:	00098693          	mv	a3,s3
   1d5e8:	40a70733          	sub	a4,a4,a0
   1d5ec:	00078993          	mv	s3,a5
   1d5f0:	ee1ff06f          	j	1d4d0 <__divdf3+0xc0>
   1d5f4:	000b8513          	mv	a0,s7
   1d5f8:	135040ef          	jal	21f2c <__clzsi2>
   1d5fc:	00050793          	mv	a5,a0
   1d600:	01578713          	add	a4,a5,21 # 800015 <__BSS_END__+0x7dc43d>
   1d604:	01c00693          	li	a3,28
   1d608:	02050513          	add	a0,a0,32
   1d60c:	fae6dce3          	bge	a3,a4,1d5c4 <__divdf3+0x1b4>
   1d610:	ff878793          	add	a5,a5,-8
   1d614:	00fb97b3          	sll	a5,s7,a5
   1d618:	fc9ff06f          	j	1d5e0 <__divdf3+0x1d0>
   1d61c:	0179e6b3          	or	a3,s3,s7
   1d620:	02069263          	bnez	a3,1d644 <__divdf3+0x234>
   1d624:	00000993          	li	s3,0
   1d628:	7ff00713          	li	a4,2047
   1d62c:	00200793          	li	a5,2
   1d630:	ea5ff06f          	j	1d4d4 <__divdf3+0xc4>
   1d634:	00000993          	li	s3,0
   1d638:	00000713          	li	a4,0
   1d63c:	00100793          	li	a5,1
   1d640:	e95ff06f          	j	1d4d4 <__divdf3+0xc4>
   1d644:	000b8693          	mv	a3,s7
   1d648:	7ff00713          	li	a4,2047
   1d64c:	00300793          	li	a5,3
   1d650:	e85ff06f          	j	1d4d4 <__divdf3+0xc4>
   1d654:	01a9e663          	bltu	s3,s10,1d660 <__divdf3+0x250>
   1d658:	453d1663          	bne	s10,s3,1daa4 <__divdf3+0x694>
   1d65c:	44d46463          	bltu	s0,a3,1daa4 <__divdf3+0x694>
   1d660:	01fd1713          	sll	a4,s10,0x1f
   1d664:	00145793          	srl	a5,s0,0x1
   1d668:	01f41d93          	sll	s11,s0,0x1f
   1d66c:	001d5d13          	srl	s10,s10,0x1
   1d670:	00f76433          	or	s0,a4,a5
   1d674:	0186dc13          	srl	s8,a3,0x18
   1d678:	00899b13          	sll	s6,s3,0x8
   1d67c:	016c6c33          	or	s8,s8,s6
   1d680:	010b5b13          	srl	s6,s6,0x10
   1d684:	000b0593          	mv	a1,s6
   1d688:	010c1b93          	sll	s7,s8,0x10
   1d68c:	000d0513          	mv	a0,s10
   1d690:	00869c93          	sll	s9,a3,0x8
   1d694:	010bdb93          	srl	s7,s7,0x10
   1d698:	7e8040ef          	jal	21e80 <__hidden___udivsi3>
   1d69c:	00050593          	mv	a1,a0
   1d6a0:	00050a93          	mv	s5,a0
   1d6a4:	000b8513          	mv	a0,s7
   1d6a8:	7ac040ef          	jal	21e54 <__mulsi3>
   1d6ac:	00050993          	mv	s3,a0
   1d6b0:	000b0593          	mv	a1,s6
   1d6b4:	000d0513          	mv	a0,s10
   1d6b8:	011040ef          	jal	21ec8 <__umodsi3>
   1d6bc:	01051513          	sll	a0,a0,0x10
   1d6c0:	01045793          	srl	a5,s0,0x10
   1d6c4:	00a7e7b3          	or	a5,a5,a0
   1d6c8:	000a8a13          	mv	s4,s5
   1d6cc:	0137fe63          	bgeu	a5,s3,1d6e8 <__divdf3+0x2d8>
   1d6d0:	00fc07b3          	add	a5,s8,a5
   1d6d4:	fffa8a13          	add	s4,s5,-1
   1d6d8:	0187e863          	bltu	a5,s8,1d6e8 <__divdf3+0x2d8>
   1d6dc:	0137f663          	bgeu	a5,s3,1d6e8 <__divdf3+0x2d8>
   1d6e0:	ffea8a13          	add	s4,s5,-2
   1d6e4:	018787b3          	add	a5,a5,s8
   1d6e8:	413789b3          	sub	s3,a5,s3
   1d6ec:	000b0593          	mv	a1,s6
   1d6f0:	00098513          	mv	a0,s3
   1d6f4:	78c040ef          	jal	21e80 <__hidden___udivsi3>
   1d6f8:	00050593          	mv	a1,a0
   1d6fc:	00050d13          	mv	s10,a0
   1d700:	000b8513          	mv	a0,s7
   1d704:	750040ef          	jal	21e54 <__mulsi3>
   1d708:	00050a93          	mv	s5,a0
   1d70c:	000b0593          	mv	a1,s6
   1d710:	00098513          	mv	a0,s3
   1d714:	7b4040ef          	jal	21ec8 <__umodsi3>
   1d718:	01041793          	sll	a5,s0,0x10
   1d71c:	01051513          	sll	a0,a0,0x10
   1d720:	0107d793          	srl	a5,a5,0x10
   1d724:	00a7e7b3          	or	a5,a5,a0
   1d728:	000d0713          	mv	a4,s10
   1d72c:	0157fe63          	bgeu	a5,s5,1d748 <__divdf3+0x338>
   1d730:	00fc07b3          	add	a5,s8,a5
   1d734:	fffd0713          	add	a4,s10,-1
   1d738:	0187e863          	bltu	a5,s8,1d748 <__divdf3+0x338>
   1d73c:	0157f663          	bgeu	a5,s5,1d748 <__divdf3+0x338>
   1d740:	ffed0713          	add	a4,s10,-2
   1d744:	018787b3          	add	a5,a5,s8
   1d748:	010a1813          	sll	a6,s4,0x10
   1d74c:	00010eb7          	lui	t4,0x10
   1d750:	00e86833          	or	a6,a6,a4
   1d754:	fffe8a13          	add	s4,t4,-1 # ffff <exit-0xa1>
   1d758:	014878b3          	and	a7,a6,s4
   1d75c:	010cd693          	srl	a3,s9,0x10
   1d760:	014cfa33          	and	s4,s9,s4
   1d764:	415787b3          	sub	a5,a5,s5
   1d768:	01085713          	srl	a4,a6,0x10
   1d76c:	00d12623          	sw	a3,12(sp)
   1d770:	00088513          	mv	a0,a7
   1d774:	000a0593          	mv	a1,s4
   1d778:	6dc040ef          	jal	21e54 <__mulsi3>
   1d77c:	00050313          	mv	t1,a0
   1d780:	010cd593          	srl	a1,s9,0x10
   1d784:	00088513          	mv	a0,a7
   1d788:	6cc040ef          	jal	21e54 <__mulsi3>
   1d78c:	00050893          	mv	a7,a0
   1d790:	000a0593          	mv	a1,s4
   1d794:	00070513          	mv	a0,a4
   1d798:	6bc040ef          	jal	21e54 <__mulsi3>
   1d79c:	00050e13          	mv	t3,a0
   1d7a0:	010cd593          	srl	a1,s9,0x10
   1d7a4:	00070513          	mv	a0,a4
   1d7a8:	6ac040ef          	jal	21e54 <__mulsi3>
   1d7ac:	01035713          	srl	a4,t1,0x10
   1d7b0:	01c888b3          	add	a7,a7,t3
   1d7b4:	01170733          	add	a4,a4,a7
   1d7b8:	00050613          	mv	a2,a0
   1d7bc:	01c77463          	bgeu	a4,t3,1d7c4 <__divdf3+0x3b4>
   1d7c0:	01d50633          	add	a2,a0,t4
   1d7c4:	01075693          	srl	a3,a4,0x10
   1d7c8:	00c686b3          	add	a3,a3,a2
   1d7cc:	00010637          	lui	a2,0x10
   1d7d0:	fff60613          	add	a2,a2,-1 # ffff <exit-0xa1>
   1d7d4:	00c77733          	and	a4,a4,a2
   1d7d8:	01071713          	sll	a4,a4,0x10
   1d7dc:	00c37333          	and	t1,t1,a2
   1d7e0:	00670733          	add	a4,a4,t1
   1d7e4:	00d7e863          	bltu	a5,a3,1d7f4 <__divdf3+0x3e4>
   1d7e8:	00080993          	mv	s3,a6
   1d7ec:	04d79863          	bne	a5,a3,1d83c <__divdf3+0x42c>
   1d7f0:	04edf663          	bgeu	s11,a4,1d83c <__divdf3+0x42c>
   1d7f4:	019d8633          	add	a2,s11,s9
   1d7f8:	01b635b3          	sltu	a1,a2,s11
   1d7fc:	01858533          	add	a0,a1,s8
   1d800:	00a787b3          	add	a5,a5,a0
   1d804:	fff80993          	add	s3,a6,-1
   1d808:	00060d93          	mv	s11,a2
   1d80c:	00fc6663          	bltu	s8,a5,1d818 <__divdf3+0x408>
   1d810:	02fc1663          	bne	s8,a5,1d83c <__divdf3+0x42c>
   1d814:	02059463          	bnez	a1,1d83c <__divdf3+0x42c>
   1d818:	00d7e663          	bltu	a5,a3,1d824 <__divdf3+0x414>
   1d81c:	02f69063          	bne	a3,a5,1d83c <__divdf3+0x42c>
   1d820:	00e67e63          	bgeu	a2,a4,1d83c <__divdf3+0x42c>
   1d824:	00cc8633          	add	a2,s9,a2
   1d828:	00060d93          	mv	s11,a2
   1d82c:	01963633          	sltu	a2,a2,s9
   1d830:	01860633          	add	a2,a2,s8
   1d834:	ffe80993          	add	s3,a6,-2
   1d838:	00c787b3          	add	a5,a5,a2
   1d83c:	40ed8d33          	sub	s10,s11,a4
   1d840:	40d787b3          	sub	a5,a5,a3
   1d844:	01adbdb3          	sltu	s11,s11,s10
   1d848:	41b78433          	sub	s0,a5,s11
   1d84c:	fff00693          	li	a3,-1
   1d850:	188c0e63          	beq	s8,s0,1d9ec <__divdf3+0x5dc>
   1d854:	000b0593          	mv	a1,s6
   1d858:	00040513          	mv	a0,s0
   1d85c:	624040ef          	jal	21e80 <__hidden___udivsi3>
   1d860:	00050593          	mv	a1,a0
   1d864:	00050a93          	mv	s5,a0
   1d868:	000b8513          	mv	a0,s7
   1d86c:	5e8040ef          	jal	21e54 <__mulsi3>
   1d870:	00050d93          	mv	s11,a0
   1d874:	000b0593          	mv	a1,s6
   1d878:	00040513          	mv	a0,s0
   1d87c:	64c040ef          	jal	21ec8 <__umodsi3>
   1d880:	01051513          	sll	a0,a0,0x10
   1d884:	010d5693          	srl	a3,s10,0x10
   1d888:	00a6e6b3          	or	a3,a3,a0
   1d88c:	000a8413          	mv	s0,s5
   1d890:	01b6fe63          	bgeu	a3,s11,1d8ac <__divdf3+0x49c>
   1d894:	00dc06b3          	add	a3,s8,a3
   1d898:	fffa8413          	add	s0,s5,-1
   1d89c:	0186e863          	bltu	a3,s8,1d8ac <__divdf3+0x49c>
   1d8a0:	01b6f663          	bgeu	a3,s11,1d8ac <__divdf3+0x49c>
   1d8a4:	ffea8413          	add	s0,s5,-2
   1d8a8:	018686b3          	add	a3,a3,s8
   1d8ac:	41b68ab3          	sub	s5,a3,s11
   1d8b0:	000b0593          	mv	a1,s6
   1d8b4:	000a8513          	mv	a0,s5
   1d8b8:	5c8040ef          	jal	21e80 <__hidden___udivsi3>
   1d8bc:	00050593          	mv	a1,a0
   1d8c0:	00050d93          	mv	s11,a0
   1d8c4:	000b8513          	mv	a0,s7
   1d8c8:	58c040ef          	jal	21e54 <__mulsi3>
   1d8cc:	00050b93          	mv	s7,a0
   1d8d0:	000b0593          	mv	a1,s6
   1d8d4:	000a8513          	mv	a0,s5
   1d8d8:	5f0040ef          	jal	21ec8 <__umodsi3>
   1d8dc:	010d1793          	sll	a5,s10,0x10
   1d8e0:	01051513          	sll	a0,a0,0x10
   1d8e4:	0107d793          	srl	a5,a5,0x10
   1d8e8:	00a7e7b3          	or	a5,a5,a0
   1d8ec:	000d8713          	mv	a4,s11
   1d8f0:	0177fe63          	bgeu	a5,s7,1d90c <__divdf3+0x4fc>
   1d8f4:	00fc07b3          	add	a5,s8,a5
   1d8f8:	fffd8713          	add	a4,s11,-1
   1d8fc:	0187e863          	bltu	a5,s8,1d90c <__divdf3+0x4fc>
   1d900:	0177f663          	bgeu	a5,s7,1d90c <__divdf3+0x4fc>
   1d904:	ffed8713          	add	a4,s11,-2
   1d908:	018787b3          	add	a5,a5,s8
   1d90c:	01041813          	sll	a6,s0,0x10
   1d910:	00e86833          	or	a6,a6,a4
   1d914:	01081893          	sll	a7,a6,0x10
   1d918:	0108d893          	srl	a7,a7,0x10
   1d91c:	417787b3          	sub	a5,a5,s7
   1d920:	01085713          	srl	a4,a6,0x10
   1d924:	00088513          	mv	a0,a7
   1d928:	000a0593          	mv	a1,s4
   1d92c:	528040ef          	jal	21e54 <__mulsi3>
   1d930:	00050313          	mv	t1,a0
   1d934:	010cd593          	srl	a1,s9,0x10
   1d938:	00088513          	mv	a0,a7
   1d93c:	518040ef          	jal	21e54 <__mulsi3>
   1d940:	00050893          	mv	a7,a0
   1d944:	000a0593          	mv	a1,s4
   1d948:	00070513          	mv	a0,a4
   1d94c:	508040ef          	jal	21e54 <__mulsi3>
   1d950:	00050e13          	mv	t3,a0
   1d954:	010cd593          	srl	a1,s9,0x10
   1d958:	00070513          	mv	a0,a4
   1d95c:	4f8040ef          	jal	21e54 <__mulsi3>
   1d960:	01035713          	srl	a4,t1,0x10
   1d964:	01c888b3          	add	a7,a7,t3
   1d968:	01170733          	add	a4,a4,a7
   1d96c:	00050693          	mv	a3,a0
   1d970:	01c77663          	bgeu	a4,t3,1d97c <__divdf3+0x56c>
   1d974:	00010637          	lui	a2,0x10
   1d978:	00c506b3          	add	a3,a0,a2
   1d97c:	01075613          	srl	a2,a4,0x10
   1d980:	00d60633          	add	a2,a2,a3
   1d984:	000106b7          	lui	a3,0x10
   1d988:	fff68693          	add	a3,a3,-1 # ffff <exit-0xa1>
   1d98c:	00d77733          	and	a4,a4,a3
   1d990:	01071713          	sll	a4,a4,0x10
   1d994:	00d37333          	and	t1,t1,a3
   1d998:	00670733          	add	a4,a4,t1
   1d99c:	00c7e863          	bltu	a5,a2,1d9ac <__divdf3+0x59c>
   1d9a0:	24c79463          	bne	a5,a2,1dbe8 <__divdf3+0x7d8>
   1d9a4:	00080693          	mv	a3,a6
   1d9a8:	04070263          	beqz	a4,1d9ec <__divdf3+0x5dc>
   1d9ac:	00fc07b3          	add	a5,s8,a5
   1d9b0:	fff80693          	add	a3,a6,-1
   1d9b4:	00078593          	mv	a1,a5
   1d9b8:	0387e463          	bltu	a5,s8,1d9e0 <__divdf3+0x5d0>
   1d9bc:	00c7e663          	bltu	a5,a2,1d9c8 <__divdf3+0x5b8>
   1d9c0:	22c79263          	bne	a5,a2,1dbe4 <__divdf3+0x7d4>
   1d9c4:	02ecf063          	bgeu	s9,a4,1d9e4 <__divdf3+0x5d4>
   1d9c8:	001c9513          	sll	a0,s9,0x1
   1d9cc:	019535b3          	sltu	a1,a0,s9
   1d9d0:	018585b3          	add	a1,a1,s8
   1d9d4:	ffe80693          	add	a3,a6,-2
   1d9d8:	00b785b3          	add	a1,a5,a1
   1d9dc:	00050c93          	mv	s9,a0
   1d9e0:	00c59463          	bne	a1,a2,1d9e8 <__divdf3+0x5d8>
   1d9e4:	01970463          	beq	a4,s9,1d9ec <__divdf3+0x5dc>
   1d9e8:	0016e693          	or	a3,a3,1
   1d9ec:	3ff90713          	add	a4,s2,1023
   1d9f0:	10e05a63          	blez	a4,1db04 <__divdf3+0x6f4>
   1d9f4:	0076f793          	and	a5,a3,7
   1d9f8:	02078063          	beqz	a5,1da18 <__divdf3+0x608>
   1d9fc:	00f6f793          	and	a5,a3,15
   1da00:	00400613          	li	a2,4
   1da04:	00c78a63          	beq	a5,a2,1da18 <__divdf3+0x608>
   1da08:	00468793          	add	a5,a3,4
   1da0c:	00d7b633          	sltu	a2,a5,a3
   1da10:	00c989b3          	add	s3,s3,a2
   1da14:	00078693          	mv	a3,a5
   1da18:	00799793          	sll	a5,s3,0x7
   1da1c:	0007da63          	bgez	a5,1da30 <__divdf3+0x620>
   1da20:	ff0007b7          	lui	a5,0xff000
   1da24:	fff78793          	add	a5,a5,-1 # feffffff <__BSS_END__+0xfefdc427>
   1da28:	00f9f9b3          	and	s3,s3,a5
   1da2c:	40090713          	add	a4,s2,1024
   1da30:	7fe00793          	li	a5,2046
   1da34:	0ae7c263          	blt	a5,a4,1dad8 <__divdf3+0x6c8>
   1da38:	0036d693          	srl	a3,a3,0x3
   1da3c:	01d99793          	sll	a5,s3,0x1d
   1da40:	00d7e6b3          	or	a3,a5,a3
   1da44:	0039d593          	srl	a1,s3,0x3
   1da48:	00c59593          	sll	a1,a1,0xc
   1da4c:	04c12083          	lw	ra,76(sp)
   1da50:	04812403          	lw	s0,72(sp)
   1da54:	00c5d593          	srl	a1,a1,0xc
   1da58:	01471713          	sll	a4,a4,0x14
   1da5c:	00b76733          	or	a4,a4,a1
   1da60:	01f49493          	sll	s1,s1,0x1f
   1da64:	009767b3          	or	a5,a4,s1
   1da68:	04012903          	lw	s2,64(sp)
   1da6c:	04412483          	lw	s1,68(sp)
   1da70:	03c12983          	lw	s3,60(sp)
   1da74:	03812a03          	lw	s4,56(sp)
   1da78:	03412a83          	lw	s5,52(sp)
   1da7c:	03012b03          	lw	s6,48(sp)
   1da80:	02c12b83          	lw	s7,44(sp)
   1da84:	02812c03          	lw	s8,40(sp)
   1da88:	02412c83          	lw	s9,36(sp)
   1da8c:	02012d03          	lw	s10,32(sp)
   1da90:	01c12d83          	lw	s11,28(sp)
   1da94:	00068513          	mv	a0,a3
   1da98:	00078593          	mv	a1,a5
   1da9c:	05010113          	add	sp,sp,80
   1daa0:	00008067          	ret
   1daa4:	fff90913          	add	s2,s2,-1
   1daa8:	00000d93          	li	s11,0
   1daac:	bc9ff06f          	j	1d674 <__divdf3+0x264>
   1dab0:	000a8493          	mv	s1,s5
   1dab4:	000d0993          	mv	s3,s10
   1dab8:	00040693          	mv	a3,s0
   1dabc:	000b0793          	mv	a5,s6
   1dac0:	00300713          	li	a4,3
   1dac4:	0ee78863          	beq	a5,a4,1dbb4 <__divdf3+0x7a4>
   1dac8:	00100713          	li	a4,1
   1dacc:	0ee78e63          	beq	a5,a4,1dbc8 <__divdf3+0x7b8>
   1dad0:	00200713          	li	a4,2
   1dad4:	f0e79ce3          	bne	a5,a4,1d9ec <__divdf3+0x5dc>
   1dad8:	00000593          	li	a1,0
   1dadc:	00000693          	li	a3,0
   1dae0:	7ff00713          	li	a4,2047
   1dae4:	f65ff06f          	j	1da48 <__divdf3+0x638>
   1dae8:	000a0493          	mv	s1,s4
   1daec:	fd5ff06f          	j	1dac0 <__divdf3+0x6b0>
   1daf0:	000809b7          	lui	s3,0x80
   1daf4:	00000693          	li	a3,0
   1daf8:	00000493          	li	s1,0
   1dafc:	00300793          	li	a5,3
   1db00:	fc1ff06f          	j	1dac0 <__divdf3+0x6b0>
   1db04:	00100593          	li	a1,1
   1db08:	40e585b3          	sub	a1,a1,a4
   1db0c:	03800793          	li	a5,56
   1db10:	0ab7cc63          	blt	a5,a1,1dbc8 <__divdf3+0x7b8>
   1db14:	01f00793          	li	a5,31
   1db18:	06b7c463          	blt	a5,a1,1db80 <__divdf3+0x770>
   1db1c:	41e90913          	add	s2,s2,1054
   1db20:	012997b3          	sll	a5,s3,s2
   1db24:	00b6d733          	srl	a4,a3,a1
   1db28:	01269933          	sll	s2,a3,s2
   1db2c:	00e7e7b3          	or	a5,a5,a4
   1db30:	01203933          	snez	s2,s2
   1db34:	0127e7b3          	or	a5,a5,s2
   1db38:	00b9d5b3          	srl	a1,s3,a1
   1db3c:	0077f713          	and	a4,a5,7
   1db40:	02070063          	beqz	a4,1db60 <__divdf3+0x750>
   1db44:	00f7f713          	and	a4,a5,15
   1db48:	00400693          	li	a3,4
   1db4c:	00d70a63          	beq	a4,a3,1db60 <__divdf3+0x750>
   1db50:	00478713          	add	a4,a5,4
   1db54:	00f736b3          	sltu	a3,a4,a5
   1db58:	00d585b3          	add	a1,a1,a3
   1db5c:	00070793          	mv	a5,a4
   1db60:	00859713          	sll	a4,a1,0x8
   1db64:	06074863          	bltz	a4,1dbd4 <__divdf3+0x7c4>
   1db68:	01d59693          	sll	a3,a1,0x1d
   1db6c:	0037d793          	srl	a5,a5,0x3
   1db70:	00f6e6b3          	or	a3,a3,a5
   1db74:	0035d593          	srl	a1,a1,0x3
   1db78:	00000713          	li	a4,0
   1db7c:	ecdff06f          	j	1da48 <__divdf3+0x638>
   1db80:	fe100793          	li	a5,-31
   1db84:	40e787b3          	sub	a5,a5,a4
   1db88:	02000613          	li	a2,32
   1db8c:	00f9d7b3          	srl	a5,s3,a5
   1db90:	00000713          	li	a4,0
   1db94:	00c58663          	beq	a1,a2,1dba0 <__divdf3+0x790>
   1db98:	43e90713          	add	a4,s2,1086
   1db9c:	00e99733          	sll	a4,s3,a4
   1dba0:	00d76733          	or	a4,a4,a3
   1dba4:	00e03733          	snez	a4,a4
   1dba8:	00e7e7b3          	or	a5,a5,a4
   1dbac:	00000593          	li	a1,0
   1dbb0:	f8dff06f          	j	1db3c <__divdf3+0x72c>
   1dbb4:	000805b7          	lui	a1,0x80
   1dbb8:	00000693          	li	a3,0
   1dbbc:	7ff00713          	li	a4,2047
   1dbc0:	00000493          	li	s1,0
   1dbc4:	e85ff06f          	j	1da48 <__divdf3+0x638>
   1dbc8:	00000593          	li	a1,0
   1dbcc:	00000693          	li	a3,0
   1dbd0:	fa9ff06f          	j	1db78 <__divdf3+0x768>
   1dbd4:	00000593          	li	a1,0
   1dbd8:	00000693          	li	a3,0
   1dbdc:	00100713          	li	a4,1
   1dbe0:	e69ff06f          	j	1da48 <__divdf3+0x638>
   1dbe4:	00068813          	mv	a6,a3
   1dbe8:	00080693          	mv	a3,a6
   1dbec:	dfdff06f          	j	1d9e8 <__divdf3+0x5d8>

0001dbf0 <__eqdf2>:
   1dbf0:	0145d713          	srl	a4,a1,0x14
   1dbf4:	001007b7          	lui	a5,0x100
   1dbf8:	fff78793          	add	a5,a5,-1 # fffff <__BSS_END__+0xdc427>
   1dbfc:	0146d813          	srl	a6,a3,0x14
   1dc00:	00050313          	mv	t1,a0
   1dc04:	00050e93          	mv	t4,a0
   1dc08:	7ff77713          	and	a4,a4,2047
   1dc0c:	7ff00513          	li	a0,2047
   1dc10:	00b7f8b3          	and	a7,a5,a1
   1dc14:	00060f13          	mv	t5,a2
   1dc18:	00d7f7b3          	and	a5,a5,a3
   1dc1c:	01f5d593          	srl	a1,a1,0x1f
   1dc20:	7ff87813          	and	a6,a6,2047
   1dc24:	01f6d693          	srl	a3,a3,0x1f
   1dc28:	00a71c63          	bne	a4,a0,1dc40 <__eqdf2+0x50>
   1dc2c:	0068ee33          	or	t3,a7,t1
   1dc30:	00100513          	li	a0,1
   1dc34:	000e1463          	bnez	t3,1dc3c <__eqdf2+0x4c>
   1dc38:	00e80663          	beq	a6,a4,1dc44 <__eqdf2+0x54>
   1dc3c:	00008067          	ret
   1dc40:	00a81863          	bne	a6,a0,1dc50 <__eqdf2+0x60>
   1dc44:	00c7e633          	or	a2,a5,a2
   1dc48:	00100513          	li	a0,1
   1dc4c:	fe0618e3          	bnez	a2,1dc3c <__eqdf2+0x4c>
   1dc50:	00100513          	li	a0,1
   1dc54:	ff0714e3          	bne	a4,a6,1dc3c <__eqdf2+0x4c>
   1dc58:	fef892e3          	bne	a7,a5,1dc3c <__eqdf2+0x4c>
   1dc5c:	ffee90e3          	bne	t4,t5,1dc3c <__eqdf2+0x4c>
   1dc60:	00d58a63          	beq	a1,a3,1dc74 <__eqdf2+0x84>
   1dc64:	fc071ce3          	bnez	a4,1dc3c <__eqdf2+0x4c>
   1dc68:	0068e8b3          	or	a7,a7,t1
   1dc6c:	01103533          	snez	a0,a7
   1dc70:	00008067          	ret
   1dc74:	00000513          	li	a0,0
   1dc78:	00008067          	ret

0001dc7c <__gedf2>:
   1dc7c:	0146d793          	srl	a5,a3,0x14
   1dc80:	0145d893          	srl	a7,a1,0x14
   1dc84:	00100737          	lui	a4,0x100
   1dc88:	fff70713          	add	a4,a4,-1 # fffff <__BSS_END__+0xdc427>
   1dc8c:	00050813          	mv	a6,a0
   1dc90:	00050e13          	mv	t3,a0
   1dc94:	7ff8f893          	and	a7,a7,2047
   1dc98:	7ff7f513          	and	a0,a5,2047
   1dc9c:	7ff00793          	li	a5,2047
   1dca0:	00b77333          	and	t1,a4,a1
   1dca4:	00060e93          	mv	t4,a2
   1dca8:	00d77733          	and	a4,a4,a3
   1dcac:	01f5d593          	srl	a1,a1,0x1f
   1dcb0:	01f6d693          	srl	a3,a3,0x1f
   1dcb4:	00f89663          	bne	a7,a5,1dcc0 <__gedf2+0x44>
   1dcb8:	010367b3          	or	a5,t1,a6
   1dcbc:	06079c63          	bnez	a5,1dd34 <__gedf2+0xb8>
   1dcc0:	7ff00793          	li	a5,2047
   1dcc4:	00f51663          	bne	a0,a5,1dcd0 <__gedf2+0x54>
   1dcc8:	00c767b3          	or	a5,a4,a2
   1dccc:	06079463          	bnez	a5,1dd34 <__gedf2+0xb8>
   1dcd0:	00000793          	li	a5,0
   1dcd4:	00089663          	bnez	a7,1dce0 <__gedf2+0x64>
   1dcd8:	01036833          	or	a6,t1,a6
   1dcdc:	00183793          	seqz	a5,a6
   1dce0:	04051e63          	bnez	a0,1dd3c <__gedf2+0xc0>
   1dce4:	00c76633          	or	a2,a4,a2
   1dce8:	00078c63          	beqz	a5,1dd00 <__gedf2+0x84>
   1dcec:	02060063          	beqz	a2,1dd0c <__gedf2+0x90>
   1dcf0:	00100513          	li	a0,1
   1dcf4:	00069c63          	bnez	a3,1dd0c <__gedf2+0x90>
   1dcf8:	fff00513          	li	a0,-1
   1dcfc:	00008067          	ret
   1dd00:	04061063          	bnez	a2,1dd40 <__gedf2+0xc4>
   1dd04:	fff00513          	li	a0,-1
   1dd08:	04058463          	beqz	a1,1dd50 <__gedf2+0xd4>
   1dd0c:	00008067          	ret
   1dd10:	fea8c0e3          	blt	a7,a0,1dcf0 <__gedf2+0x74>
   1dd14:	fe6768e3          	bltu	a4,t1,1dd04 <__gedf2+0x88>
   1dd18:	00e31863          	bne	t1,a4,1dd28 <__gedf2+0xac>
   1dd1c:	ffcee4e3          	bltu	t4,t3,1dd04 <__gedf2+0x88>
   1dd20:	00000513          	li	a0,0
   1dd24:	ffde74e3          	bgeu	t3,t4,1dd0c <__gedf2+0x90>
   1dd28:	00100513          	li	a0,1
   1dd2c:	fe0590e3          	bnez	a1,1dd0c <__gedf2+0x90>
   1dd30:	fc9ff06f          	j	1dcf8 <__gedf2+0x7c>
   1dd34:	ffe00513          	li	a0,-2
   1dd38:	00008067          	ret
   1dd3c:	fa079ae3          	bnez	a5,1dcf0 <__gedf2+0x74>
   1dd40:	fcb692e3          	bne	a3,a1,1dd04 <__gedf2+0x88>
   1dd44:	fd1556e3          	bge	a0,a7,1dd10 <__gedf2+0x94>
   1dd48:	fff00513          	li	a0,-1
   1dd4c:	fc0690e3          	bnez	a3,1dd0c <__gedf2+0x90>
   1dd50:	00100513          	li	a0,1
   1dd54:	00008067          	ret

0001dd58 <__ledf2>:
   1dd58:	0146d793          	srl	a5,a3,0x14
   1dd5c:	0145d893          	srl	a7,a1,0x14
   1dd60:	00100737          	lui	a4,0x100
   1dd64:	fff70713          	add	a4,a4,-1 # fffff <__BSS_END__+0xdc427>
   1dd68:	00050813          	mv	a6,a0
   1dd6c:	00050e13          	mv	t3,a0
   1dd70:	7ff8f893          	and	a7,a7,2047
   1dd74:	7ff7f513          	and	a0,a5,2047
   1dd78:	7ff00793          	li	a5,2047
   1dd7c:	00b77333          	and	t1,a4,a1
   1dd80:	00060e93          	mv	t4,a2
   1dd84:	00d77733          	and	a4,a4,a3
   1dd88:	01f5d593          	srl	a1,a1,0x1f
   1dd8c:	01f6d693          	srl	a3,a3,0x1f
   1dd90:	00f89663          	bne	a7,a5,1dd9c <__ledf2+0x44>
   1dd94:	010367b3          	or	a5,t1,a6
   1dd98:	06079c63          	bnez	a5,1de10 <__ledf2+0xb8>
   1dd9c:	7ff00793          	li	a5,2047
   1dda0:	00f51663          	bne	a0,a5,1ddac <__ledf2+0x54>
   1dda4:	00c767b3          	or	a5,a4,a2
   1dda8:	06079463          	bnez	a5,1de10 <__ledf2+0xb8>
   1ddac:	00000793          	li	a5,0
   1ddb0:	00089663          	bnez	a7,1ddbc <__ledf2+0x64>
   1ddb4:	01036833          	or	a6,t1,a6
   1ddb8:	00183793          	seqz	a5,a6
   1ddbc:	04051e63          	bnez	a0,1de18 <__ledf2+0xc0>
   1ddc0:	00c76633          	or	a2,a4,a2
   1ddc4:	00078c63          	beqz	a5,1dddc <__ledf2+0x84>
   1ddc8:	02060063          	beqz	a2,1dde8 <__ledf2+0x90>
   1ddcc:	00100513          	li	a0,1
   1ddd0:	00069c63          	bnez	a3,1dde8 <__ledf2+0x90>
   1ddd4:	fff00513          	li	a0,-1
   1ddd8:	00008067          	ret
   1dddc:	04061063          	bnez	a2,1de1c <__ledf2+0xc4>
   1dde0:	fff00513          	li	a0,-1
   1dde4:	04058463          	beqz	a1,1de2c <__ledf2+0xd4>
   1dde8:	00008067          	ret
   1ddec:	fea8c0e3          	blt	a7,a0,1ddcc <__ledf2+0x74>
   1ddf0:	fe6768e3          	bltu	a4,t1,1dde0 <__ledf2+0x88>
   1ddf4:	00e31863          	bne	t1,a4,1de04 <__ledf2+0xac>
   1ddf8:	ffcee4e3          	bltu	t4,t3,1dde0 <__ledf2+0x88>
   1ddfc:	00000513          	li	a0,0
   1de00:	ffde74e3          	bgeu	t3,t4,1dde8 <__ledf2+0x90>
   1de04:	00100513          	li	a0,1
   1de08:	fe0590e3          	bnez	a1,1dde8 <__ledf2+0x90>
   1de0c:	fc9ff06f          	j	1ddd4 <__ledf2+0x7c>
   1de10:	00200513          	li	a0,2
   1de14:	00008067          	ret
   1de18:	fa079ae3          	bnez	a5,1ddcc <__ledf2+0x74>
   1de1c:	fcb692e3          	bne	a3,a1,1dde0 <__ledf2+0x88>
   1de20:	fd1556e3          	bge	a0,a7,1ddec <__ledf2+0x94>
   1de24:	fff00513          	li	a0,-1
   1de28:	fc0690e3          	bnez	a3,1dde8 <__ledf2+0x90>
   1de2c:	00100513          	li	a0,1
   1de30:	00008067          	ret

0001de34 <__muldf3>:
   1de34:	fd010113          	add	sp,sp,-48
   1de38:	01512a23          	sw	s5,20(sp)
   1de3c:	0145da93          	srl	s5,a1,0x14
   1de40:	02812423          	sw	s0,40(sp)
   1de44:	02912223          	sw	s1,36(sp)
   1de48:	03212023          	sw	s2,32(sp)
   1de4c:	01312e23          	sw	s3,28(sp)
   1de50:	01612823          	sw	s6,16(sp)
   1de54:	00c59493          	sll	s1,a1,0xc
   1de58:	02112623          	sw	ra,44(sp)
   1de5c:	01412c23          	sw	s4,24(sp)
   1de60:	01712623          	sw	s7,12(sp)
   1de64:	7ffafa93          	and	s5,s5,2047
   1de68:	00050413          	mv	s0,a0
   1de6c:	00060b13          	mv	s6,a2
   1de70:	00068913          	mv	s2,a3
   1de74:	00c4d493          	srl	s1,s1,0xc
   1de78:	01f5d993          	srl	s3,a1,0x1f
   1de7c:	300a8e63          	beqz	s5,1e198 <__muldf3+0x364>
   1de80:	7ff00793          	li	a5,2047
   1de84:	38fa8063          	beq	s5,a5,1e204 <__muldf3+0x3d0>
   1de88:	00349493          	sll	s1,s1,0x3
   1de8c:	01d55793          	srl	a5,a0,0x1d
   1de90:	0097e7b3          	or	a5,a5,s1
   1de94:	008004b7          	lui	s1,0x800
   1de98:	0097e4b3          	or	s1,a5,s1
   1de9c:	00351a13          	sll	s4,a0,0x3
   1dea0:	c01a8a93          	add	s5,s5,-1023
   1dea4:	00000b93          	li	s7,0
   1dea8:	01495713          	srl	a4,s2,0x14
   1deac:	00c91413          	sll	s0,s2,0xc
   1deb0:	7ff77713          	and	a4,a4,2047
   1deb4:	00c45413          	srl	s0,s0,0xc
   1deb8:	01f95913          	srl	s2,s2,0x1f
   1debc:	38070063          	beqz	a4,1e23c <__muldf3+0x408>
   1dec0:	7ff00793          	li	a5,2047
   1dec4:	3ef70463          	beq	a4,a5,1e2ac <__muldf3+0x478>
   1dec8:	00341413          	sll	s0,s0,0x3
   1decc:	01db5793          	srl	a5,s6,0x1d
   1ded0:	0087e7b3          	or	a5,a5,s0
   1ded4:	00800437          	lui	s0,0x800
   1ded8:	0087e433          	or	s0,a5,s0
   1dedc:	c0170693          	add	a3,a4,-1023
   1dee0:	003b1793          	sll	a5,s6,0x3
   1dee4:	00000713          	li	a4,0
   1dee8:	00da8ab3          	add	s5,s5,a3
   1deec:	002b9693          	sll	a3,s7,0x2
   1def0:	00e6e6b3          	or	a3,a3,a4
   1def4:	00a00613          	li	a2,10
   1def8:	001a8893          	add	a7,s5,1
   1defc:	4cd64663          	blt	a2,a3,1e3c8 <__muldf3+0x594>
   1df00:	00200613          	li	a2,2
   1df04:	0129c833          	xor	a6,s3,s2
   1df08:	3cd64e63          	blt	a2,a3,1e2e4 <__muldf3+0x4b0>
   1df0c:	fff68693          	add	a3,a3,-1
   1df10:	00100613          	li	a2,1
   1df14:	3ed67a63          	bgeu	a2,a3,1e308 <__muldf3+0x4d4>
   1df18:	00010937          	lui	s2,0x10
   1df1c:	fff90713          	add	a4,s2,-1 # ffff <exit-0xa1>
   1df20:	010a5293          	srl	t0,s4,0x10
   1df24:	00e7ffb3          	and	t6,a5,a4
   1df28:	00ea7a33          	and	s4,s4,a4
   1df2c:	0107df13          	srl	t5,a5,0x10
   1df30:	000a0513          	mv	a0,s4
   1df34:	000f8593          	mv	a1,t6
   1df38:	71d030ef          	jal	21e54 <__mulsi3>
   1df3c:	00050793          	mv	a5,a0
   1df40:	000f0593          	mv	a1,t5
   1df44:	000a0513          	mv	a0,s4
   1df48:	70d030ef          	jal	21e54 <__mulsi3>
   1df4c:	00050e93          	mv	t4,a0
   1df50:	000f8593          	mv	a1,t6
   1df54:	00028513          	mv	a0,t0
   1df58:	6fd030ef          	jal	21e54 <__mulsi3>
   1df5c:	00050393          	mv	t2,a0
   1df60:	000f0593          	mv	a1,t5
   1df64:	00028513          	mv	a0,t0
   1df68:	6ed030ef          	jal	21e54 <__mulsi3>
   1df6c:	0107d313          	srl	t1,a5,0x10
   1df70:	007e8eb3          	add	t4,t4,t2
   1df74:	01d30333          	add	t1,t1,t4
   1df78:	00050e13          	mv	t3,a0
   1df7c:	00737463          	bgeu	t1,t2,1df84 <__muldf3+0x150>
   1df80:	01250e33          	add	t3,a0,s2
   1df84:	01035993          	srl	s3,t1,0x10
   1df88:	00e37333          	and	t1,t1,a4
   1df8c:	00e7f7b3          	and	a5,a5,a4
   1df90:	01031313          	sll	t1,t1,0x10
   1df94:	00e47733          	and	a4,s0,a4
   1df98:	00f30333          	add	t1,t1,a5
   1df9c:	01045913          	srl	s2,s0,0x10
   1dfa0:	000a0513          	mv	a0,s4
   1dfa4:	00070593          	mv	a1,a4
   1dfa8:	6ad030ef          	jal	21e54 <__mulsi3>
   1dfac:	00050393          	mv	t2,a0
   1dfb0:	00090593          	mv	a1,s2
   1dfb4:	000a0513          	mv	a0,s4
   1dfb8:	69d030ef          	jal	21e54 <__mulsi3>
   1dfbc:	00050e93          	mv	t4,a0
   1dfc0:	00070593          	mv	a1,a4
   1dfc4:	00028513          	mv	a0,t0
   1dfc8:	68d030ef          	jal	21e54 <__mulsi3>
   1dfcc:	00050413          	mv	s0,a0
   1dfd0:	00090593          	mv	a1,s2
   1dfd4:	00028513          	mv	a0,t0
   1dfd8:	67d030ef          	jal	21e54 <__mulsi3>
   1dfdc:	0103d613          	srl	a2,t2,0x10
   1dfe0:	008e8eb3          	add	t4,t4,s0
   1dfe4:	01d60633          	add	a2,a2,t4
   1dfe8:	00050793          	mv	a5,a0
   1dfec:	00867663          	bgeu	a2,s0,1dff8 <__muldf3+0x1c4>
   1dff0:	000106b7          	lui	a3,0x10
   1dff4:	00d507b3          	add	a5,a0,a3
   1dff8:	00010a37          	lui	s4,0x10
   1dffc:	fffa0e93          	add	t4,s4,-1 # ffff <exit-0xa1>
   1e000:	01065293          	srl	t0,a2,0x10
   1e004:	00f282b3          	add	t0,t0,a5
   1e008:	01d677b3          	and	a5,a2,t4
   1e00c:	01d3f3b3          	and	t2,t2,t4
   1e010:	01079793          	sll	a5,a5,0x10
   1e014:	007787b3          	add	a5,a5,t2
   1e018:	01d4feb3          	and	t4,s1,t4
   1e01c:	00f98433          	add	s0,s3,a5
   1e020:	000e8513          	mv	a0,t4
   1e024:	0104d993          	srl	s3,s1,0x10
   1e028:	000f8593          	mv	a1,t6
   1e02c:	629030ef          	jal	21e54 <__mulsi3>
   1e030:	00050493          	mv	s1,a0
   1e034:	000f0593          	mv	a1,t5
   1e038:	000e8513          	mv	a0,t4
   1e03c:	619030ef          	jal	21e54 <__mulsi3>
   1e040:	00050393          	mv	t2,a0
   1e044:	000f8593          	mv	a1,t6
   1e048:	00098513          	mv	a0,s3
   1e04c:	609030ef          	jal	21e54 <__mulsi3>
   1e050:	00050f93          	mv	t6,a0
   1e054:	000f0593          	mv	a1,t5
   1e058:	00098513          	mv	a0,s3
   1e05c:	5f9030ef          	jal	21e54 <__mulsi3>
   1e060:	0104d613          	srl	a2,s1,0x10
   1e064:	01f383b3          	add	t2,t2,t6
   1e068:	00760633          	add	a2,a2,t2
   1e06c:	00050693          	mv	a3,a0
   1e070:	01f67463          	bgeu	a2,t6,1e078 <__muldf3+0x244>
   1e074:	014506b3          	add	a3,a0,s4
   1e078:	00010a37          	lui	s4,0x10
   1e07c:	fffa0393          	add	t2,s4,-1 # ffff <exit-0xa1>
   1e080:	01065f93          	srl	t6,a2,0x10
   1e084:	00767633          	and	a2,a2,t2
   1e088:	01061613          	sll	a2,a2,0x10
   1e08c:	0074f4b3          	and	s1,s1,t2
   1e090:	00df8fb3          	add	t6,t6,a3
   1e094:	00960f33          	add	t5,a2,s1
   1e098:	000e8513          	mv	a0,t4
   1e09c:	00070593          	mv	a1,a4
   1e0a0:	5b5030ef          	jal	21e54 <__mulsi3>
   1e0a4:	00050493          	mv	s1,a0
   1e0a8:	00090593          	mv	a1,s2
   1e0ac:	000e8513          	mv	a0,t4
   1e0b0:	5a5030ef          	jal	21e54 <__mulsi3>
   1e0b4:	00050b13          	mv	s6,a0
   1e0b8:	00070593          	mv	a1,a4
   1e0bc:	00098513          	mv	a0,s3
   1e0c0:	595030ef          	jal	21e54 <__mulsi3>
   1e0c4:	00050713          	mv	a4,a0
   1e0c8:	00090593          	mv	a1,s2
   1e0cc:	00098513          	mv	a0,s3
   1e0d0:	585030ef          	jal	21e54 <__mulsi3>
   1e0d4:	0104d593          	srl	a1,s1,0x10
   1e0d8:	00eb0b33          	add	s6,s6,a4
   1e0dc:	016585b3          	add	a1,a1,s6
   1e0e0:	00050e93          	mv	t4,a0
   1e0e4:	00e5f463          	bgeu	a1,a4,1e0ec <__muldf3+0x2b8>
   1e0e8:	01450eb3          	add	t4,a0,s4
   1e0ec:	0075f733          	and	a4,a1,t2
   1e0f0:	01071713          	sll	a4,a4,0x10
   1e0f4:	0074f4b3          	and	s1,s1,t2
   1e0f8:	008e06b3          	add	a3,t3,s0
   1e0fc:	00970733          	add	a4,a4,s1
   1e100:	005702b3          	add	t0,a4,t0
   1e104:	00f6b7b3          	sltu	a5,a3,a5
   1e108:	00f287b3          	add	a5,t0,a5
   1e10c:	00e2b633          	sltu	a2,t0,a4
   1e110:	0057b2b3          	sltu	t0,a5,t0
   1e114:	0105d593          	srl	a1,a1,0x10
   1e118:	00566633          	or	a2,a2,t0
   1e11c:	00b60633          	add	a2,a2,a1
   1e120:	01e685b3          	add	a1,a3,t5
   1e124:	01f78fb3          	add	t6,a5,t6
   1e128:	00d5b6b3          	sltu	a3,a1,a3
   1e12c:	00df86b3          	add	a3,t6,a3
   1e130:	00ffb733          	sltu	a4,t6,a5
   1e134:	01f6bfb3          	sltu	t6,a3,t6
   1e138:	00959793          	sll	a5,a1,0x9
   1e13c:	01f76733          	or	a4,a4,t6
   1e140:	00c70733          	add	a4,a4,a2
   1e144:	0067e7b3          	or	a5,a5,t1
   1e148:	01d70733          	add	a4,a4,t4
   1e14c:	00f037b3          	snez	a5,a5
   1e150:	0175d593          	srl	a1,a1,0x17
   1e154:	00971713          	sll	a4,a4,0x9
   1e158:	0176d413          	srl	s0,a3,0x17
   1e15c:	00b7e7b3          	or	a5,a5,a1
   1e160:	00969693          	sll	a3,a3,0x9
   1e164:	00d7e7b3          	or	a5,a5,a3
   1e168:	00771693          	sll	a3,a4,0x7
   1e16c:	00876433          	or	s0,a4,s0
   1e170:	0206d063          	bgez	a3,1e190 <__muldf3+0x35c>
   1e174:	0017d713          	srl	a4,a5,0x1
   1e178:	0017f793          	and	a5,a5,1
   1e17c:	00f76733          	or	a4,a4,a5
   1e180:	01f41793          	sll	a5,s0,0x1f
   1e184:	00f767b3          	or	a5,a4,a5
   1e188:	00145413          	srl	s0,s0,0x1
   1e18c:	00088a93          	mv	s5,a7
   1e190:	000a8893          	mv	a7,s5
   1e194:	18c0006f          	j	1e320 <__muldf3+0x4ec>
   1e198:	00a4ea33          	or	s4,s1,a0
   1e19c:	080a0063          	beqz	s4,1e21c <__muldf3+0x3e8>
   1e1a0:	04048063          	beqz	s1,1e1e0 <__muldf3+0x3ac>
   1e1a4:	00048513          	mv	a0,s1
   1e1a8:	585030ef          	jal	21f2c <__clzsi2>
   1e1ac:	ff550713          	add	a4,a0,-11
   1e1b0:	01d00793          	li	a5,29
   1e1b4:	ff850693          	add	a3,a0,-8
   1e1b8:	40e787b3          	sub	a5,a5,a4
   1e1bc:	00d494b3          	sll	s1,s1,a3
   1e1c0:	00f457b3          	srl	a5,s0,a5
   1e1c4:	0097e7b3          	or	a5,a5,s1
   1e1c8:	00d414b3          	sll	s1,s0,a3
   1e1cc:	c0d00a93          	li	s5,-1011
   1e1d0:	00048a13          	mv	s4,s1
   1e1d4:	40aa8ab3          	sub	s5,s5,a0
   1e1d8:	00078493          	mv	s1,a5
   1e1dc:	cc9ff06f          	j	1dea4 <__muldf3+0x70>
   1e1e0:	54d030ef          	jal	21f2c <__clzsi2>
   1e1e4:	00050793          	mv	a5,a0
   1e1e8:	01578713          	add	a4,a5,21
   1e1ec:	01c00693          	li	a3,28
   1e1f0:	02050513          	add	a0,a0,32
   1e1f4:	fae6dee3          	bge	a3,a4,1e1b0 <__muldf3+0x37c>
   1e1f8:	ff878793          	add	a5,a5,-8
   1e1fc:	00f417b3          	sll	a5,s0,a5
   1e200:	fcdff06f          	j	1e1cc <__muldf3+0x398>
   1e204:	00a4ea33          	or	s4,s1,a0
   1e208:	020a1263          	bnez	s4,1e22c <__muldf3+0x3f8>
   1e20c:	00000493          	li	s1,0
   1e210:	7ff00a93          	li	s5,2047
   1e214:	00200b93          	li	s7,2
   1e218:	c91ff06f          	j	1dea8 <__muldf3+0x74>
   1e21c:	00000493          	li	s1,0
   1e220:	00000a93          	li	s5,0
   1e224:	00100b93          	li	s7,1
   1e228:	c81ff06f          	j	1dea8 <__muldf3+0x74>
   1e22c:	00050a13          	mv	s4,a0
   1e230:	7ff00a93          	li	s5,2047
   1e234:	00300b93          	li	s7,3
   1e238:	c71ff06f          	j	1dea8 <__muldf3+0x74>
   1e23c:	016467b3          	or	a5,s0,s6
   1e240:	08078263          	beqz	a5,1e2c4 <__muldf3+0x490>
   1e244:	04040063          	beqz	s0,1e284 <__muldf3+0x450>
   1e248:	00040513          	mv	a0,s0
   1e24c:	4e1030ef          	jal	21f2c <__clzsi2>
   1e250:	ff550693          	add	a3,a0,-11
   1e254:	01d00713          	li	a4,29
   1e258:	ff850793          	add	a5,a0,-8
   1e25c:	40d70733          	sub	a4,a4,a3
   1e260:	00f41433          	sll	s0,s0,a5
   1e264:	00eb5733          	srl	a4,s6,a4
   1e268:	00876733          	or	a4,a4,s0
   1e26c:	00fb1433          	sll	s0,s6,a5
   1e270:	c0d00693          	li	a3,-1011
   1e274:	00040793          	mv	a5,s0
   1e278:	40a686b3          	sub	a3,a3,a0
   1e27c:	00070413          	mv	s0,a4
   1e280:	c65ff06f          	j	1dee4 <__muldf3+0xb0>
   1e284:	000b0513          	mv	a0,s6
   1e288:	4a5030ef          	jal	21f2c <__clzsi2>
   1e28c:	00050793          	mv	a5,a0
   1e290:	01578693          	add	a3,a5,21
   1e294:	01c00713          	li	a4,28
   1e298:	02050513          	add	a0,a0,32
   1e29c:	fad75ce3          	bge	a4,a3,1e254 <__muldf3+0x420>
   1e2a0:	ff878793          	add	a5,a5,-8
   1e2a4:	00fb1733          	sll	a4,s6,a5
   1e2a8:	fc9ff06f          	j	1e270 <__muldf3+0x43c>
   1e2ac:	016467b3          	or	a5,s0,s6
   1e2b0:	02079263          	bnez	a5,1e2d4 <__muldf3+0x4a0>
   1e2b4:	00000413          	li	s0,0
   1e2b8:	7ff00693          	li	a3,2047
   1e2bc:	00200713          	li	a4,2
   1e2c0:	c29ff06f          	j	1dee8 <__muldf3+0xb4>
   1e2c4:	00000413          	li	s0,0
   1e2c8:	00000693          	li	a3,0
   1e2cc:	00100713          	li	a4,1
   1e2d0:	c19ff06f          	j	1dee8 <__muldf3+0xb4>
   1e2d4:	000b0793          	mv	a5,s6
   1e2d8:	7ff00693          	li	a3,2047
   1e2dc:	00300713          	li	a4,3
   1e2e0:	c09ff06f          	j	1dee8 <__muldf3+0xb4>
   1e2e4:	00100613          	li	a2,1
   1e2e8:	00d61633          	sll	a2,a2,a3
   1e2ec:	53067693          	and	a3,a2,1328
   1e2f0:	0e069663          	bnez	a3,1e3dc <__muldf3+0x5a8>
   1e2f4:	24067593          	and	a1,a2,576
   1e2f8:	1a059a63          	bnez	a1,1e4ac <__muldf3+0x678>
   1e2fc:	08867613          	and	a2,a2,136
   1e300:	c0060ce3          	beqz	a2,1df18 <__muldf3+0xe4>
   1e304:	00090813          	mv	a6,s2
   1e308:	00200693          	li	a3,2
   1e30c:	18d70863          	beq	a4,a3,1e49c <__muldf3+0x668>
   1e310:	00300693          	li	a3,3
   1e314:	1ad70463          	beq	a4,a3,1e4bc <__muldf3+0x688>
   1e318:	00100693          	li	a3,1
   1e31c:	1ad70663          	beq	a4,a3,1e4c8 <__muldf3+0x694>
   1e320:	3ff88613          	add	a2,a7,1023
   1e324:	0cc05463          	blez	a2,1e3ec <__muldf3+0x5b8>
   1e328:	0077f713          	and	a4,a5,7
   1e32c:	02070063          	beqz	a4,1e34c <__muldf3+0x518>
   1e330:	00f7f713          	and	a4,a5,15
   1e334:	00400693          	li	a3,4
   1e338:	00d70a63          	beq	a4,a3,1e34c <__muldf3+0x518>
   1e33c:	00478713          	add	a4,a5,4
   1e340:	00f736b3          	sltu	a3,a4,a5
   1e344:	00d40433          	add	s0,s0,a3
   1e348:	00070793          	mv	a5,a4
   1e34c:	00741713          	sll	a4,s0,0x7
   1e350:	00075a63          	bgez	a4,1e364 <__muldf3+0x530>
   1e354:	ff000737          	lui	a4,0xff000
   1e358:	fff70713          	add	a4,a4,-1 # feffffff <__BSS_END__+0xfefdc427>
   1e35c:	00e47433          	and	s0,s0,a4
   1e360:	40088613          	add	a2,a7,1024
   1e364:	7fe00713          	li	a4,2046
   1e368:	12c74a63          	blt	a4,a2,1e49c <__muldf3+0x668>
   1e36c:	0037d793          	srl	a5,a5,0x3
   1e370:	01d41693          	sll	a3,s0,0x1d
   1e374:	00f6e6b3          	or	a3,a3,a5
   1e378:	00345713          	srl	a4,s0,0x3
   1e37c:	00c71713          	sll	a4,a4,0xc
   1e380:	02c12083          	lw	ra,44(sp)
   1e384:	02812403          	lw	s0,40(sp)
   1e388:	01461613          	sll	a2,a2,0x14
   1e38c:	00c75713          	srl	a4,a4,0xc
   1e390:	00e66633          	or	a2,a2,a4
   1e394:	01f81813          	sll	a6,a6,0x1f
   1e398:	010667b3          	or	a5,a2,a6
   1e39c:	02412483          	lw	s1,36(sp)
   1e3a0:	02012903          	lw	s2,32(sp)
   1e3a4:	01c12983          	lw	s3,28(sp)
   1e3a8:	01812a03          	lw	s4,24(sp)
   1e3ac:	01412a83          	lw	s5,20(sp)
   1e3b0:	01012b03          	lw	s6,16(sp)
   1e3b4:	00c12b83          	lw	s7,12(sp)
   1e3b8:	00068513          	mv	a0,a3
   1e3bc:	00078593          	mv	a1,a5
   1e3c0:	03010113          	add	sp,sp,48
   1e3c4:	00008067          	ret
   1e3c8:	00f00613          	li	a2,15
   1e3cc:	0ec68863          	beq	a3,a2,1e4bc <__muldf3+0x688>
   1e3d0:	00b00613          	li	a2,11
   1e3d4:	00098813          	mv	a6,s3
   1e3d8:	f2c686e3          	beq	a3,a2,1e304 <__muldf3+0x4d0>
   1e3dc:	00048413          	mv	s0,s1
   1e3e0:	000a0793          	mv	a5,s4
   1e3e4:	000b8713          	mv	a4,s7
   1e3e8:	f21ff06f          	j	1e308 <__muldf3+0x4d4>
   1e3ec:	00100713          	li	a4,1
   1e3f0:	40c70733          	sub	a4,a4,a2
   1e3f4:	03800693          	li	a3,56
   1e3f8:	0ce6c863          	blt	a3,a4,1e4c8 <__muldf3+0x694>
   1e3fc:	01f00693          	li	a3,31
   1e400:	06e6c463          	blt	a3,a4,1e468 <__muldf3+0x634>
   1e404:	41e88893          	add	a7,a7,1054
   1e408:	00e7d633          	srl	a2,a5,a4
   1e40c:	011416b3          	sll	a3,s0,a7
   1e410:	011798b3          	sll	a7,a5,a7
   1e414:	00c6e6b3          	or	a3,a3,a2
   1e418:	011038b3          	snez	a7,a7
   1e41c:	0116e7b3          	or	a5,a3,a7
   1e420:	00e45733          	srl	a4,s0,a4
   1e424:	0077f693          	and	a3,a5,7
   1e428:	02068063          	beqz	a3,1e448 <__muldf3+0x614>
   1e42c:	00f7f693          	and	a3,a5,15
   1e430:	00400613          	li	a2,4
   1e434:	00c68a63          	beq	a3,a2,1e448 <__muldf3+0x614>
   1e438:	00478693          	add	a3,a5,4
   1e43c:	00f6b633          	sltu	a2,a3,a5
   1e440:	00c70733          	add	a4,a4,a2
   1e444:	00068793          	mv	a5,a3
   1e448:	00871693          	sll	a3,a4,0x8
   1e44c:	0806c463          	bltz	a3,1e4d4 <__muldf3+0x6a0>
   1e450:	01d71693          	sll	a3,a4,0x1d
   1e454:	0037d793          	srl	a5,a5,0x3
   1e458:	00f6e6b3          	or	a3,a3,a5
   1e45c:	00375713          	srl	a4,a4,0x3
   1e460:	00000613          	li	a2,0
   1e464:	f19ff06f          	j	1e37c <__muldf3+0x548>
   1e468:	fe100693          	li	a3,-31
   1e46c:	40c686b3          	sub	a3,a3,a2
   1e470:	02000593          	li	a1,32
   1e474:	00d456b3          	srl	a3,s0,a3
   1e478:	00000613          	li	a2,0
   1e47c:	00b70663          	beq	a4,a1,1e488 <__muldf3+0x654>
   1e480:	43e88613          	add	a2,a7,1086
   1e484:	00c41633          	sll	a2,s0,a2
   1e488:	00f66633          	or	a2,a2,a5
   1e48c:	00c03633          	snez	a2,a2
   1e490:	00c6e7b3          	or	a5,a3,a2
   1e494:	00000713          	li	a4,0
   1e498:	f8dff06f          	j	1e424 <__muldf3+0x5f0>
   1e49c:	00000713          	li	a4,0
   1e4a0:	00000693          	li	a3,0
   1e4a4:	7ff00613          	li	a2,2047
   1e4a8:	ed5ff06f          	j	1e37c <__muldf3+0x548>
   1e4ac:	00080737          	lui	a4,0x80
   1e4b0:	7ff00613          	li	a2,2047
   1e4b4:	00000813          	li	a6,0
   1e4b8:	ec5ff06f          	j	1e37c <__muldf3+0x548>
   1e4bc:	00080737          	lui	a4,0x80
   1e4c0:	00000693          	li	a3,0
   1e4c4:	fedff06f          	j	1e4b0 <__muldf3+0x67c>
   1e4c8:	00000713          	li	a4,0
   1e4cc:	00000693          	li	a3,0
   1e4d0:	f91ff06f          	j	1e460 <__muldf3+0x62c>
   1e4d4:	00000713          	li	a4,0
   1e4d8:	00000693          	li	a3,0
   1e4dc:	00100613          	li	a2,1
   1e4e0:	e9dff06f          	j	1e37c <__muldf3+0x548>

0001e4e4 <__subdf3>:
   1e4e4:	00100837          	lui	a6,0x100
   1e4e8:	fff80813          	add	a6,a6,-1 # fffff <__BSS_END__+0xdc427>
   1e4ec:	fe010113          	add	sp,sp,-32
   1e4f0:	00b878b3          	and	a7,a6,a1
   1e4f4:	0145d713          	srl	a4,a1,0x14
   1e4f8:	01d55793          	srl	a5,a0,0x1d
   1e4fc:	00d87833          	and	a6,a6,a3
   1e500:	01212823          	sw	s2,16(sp)
   1e504:	7ff77913          	and	s2,a4,2047
   1e508:	00389713          	sll	a4,a7,0x3
   1e50c:	0146d893          	srl	a7,a3,0x14
   1e510:	00912a23          	sw	s1,20(sp)
   1e514:	00e7e7b3          	or	a5,a5,a4
   1e518:	01f5d493          	srl	s1,a1,0x1f
   1e51c:	01d65713          	srl	a4,a2,0x1d
   1e520:	00381813          	sll	a6,a6,0x3
   1e524:	00112e23          	sw	ra,28(sp)
   1e528:	00812c23          	sw	s0,24(sp)
   1e52c:	01312623          	sw	s3,12(sp)
   1e530:	7ff8f893          	and	a7,a7,2047
   1e534:	7ff00593          	li	a1,2047
   1e538:	00351513          	sll	a0,a0,0x3
   1e53c:	01f6d693          	srl	a3,a3,0x1f
   1e540:	01076733          	or	a4,a4,a6
   1e544:	00361613          	sll	a2,a2,0x3
   1e548:	00b89663          	bne	a7,a1,1e554 <__subdf3+0x70>
   1e54c:	00c765b3          	or	a1,a4,a2
   1e550:	00059463          	bnez	a1,1e558 <__subdf3+0x74>
   1e554:	0016c693          	xor	a3,a3,1
   1e558:	41190833          	sub	a6,s2,a7
   1e55c:	2a969a63          	bne	a3,s1,1e810 <__subdf3+0x32c>
   1e560:	11005c63          	blez	a6,1e678 <__subdf3+0x194>
   1e564:	04089063          	bnez	a7,1e5a4 <__subdf3+0xc0>
   1e568:	00c766b3          	or	a3,a4,a2
   1e56c:	66068063          	beqz	a3,1ebcc <__subdf3+0x6e8>
   1e570:	fff80593          	add	a1,a6,-1
   1e574:	02059063          	bnez	a1,1e594 <__subdf3+0xb0>
   1e578:	00c50633          	add	a2,a0,a2
   1e57c:	00a636b3          	sltu	a3,a2,a0
   1e580:	00e78733          	add	a4,a5,a4
   1e584:	00060513          	mv	a0,a2
   1e588:	00d707b3          	add	a5,a4,a3
   1e58c:	00100913          	li	s2,1
   1e590:	06c0006f          	j	1e5fc <__subdf3+0x118>
   1e594:	7ff00693          	li	a3,2047
   1e598:	02d81063          	bne	a6,a3,1e5b8 <__subdf3+0xd4>
   1e59c:	7ff00913          	li	s2,2047
   1e5a0:	1f80006f          	j	1e798 <__subdf3+0x2b4>
   1e5a4:	7ff00693          	li	a3,2047
   1e5a8:	1ed90863          	beq	s2,a3,1e798 <__subdf3+0x2b4>
   1e5ac:	008006b7          	lui	a3,0x800
   1e5b0:	00d76733          	or	a4,a4,a3
   1e5b4:	00080593          	mv	a1,a6
   1e5b8:	03800693          	li	a3,56
   1e5bc:	0ab6c863          	blt	a3,a1,1e66c <__subdf3+0x188>
   1e5c0:	01f00693          	li	a3,31
   1e5c4:	06b6ca63          	blt	a3,a1,1e638 <__subdf3+0x154>
   1e5c8:	02000813          	li	a6,32
   1e5cc:	40b80833          	sub	a6,a6,a1
   1e5d0:	010716b3          	sll	a3,a4,a6
   1e5d4:	00b658b3          	srl	a7,a2,a1
   1e5d8:	01061833          	sll	a6,a2,a6
   1e5dc:	0116e6b3          	or	a3,a3,a7
   1e5e0:	01003833          	snez	a6,a6
   1e5e4:	0106e6b3          	or	a3,a3,a6
   1e5e8:	00b755b3          	srl	a1,a4,a1
   1e5ec:	00a68533          	add	a0,a3,a0
   1e5f0:	00f585b3          	add	a1,a1,a5
   1e5f4:	00d536b3          	sltu	a3,a0,a3
   1e5f8:	00d587b3          	add	a5,a1,a3
   1e5fc:	00879713          	sll	a4,a5,0x8
   1e600:	18075c63          	bgez	a4,1e798 <__subdf3+0x2b4>
   1e604:	00190913          	add	s2,s2,1
   1e608:	7ff00713          	li	a4,2047
   1e60c:	5ae90a63          	beq	s2,a4,1ebc0 <__subdf3+0x6dc>
   1e610:	ff800737          	lui	a4,0xff800
   1e614:	fff70713          	add	a4,a4,-1 # ff7fffff <__BSS_END__+0xff7dc427>
   1e618:	00e7f733          	and	a4,a5,a4
   1e61c:	00155793          	srl	a5,a0,0x1
   1e620:	00157513          	and	a0,a0,1
   1e624:	00a7e7b3          	or	a5,a5,a0
   1e628:	01f71513          	sll	a0,a4,0x1f
   1e62c:	00f56533          	or	a0,a0,a5
   1e630:	00175793          	srl	a5,a4,0x1
   1e634:	1640006f          	j	1e798 <__subdf3+0x2b4>
   1e638:	fe058693          	add	a3,a1,-32 # 7ffe0 <__BSS_END__+0x5c408>
   1e63c:	02000893          	li	a7,32
   1e640:	00d756b3          	srl	a3,a4,a3
   1e644:	00000813          	li	a6,0
   1e648:	01158863          	beq	a1,a7,1e658 <__subdf3+0x174>
   1e64c:	04000813          	li	a6,64
   1e650:	40b80833          	sub	a6,a6,a1
   1e654:	01071833          	sll	a6,a4,a6
   1e658:	00c86833          	or	a6,a6,a2
   1e65c:	01003833          	snez	a6,a6
   1e660:	0106e6b3          	or	a3,a3,a6
   1e664:	00000593          	li	a1,0
   1e668:	f85ff06f          	j	1e5ec <__subdf3+0x108>
   1e66c:	00c766b3          	or	a3,a4,a2
   1e670:	00d036b3          	snez	a3,a3
   1e674:	ff1ff06f          	j	1e664 <__subdf3+0x180>
   1e678:	0c080a63          	beqz	a6,1e74c <__subdf3+0x268>
   1e67c:	412886b3          	sub	a3,a7,s2
   1e680:	02091463          	bnez	s2,1e6a8 <__subdf3+0x1c4>
   1e684:	00a7e5b3          	or	a1,a5,a0
   1e688:	50058e63          	beqz	a1,1eba4 <__subdf3+0x6c0>
   1e68c:	fff68593          	add	a1,a3,-1 # 7fffff <__BSS_END__+0x7dc427>
   1e690:	ee0584e3          	beqz	a1,1e578 <__subdf3+0x94>
   1e694:	7ff00813          	li	a6,2047
   1e698:	03069263          	bne	a3,a6,1e6bc <__subdf3+0x1d8>
   1e69c:	00070793          	mv	a5,a4
   1e6a0:	00060513          	mv	a0,a2
   1e6a4:	ef9ff06f          	j	1e59c <__subdf3+0xb8>
   1e6a8:	7ff00593          	li	a1,2047
   1e6ac:	feb888e3          	beq	a7,a1,1e69c <__subdf3+0x1b8>
   1e6b0:	008005b7          	lui	a1,0x800
   1e6b4:	00b7e7b3          	or	a5,a5,a1
   1e6b8:	00068593          	mv	a1,a3
   1e6bc:	03800693          	li	a3,56
   1e6c0:	08b6c063          	blt	a3,a1,1e740 <__subdf3+0x25c>
   1e6c4:	01f00693          	li	a3,31
   1e6c8:	04b6c263          	blt	a3,a1,1e70c <__subdf3+0x228>
   1e6cc:	02000813          	li	a6,32
   1e6d0:	40b80833          	sub	a6,a6,a1
   1e6d4:	010796b3          	sll	a3,a5,a6
   1e6d8:	00b55333          	srl	t1,a0,a1
   1e6dc:	01051833          	sll	a6,a0,a6
   1e6e0:	0066e6b3          	or	a3,a3,t1
   1e6e4:	01003833          	snez	a6,a6
   1e6e8:	0106e6b3          	or	a3,a3,a6
   1e6ec:	00b7d5b3          	srl	a1,a5,a1
   1e6f0:	00c68633          	add	a2,a3,a2
   1e6f4:	00e585b3          	add	a1,a1,a4
   1e6f8:	00d636b3          	sltu	a3,a2,a3
   1e6fc:	00060513          	mv	a0,a2
   1e700:	00d587b3          	add	a5,a1,a3
   1e704:	00088913          	mv	s2,a7
   1e708:	ef5ff06f          	j	1e5fc <__subdf3+0x118>
   1e70c:	fe058693          	add	a3,a1,-32 # 7fffe0 <__BSS_END__+0x7dc408>
   1e710:	02000313          	li	t1,32
   1e714:	00d7d6b3          	srl	a3,a5,a3
   1e718:	00000813          	li	a6,0
   1e71c:	00658863          	beq	a1,t1,1e72c <__subdf3+0x248>
   1e720:	04000813          	li	a6,64
   1e724:	40b80833          	sub	a6,a6,a1
   1e728:	01079833          	sll	a6,a5,a6
   1e72c:	00a86833          	or	a6,a6,a0
   1e730:	01003833          	snez	a6,a6
   1e734:	0106e6b3          	or	a3,a3,a6
   1e738:	00000593          	li	a1,0
   1e73c:	fb5ff06f          	j	1e6f0 <__subdf3+0x20c>
   1e740:	00a7e6b3          	or	a3,a5,a0
   1e744:	00d036b3          	snez	a3,a3
   1e748:	ff1ff06f          	j	1e738 <__subdf3+0x254>
   1e74c:	00190693          	add	a3,s2,1
   1e750:	7fe6f593          	and	a1,a3,2046
   1e754:	08059663          	bnez	a1,1e7e0 <__subdf3+0x2fc>
   1e758:	00a7e6b3          	or	a3,a5,a0
   1e75c:	06091263          	bnez	s2,1e7c0 <__subdf3+0x2dc>
   1e760:	44068863          	beqz	a3,1ebb0 <__subdf3+0x6cc>
   1e764:	00c766b3          	or	a3,a4,a2
   1e768:	02068863          	beqz	a3,1e798 <__subdf3+0x2b4>
   1e76c:	00c50633          	add	a2,a0,a2
   1e770:	00a636b3          	sltu	a3,a2,a0
   1e774:	00e78733          	add	a4,a5,a4
   1e778:	00d707b3          	add	a5,a4,a3
   1e77c:	00879713          	sll	a4,a5,0x8
   1e780:	00060513          	mv	a0,a2
   1e784:	00075a63          	bgez	a4,1e798 <__subdf3+0x2b4>
   1e788:	ff800737          	lui	a4,0xff800
   1e78c:	fff70713          	add	a4,a4,-1 # ff7fffff <__BSS_END__+0xff7dc427>
   1e790:	00e7f7b3          	and	a5,a5,a4
   1e794:	00100913          	li	s2,1
   1e798:	00757713          	and	a4,a0,7
   1e79c:	44070863          	beqz	a4,1ebec <__subdf3+0x708>
   1e7a0:	00f57713          	and	a4,a0,15
   1e7a4:	00400693          	li	a3,4
   1e7a8:	44d70263          	beq	a4,a3,1ebec <__subdf3+0x708>
   1e7ac:	00450713          	add	a4,a0,4
   1e7b0:	00a736b3          	sltu	a3,a4,a0
   1e7b4:	00d787b3          	add	a5,a5,a3
   1e7b8:	00070513          	mv	a0,a4
   1e7bc:	4300006f          	j	1ebec <__subdf3+0x708>
   1e7c0:	ec068ee3          	beqz	a3,1e69c <__subdf3+0x1b8>
   1e7c4:	00c76633          	or	a2,a4,a2
   1e7c8:	dc060ae3          	beqz	a2,1e59c <__subdf3+0xb8>
   1e7cc:	00000493          	li	s1,0
   1e7d0:	004007b7          	lui	a5,0x400
   1e7d4:	00000513          	li	a0,0
   1e7d8:	7ff00913          	li	s2,2047
   1e7dc:	4100006f          	j	1ebec <__subdf3+0x708>
   1e7e0:	7ff00593          	li	a1,2047
   1e7e4:	3cb68c63          	beq	a3,a1,1ebbc <__subdf3+0x6d8>
   1e7e8:	00c50633          	add	a2,a0,a2
   1e7ec:	00a63533          	sltu	a0,a2,a0
   1e7f0:	00e78733          	add	a4,a5,a4
   1e7f4:	00a70733          	add	a4,a4,a0
   1e7f8:	01f71513          	sll	a0,a4,0x1f
   1e7fc:	00165613          	srl	a2,a2,0x1
   1e800:	00c56533          	or	a0,a0,a2
   1e804:	00175793          	srl	a5,a4,0x1
   1e808:	00068913          	mv	s2,a3
   1e80c:	f8dff06f          	j	1e798 <__subdf3+0x2b4>
   1e810:	0f005c63          	blez	a6,1e908 <__subdf3+0x424>
   1e814:	08089e63          	bnez	a7,1e8b0 <__subdf3+0x3cc>
   1e818:	00c766b3          	or	a3,a4,a2
   1e81c:	3a068863          	beqz	a3,1ebcc <__subdf3+0x6e8>
   1e820:	fff80693          	add	a3,a6,-1
   1e824:	02069063          	bnez	a3,1e844 <__subdf3+0x360>
   1e828:	40c50633          	sub	a2,a0,a2
   1e82c:	00c536b3          	sltu	a3,a0,a2
   1e830:	40e78733          	sub	a4,a5,a4
   1e834:	00060513          	mv	a0,a2
   1e838:	40d707b3          	sub	a5,a4,a3
   1e83c:	00100913          	li	s2,1
   1e840:	0540006f          	j	1e894 <__subdf3+0x3b0>
   1e844:	7ff00593          	li	a1,2047
   1e848:	d4b80ae3          	beq	a6,a1,1e59c <__subdf3+0xb8>
   1e84c:	03800593          	li	a1,56
   1e850:	0ad5c663          	blt	a1,a3,1e8fc <__subdf3+0x418>
   1e854:	01f00593          	li	a1,31
   1e858:	06d5c863          	blt	a1,a3,1e8c8 <__subdf3+0x3e4>
   1e85c:	02000813          	li	a6,32
   1e860:	40d80833          	sub	a6,a6,a3
   1e864:	00d658b3          	srl	a7,a2,a3
   1e868:	010715b3          	sll	a1,a4,a6
   1e86c:	01061833          	sll	a6,a2,a6
   1e870:	0115e5b3          	or	a1,a1,a7
   1e874:	01003833          	snez	a6,a6
   1e878:	0105e633          	or	a2,a1,a6
   1e87c:	00d756b3          	srl	a3,a4,a3
   1e880:	40c50633          	sub	a2,a0,a2
   1e884:	00c53733          	sltu	a4,a0,a2
   1e888:	40d786b3          	sub	a3,a5,a3
   1e88c:	00060513          	mv	a0,a2
   1e890:	40e687b3          	sub	a5,a3,a4
   1e894:	00879713          	sll	a4,a5,0x8
   1e898:	f00750e3          	bgez	a4,1e798 <__subdf3+0x2b4>
   1e89c:	00800437          	lui	s0,0x800
   1e8a0:	fff40413          	add	s0,s0,-1 # 7fffff <__BSS_END__+0x7dc427>
   1e8a4:	0087f433          	and	s0,a5,s0
   1e8a8:	00050993          	mv	s3,a0
   1e8ac:	2100006f          	j	1eabc <__subdf3+0x5d8>
   1e8b0:	7ff00693          	li	a3,2047
   1e8b4:	eed902e3          	beq	s2,a3,1e798 <__subdf3+0x2b4>
   1e8b8:	008006b7          	lui	a3,0x800
   1e8bc:	00d76733          	or	a4,a4,a3
   1e8c0:	00080693          	mv	a3,a6
   1e8c4:	f89ff06f          	j	1e84c <__subdf3+0x368>
   1e8c8:	fe068593          	add	a1,a3,-32 # 7fffe0 <__BSS_END__+0x7dc408>
   1e8cc:	02000893          	li	a7,32
   1e8d0:	00b755b3          	srl	a1,a4,a1
   1e8d4:	00000813          	li	a6,0
   1e8d8:	01168863          	beq	a3,a7,1e8e8 <__subdf3+0x404>
   1e8dc:	04000813          	li	a6,64
   1e8e0:	40d80833          	sub	a6,a6,a3
   1e8e4:	01071833          	sll	a6,a4,a6
   1e8e8:	00c86833          	or	a6,a6,a2
   1e8ec:	01003833          	snez	a6,a6
   1e8f0:	0105e633          	or	a2,a1,a6
   1e8f4:	00000693          	li	a3,0
   1e8f8:	f89ff06f          	j	1e880 <__subdf3+0x39c>
   1e8fc:	00c76633          	or	a2,a4,a2
   1e900:	00c03633          	snez	a2,a2
   1e904:	ff1ff06f          	j	1e8f4 <__subdf3+0x410>
   1e908:	0e080863          	beqz	a6,1e9f8 <__subdf3+0x514>
   1e90c:	41288833          	sub	a6,a7,s2
   1e910:	04091263          	bnez	s2,1e954 <__subdf3+0x470>
   1e914:	00a7e5b3          	or	a1,a5,a0
   1e918:	2a058e63          	beqz	a1,1ebd4 <__subdf3+0x6f0>
   1e91c:	fff80593          	add	a1,a6,-1
   1e920:	00059e63          	bnez	a1,1e93c <__subdf3+0x458>
   1e924:	40a60533          	sub	a0,a2,a0
   1e928:	40f70733          	sub	a4,a4,a5
   1e92c:	00a63633          	sltu	a2,a2,a0
   1e930:	40c707b3          	sub	a5,a4,a2
   1e934:	00068493          	mv	s1,a3
   1e938:	f05ff06f          	j	1e83c <__subdf3+0x358>
   1e93c:	7ff00313          	li	t1,2047
   1e940:	02681463          	bne	a6,t1,1e968 <__subdf3+0x484>
   1e944:	00070793          	mv	a5,a4
   1e948:	00060513          	mv	a0,a2
   1e94c:	7ff00913          	li	s2,2047
   1e950:	0d00006f          	j	1ea20 <__subdf3+0x53c>
   1e954:	7ff00593          	li	a1,2047
   1e958:	feb886e3          	beq	a7,a1,1e944 <__subdf3+0x460>
   1e95c:	008005b7          	lui	a1,0x800
   1e960:	00b7e7b3          	or	a5,a5,a1
   1e964:	00080593          	mv	a1,a6
   1e968:	03800813          	li	a6,56
   1e96c:	08b84063          	blt	a6,a1,1e9ec <__subdf3+0x508>
   1e970:	01f00813          	li	a6,31
   1e974:	04b84263          	blt	a6,a1,1e9b8 <__subdf3+0x4d4>
   1e978:	02000313          	li	t1,32
   1e97c:	40b30333          	sub	t1,t1,a1
   1e980:	00b55e33          	srl	t3,a0,a1
   1e984:	00679833          	sll	a6,a5,t1
   1e988:	00651333          	sll	t1,a0,t1
   1e98c:	01c86833          	or	a6,a6,t3
   1e990:	00603333          	snez	t1,t1
   1e994:	00686533          	or	a0,a6,t1
   1e998:	00b7d5b3          	srl	a1,a5,a1
   1e99c:	40a60533          	sub	a0,a2,a0
   1e9a0:	40b705b3          	sub	a1,a4,a1
   1e9a4:	00a63633          	sltu	a2,a2,a0
   1e9a8:	40c587b3          	sub	a5,a1,a2
   1e9ac:	00088913          	mv	s2,a7
   1e9b0:	00068493          	mv	s1,a3
   1e9b4:	ee1ff06f          	j	1e894 <__subdf3+0x3b0>
   1e9b8:	fe058813          	add	a6,a1,-32 # 7fffe0 <__BSS_END__+0x7dc408>
   1e9bc:	02000e13          	li	t3,32
   1e9c0:	0107d833          	srl	a6,a5,a6
   1e9c4:	00000313          	li	t1,0
   1e9c8:	01c58863          	beq	a1,t3,1e9d8 <__subdf3+0x4f4>
   1e9cc:	04000313          	li	t1,64
   1e9d0:	40b30333          	sub	t1,t1,a1
   1e9d4:	00679333          	sll	t1,a5,t1
   1e9d8:	00a36333          	or	t1,t1,a0
   1e9dc:	00603333          	snez	t1,t1
   1e9e0:	00686533          	or	a0,a6,t1
   1e9e4:	00000593          	li	a1,0
   1e9e8:	fb5ff06f          	j	1e99c <__subdf3+0x4b8>
   1e9ec:	00a7e533          	or	a0,a5,a0
   1e9f0:	00a03533          	snez	a0,a0
   1e9f4:	ff1ff06f          	j	1e9e4 <__subdf3+0x500>
   1e9f8:	00190593          	add	a1,s2,1
   1e9fc:	7fe5f593          	and	a1,a1,2046
   1ea00:	08059663          	bnez	a1,1ea8c <__subdf3+0x5a8>
   1ea04:	00c765b3          	or	a1,a4,a2
   1ea08:	00a7e833          	or	a6,a5,a0
   1ea0c:	06091063          	bnez	s2,1ea6c <__subdf3+0x588>
   1ea10:	00081c63          	bnez	a6,1ea28 <__subdf3+0x544>
   1ea14:	10058e63          	beqz	a1,1eb30 <__subdf3+0x64c>
   1ea18:	00070793          	mv	a5,a4
   1ea1c:	00060513          	mv	a0,a2
   1ea20:	00068493          	mv	s1,a3
   1ea24:	d75ff06f          	j	1e798 <__subdf3+0x2b4>
   1ea28:	d60588e3          	beqz	a1,1e798 <__subdf3+0x2b4>
   1ea2c:	40c50833          	sub	a6,a0,a2
   1ea30:	010538b3          	sltu	a7,a0,a6
   1ea34:	40e785b3          	sub	a1,a5,a4
   1ea38:	411585b3          	sub	a1,a1,a7
   1ea3c:	00859893          	sll	a7,a1,0x8
   1ea40:	0008dc63          	bgez	a7,1ea58 <__subdf3+0x574>
   1ea44:	40a60533          	sub	a0,a2,a0
   1ea48:	40f70733          	sub	a4,a4,a5
   1ea4c:	00a63633          	sltu	a2,a2,a0
   1ea50:	40c707b3          	sub	a5,a4,a2
   1ea54:	fcdff06f          	j	1ea20 <__subdf3+0x53c>
   1ea58:	00b86533          	or	a0,a6,a1
   1ea5c:	18050463          	beqz	a0,1ebe4 <__subdf3+0x700>
   1ea60:	00058793          	mv	a5,a1
   1ea64:	00080513          	mv	a0,a6
   1ea68:	d31ff06f          	j	1e798 <__subdf3+0x2b4>
   1ea6c:	00081c63          	bnez	a6,1ea84 <__subdf3+0x5a0>
   1ea70:	d4058ee3          	beqz	a1,1e7cc <__subdf3+0x2e8>
   1ea74:	00070793          	mv	a5,a4
   1ea78:	00060513          	mv	a0,a2
   1ea7c:	00068493          	mv	s1,a3
   1ea80:	b1dff06f          	j	1e59c <__subdf3+0xb8>
   1ea84:	b0058ce3          	beqz	a1,1e59c <__subdf3+0xb8>
   1ea88:	d45ff06f          	j	1e7cc <__subdf3+0x2e8>
   1ea8c:	40c505b3          	sub	a1,a0,a2
   1ea90:	00b53833          	sltu	a6,a0,a1
   1ea94:	40e78433          	sub	s0,a5,a4
   1ea98:	41040433          	sub	s0,s0,a6
   1ea9c:	00841813          	sll	a6,s0,0x8
   1eaa0:	00058993          	mv	s3,a1
   1eaa4:	08085063          	bgez	a6,1eb24 <__subdf3+0x640>
   1eaa8:	40a609b3          	sub	s3,a2,a0
   1eaac:	40f70433          	sub	s0,a4,a5
   1eab0:	01363633          	sltu	a2,a2,s3
   1eab4:	40c40433          	sub	s0,s0,a2
   1eab8:	00068493          	mv	s1,a3
   1eabc:	06040e63          	beqz	s0,1eb38 <__subdf3+0x654>
   1eac0:	00040513          	mv	a0,s0
   1eac4:	468030ef          	jal	21f2c <__clzsi2>
   1eac8:	ff850693          	add	a3,a0,-8
   1eacc:	02000793          	li	a5,32
   1ead0:	40d787b3          	sub	a5,a5,a3
   1ead4:	00d41433          	sll	s0,s0,a3
   1ead8:	00f9d7b3          	srl	a5,s3,a5
   1eadc:	0087e7b3          	or	a5,a5,s0
   1eae0:	00d99433          	sll	s0,s3,a3
   1eae4:	0b26c463          	blt	a3,s2,1eb8c <__subdf3+0x6a8>
   1eae8:	412686b3          	sub	a3,a3,s2
   1eaec:	00168613          	add	a2,a3,1
   1eaf0:	01f00713          	li	a4,31
   1eaf4:	06c74263          	blt	a4,a2,1eb58 <__subdf3+0x674>
   1eaf8:	02000713          	li	a4,32
   1eafc:	40c70733          	sub	a4,a4,a2
   1eb00:	00e79533          	sll	a0,a5,a4
   1eb04:	00c456b3          	srl	a3,s0,a2
   1eb08:	00e41733          	sll	a4,s0,a4
   1eb0c:	00d56533          	or	a0,a0,a3
   1eb10:	00e03733          	snez	a4,a4
   1eb14:	00e56533          	or	a0,a0,a4
   1eb18:	00c7d7b3          	srl	a5,a5,a2
   1eb1c:	00000913          	li	s2,0
   1eb20:	c79ff06f          	j	1e798 <__subdf3+0x2b4>
   1eb24:	0085e5b3          	or	a1,a1,s0
   1eb28:	f8059ae3          	bnez	a1,1eabc <__subdf3+0x5d8>
   1eb2c:	00000913          	li	s2,0
   1eb30:	00000493          	li	s1,0
   1eb34:	08c0006f          	j	1ebc0 <__subdf3+0x6dc>
   1eb38:	00098513          	mv	a0,s3
   1eb3c:	3f0030ef          	jal	21f2c <__clzsi2>
   1eb40:	01850693          	add	a3,a0,24
   1eb44:	01f00793          	li	a5,31
   1eb48:	f8d7d2e3          	bge	a5,a3,1eacc <__subdf3+0x5e8>
   1eb4c:	ff850793          	add	a5,a0,-8
   1eb50:	00f997b3          	sll	a5,s3,a5
   1eb54:	f91ff06f          	j	1eae4 <__subdf3+0x600>
   1eb58:	fe168693          	add	a3,a3,-31
   1eb5c:	00d7d533          	srl	a0,a5,a3
   1eb60:	02000693          	li	a3,32
   1eb64:	00000713          	li	a4,0
   1eb68:	00d60863          	beq	a2,a3,1eb78 <__subdf3+0x694>
   1eb6c:	04000713          	li	a4,64
   1eb70:	40c70733          	sub	a4,a4,a2
   1eb74:	00e79733          	sll	a4,a5,a4
   1eb78:	00e46733          	or	a4,s0,a4
   1eb7c:	00e03733          	snez	a4,a4
   1eb80:	00e56533          	or	a0,a0,a4
   1eb84:	00000793          	li	a5,0
   1eb88:	f95ff06f          	j	1eb1c <__subdf3+0x638>
   1eb8c:	ff800737          	lui	a4,0xff800
   1eb90:	fff70713          	add	a4,a4,-1 # ff7fffff <__BSS_END__+0xff7dc427>
   1eb94:	40d90933          	sub	s2,s2,a3
   1eb98:	00e7f7b3          	and	a5,a5,a4
   1eb9c:	00040513          	mv	a0,s0
   1eba0:	bf9ff06f          	j	1e798 <__subdf3+0x2b4>
   1eba4:	00070793          	mv	a5,a4
   1eba8:	00060513          	mv	a0,a2
   1ebac:	c5dff06f          	j	1e808 <__subdf3+0x324>
   1ebb0:	00070793          	mv	a5,a4
   1ebb4:	00060513          	mv	a0,a2
   1ebb8:	be1ff06f          	j	1e798 <__subdf3+0x2b4>
   1ebbc:	7ff00913          	li	s2,2047
   1ebc0:	00000793          	li	a5,0
   1ebc4:	00000513          	li	a0,0
   1ebc8:	0240006f          	j	1ebec <__subdf3+0x708>
   1ebcc:	00080913          	mv	s2,a6
   1ebd0:	bc9ff06f          	j	1e798 <__subdf3+0x2b4>
   1ebd4:	00070793          	mv	a5,a4
   1ebd8:	00060513          	mv	a0,a2
   1ebdc:	00080913          	mv	s2,a6
   1ebe0:	e41ff06f          	j	1ea20 <__subdf3+0x53c>
   1ebe4:	00000793          	li	a5,0
   1ebe8:	00000493          	li	s1,0
   1ebec:	00879713          	sll	a4,a5,0x8
   1ebf0:	00075e63          	bgez	a4,1ec0c <__subdf3+0x728>
   1ebf4:	00190913          	add	s2,s2,1
   1ebf8:	7ff00713          	li	a4,2047
   1ebfc:	08e90263          	beq	s2,a4,1ec80 <__subdf3+0x79c>
   1ec00:	ff800737          	lui	a4,0xff800
   1ec04:	fff70713          	add	a4,a4,-1 # ff7fffff <__BSS_END__+0xff7dc427>
   1ec08:	00e7f7b3          	and	a5,a5,a4
   1ec0c:	01d79693          	sll	a3,a5,0x1d
   1ec10:	00355513          	srl	a0,a0,0x3
   1ec14:	7ff00713          	li	a4,2047
   1ec18:	00a6e6b3          	or	a3,a3,a0
   1ec1c:	0037d793          	srl	a5,a5,0x3
   1ec20:	00e91e63          	bne	s2,a4,1ec3c <__subdf3+0x758>
   1ec24:	00f6e6b3          	or	a3,a3,a5
   1ec28:	00000793          	li	a5,0
   1ec2c:	00068863          	beqz	a3,1ec3c <__subdf3+0x758>
   1ec30:	000807b7          	lui	a5,0x80
   1ec34:	00000693          	li	a3,0
   1ec38:	00000493          	li	s1,0
   1ec3c:	01491713          	sll	a4,s2,0x14
   1ec40:	7ff00637          	lui	a2,0x7ff00
   1ec44:	00c79793          	sll	a5,a5,0xc
   1ec48:	00c77733          	and	a4,a4,a2
   1ec4c:	01c12083          	lw	ra,28(sp)
   1ec50:	01812403          	lw	s0,24(sp)
   1ec54:	00c7d793          	srl	a5,a5,0xc
   1ec58:	00f767b3          	or	a5,a4,a5
   1ec5c:	01f49713          	sll	a4,s1,0x1f
   1ec60:	00e7e633          	or	a2,a5,a4
   1ec64:	01412483          	lw	s1,20(sp)
   1ec68:	01012903          	lw	s2,16(sp)
   1ec6c:	00c12983          	lw	s3,12(sp)
   1ec70:	00068513          	mv	a0,a3
   1ec74:	00060593          	mv	a1,a2
   1ec78:	02010113          	add	sp,sp,32
   1ec7c:	00008067          	ret
   1ec80:	00000793          	li	a5,0
   1ec84:	00000513          	li	a0,0
   1ec88:	f85ff06f          	j	1ec0c <__subdf3+0x728>

0001ec8c <__fixdfsi>:
   1ec8c:	0145d713          	srl	a4,a1,0x14
   1ec90:	001006b7          	lui	a3,0x100
   1ec94:	fff68793          	add	a5,a3,-1 # fffff <__BSS_END__+0xdc427>
   1ec98:	7ff77713          	and	a4,a4,2047
   1ec9c:	3fe00613          	li	a2,1022
   1eca0:	00b7f7b3          	and	a5,a5,a1
   1eca4:	01f5d593          	srl	a1,a1,0x1f
   1eca8:	04e65e63          	bge	a2,a4,1ed04 <__fixdfsi+0x78>
   1ecac:	41d00613          	li	a2,1053
   1ecb0:	00e65a63          	bge	a2,a4,1ecc4 <__fixdfsi+0x38>
   1ecb4:	80000537          	lui	a0,0x80000
   1ecb8:	fff50513          	add	a0,a0,-1 # 7fffffff <__BSS_END__+0x7ffdc427>
   1ecbc:	00a58533          	add	a0,a1,a0
   1ecc0:	00008067          	ret
   1ecc4:	00d7e7b3          	or	a5,a5,a3
   1ecc8:	43300693          	li	a3,1075
   1eccc:	40e686b3          	sub	a3,a3,a4
   1ecd0:	01f00613          	li	a2,31
   1ecd4:	02d64063          	blt	a2,a3,1ecf4 <__fixdfsi+0x68>
   1ecd8:	bed70713          	add	a4,a4,-1043
   1ecdc:	00e797b3          	sll	a5,a5,a4
   1ece0:	00d55533          	srl	a0,a0,a3
   1ece4:	00a7e533          	or	a0,a5,a0
   1ece8:	02058063          	beqz	a1,1ed08 <__fixdfsi+0x7c>
   1ecec:	40a00533          	neg	a0,a0
   1ecf0:	00008067          	ret
   1ecf4:	41300693          	li	a3,1043
   1ecf8:	40e68733          	sub	a4,a3,a4
   1ecfc:	00e7d533          	srl	a0,a5,a4
   1ed00:	fe9ff06f          	j	1ece8 <__fixdfsi+0x5c>
   1ed04:	00000513          	li	a0,0
   1ed08:	00008067          	ret

0001ed0c <__floatsidf>:
   1ed0c:	ff010113          	add	sp,sp,-16
   1ed10:	00112623          	sw	ra,12(sp)
   1ed14:	00812423          	sw	s0,8(sp)
   1ed18:	00912223          	sw	s1,4(sp)
   1ed1c:	08050663          	beqz	a0,1eda8 <__floatsidf+0x9c>
   1ed20:	41f55793          	sra	a5,a0,0x1f
   1ed24:	00a7c433          	xor	s0,a5,a0
   1ed28:	40f40433          	sub	s0,s0,a5
   1ed2c:	01f55493          	srl	s1,a0,0x1f
   1ed30:	00040513          	mv	a0,s0
   1ed34:	1f8030ef          	jal	21f2c <__clzsi2>
   1ed38:	41e00713          	li	a4,1054
   1ed3c:	00a00793          	li	a5,10
   1ed40:	40a70733          	sub	a4,a4,a0
   1ed44:	04a7c863          	blt	a5,a0,1ed94 <__floatsidf+0x88>
   1ed48:	00b00793          	li	a5,11
   1ed4c:	40a787b3          	sub	a5,a5,a0
   1ed50:	01550513          	add	a0,a0,21
   1ed54:	00f457b3          	srl	a5,s0,a5
   1ed58:	00a41433          	sll	s0,s0,a0
   1ed5c:	00048513          	mv	a0,s1
   1ed60:	00c79793          	sll	a5,a5,0xc
   1ed64:	00c7d793          	srl	a5,a5,0xc
   1ed68:	01471713          	sll	a4,a4,0x14
   1ed6c:	01f51513          	sll	a0,a0,0x1f
   1ed70:	00f76733          	or	a4,a4,a5
   1ed74:	00c12083          	lw	ra,12(sp)
   1ed78:	00a767b3          	or	a5,a4,a0
   1ed7c:	00040513          	mv	a0,s0
   1ed80:	00812403          	lw	s0,8(sp)
   1ed84:	00412483          	lw	s1,4(sp)
   1ed88:	00078593          	mv	a1,a5
   1ed8c:	01010113          	add	sp,sp,16
   1ed90:	00008067          	ret
   1ed94:	ff550513          	add	a0,a0,-11
   1ed98:	00a417b3          	sll	a5,s0,a0
   1ed9c:	00048513          	mv	a0,s1
   1eda0:	00000413          	li	s0,0
   1eda4:	fbdff06f          	j	1ed60 <__floatsidf+0x54>
   1eda8:	00000713          	li	a4,0
   1edac:	00000793          	li	a5,0
   1edb0:	ff1ff06f          	j	1eda0 <__floatsidf+0x94>

0001edb4 <__eqtf2>:
   1edb4:	00c52783          	lw	a5,12(a0)
   1edb8:	0005af03          	lw	t5,0(a1)
   1edbc:	0045af83          	lw	t6,4(a1)
   1edc0:	0085a283          	lw	t0,8(a1)
   1edc4:	00c5a583          	lw	a1,12(a1)
   1edc8:	00008737          	lui	a4,0x8
   1edcc:	0107d693          	srl	a3,a5,0x10
   1edd0:	fff70713          	add	a4,a4,-1 # 7fff <exit-0x80a1>
   1edd4:	01079813          	sll	a6,a5,0x10
   1edd8:	01059e93          	sll	t4,a1,0x10
   1eddc:	01f7d613          	srl	a2,a5,0x1f
   1ede0:	00e6f6b3          	and	a3,a3,a4
   1ede4:	0105d793          	srl	a5,a1,0x10
   1ede8:	00052883          	lw	a7,0(a0)
   1edec:	00452303          	lw	t1,4(a0)
   1edf0:	00852e03          	lw	t3,8(a0)
   1edf4:	ff010113          	add	sp,sp,-16
   1edf8:	01085813          	srl	a6,a6,0x10
   1edfc:	010ede93          	srl	t4,t4,0x10
   1ee00:	00e7f7b3          	and	a5,a5,a4
   1ee04:	01f5d593          	srl	a1,a1,0x1f
   1ee08:	02e69063          	bne	a3,a4,1ee28 <__eqtf2+0x74>
   1ee0c:	0068e733          	or	a4,a7,t1
   1ee10:	01c76733          	or	a4,a4,t3
   1ee14:	01076733          	or	a4,a4,a6
   1ee18:	00100513          	li	a0,1
   1ee1c:	04071a63          	bnez	a4,1ee70 <__eqtf2+0xbc>
   1ee20:	04d79863          	bne	a5,a3,1ee70 <__eqtf2+0xbc>
   1ee24:	0080006f          	j	1ee2c <__eqtf2+0x78>
   1ee28:	00e79c63          	bne	a5,a4,1ee40 <__eqtf2+0x8c>
   1ee2c:	01ff6733          	or	a4,t5,t6
   1ee30:	00576733          	or	a4,a4,t0
   1ee34:	01d76733          	or	a4,a4,t4
   1ee38:	00100513          	li	a0,1
   1ee3c:	02071a63          	bnez	a4,1ee70 <__eqtf2+0xbc>
   1ee40:	00100513          	li	a0,1
   1ee44:	02d79663          	bne	a5,a3,1ee70 <__eqtf2+0xbc>
   1ee48:	03e89463          	bne	a7,t5,1ee70 <__eqtf2+0xbc>
   1ee4c:	03f31263          	bne	t1,t6,1ee70 <__eqtf2+0xbc>
   1ee50:	025e1063          	bne	t3,t0,1ee70 <__eqtf2+0xbc>
   1ee54:	01d81e63          	bne	a6,t4,1ee70 <__eqtf2+0xbc>
   1ee58:	02b60063          	beq	a2,a1,1ee78 <__eqtf2+0xc4>
   1ee5c:	00079a63          	bnez	a5,1ee70 <__eqtf2+0xbc>
   1ee60:	0068e533          	or	a0,a7,t1
   1ee64:	01c56533          	or	a0,a0,t3
   1ee68:	01056533          	or	a0,a0,a6
   1ee6c:	00a03533          	snez	a0,a0
   1ee70:	01010113          	add	sp,sp,16
   1ee74:	00008067          	ret
   1ee78:	00000513          	li	a0,0
   1ee7c:	ff5ff06f          	j	1ee70 <__eqtf2+0xbc>

0001ee80 <__getf2>:
   1ee80:	00c52783          	lw	a5,12(a0)
   1ee84:	00c5a683          	lw	a3,12(a1)
   1ee88:	00008737          	lui	a4,0x8
   1ee8c:	0107d613          	srl	a2,a5,0x10
   1ee90:	fff70713          	add	a4,a4,-1 # 7fff <exit-0x80a1>
   1ee94:	01079813          	sll	a6,a5,0x10
   1ee98:	01069293          	sll	t0,a3,0x10
   1ee9c:	00052883          	lw	a7,0(a0)
   1eea0:	00452303          	lw	t1,4(a0)
   1eea4:	00852e03          	lw	t3,8(a0)
   1eea8:	00e67633          	and	a2,a2,a4
   1eeac:	0106d513          	srl	a0,a3,0x10
   1eeb0:	0005ae83          	lw	t4,0(a1)
   1eeb4:	0045af03          	lw	t5,4(a1)
   1eeb8:	0085af83          	lw	t6,8(a1)
   1eebc:	ff010113          	add	sp,sp,-16
   1eec0:	01085813          	srl	a6,a6,0x10
   1eec4:	01f7d793          	srl	a5,a5,0x1f
   1eec8:	0102d293          	srl	t0,t0,0x10
   1eecc:	00e57533          	and	a0,a0,a4
   1eed0:	01f6d693          	srl	a3,a3,0x1f
   1eed4:	00e61a63          	bne	a2,a4,1eee8 <__getf2+0x68>
   1eed8:	01136733          	or	a4,t1,a7
   1eedc:	01c76733          	or	a4,a4,t3
   1eee0:	01076733          	or	a4,a4,a6
   1eee4:	0a071463          	bnez	a4,1ef8c <__getf2+0x10c>
   1eee8:	00008737          	lui	a4,0x8
   1eeec:	fff70713          	add	a4,a4,-1 # 7fff <exit-0x80a1>
   1eef0:	00e51a63          	bne	a0,a4,1ef04 <__getf2+0x84>
   1eef4:	01eee733          	or	a4,t4,t5
   1eef8:	01f76733          	or	a4,a4,t6
   1eefc:	00576733          	or	a4,a4,t0
   1ef00:	08071663          	bnez	a4,1ef8c <__getf2+0x10c>
   1ef04:	00000713          	li	a4,0
   1ef08:	00061a63          	bnez	a2,1ef1c <__getf2+0x9c>
   1ef0c:	01136733          	or	a4,t1,a7
   1ef10:	01c76733          	or	a4,a4,t3
   1ef14:	01076733          	or	a4,a4,a6
   1ef18:	00173713          	seqz	a4,a4
   1ef1c:	06051c63          	bnez	a0,1ef94 <__getf2+0x114>
   1ef20:	01eee5b3          	or	a1,t4,t5
   1ef24:	01f5e5b3          	or	a1,a1,t6
   1ef28:	0055e5b3          	or	a1,a1,t0
   1ef2c:	00070c63          	beqz	a4,1ef44 <__getf2+0xc4>
   1ef30:	02058063          	beqz	a1,1ef50 <__getf2+0xd0>
   1ef34:	00100513          	li	a0,1
   1ef38:	00069c63          	bnez	a3,1ef50 <__getf2+0xd0>
   1ef3c:	fff00513          	li	a0,-1
   1ef40:	0100006f          	j	1ef50 <__getf2+0xd0>
   1ef44:	04059a63          	bnez	a1,1ef98 <__getf2+0x118>
   1ef48:	fff00513          	li	a0,-1
   1ef4c:	04078e63          	beqz	a5,1efa8 <__getf2+0x128>
   1ef50:	01010113          	add	sp,sp,16
   1ef54:	00008067          	ret
   1ef58:	fca64ee3          	blt	a2,a0,1ef34 <__getf2+0xb4>
   1ef5c:	ff02e6e3          	bltu	t0,a6,1ef48 <__getf2+0xc8>
   1ef60:	02581063          	bne	a6,t0,1ef80 <__getf2+0x100>
   1ef64:	ffcfe2e3          	bltu	t6,t3,1ef48 <__getf2+0xc8>
   1ef68:	01fe1c63          	bne	t3,t6,1ef80 <__getf2+0x100>
   1ef6c:	fc6f6ee3          	bltu	t5,t1,1ef48 <__getf2+0xc8>
   1ef70:	01e31863          	bne	t1,t5,1ef80 <__getf2+0x100>
   1ef74:	fd1eeae3          	bltu	t4,a7,1ef48 <__getf2+0xc8>
   1ef78:	00000513          	li	a0,0
   1ef7c:	fdd8fae3          	bgeu	a7,t4,1ef50 <__getf2+0xd0>
   1ef80:	00100513          	li	a0,1
   1ef84:	fc0796e3          	bnez	a5,1ef50 <__getf2+0xd0>
   1ef88:	fb5ff06f          	j	1ef3c <__getf2+0xbc>
   1ef8c:	ffe00513          	li	a0,-2
   1ef90:	fc1ff06f          	j	1ef50 <__getf2+0xd0>
   1ef94:	fa0710e3          	bnez	a4,1ef34 <__getf2+0xb4>
   1ef98:	faf698e3          	bne	a3,a5,1ef48 <__getf2+0xc8>
   1ef9c:	fac55ee3          	bge	a0,a2,1ef58 <__getf2+0xd8>
   1efa0:	fff00513          	li	a0,-1
   1efa4:	fa0696e3          	bnez	a3,1ef50 <__getf2+0xd0>
   1efa8:	00100513          	li	a0,1
   1efac:	fa5ff06f          	j	1ef50 <__getf2+0xd0>

0001efb0 <__letf2>:
   1efb0:	00c52783          	lw	a5,12(a0)
   1efb4:	00c5a683          	lw	a3,12(a1)
   1efb8:	00008737          	lui	a4,0x8
   1efbc:	0107d613          	srl	a2,a5,0x10
   1efc0:	fff70713          	add	a4,a4,-1 # 7fff <exit-0x80a1>
   1efc4:	01079813          	sll	a6,a5,0x10
   1efc8:	01069293          	sll	t0,a3,0x10
   1efcc:	00052883          	lw	a7,0(a0)
   1efd0:	00452303          	lw	t1,4(a0)
   1efd4:	00852e03          	lw	t3,8(a0)
   1efd8:	00e67633          	and	a2,a2,a4
   1efdc:	0106d513          	srl	a0,a3,0x10
   1efe0:	0005ae83          	lw	t4,0(a1)
   1efe4:	0045af03          	lw	t5,4(a1)
   1efe8:	0085af83          	lw	t6,8(a1)
   1efec:	ff010113          	add	sp,sp,-16
   1eff0:	01085813          	srl	a6,a6,0x10
   1eff4:	01f7d793          	srl	a5,a5,0x1f
   1eff8:	0102d293          	srl	t0,t0,0x10
   1effc:	00e57533          	and	a0,a0,a4
   1f000:	01f6d693          	srl	a3,a3,0x1f
   1f004:	00e61a63          	bne	a2,a4,1f018 <__letf2+0x68>
   1f008:	01136733          	or	a4,t1,a7
   1f00c:	01c76733          	or	a4,a4,t3
   1f010:	01076733          	or	a4,a4,a6
   1f014:	0a071463          	bnez	a4,1f0bc <__letf2+0x10c>
   1f018:	00008737          	lui	a4,0x8
   1f01c:	fff70713          	add	a4,a4,-1 # 7fff <exit-0x80a1>
   1f020:	00e51a63          	bne	a0,a4,1f034 <__letf2+0x84>
   1f024:	01eee733          	or	a4,t4,t5
   1f028:	01f76733          	or	a4,a4,t6
   1f02c:	00576733          	or	a4,a4,t0
   1f030:	08071663          	bnez	a4,1f0bc <__letf2+0x10c>
   1f034:	00000713          	li	a4,0
   1f038:	00061a63          	bnez	a2,1f04c <__letf2+0x9c>
   1f03c:	01136733          	or	a4,t1,a7
   1f040:	01c76733          	or	a4,a4,t3
   1f044:	01076733          	or	a4,a4,a6
   1f048:	00173713          	seqz	a4,a4
   1f04c:	06051c63          	bnez	a0,1f0c4 <__letf2+0x114>
   1f050:	01eee5b3          	or	a1,t4,t5
   1f054:	01f5e5b3          	or	a1,a1,t6
   1f058:	0055e5b3          	or	a1,a1,t0
   1f05c:	00070c63          	beqz	a4,1f074 <__letf2+0xc4>
   1f060:	02058063          	beqz	a1,1f080 <__letf2+0xd0>
   1f064:	00100513          	li	a0,1
   1f068:	00069c63          	bnez	a3,1f080 <__letf2+0xd0>
   1f06c:	fff00513          	li	a0,-1
   1f070:	0100006f          	j	1f080 <__letf2+0xd0>
   1f074:	04059a63          	bnez	a1,1f0c8 <__letf2+0x118>
   1f078:	fff00513          	li	a0,-1
   1f07c:	04078e63          	beqz	a5,1f0d8 <__letf2+0x128>
   1f080:	01010113          	add	sp,sp,16
   1f084:	00008067          	ret
   1f088:	fca64ee3          	blt	a2,a0,1f064 <__letf2+0xb4>
   1f08c:	ff02e6e3          	bltu	t0,a6,1f078 <__letf2+0xc8>
   1f090:	02581063          	bne	a6,t0,1f0b0 <__letf2+0x100>
   1f094:	ffcfe2e3          	bltu	t6,t3,1f078 <__letf2+0xc8>
   1f098:	01fe1c63          	bne	t3,t6,1f0b0 <__letf2+0x100>
   1f09c:	fc6f6ee3          	bltu	t5,t1,1f078 <__letf2+0xc8>
   1f0a0:	01e31863          	bne	t1,t5,1f0b0 <__letf2+0x100>
   1f0a4:	fd1eeae3          	bltu	t4,a7,1f078 <__letf2+0xc8>
   1f0a8:	00000513          	li	a0,0
   1f0ac:	fdd8fae3          	bgeu	a7,t4,1f080 <__letf2+0xd0>
   1f0b0:	00100513          	li	a0,1
   1f0b4:	fc0796e3          	bnez	a5,1f080 <__letf2+0xd0>
   1f0b8:	fb5ff06f          	j	1f06c <__letf2+0xbc>
   1f0bc:	00200513          	li	a0,2
   1f0c0:	fc1ff06f          	j	1f080 <__letf2+0xd0>
   1f0c4:	fa0710e3          	bnez	a4,1f064 <__letf2+0xb4>
   1f0c8:	faf698e3          	bne	a3,a5,1f078 <__letf2+0xc8>
   1f0cc:	fac55ee3          	bge	a0,a2,1f088 <__letf2+0xd8>
   1f0d0:	fff00513          	li	a0,-1
   1f0d4:	fa0696e3          	bnez	a3,1f080 <__letf2+0xd0>
   1f0d8:	00100513          	li	a0,1
   1f0dc:	fa5ff06f          	j	1f080 <__letf2+0xd0>

0001f0e0 <__multf3>:
   1f0e0:	00c5a883          	lw	a7,12(a1)
   1f0e4:	f6010113          	add	sp,sp,-160
   1f0e8:	0005a703          	lw	a4,0(a1)
   1f0ec:	0085a683          	lw	a3,8(a1)
   1f0f0:	08812c23          	sw	s0,152(sp)
   1f0f4:	00050413          	mv	s0,a0
   1f0f8:	0045a503          	lw	a0,4(a1)
   1f0fc:	09212823          	sw	s2,144(sp)
   1f100:	09412423          	sw	s4,136(sp)
   1f104:	00c62903          	lw	s2,12(a2) # 7ff0000c <__BSS_END__+0x7fedc434>
   1f108:	00062a03          	lw	s4,0(a2)
   1f10c:	09512223          	sw	s5,132(sp)
   1f110:	09612023          	sw	s6,128(sp)
   1f114:	00862a83          	lw	s5,8(a2)
   1f118:	00462b03          	lw	s6,4(a2)
   1f11c:	01089793          	sll	a5,a7,0x10
   1f120:	00008637          	lui	a2,0x8
   1f124:	09312623          	sw	s3,140(sp)
   1f128:	0107d793          	srl	a5,a5,0x10
   1f12c:	0108d993          	srl	s3,a7,0x10
   1f130:	fff60613          	add	a2,a2,-1 # 7fff <exit-0x80a1>
   1f134:	08912a23          	sw	s1,148(sp)
   1f138:	08112e23          	sw	ra,156(sp)
   1f13c:	07712e23          	sw	s7,124(sp)
   1f140:	07812c23          	sw	s8,120(sp)
   1f144:	07912a23          	sw	s9,116(sp)
   1f148:	07a12823          	sw	s10,112(sp)
   1f14c:	07b12623          	sw	s11,108(sp)
   1f150:	04e12023          	sw	a4,64(sp)
   1f154:	04a12223          	sw	a0,68(sp)
   1f158:	04d12423          	sw	a3,72(sp)
   1f15c:	05112623          	sw	a7,76(sp)
   1f160:	00e12823          	sw	a4,16(sp)
   1f164:	00a12a23          	sw	a0,20(sp)
   1f168:	00d12c23          	sw	a3,24(sp)
   1f16c:	00f12e23          	sw	a5,28(sp)
   1f170:	00c9f9b3          	and	s3,s3,a2
   1f174:	01f8d493          	srl	s1,a7,0x1f
   1f178:	440984e3          	beqz	s3,1fdc0 <__multf3+0xce0>
   1f17c:	56c98ce3          	beq	s3,a2,1fef4 <__multf3+0xe14>
   1f180:	000106b7          	lui	a3,0x10
   1f184:	00d7e7b3          	or	a5,a5,a3
   1f188:	00f12e23          	sw	a5,28(sp)
   1f18c:	01010593          	add	a1,sp,16
   1f190:	01c10793          	add	a5,sp,28
   1f194:	0007a683          	lw	a3,0(a5) # 80000 <__BSS_END__+0x5c428>
   1f198:	ffc7a603          	lw	a2,-4(a5)
   1f19c:	ffc78793          	add	a5,a5,-4
   1f1a0:	00369693          	sll	a3,a3,0x3
   1f1a4:	01d65613          	srl	a2,a2,0x1d
   1f1a8:	00c6e6b3          	or	a3,a3,a2
   1f1ac:	00d7a223          	sw	a3,4(a5)
   1f1b0:	fef592e3          	bne	a1,a5,1f194 <__multf3+0xb4>
   1f1b4:	ffffc7b7          	lui	a5,0xffffc
   1f1b8:	00371713          	sll	a4,a4,0x3
   1f1bc:	00178793          	add	a5,a5,1 # ffffc001 <__BSS_END__+0xfffd8429>
   1f1c0:	00e12823          	sw	a4,16(sp)
   1f1c4:	00f989b3          	add	s3,s3,a5
   1f1c8:	00000b93          	li	s7,0
   1f1cc:	01091513          	sll	a0,s2,0x10
   1f1d0:	000087b7          	lui	a5,0x8
   1f1d4:	01095813          	srl	a6,s2,0x10
   1f1d8:	01055513          	srl	a0,a0,0x10
   1f1dc:	fff78793          	add	a5,a5,-1 # 7fff <exit-0x80a1>
   1f1e0:	05212623          	sw	s2,76(sp)
   1f1e4:	05412023          	sw	s4,64(sp)
   1f1e8:	05612223          	sw	s6,68(sp)
   1f1ec:	05512423          	sw	s5,72(sp)
   1f1f0:	03412023          	sw	s4,32(sp)
   1f1f4:	03612223          	sw	s6,36(sp)
   1f1f8:	03512423          	sw	s5,40(sp)
   1f1fc:	02a12623          	sw	a0,44(sp)
   1f200:	00f87833          	and	a6,a6,a5
   1f204:	01f95913          	srl	s2,s2,0x1f
   1f208:	50080ae3          	beqz	a6,1ff1c <__multf3+0xe3c>
   1f20c:	64f802e3          	beq	a6,a5,20050 <__multf3+0xf70>
   1f210:	000107b7          	lui	a5,0x10
   1f214:	00f56533          	or	a0,a0,a5
   1f218:	02a12623          	sw	a0,44(sp)
   1f21c:	02010613          	add	a2,sp,32
   1f220:	02c10793          	add	a5,sp,44
   1f224:	0007a703          	lw	a4,0(a5) # 10000 <exit-0xa0>
   1f228:	ffc7a683          	lw	a3,-4(a5)
   1f22c:	ffc78793          	add	a5,a5,-4
   1f230:	00371713          	sll	a4,a4,0x3
   1f234:	01d6d693          	srl	a3,a3,0x1d
   1f238:	00d76733          	or	a4,a4,a3
   1f23c:	00e7a223          	sw	a4,4(a5)
   1f240:	fef612e3          	bne	a2,a5,1f224 <__multf3+0x144>
   1f244:	003a1793          	sll	a5,s4,0x3
   1f248:	02f12023          	sw	a5,32(sp)
   1f24c:	ffffc7b7          	lui	a5,0xffffc
   1f250:	00178793          	add	a5,a5,1 # ffffc001 <__BSS_END__+0xfffd8429>
   1f254:	00f80833          	add	a6,a6,a5
   1f258:	00000693          	li	a3,0
   1f25c:	002b9793          	sll	a5,s7,0x2
   1f260:	01380833          	add	a6,a6,s3
   1f264:	00d7e7b3          	or	a5,a5,a3
   1f268:	00a00713          	li	a4,10
   1f26c:	00180c13          	add	s8,a6,1
   1f270:	64f744e3          	blt	a4,a5,200b8 <__multf3+0xfd8>
   1f274:	00200713          	li	a4,2
   1f278:	0124c8b3          	xor	a7,s1,s2
   1f27c:	5ef74ee3          	blt	a4,a5,20078 <__multf3+0xf98>
   1f280:	fff78793          	add	a5,a5,-1
   1f284:	00100713          	li	a4,1
   1f288:	64f774e3          	bgeu	a4,a5,200d0 <__multf3+0xff0>
   1f28c:	01012e83          	lw	t4,16(sp)
   1f290:	02012e03          	lw	t3,32(sp)
   1f294:	000102b7          	lui	t0,0x10
   1f298:	fff28793          	add	a5,t0,-1 # ffff <exit-0xa1>
   1f29c:	00fef333          	and	t1,t4,a5
   1f2a0:	00fe77b3          	and	a5,t3,a5
   1f2a4:	010ed393          	srl	t2,t4,0x10
   1f2a8:	010e5713          	srl	a4,t3,0x10
   1f2ac:	00030513          	mv	a0,t1
   1f2b0:	00078593          	mv	a1,a5
   1f2b4:	3a1020ef          	jal	21e54 <__mulsi3>
   1f2b8:	00050f93          	mv	t6,a0
   1f2bc:	00070593          	mv	a1,a4
   1f2c0:	00030513          	mv	a0,t1
   1f2c4:	391020ef          	jal	21e54 <__mulsi3>
   1f2c8:	00050313          	mv	t1,a0
   1f2cc:	00078593          	mv	a1,a5
   1f2d0:	00038513          	mv	a0,t2
   1f2d4:	381020ef          	jal	21e54 <__mulsi3>
   1f2d8:	00050f13          	mv	t5,a0
   1f2dc:	00070593          	mv	a1,a4
   1f2e0:	00038513          	mv	a0,t2
   1f2e4:	371020ef          	jal	21e54 <__mulsi3>
   1f2e8:	010fd713          	srl	a4,t6,0x10
   1f2ec:	01e30333          	add	t1,t1,t5
   1f2f0:	00670733          	add	a4,a4,t1
   1f2f4:	00050793          	mv	a5,a0
   1f2f8:	01e77463          	bgeu	a4,t5,1f300 <__multf3+0x220>
   1f2fc:	005507b3          	add	a5,a0,t0
   1f300:	01075693          	srl	a3,a4,0x10
   1f304:	00f687b3          	add	a5,a3,a5
   1f308:	000102b7          	lui	t0,0x10
   1f30c:	04f12223          	sw	a5,68(sp)
   1f310:	fff28793          	add	a5,t0,-1 # ffff <exit-0xa1>
   1f314:	00fff533          	and	a0,t6,a5
   1f318:	02412f83          	lw	t6,36(sp)
   1f31c:	00f77733          	and	a4,a4,a5
   1f320:	01071713          	sll	a4,a4,0x10
   1f324:	00a70533          	add	a0,a4,a0
   1f328:	00ffff33          	and	t5,t6,a5
   1f32c:	00fef733          	and	a4,t4,a5
   1f330:	04a12023          	sw	a0,64(sp)
   1f334:	010ed313          	srl	t1,t4,0x10
   1f338:	010fd493          	srl	s1,t6,0x10
   1f33c:	00070513          	mv	a0,a4
   1f340:	000f0593          	mv	a1,t5
   1f344:	311020ef          	jal	21e54 <__mulsi3>
   1f348:	00050393          	mv	t2,a0
   1f34c:	00048593          	mv	a1,s1
   1f350:	00070513          	mv	a0,a4
   1f354:	301020ef          	jal	21e54 <__mulsi3>
   1f358:	00050713          	mv	a4,a0
   1f35c:	000f0593          	mv	a1,t5
   1f360:	00030513          	mv	a0,t1
   1f364:	2f1020ef          	jal	21e54 <__mulsi3>
   1f368:	00050f13          	mv	t5,a0
   1f36c:	00048593          	mv	a1,s1
   1f370:	00030513          	mv	a0,t1
   1f374:	2e1020ef          	jal	21e54 <__mulsi3>
   1f378:	0103d313          	srl	t1,t2,0x10
   1f37c:	01e70733          	add	a4,a4,t5
   1f380:	00e30333          	add	t1,t1,a4
   1f384:	00050b13          	mv	s6,a0
   1f388:	01e37463          	bgeu	t1,t5,1f390 <__multf3+0x2b0>
   1f38c:	00550b33          	add	s6,a0,t0
   1f390:	01412283          	lw	t0,20(sp)
   1f394:	01035493          	srl	s1,t1,0x10
   1f398:	00f37333          	and	t1,t1,a5
   1f39c:	00f3f533          	and	a0,t2,a5
   1f3a0:	00f2ff33          	and	t5,t0,a5
   1f3a4:	01031313          	sll	t1,t1,0x10
   1f3a8:	00fe77b3          	and	a5,t3,a5
   1f3ac:	00a30333          	add	t1,t1,a0
   1f3b0:	0102d993          	srl	s3,t0,0x10
   1f3b4:	010e5713          	srl	a4,t3,0x10
   1f3b8:	000f0513          	mv	a0,t5
   1f3bc:	00078593          	mv	a1,a5
   1f3c0:	295020ef          	jal	21e54 <__mulsi3>
   1f3c4:	00050393          	mv	t2,a0
   1f3c8:	00070593          	mv	a1,a4
   1f3cc:	000f0513          	mv	a0,t5
   1f3d0:	285020ef          	jal	21e54 <__mulsi3>
   1f3d4:	00050f13          	mv	t5,a0
   1f3d8:	00078593          	mv	a1,a5
   1f3dc:	00098513          	mv	a0,s3
   1f3e0:	275020ef          	jal	21e54 <__mulsi3>
   1f3e4:	00050913          	mv	s2,a0
   1f3e8:	00070593          	mv	a1,a4
   1f3ec:	00098513          	mv	a0,s3
   1f3f0:	265020ef          	jal	21e54 <__mulsi3>
   1f3f4:	0103d793          	srl	a5,t2,0x10
   1f3f8:	012f0f33          	add	t5,t5,s2
   1f3fc:	01e787b3          	add	a5,a5,t5
   1f400:	00050713          	mv	a4,a0
   1f404:	0127f663          	bgeu	a5,s2,1f410 <__multf3+0x330>
   1f408:	000106b7          	lui	a3,0x10
   1f40c:	00d50733          	add	a4,a0,a3
   1f410:	000109b7          	lui	s3,0x10
   1f414:	fff98593          	add	a1,s3,-1 # ffff <exit-0xa1>
   1f418:	0107d913          	srl	s2,a5,0x10
   1f41c:	00b7f7b3          	and	a5,a5,a1
   1f420:	00b3f3b3          	and	t2,t2,a1
   1f424:	00b2fab3          	and	s5,t0,a1
   1f428:	00bffa33          	and	s4,t6,a1
   1f42c:	01079793          	sll	a5,a5,0x10
   1f430:	00e90933          	add	s2,s2,a4
   1f434:	007787b3          	add	a5,a5,t2
   1f438:	010fd713          	srl	a4,t6,0x10
   1f43c:	0102d393          	srl	t2,t0,0x10
   1f440:	000a8513          	mv	a0,s5
   1f444:	000a0593          	mv	a1,s4
   1f448:	20d020ef          	jal	21e54 <__mulsi3>
   1f44c:	00050f13          	mv	t5,a0
   1f450:	00070593          	mv	a1,a4
   1f454:	000a8513          	mv	a0,s5
   1f458:	1fd020ef          	jal	21e54 <__mulsi3>
   1f45c:	00050a93          	mv	s5,a0
   1f460:	000a0593          	mv	a1,s4
   1f464:	00038513          	mv	a0,t2
   1f468:	1ed020ef          	jal	21e54 <__mulsi3>
   1f46c:	00050a13          	mv	s4,a0
   1f470:	00070593          	mv	a1,a4
   1f474:	00038513          	mv	a0,t2
   1f478:	1dd020ef          	jal	21e54 <__mulsi3>
   1f47c:	010f5713          	srl	a4,t5,0x10
   1f480:	014a8633          	add	a2,s5,s4
   1f484:	00c70733          	add	a4,a4,a2
   1f488:	00050693          	mv	a3,a0
   1f48c:	01477463          	bgeu	a4,s4,1f494 <__multf3+0x3b4>
   1f490:	013506b3          	add	a3,a0,s3
   1f494:	02812983          	lw	s3,40(sp)
   1f498:	00010a37          	lui	s4,0x10
   1f49c:	fffa0593          	add	a1,s4,-1 # ffff <exit-0xa1>
   1f4a0:	01075393          	srl	t2,a4,0x10
   1f4a4:	00b77733          	and	a4,a4,a1
   1f4a8:	00bf7f33          	and	t5,t5,a1
   1f4ac:	00befbb3          	and	s7,t4,a1
   1f4b0:	00b9fab3          	and	s5,s3,a1
   1f4b4:	01071713          	sll	a4,a4,0x10
   1f4b8:	00d383b3          	add	t2,t2,a3
   1f4bc:	01e70733          	add	a4,a4,t5
   1f4c0:	010edd13          	srl	s10,t4,0x10
   1f4c4:	0109dc93          	srl	s9,s3,0x10
   1f4c8:	000b8513          	mv	a0,s7
   1f4cc:	000a8593          	mv	a1,s5
   1f4d0:	185020ef          	jal	21e54 <__mulsi3>
   1f4d4:	00050f13          	mv	t5,a0
   1f4d8:	000c8593          	mv	a1,s9
   1f4dc:	000b8513          	mv	a0,s7
   1f4e0:	175020ef          	jal	21e54 <__mulsi3>
   1f4e4:	00050b93          	mv	s7,a0
   1f4e8:	000a8593          	mv	a1,s5
   1f4ec:	000d0513          	mv	a0,s10
   1f4f0:	165020ef          	jal	21e54 <__mulsi3>
   1f4f4:	00050a93          	mv	s5,a0
   1f4f8:	000c8593          	mv	a1,s9
   1f4fc:	000d0513          	mv	a0,s10
   1f500:	155020ef          	jal	21e54 <__mulsi3>
   1f504:	010f5693          	srl	a3,t5,0x10
   1f508:	015b8633          	add	a2,s7,s5
   1f50c:	00c686b3          	add	a3,a3,a2
   1f510:	0156f463          	bgeu	a3,s5,1f518 <__multf3+0x438>
   1f514:	01450533          	add	a0,a0,s4
   1f518:	00010d37          	lui	s10,0x10
   1f51c:	fffd0a13          	add	s4,s10,-1 # ffff <exit-0xa1>
   1f520:	0106d613          	srl	a2,a3,0x10
   1f524:	0146f6b3          	and	a3,a3,s4
   1f528:	014f7f33          	and	t5,t5,s4
   1f52c:	01069693          	sll	a3,a3,0x10
   1f530:	01e686b3          	add	a3,a3,t5
   1f534:	01812f03          	lw	t5,24(sp)
   1f538:	00a60db3          	add	s11,a2,a0
   1f53c:	00d12623          	sw	a3,12(sp)
   1f540:	014f7bb3          	and	s7,t5,s4
   1f544:	014e7a33          	and	s4,t3,s4
   1f548:	010e5c93          	srl	s9,t3,0x10
   1f54c:	000b8513          	mv	a0,s7
   1f550:	000a0593          	mv	a1,s4
   1f554:	101020ef          	jal	21e54 <__mulsi3>
   1f558:	00050a93          	mv	s5,a0
   1f55c:	000c8593          	mv	a1,s9
   1f560:	000b8513          	mv	a0,s7
   1f564:	0f1020ef          	jal	21e54 <__mulsi3>
   1f568:	00050b93          	mv	s7,a0
   1f56c:	000a0593          	mv	a1,s4
   1f570:	010f5513          	srl	a0,t5,0x10
   1f574:	0e1020ef          	jal	21e54 <__mulsi3>
   1f578:	00050a13          	mv	s4,a0
   1f57c:	000c8593          	mv	a1,s9
   1f580:	010f5513          	srl	a0,t5,0x10
   1f584:	0d1020ef          	jal	21e54 <__mulsi3>
   1f588:	010ad693          	srl	a3,s5,0x10
   1f58c:	014b8bb3          	add	s7,s7,s4
   1f590:	01768bb3          	add	s7,a3,s7
   1f594:	014bf463          	bgeu	s7,s4,1f59c <__multf3+0x4bc>
   1f598:	01a50533          	add	a0,a0,s10
   1f59c:	04412603          	lw	a2,68(sp)
   1f5a0:	010bd693          	srl	a3,s7,0x10
   1f5a4:	00a68533          	add	a0,a3,a0
   1f5a8:	00660333          	add	t1,a2,t1
   1f5ac:	00c33633          	sltu	a2,t1,a2
   1f5b0:	00c484b3          	add	s1,s1,a2
   1f5b4:	016484b3          	add	s1,s1,s6
   1f5b8:	00f307b3          	add	a5,t1,a5
   1f5bc:	01248933          	add	s2,s1,s2
   1f5c0:	04f12223          	sw	a5,68(sp)
   1f5c4:	0067b7b3          	sltu	a5,a5,t1
   1f5c8:	00f907b3          	add	a5,s2,a5
   1f5cc:	009936b3          	sltu	a3,s2,s1
   1f5d0:	0127b933          	sltu	s2,a5,s2
   1f5d4:	00c4b4b3          	sltu	s1,s1,a2
   1f5d8:	00010a37          	lui	s4,0x10
   1f5dc:	00c12603          	lw	a2,12(sp)
   1f5e0:	0126e6b3          	or	a3,a3,s2
   1f5e4:	fffa0593          	add	a1,s4,-1 # ffff <exit-0xa1>
   1f5e8:	009686b3          	add	a3,a3,s1
   1f5ec:	00e78733          	add	a4,a5,a4
   1f5f0:	007683b3          	add	t2,a3,t2
   1f5f4:	00bbfbb3          	and	s7,s7,a1
   1f5f8:	00f737b3          	sltu	a5,a4,a5
   1f5fc:	00c70333          	add	t1,a4,a2
   1f600:	00f387b3          	add	a5,t2,a5
   1f604:	010b9b93          	sll	s7,s7,0x10
   1f608:	00bafab3          	and	s5,s5,a1
   1f60c:	01b78633          	add	a2,a5,s11
   1f610:	015b8ab3          	add	s5,s7,s5
   1f614:	00e33733          	sltu	a4,t1,a4
   1f618:	00e60733          	add	a4,a2,a4
   1f61c:	01530ab3          	add	s5,t1,s5
   1f620:	00a70533          	add	a0,a4,a0
   1f624:	05512423          	sw	s5,72(sp)
   1f628:	006abab3          	sltu	s5,s5,t1
   1f62c:	01550ab3          	add	s5,a0,s5
   1f630:	02c12303          	lw	t1,44(sp)
   1f634:	00d3b6b3          	sltu	a3,t2,a3
   1f638:	0077b3b3          	sltu	t2,a5,t2
   1f63c:	00f637b3          	sltu	a5,a2,a5
   1f640:	00c73633          	sltu	a2,a4,a2
   1f644:	00c7e7b3          	or	a5,a5,a2
   1f648:	0076e6b3          	or	a3,a3,t2
   1f64c:	05512623          	sw	s5,76(sp)
   1f650:	00e53733          	sltu	a4,a0,a4
   1f654:	00aabab3          	sltu	s5,s5,a0
   1f658:	00f686b3          	add	a3,a3,a5
   1f65c:	01576733          	or	a4,a4,s5
   1f660:	00d70733          	add	a4,a4,a3
   1f664:	010ed493          	srl	s1,t4,0x10
   1f668:	00b377b3          	and	a5,t1,a1
   1f66c:	00befeb3          	and	t4,t4,a1
   1f670:	04e12823          	sw	a4,80(sp)
   1f674:	000e8513          	mv	a0,t4
   1f678:	01035713          	srl	a4,t1,0x10
   1f67c:	00078593          	mv	a1,a5
   1f680:	7d4020ef          	jal	21e54 <__mulsi3>
   1f684:	00050913          	mv	s2,a0
   1f688:	00070593          	mv	a1,a4
   1f68c:	000e8513          	mv	a0,t4
   1f690:	7c4020ef          	jal	21e54 <__mulsi3>
   1f694:	00050e93          	mv	t4,a0
   1f698:	00078593          	mv	a1,a5
   1f69c:	00048513          	mv	a0,s1
   1f6a0:	7b4020ef          	jal	21e54 <__mulsi3>
   1f6a4:	00050393          	mv	t2,a0
   1f6a8:	00070593          	mv	a1,a4
   1f6ac:	00048513          	mv	a0,s1
   1f6b0:	7a4020ef          	jal	21e54 <__mulsi3>
   1f6b4:	01095713          	srl	a4,s2,0x10
   1f6b8:	007e8eb3          	add	t4,t4,t2
   1f6bc:	01d70733          	add	a4,a4,t4
   1f6c0:	00050793          	mv	a5,a0
   1f6c4:	00777463          	bgeu	a4,t2,1f6cc <__multf3+0x5ec>
   1f6c8:	014507b3          	add	a5,a0,s4
   1f6cc:	01075393          	srl	t2,a4,0x10
   1f6d0:	000104b7          	lui	s1,0x10
   1f6d4:	01c12e83          	lw	t4,28(sp)
   1f6d8:	00f383b3          	add	t2,t2,a5
   1f6dc:	fff48793          	add	a5,s1,-1 # ffff <exit-0xa1>
   1f6e0:	00f77733          	and	a4,a4,a5
   1f6e4:	00f97933          	and	s2,s2,a5
   1f6e8:	01071713          	sll	a4,a4,0x10
   1f6ec:	01270733          	add	a4,a4,s2
   1f6f0:	00fefb33          	and	s6,t4,a5
   1f6f4:	010e5913          	srl	s2,t3,0x10
   1f6f8:	00fe7e33          	and	t3,t3,a5
   1f6fc:	010eda93          	srl	s5,t4,0x10
   1f700:	000b0513          	mv	a0,s6
   1f704:	000e0593          	mv	a1,t3
   1f708:	74c020ef          	jal	21e54 <__mulsi3>
   1f70c:	00050a13          	mv	s4,a0
   1f710:	00090593          	mv	a1,s2
   1f714:	000b0513          	mv	a0,s6
   1f718:	73c020ef          	jal	21e54 <__mulsi3>
   1f71c:	00050793          	mv	a5,a0
   1f720:	000e0593          	mv	a1,t3
   1f724:	000a8513          	mv	a0,s5
   1f728:	72c020ef          	jal	21e54 <__mulsi3>
   1f72c:	00050e13          	mv	t3,a0
   1f730:	00090593          	mv	a1,s2
   1f734:	000a8513          	mv	a0,s5
   1f738:	71c020ef          	jal	21e54 <__mulsi3>
   1f73c:	01c787b3          	add	a5,a5,t3
   1f740:	010a5693          	srl	a3,s4,0x10
   1f744:	00d787b3          	add	a5,a5,a3
   1f748:	01c7f463          	bgeu	a5,t3,1f750 <__multf3+0x670>
   1f74c:	00950533          	add	a0,a0,s1
   1f750:	00010937          	lui	s2,0x10
   1f754:	fff90693          	add	a3,s2,-1 # ffff <exit-0xa1>
   1f758:	0107d493          	srl	s1,a5,0x10
   1f75c:	00d7f7b3          	and	a5,a5,a3
   1f760:	00da7a33          	and	s4,s4,a3
   1f764:	0102db13          	srl	s6,t0,0x10
   1f768:	0109da93          	srl	s5,s3,0x10
   1f76c:	00d2f2b3          	and	t0,t0,a3
   1f770:	00d9f9b3          	and	s3,s3,a3
   1f774:	01079793          	sll	a5,a5,0x10
   1f778:	00a484b3          	add	s1,s1,a0
   1f77c:	014787b3          	add	a5,a5,s4
   1f780:	00028513          	mv	a0,t0
   1f784:	00098593          	mv	a1,s3
   1f788:	6cc020ef          	jal	21e54 <__mulsi3>
   1f78c:	00050e13          	mv	t3,a0
   1f790:	000a8593          	mv	a1,s5
   1f794:	00028513          	mv	a0,t0
   1f798:	6bc020ef          	jal	21e54 <__mulsi3>
   1f79c:	00050a13          	mv	s4,a0
   1f7a0:	00098593          	mv	a1,s3
   1f7a4:	000b0513          	mv	a0,s6
   1f7a8:	6ac020ef          	jal	21e54 <__mulsi3>
   1f7ac:	00050993          	mv	s3,a0
   1f7b0:	000a8593          	mv	a1,s5
   1f7b4:	000b0513          	mv	a0,s6
   1f7b8:	69c020ef          	jal	21e54 <__mulsi3>
   1f7bc:	010e5293          	srl	t0,t3,0x10
   1f7c0:	013a0a33          	add	s4,s4,s3
   1f7c4:	014282b3          	add	t0,t0,s4
   1f7c8:	00050693          	mv	a3,a0
   1f7cc:	0132f463          	bgeu	t0,s3,1f7d4 <__multf3+0x6f4>
   1f7d0:	012506b3          	add	a3,a0,s2
   1f7d4:	0102d913          	srl	s2,t0,0x10
   1f7d8:	00010a37          	lui	s4,0x10
   1f7dc:	00d90933          	add	s2,s2,a3
   1f7e0:	fffa0693          	add	a3,s4,-1 # ffff <exit-0xa1>
   1f7e4:	00d2f2b3          	and	t0,t0,a3
   1f7e8:	00de7e33          	and	t3,t3,a3
   1f7ec:	010fdb13          	srl	s6,t6,0x10
   1f7f0:	00df7ab3          	and	s5,t5,a3
   1f7f4:	00dfffb3          	and	t6,t6,a3
   1f7f8:	01029293          	sll	t0,t0,0x10
   1f7fc:	01c282b3          	add	t0,t0,t3
   1f800:	000a8513          	mv	a0,s5
   1f804:	010f5e13          	srl	t3,t5,0x10
   1f808:	000f8593          	mv	a1,t6
   1f80c:	648020ef          	jal	21e54 <__mulsi3>
   1f810:	00050993          	mv	s3,a0
   1f814:	000b0593          	mv	a1,s6
   1f818:	000a8513          	mv	a0,s5
   1f81c:	638020ef          	jal	21e54 <__mulsi3>
   1f820:	00050a93          	mv	s5,a0
   1f824:	000f8593          	mv	a1,t6
   1f828:	000e0513          	mv	a0,t3
   1f82c:	628020ef          	jal	21e54 <__mulsi3>
   1f830:	00050f93          	mv	t6,a0
   1f834:	000b0593          	mv	a1,s6
   1f838:	000e0513          	mv	a0,t3
   1f83c:	618020ef          	jal	21e54 <__mulsi3>
   1f840:	0109d693          	srl	a3,s3,0x10
   1f844:	01fa8633          	add	a2,s5,t6
   1f848:	00c686b3          	add	a3,a3,a2
   1f84c:	01f6f463          	bgeu	a3,t6,1f854 <__multf3+0x774>
   1f850:	01450533          	add	a0,a0,s4
   1f854:	00010e37          	lui	t3,0x10
   1f858:	fffe0613          	add	a2,t3,-1 # ffff <exit-0xa1>
   1f85c:	0106d593          	srl	a1,a3,0x10
   1f860:	00c6f6b3          	and	a3,a3,a2
   1f864:	00c9f9b3          	and	s3,s3,a2
   1f868:	01069693          	sll	a3,a3,0x10
   1f86c:	00a585b3          	add	a1,a1,a0
   1f870:	01368533          	add	a0,a3,s3
   1f874:	04c12683          	lw	a3,76(sp)
   1f878:	05012f83          	lw	t6,80(sp)
   1f87c:	02812983          	lw	s3,40(sp)
   1f880:	00e68733          	add	a4,a3,a4
   1f884:	007f83b3          	add	t2,t6,t2
   1f888:	00d736b3          	sltu	a3,a4,a3
   1f88c:	00d386b3          	add	a3,t2,a3
   1f890:	00f707b3          	add	a5,a4,a5
   1f894:	009684b3          	add	s1,a3,s1
   1f898:	00e7b733          	sltu	a4,a5,a4
   1f89c:	00e48733          	add	a4,s1,a4
   1f8a0:	005782b3          	add	t0,a5,t0
   1f8a4:	01f3bfb3          	sltu	t6,t2,t6
   1f8a8:	0076b3b3          	sltu	t2,a3,t2
   1f8ac:	00d4b6b3          	sltu	a3,s1,a3
   1f8b0:	009734b3          	sltu	s1,a4,s1
   1f8b4:	0096e6b3          	or	a3,a3,s1
   1f8b8:	01270933          	add	s2,a4,s2
   1f8bc:	007fefb3          	or	t6,t6,t2
   1f8c0:	00f2b7b3          	sltu	a5,t0,a5
   1f8c4:	00df8fb3          	add	t6,t6,a3
   1f8c8:	00f907b3          	add	a5,s2,a5
   1f8cc:	00a286b3          	add	a3,t0,a0
   1f8d0:	00b785b3          	add	a1,a5,a1
   1f8d4:	04d12623          	sw	a3,76(sp)
   1f8d8:	0056b6b3          	sltu	a3,a3,t0
   1f8dc:	00d586b3          	add	a3,a1,a3
   1f8e0:	00e93733          	sltu	a4,s2,a4
   1f8e4:	0127b933          	sltu	s2,a5,s2
   1f8e8:	01276733          	or	a4,a4,s2
   1f8ec:	04d12823          	sw	a3,80(sp)
   1f8f0:	00f5b7b3          	sltu	a5,a1,a5
   1f8f4:	00b6b6b3          	sltu	a3,a3,a1
   1f8f8:	01f70733          	add	a4,a4,t6
   1f8fc:	00d7e7b3          	or	a5,a5,a3
   1f900:	00e787b3          	add	a5,a5,a4
   1f904:	04f12a23          	sw	a5,84(sp)
   1f908:	010f5393          	srl	t2,t5,0x10
   1f90c:	00c9f7b3          	and	a5,s3,a2
   1f910:	00cf7f33          	and	t5,t5,a2
   1f914:	0109d713          	srl	a4,s3,0x10
   1f918:	000f0513          	mv	a0,t5
   1f91c:	00078593          	mv	a1,a5
   1f920:	534020ef          	jal	21e54 <__mulsi3>
   1f924:	00050f93          	mv	t6,a0
   1f928:	00070593          	mv	a1,a4
   1f92c:	000f0513          	mv	a0,t5
   1f930:	524020ef          	jal	21e54 <__mulsi3>
   1f934:	00050f13          	mv	t5,a0
   1f938:	00078593          	mv	a1,a5
   1f93c:	00038513          	mv	a0,t2
   1f940:	514020ef          	jal	21e54 <__mulsi3>
   1f944:	00050293          	mv	t0,a0
   1f948:	00070593          	mv	a1,a4
   1f94c:	00038513          	mv	a0,t2
   1f950:	504020ef          	jal	21e54 <__mulsi3>
   1f954:	010fd793          	srl	a5,t6,0x10
   1f958:	005f0f33          	add	t5,t5,t0
   1f95c:	01e787b3          	add	a5,a5,t5
   1f960:	00050713          	mv	a4,a0
   1f964:	0057f463          	bgeu	a5,t0,1f96c <__multf3+0x88c>
   1f968:	01c50733          	add	a4,a0,t3
   1f96c:	01412f03          	lw	t5,20(sp)
   1f970:	0107d913          	srl	s2,a5,0x10
   1f974:	000103b7          	lui	t2,0x10
   1f978:	00e90933          	add	s2,s2,a4
   1f97c:	fff38713          	add	a4,t2,-1 # ffff <exit-0xa1>
   1f980:	00e7f7b3          	and	a5,a5,a4
   1f984:	00efffb3          	and	t6,t6,a4
   1f988:	010f5493          	srl	s1,t5,0x10
   1f98c:	01079793          	sll	a5,a5,0x10
   1f990:	00ef7f33          	and	t5,t5,a4
   1f994:	00e37733          	and	a4,t1,a4
   1f998:	01f787b3          	add	a5,a5,t6
   1f99c:	01035293          	srl	t0,t1,0x10
   1f9a0:	000f0513          	mv	a0,t5
   1f9a4:	00070593          	mv	a1,a4
   1f9a8:	4ac020ef          	jal	21e54 <__mulsi3>
   1f9ac:	00050e13          	mv	t3,a0
   1f9b0:	00028593          	mv	a1,t0
   1f9b4:	000f0513          	mv	a0,t5
   1f9b8:	49c020ef          	jal	21e54 <__mulsi3>
   1f9bc:	00050f13          	mv	t5,a0
   1f9c0:	00070593          	mv	a1,a4
   1f9c4:	00048513          	mv	a0,s1
   1f9c8:	48c020ef          	jal	21e54 <__mulsi3>
   1f9cc:	00050f93          	mv	t6,a0
   1f9d0:	00028593          	mv	a1,t0
   1f9d4:	00048513          	mv	a0,s1
   1f9d8:	47c020ef          	jal	21e54 <__mulsi3>
   1f9dc:	010e5293          	srl	t0,t3,0x10
   1f9e0:	01ff0f33          	add	t5,t5,t6
   1f9e4:	01e282b3          	add	t0,t0,t5
   1f9e8:	00050713          	mv	a4,a0
   1f9ec:	01f2f463          	bgeu	t0,t6,1f9f4 <__multf3+0x914>
   1f9f0:	00750733          	add	a4,a0,t2
   1f9f4:	0102d493          	srl	s1,t0,0x10
   1f9f8:	00e484b3          	add	s1,s1,a4
   1f9fc:	00010fb7          	lui	t6,0x10
   1fa00:	02412703          	lw	a4,36(sp)
   1fa04:	ffff8693          	add	a3,t6,-1 # ffff <exit-0xa1>
   1fa08:	00d2f2b3          	and	t0,t0,a3
   1fa0c:	00de7e33          	and	t3,t3,a3
   1fa10:	01075a93          	srl	s5,a4,0x10
   1fa14:	00deff33          	and	t5,t4,a3
   1fa18:	00d77733          	and	a4,a4,a3
   1fa1c:	01029293          	sll	t0,t0,0x10
   1fa20:	01c282b3          	add	t0,t0,t3
   1fa24:	010eda13          	srl	s4,t4,0x10
   1fa28:	000f0513          	mv	a0,t5
   1fa2c:	00070593          	mv	a1,a4
   1fa30:	424020ef          	jal	21e54 <__mulsi3>
   1fa34:	00050e13          	mv	t3,a0
   1fa38:	000a8593          	mv	a1,s5
   1fa3c:	000f0513          	mv	a0,t5
   1fa40:	414020ef          	jal	21e54 <__mulsi3>
   1fa44:	00050f13          	mv	t5,a0
   1fa48:	00070593          	mv	a1,a4
   1fa4c:	000a0513          	mv	a0,s4
   1fa50:	404020ef          	jal	21e54 <__mulsi3>
   1fa54:	00050393          	mv	t2,a0
   1fa58:	000a8593          	mv	a1,s5
   1fa5c:	000a0513          	mv	a0,s4
   1fa60:	3f4020ef          	jal	21e54 <__mulsi3>
   1fa64:	010e5713          	srl	a4,t3,0x10
   1fa68:	007f0f33          	add	t5,t5,t2
   1fa6c:	01e70733          	add	a4,a4,t5
   1fa70:	00050693          	mv	a3,a0
   1fa74:	00777463          	bgeu	a4,t2,1fa7c <__multf3+0x99c>
   1fa78:	01f506b3          	add	a3,a0,t6
   1fa7c:	01812f03          	lw	t5,24(sp)
   1fa80:	01075393          	srl	t2,a4,0x10
   1fa84:	00010fb7          	lui	t6,0x10
   1fa88:	00d383b3          	add	t2,t2,a3
   1fa8c:	ffff8693          	add	a3,t6,-1 # ffff <exit-0xa1>
   1fa90:	00d77733          	and	a4,a4,a3
   1fa94:	00de7e33          	and	t3,t3,a3
   1fa98:	010f5b13          	srl	s6,t5,0x10
   1fa9c:	01035a93          	srl	s5,t1,0x10
   1faa0:	00df7f33          	and	t5,t5,a3
   1faa4:	00d37333          	and	t1,t1,a3
   1faa8:	01071713          	sll	a4,a4,0x10
   1faac:	01c70733          	add	a4,a4,t3
   1fab0:	000f0513          	mv	a0,t5
   1fab4:	00030593          	mv	a1,t1
   1fab8:	39c020ef          	jal	21e54 <__mulsi3>
   1fabc:	00050e13          	mv	t3,a0
   1fac0:	000a8593          	mv	a1,s5
   1fac4:	000f0513          	mv	a0,t5
   1fac8:	38c020ef          	jal	21e54 <__mulsi3>
   1facc:	00050a13          	mv	s4,a0
   1fad0:	00030593          	mv	a1,t1
   1fad4:	000b0513          	mv	a0,s6
   1fad8:	37c020ef          	jal	21e54 <__mulsi3>
   1fadc:	00050313          	mv	t1,a0
   1fae0:	000a8593          	mv	a1,s5
   1fae4:	000b0513          	mv	a0,s6
   1fae8:	36c020ef          	jal	21e54 <__mulsi3>
   1faec:	010e5f13          	srl	t5,t3,0x10
   1faf0:	006a0a33          	add	s4,s4,t1
   1faf4:	014f0f33          	add	t5,t5,s4
   1faf8:	00050693          	mv	a3,a0
   1fafc:	006f7463          	bgeu	t5,t1,1fb04 <__multf3+0xa24>
   1fb00:	01f506b3          	add	a3,a0,t6
   1fb04:	010f5f93          	srl	t6,t5,0x10
   1fb08:	00010337          	lui	t1,0x10
   1fb0c:	00df8fb3          	add	t6,t6,a3
   1fb10:	fff30693          	add	a3,t1,-1 # ffff <exit-0xa1>
   1fb14:	00df7f33          	and	t5,t5,a3
   1fb18:	00de7e33          	and	t3,t3,a3
   1fb1c:	010edb13          	srl	s6,t4,0x10
   1fb20:	0109da93          	srl	s5,s3,0x10
   1fb24:	00defeb3          	and	t4,t4,a3
   1fb28:	00d9f9b3          	and	s3,s3,a3
   1fb2c:	010f1f13          	sll	t5,t5,0x10
   1fb30:	01cf0f33          	add	t5,t5,t3
   1fb34:	000e8513          	mv	a0,t4
   1fb38:	00098593          	mv	a1,s3
   1fb3c:	318020ef          	jal	21e54 <__mulsi3>
   1fb40:	00050a13          	mv	s4,a0
   1fb44:	000a8593          	mv	a1,s5
   1fb48:	000e8513          	mv	a0,t4
   1fb4c:	308020ef          	jal	21e54 <__mulsi3>
   1fb50:	00050e13          	mv	t3,a0
   1fb54:	00098593          	mv	a1,s3
   1fb58:	000b0513          	mv	a0,s6
   1fb5c:	2f8020ef          	jal	21e54 <__mulsi3>
   1fb60:	00050e93          	mv	t4,a0
   1fb64:	000a8593          	mv	a1,s5
   1fb68:	000b0513          	mv	a0,s6
   1fb6c:	2e8020ef          	jal	21e54 <__mulsi3>
   1fb70:	010a5693          	srl	a3,s4,0x10
   1fb74:	01de0e33          	add	t3,t3,t4
   1fb78:	01c686b3          	add	a3,a3,t3
   1fb7c:	00050613          	mv	a2,a0
   1fb80:	01d6f463          	bgeu	a3,t4,1fb88 <__multf3+0xaa8>
   1fb84:	00650633          	add	a2,a0,t1
   1fb88:	00010e37          	lui	t3,0x10
   1fb8c:	fffe0313          	add	t1,t3,-1 # ffff <exit-0xa1>
   1fb90:	0106d593          	srl	a1,a3,0x10
   1fb94:	0066f6b3          	and	a3,a3,t1
   1fb98:	01069693          	sll	a3,a3,0x10
   1fb9c:	006a7a33          	and	s4,s4,t1
   1fba0:	00c585b3          	add	a1,a1,a2
   1fba4:	01468633          	add	a2,a3,s4
   1fba8:	05012683          	lw	a3,80(sp)
   1fbac:	05412503          	lw	a0,84(sp)
   1fbb0:	00f687b3          	add	a5,a3,a5
   1fbb4:	01250933          	add	s2,a0,s2
   1fbb8:	00d7b6b3          	sltu	a3,a5,a3
   1fbbc:	005782b3          	add	t0,a5,t0
   1fbc0:	00d906b3          	add	a3,s2,a3
   1fbc4:	009684b3          	add	s1,a3,s1
   1fbc8:	00f2b7b3          	sltu	a5,t0,a5
   1fbcc:	00f487b3          	add	a5,s1,a5
   1fbd0:	00e28733          	add	a4,t0,a4
   1fbd4:	007783b3          	add	t2,a5,t2
   1fbd8:	04e12823          	sw	a4,80(sp)
   1fbdc:	00573733          	sltu	a4,a4,t0
   1fbe0:	00e38733          	add	a4,t2,a4
   1fbe4:	00a93533          	sltu	a0,s2,a0
   1fbe8:	0126b933          	sltu	s2,a3,s2
   1fbec:	00d4b6b3          	sltu	a3,s1,a3
   1fbf0:	0097b4b3          	sltu	s1,a5,s1
   1fbf4:	0096e6b3          	or	a3,a3,s1
   1fbf8:	01256533          	or	a0,a0,s2
   1fbfc:	00f3b7b3          	sltu	a5,t2,a5
   1fc00:	007733b3          	sltu	t2,a4,t2
   1fc04:	00d50533          	add	a0,a0,a3
   1fc08:	0077e7b3          	or	a5,a5,t2
   1fc0c:	01e70f33          	add	t5,a4,t5
   1fc10:	00a787b3          	add	a5,a5,a0
   1fc14:	01f78fb3          	add	t6,a5,t6
   1fc18:	00ef3733          	sltu	a4,t5,a4
   1fc1c:	00cf06b3          	add	a3,t5,a2
   1fc20:	00ef8733          	add	a4,t6,a4
   1fc24:	00b705b3          	add	a1,a4,a1
   1fc28:	04d12a23          	sw	a3,84(sp)
   1fc2c:	01e6b6b3          	sltu	a3,a3,t5
   1fc30:	00d586b3          	add	a3,a1,a3
   1fc34:	04d12c23          	sw	a3,88(sp)
   1fc38:	00ffb7b3          	sltu	a5,t6,a5
   1fc3c:	00b6b6b3          	sltu	a3,a3,a1
   1fc40:	01f73fb3          	sltu	t6,a4,t6
   1fc44:	00e5b733          	sltu	a4,a1,a4
   1fc48:	00d76733          	or	a4,a4,a3
   1fc4c:	01f7e7b3          	or	a5,a5,t6
   1fc50:	00e787b3          	add	a5,a5,a4
   1fc54:	04f12e23          	sw	a5,92(sp)
   1fc58:	02c12703          	lw	a4,44(sp)
   1fc5c:	01c12783          	lw	a5,28(sp)
   1fc60:	01075f13          	srl	t5,a4,0x10
   1fc64:	0107df93          	srl	t6,a5,0x10
   1fc68:	00677733          	and	a4,a4,t1
   1fc6c:	0067f7b3          	and	a5,a5,t1
   1fc70:	00078513          	mv	a0,a5
   1fc74:	00070593          	mv	a1,a4
   1fc78:	1dc020ef          	jal	21e54 <__mulsi3>
   1fc7c:	00050e93          	mv	t4,a0
   1fc80:	000f0593          	mv	a1,t5
   1fc84:	00078513          	mv	a0,a5
   1fc88:	1cc020ef          	jal	21e54 <__mulsi3>
   1fc8c:	00050793          	mv	a5,a0
   1fc90:	00070593          	mv	a1,a4
   1fc94:	000f8513          	mv	a0,t6
   1fc98:	1bc020ef          	jal	21e54 <__mulsi3>
   1fc9c:	00050713          	mv	a4,a0
   1fca0:	000f0593          	mv	a1,t5
   1fca4:	000f8513          	mv	a0,t6
   1fca8:	1ac020ef          	jal	21e54 <__mulsi3>
   1fcac:	00e787b3          	add	a5,a5,a4
   1fcb0:	010ed693          	srl	a3,t4,0x10
   1fcb4:	00d787b3          	add	a5,a5,a3
   1fcb8:	00e7f463          	bgeu	a5,a4,1fcc0 <__multf3+0xbe0>
   1fcbc:	01c50533          	add	a0,a0,t3
   1fcc0:	05812683          	lw	a3,88(sp)
   1fcc4:	0067f733          	and	a4,a5,t1
   1fcc8:	05c12603          	lw	a2,92(sp)
   1fccc:	01071713          	sll	a4,a4,0x10
   1fcd0:	006efeb3          	and	t4,t4,t1
   1fcd4:	01d70733          	add	a4,a4,t4
   1fcd8:	00e68733          	add	a4,a3,a4
   1fcdc:	0107d793          	srl	a5,a5,0x10
   1fce0:	00d736b3          	sltu	a3,a4,a3
   1fce4:	00c787b3          	add	a5,a5,a2
   1fce8:	00d787b3          	add	a5,a5,a3
   1fcec:	00a78533          	add	a0,a5,a0
   1fcf0:	04e12c23          	sw	a4,88(sp)
   1fcf4:	04012783          	lw	a5,64(sp)
   1fcf8:	04412703          	lw	a4,68(sp)
   1fcfc:	04a12e23          	sw	a0,92(sp)
   1fd00:	05010593          	add	a1,sp,80
   1fd04:	00f76733          	or	a4,a4,a5
   1fd08:	04812783          	lw	a5,72(sp)
   1fd0c:	00f76733          	or	a4,a4,a5
   1fd10:	04c12783          	lw	a5,76(sp)
   1fd14:	00d79793          	sll	a5,a5,0xd
   1fd18:	00e7e7b3          	or	a5,a5,a4
   1fd1c:	04010713          	add	a4,sp,64
   1fd20:	00c72683          	lw	a3,12(a4)
   1fd24:	01072603          	lw	a2,16(a4)
   1fd28:	00470713          	add	a4,a4,4
   1fd2c:	0136d693          	srl	a3,a3,0x13
   1fd30:	00d61613          	sll	a2,a2,0xd
   1fd34:	00c6e6b3          	or	a3,a3,a2
   1fd38:	fed72e23          	sw	a3,-4(a4)
   1fd3c:	fee592e3          	bne	a1,a4,1fd20 <__multf3+0xc40>
   1fd40:	04012703          	lw	a4,64(sp)
   1fd44:	00f037b3          	snez	a5,a5
   1fd48:	04c12683          	lw	a3,76(sp)
   1fd4c:	00e7e7b3          	or	a5,a5,a4
   1fd50:	04812703          	lw	a4,72(sp)
   1fd54:	02d12e23          	sw	a3,60(sp)
   1fd58:	02f12823          	sw	a5,48(sp)
   1fd5c:	02e12c23          	sw	a4,56(sp)
   1fd60:	04412703          	lw	a4,68(sp)
   1fd64:	02e12a23          	sw	a4,52(sp)
   1fd68:	00b69713          	sll	a4,a3,0xb
   1fd6c:	04075663          	bgez	a4,1fdb8 <__multf3+0xcd8>
   1fd70:	01f79793          	sll	a5,a5,0x1f
   1fd74:	03010713          	add	a4,sp,48
   1fd78:	03c10513          	add	a0,sp,60
   1fd7c:	00072603          	lw	a2,0(a4)
   1fd80:	00472583          	lw	a1,4(a4)
   1fd84:	00470713          	add	a4,a4,4
   1fd88:	00165613          	srl	a2,a2,0x1
   1fd8c:	01f59593          	sll	a1,a1,0x1f
   1fd90:	00b66633          	or	a2,a2,a1
   1fd94:	fec72e23          	sw	a2,-4(a4)
   1fd98:	fee512e3          	bne	a0,a4,1fd7c <__multf3+0xc9c>
   1fd9c:	03012703          	lw	a4,48(sp)
   1fda0:	00f037b3          	snez	a5,a5
   1fda4:	0016d693          	srl	a3,a3,0x1
   1fda8:	00f767b3          	or	a5,a4,a5
   1fdac:	02d12e23          	sw	a3,60(sp)
   1fdb0:	02f12823          	sw	a5,48(sp)
   1fdb4:	000c0813          	mv	a6,s8
   1fdb8:	00080c13          	mv	s8,a6
   1fdbc:	3700006f          	j	2012c <__multf3+0x104c>
   1fdc0:	00a76633          	or	a2,a4,a0
   1fdc4:	00d66633          	or	a2,a2,a3
   1fdc8:	00f66633          	or	a2,a2,a5
   1fdcc:	14060263          	beqz	a2,1ff10 <__multf3+0xe30>
   1fdd0:	0a078063          	beqz	a5,1fe70 <__multf3+0xd90>
   1fdd4:	00078513          	mv	a0,a5
   1fdd8:	154020ef          	jal	21f2c <__clzsi2>
   1fddc:	ff450613          	add	a2,a0,-12
   1fde0:	40565713          	sra	a4,a2,0x5
   1fde4:	01f67613          	and	a2,a2,31
   1fde8:	40e007b3          	neg	a5,a4
   1fdec:	0a060c63          	beqz	a2,1fea4 <__multf3+0xdc4>
   1fdf0:	00279793          	sll	a5,a5,0x2
   1fdf4:	00c78693          	add	a3,a5,12
   1fdf8:	02000813          	li	a6,32
   1fdfc:	01010313          	add	t1,sp,16
   1fe00:	40c80833          	sub	a6,a6,a2
   1fe04:	00d306b3          	add	a3,t1,a3
   1fe08:	40f007b3          	neg	a5,a5
   1fe0c:	0cd31263          	bne	t1,a3,1fed0 <__multf3+0xdf0>
   1fe10:	fff70793          	add	a5,a4,-1
   1fe14:	00271713          	sll	a4,a4,0x2
   1fe18:	01010693          	add	a3,sp,16
   1fe1c:	05070713          	add	a4,a4,80
   1fe20:	00d70733          	add	a4,a4,a3
   1fe24:	01012683          	lw	a3,16(sp)
   1fe28:	00c696b3          	sll	a3,a3,a2
   1fe2c:	fad72823          	sw	a3,-80(a4)
   1fe30:	00178793          	add	a5,a5,1
   1fe34:	00279793          	sll	a5,a5,0x2
   1fe38:	00800693          	li	a3,8
   1fe3c:	01010713          	add	a4,sp,16
   1fe40:	00d7ea63          	bltu	a5,a3,1fe54 <__multf3+0xd74>
   1fe44:	00012823          	sw	zero,16(sp)
   1fe48:	00072223          	sw	zero,4(a4)
   1fe4c:	ff878793          	add	a5,a5,-8
   1fe50:	01810713          	add	a4,sp,24
   1fe54:	00400693          	li	a3,4
   1fe58:	00d7e463          	bltu	a5,a3,1fe60 <__multf3+0xd80>
   1fe5c:	00072023          	sw	zero,0(a4)
   1fe60:	ffffc9b7          	lui	s3,0xffffc
   1fe64:	01198993          	add	s3,s3,17 # ffffc011 <__BSS_END__+0xfffd8439>
   1fe68:	40a989b3          	sub	s3,s3,a0
   1fe6c:	b5cff06f          	j	1f1c8 <__multf3+0xe8>
   1fe70:	00068a63          	beqz	a3,1fe84 <__multf3+0xda4>
   1fe74:	00068513          	mv	a0,a3
   1fe78:	0b4020ef          	jal	21f2c <__clzsi2>
   1fe7c:	02050513          	add	a0,a0,32
   1fe80:	f5dff06f          	j	1fddc <__multf3+0xcfc>
   1fe84:	00050863          	beqz	a0,1fe94 <__multf3+0xdb4>
   1fe88:	0a4020ef          	jal	21f2c <__clzsi2>
   1fe8c:	04050513          	add	a0,a0,64
   1fe90:	f4dff06f          	j	1fddc <__multf3+0xcfc>
   1fe94:	00070513          	mv	a0,a4
   1fe98:	094020ef          	jal	21f2c <__clzsi2>
   1fe9c:	06050513          	add	a0,a0,96
   1fea0:	f3dff06f          	j	1fddc <__multf3+0xcfc>
   1fea4:	01c10693          	add	a3,sp,28
   1fea8:	00279793          	sll	a5,a5,0x2
   1feac:	00300613          	li	a2,3
   1feb0:	00f685b3          	add	a1,a3,a5
   1feb4:	0005a583          	lw	a1,0(a1)
   1feb8:	fff60613          	add	a2,a2,-1
   1febc:	ffc68693          	add	a3,a3,-4 # fffc <exit-0xa4>
   1fec0:	00b6a223          	sw	a1,4(a3)
   1fec4:	fee656e3          	bge	a2,a4,1feb0 <__multf3+0xdd0>
   1fec8:	fff70793          	add	a5,a4,-1
   1fecc:	f65ff06f          	j	1fe30 <__multf3+0xd50>
   1fed0:	0006a583          	lw	a1,0(a3)
   1fed4:	ffc6a883          	lw	a7,-4(a3)
   1fed8:	00f68e33          	add	t3,a3,a5
   1fedc:	00c595b3          	sll	a1,a1,a2
   1fee0:	0108d8b3          	srl	a7,a7,a6
   1fee4:	0115e5b3          	or	a1,a1,a7
   1fee8:	00be2023          	sw	a1,0(t3)
   1feec:	ffc68693          	add	a3,a3,-4
   1fef0:	f1dff06f          	j	1fe0c <__multf3+0xd2c>
   1fef4:	00a76733          	or	a4,a4,a0
   1fef8:	00d76733          	or	a4,a4,a3
   1fefc:	00f76733          	or	a4,a4,a5
   1ff00:	00200b93          	li	s7,2
   1ff04:	ac070463          	beqz	a4,1f1cc <__multf3+0xec>
   1ff08:	00300b93          	li	s7,3
   1ff0c:	ac0ff06f          	j	1f1cc <__multf3+0xec>
   1ff10:	00000993          	li	s3,0
   1ff14:	00100b93          	li	s7,1
   1ff18:	ab4ff06f          	j	1f1cc <__multf3+0xec>
   1ff1c:	016a67b3          	or	a5,s4,s6
   1ff20:	0157e7b3          	or	a5,a5,s5
   1ff24:	00a7e7b3          	or	a5,a5,a0
   1ff28:	14078263          	beqz	a5,2006c <__multf3+0xf8c>
   1ff2c:	08050e63          	beqz	a0,1ffc8 <__multf3+0xee8>
   1ff30:	7fd010ef          	jal	21f2c <__clzsi2>
   1ff34:	ff450613          	add	a2,a0,-12
   1ff38:	40565713          	sra	a4,a2,0x5
   1ff3c:	01f67613          	and	a2,a2,31
   1ff40:	40e007b3          	neg	a5,a4
   1ff44:	0a060e63          	beqz	a2,20000 <__multf3+0xf20>
   1ff48:	00279793          	sll	a5,a5,0x2
   1ff4c:	00c78693          	add	a3,a5,12
   1ff50:	02000813          	li	a6,32
   1ff54:	02010313          	add	t1,sp,32
   1ff58:	40c80833          	sub	a6,a6,a2
   1ff5c:	00d306b3          	add	a3,t1,a3
   1ff60:	40f007b3          	neg	a5,a5
   1ff64:	0cd31463          	bne	t1,a3,2002c <__multf3+0xf4c>
   1ff68:	fff70793          	add	a5,a4,-1
   1ff6c:	00271713          	sll	a4,a4,0x2
   1ff70:	01010693          	add	a3,sp,16
   1ff74:	05070713          	add	a4,a4,80
   1ff78:	00d70733          	add	a4,a4,a3
   1ff7c:	02012683          	lw	a3,32(sp)
   1ff80:	00c696b3          	sll	a3,a3,a2
   1ff84:	fcd72023          	sw	a3,-64(a4)
   1ff88:	00178793          	add	a5,a5,1
   1ff8c:	00279793          	sll	a5,a5,0x2
   1ff90:	00800693          	li	a3,8
   1ff94:	02010713          	add	a4,sp,32
   1ff98:	00d7ea63          	bltu	a5,a3,1ffac <__multf3+0xecc>
   1ff9c:	02012023          	sw	zero,32(sp)
   1ffa0:	00072223          	sw	zero,4(a4)
   1ffa4:	ff878793          	add	a5,a5,-8
   1ffa8:	02810713          	add	a4,sp,40
   1ffac:	00400693          	li	a3,4
   1ffb0:	00d7e463          	bltu	a5,a3,1ffb8 <__multf3+0xed8>
   1ffb4:	00072023          	sw	zero,0(a4)
   1ffb8:	ffffc837          	lui	a6,0xffffc
   1ffbc:	01180813          	add	a6,a6,17 # ffffc011 <__BSS_END__+0xfffd8439>
   1ffc0:	40a80833          	sub	a6,a6,a0
   1ffc4:	a94ff06f          	j	1f258 <__multf3+0x178>
   1ffc8:	000a8a63          	beqz	s5,1ffdc <__multf3+0xefc>
   1ffcc:	000a8513          	mv	a0,s5
   1ffd0:	75d010ef          	jal	21f2c <__clzsi2>
   1ffd4:	02050513          	add	a0,a0,32
   1ffd8:	f5dff06f          	j	1ff34 <__multf3+0xe54>
   1ffdc:	000b0a63          	beqz	s6,1fff0 <__multf3+0xf10>
   1ffe0:	000b0513          	mv	a0,s6
   1ffe4:	749010ef          	jal	21f2c <__clzsi2>
   1ffe8:	04050513          	add	a0,a0,64
   1ffec:	f49ff06f          	j	1ff34 <__multf3+0xe54>
   1fff0:	000a0513          	mv	a0,s4
   1fff4:	739010ef          	jal	21f2c <__clzsi2>
   1fff8:	06050513          	add	a0,a0,96
   1fffc:	f39ff06f          	j	1ff34 <__multf3+0xe54>
   20000:	02c10693          	add	a3,sp,44
   20004:	00279793          	sll	a5,a5,0x2
   20008:	00300613          	li	a2,3
   2000c:	00f685b3          	add	a1,a3,a5
   20010:	0005a583          	lw	a1,0(a1)
   20014:	fff60613          	add	a2,a2,-1
   20018:	ffc68693          	add	a3,a3,-4
   2001c:	00b6a223          	sw	a1,4(a3)
   20020:	fee656e3          	bge	a2,a4,2000c <__multf3+0xf2c>
   20024:	fff70793          	add	a5,a4,-1
   20028:	f61ff06f          	j	1ff88 <__multf3+0xea8>
   2002c:	0006a583          	lw	a1,0(a3)
   20030:	ffc6a883          	lw	a7,-4(a3)
   20034:	00f68e33          	add	t3,a3,a5
   20038:	00c595b3          	sll	a1,a1,a2
   2003c:	0108d8b3          	srl	a7,a7,a6
   20040:	0115e5b3          	or	a1,a1,a7
   20044:	00be2023          	sw	a1,0(t3)
   20048:	ffc68693          	add	a3,a3,-4
   2004c:	f19ff06f          	j	1ff64 <__multf3+0xe84>
   20050:	016a67b3          	or	a5,s4,s6
   20054:	0157e7b3          	or	a5,a5,s5
   20058:	00a7e7b3          	or	a5,a5,a0
   2005c:	00200693          	li	a3,2
   20060:	9e078e63          	beqz	a5,1f25c <__multf3+0x17c>
   20064:	00300693          	li	a3,3
   20068:	9f4ff06f          	j	1f25c <__multf3+0x17c>
   2006c:	00000813          	li	a6,0
   20070:	00100693          	li	a3,1
   20074:	9e8ff06f          	j	1f25c <__multf3+0x17c>
   20078:	00100713          	li	a4,1
   2007c:	00f717b3          	sll	a5,a4,a5
   20080:	5307f713          	and	a4,a5,1328
   20084:	06071863          	bnez	a4,200f4 <__multf3+0x1014>
   20088:	0887f713          	and	a4,a5,136
   2008c:	04071063          	bnez	a4,200cc <__multf3+0xfec>
   20090:	2407f793          	and	a5,a5,576
   20094:	9e078c63          	beqz	a5,1f28c <__multf3+0x1ac>
   20098:	000087b7          	lui	a5,0x8
   2009c:	02f12e23          	sw	a5,60(sp)
   200a0:	02012c23          	sw	zero,56(sp)
   200a4:	02012a23          	sw	zero,52(sp)
   200a8:	02012823          	sw	zero,48(sp)
   200ac:	fff78793          	add	a5,a5,-1 # 7fff <exit-0x80a1>
   200b0:	00000893          	li	a7,0
   200b4:	13c0006f          	j	201f0 <__multf3+0x1110>
   200b8:	00f00713          	li	a4,15
   200bc:	fce78ee3          	beq	a5,a4,20098 <__multf3+0xfb8>
   200c0:	00b00713          	li	a4,11
   200c4:	00048893          	mv	a7,s1
   200c8:	02e79663          	bne	a5,a4,200f4 <__multf3+0x1014>
   200cc:	00090893          	mv	a7,s2
   200d0:	02012783          	lw	a5,32(sp)
   200d4:	00068b93          	mv	s7,a3
   200d8:	02f12823          	sw	a5,48(sp)
   200dc:	02412783          	lw	a5,36(sp)
   200e0:	02f12a23          	sw	a5,52(sp)
   200e4:	02812783          	lw	a5,40(sp)
   200e8:	02f12c23          	sw	a5,56(sp)
   200ec:	02c12783          	lw	a5,44(sp)
   200f0:	0200006f          	j	20110 <__multf3+0x1030>
   200f4:	01012783          	lw	a5,16(sp)
   200f8:	02f12823          	sw	a5,48(sp)
   200fc:	01412783          	lw	a5,20(sp)
   20100:	02f12a23          	sw	a5,52(sp)
   20104:	01812783          	lw	a5,24(sp)
   20108:	02f12c23          	sw	a5,56(sp)
   2010c:	01c12783          	lw	a5,28(sp)
   20110:	02f12e23          	sw	a5,60(sp)
   20114:	00200793          	li	a5,2
   20118:	36fb8063          	beq	s7,a5,20478 <__multf3+0x1398>
   2011c:	00300793          	li	a5,3
   20120:	f6fb8ce3          	beq	s7,a5,20098 <__multf3+0xfb8>
   20124:	00100793          	li	a5,1
   20128:	32fb8e63          	beq	s7,a5,20464 <__multf3+0x1384>
   2012c:	000047b7          	lui	a5,0x4
   20130:	fff78793          	add	a5,a5,-1 # 3fff <exit-0xc0a1>
   20134:	00fc07b3          	add	a5,s8,a5
   20138:	12f05663          	blez	a5,20264 <__multf3+0x1184>
   2013c:	03012703          	lw	a4,48(sp)
   20140:	00777693          	and	a3,a4,7
   20144:	04068463          	beqz	a3,2018c <__multf3+0x10ac>
   20148:	00f77693          	and	a3,a4,15
   2014c:	00400613          	li	a2,4
   20150:	02c68e63          	beq	a3,a2,2018c <__multf3+0x10ac>
   20154:	00470713          	add	a4,a4,4
   20158:	00473693          	sltiu	a3,a4,4
   2015c:	02e12823          	sw	a4,48(sp)
   20160:	03412703          	lw	a4,52(sp)
   20164:	00e68733          	add	a4,a3,a4
   20168:	02e12a23          	sw	a4,52(sp)
   2016c:	00d73733          	sltu	a4,a4,a3
   20170:	03812683          	lw	a3,56(sp)
   20174:	00e68733          	add	a4,a3,a4
   20178:	02e12c23          	sw	a4,56(sp)
   2017c:	00d73733          	sltu	a4,a4,a3
   20180:	03c12683          	lw	a3,60(sp)
   20184:	00d70733          	add	a4,a4,a3
   20188:	02e12e23          	sw	a4,60(sp)
   2018c:	03c12703          	lw	a4,60(sp)
   20190:	00b71693          	sll	a3,a4,0xb
   20194:	0006de63          	bgez	a3,201b0 <__multf3+0x10d0>
   20198:	fff007b7          	lui	a5,0xfff00
   2019c:	fff78793          	add	a5,a5,-1 # ffefffff <__BSS_END__+0xffedc427>
   201a0:	00f77733          	and	a4,a4,a5
   201a4:	000047b7          	lui	a5,0x4
   201a8:	02e12e23          	sw	a4,60(sp)
   201ac:	00fc07b3          	add	a5,s8,a5
   201b0:	03010713          	add	a4,sp,48
   201b4:	03c10593          	add	a1,sp,60
   201b8:	00072683          	lw	a3,0(a4)
   201bc:	00472603          	lw	a2,4(a4)
   201c0:	00470713          	add	a4,a4,4
   201c4:	0036d693          	srl	a3,a3,0x3
   201c8:	01d61613          	sll	a2,a2,0x1d
   201cc:	00c6e6b3          	or	a3,a3,a2
   201d0:	fed72e23          	sw	a3,-4(a4)
   201d4:	fee592e3          	bne	a1,a4,201b8 <__multf3+0x10d8>
   201d8:	000086b7          	lui	a3,0x8
   201dc:	ffe68693          	add	a3,a3,-2 # 7ffe <exit-0x80a2>
   201e0:	03c12703          	lw	a4,60(sp)
   201e4:	28f6ca63          	blt	a3,a5,20478 <__multf3+0x1398>
   201e8:	00375713          	srl	a4,a4,0x3
   201ec:	02e12e23          	sw	a4,60(sp)
   201f0:	00f89893          	sll	a7,a7,0xf
   201f4:	00f8e8b3          	or	a7,a7,a5
   201f8:	03012783          	lw	a5,48(sp)
   201fc:	03c12703          	lw	a4,60(sp)
   20200:	05111723          	sh	a7,78(sp)
   20204:	00f42023          	sw	a5,0(s0)
   20208:	03412783          	lw	a5,52(sp)
   2020c:	04e11623          	sh	a4,76(sp)
   20210:	09c12083          	lw	ra,156(sp)
   20214:	00f42223          	sw	a5,4(s0)
   20218:	03812783          	lw	a5,56(sp)
   2021c:	00040513          	mv	a0,s0
   20220:	09412483          	lw	s1,148(sp)
   20224:	00f42423          	sw	a5,8(s0)
   20228:	04c12783          	lw	a5,76(sp)
   2022c:	09012903          	lw	s2,144(sp)
   20230:	08c12983          	lw	s3,140(sp)
   20234:	00f42623          	sw	a5,12(s0)
   20238:	09812403          	lw	s0,152(sp)
   2023c:	08812a03          	lw	s4,136(sp)
   20240:	08412a83          	lw	s5,132(sp)
   20244:	08012b03          	lw	s6,128(sp)
   20248:	07c12b83          	lw	s7,124(sp)
   2024c:	07812c03          	lw	s8,120(sp)
   20250:	07412c83          	lw	s9,116(sp)
   20254:	07012d03          	lw	s10,112(sp)
   20258:	06c12d83          	lw	s11,108(sp)
   2025c:	0a010113          	add	sp,sp,160
   20260:	00008067          	ret
   20264:	00100693          	li	a3,1
   20268:	40f686b3          	sub	a3,a3,a5
   2026c:	07400793          	li	a5,116
   20270:	1cd7ca63          	blt	a5,a3,20444 <__multf3+0x1364>
   20274:	03010513          	add	a0,sp,48
   20278:	4056d713          	sra	a4,a3,0x5
   2027c:	00050593          	mv	a1,a0
   20280:	01f6f693          	and	a3,a3,31
   20284:	00000793          	li	a5,0
   20288:	00000613          	li	a2,0
   2028c:	02e61e63          	bne	a2,a4,202c8 <__multf3+0x11e8>
   20290:	00300613          	li	a2,3
   20294:	40e60633          	sub	a2,a2,a4
   20298:	00271593          	sll	a1,a4,0x2
   2029c:	04069063          	bnez	a3,202dc <__multf3+0x11fc>
   202a0:	00050813          	mv	a6,a0
   202a4:	00b80333          	add	t1,a6,a1
   202a8:	00032303          	lw	t1,0(t1)
   202ac:	00168693          	add	a3,a3,1
   202b0:	00480813          	add	a6,a6,4
   202b4:	fe682e23          	sw	t1,-4(a6)
   202b8:	fed656e3          	bge	a2,a3,202a4 <__multf3+0x11c4>
   202bc:	00400693          	li	a3,4
   202c0:	40e68733          	sub	a4,a3,a4
   202c4:	06c0006f          	j	20330 <__multf3+0x1250>
   202c8:	0005a803          	lw	a6,0(a1)
   202cc:	00160613          	add	a2,a2,1
   202d0:	00458593          	add	a1,a1,4
   202d4:	0107e7b3          	or	a5,a5,a6
   202d8:	fb5ff06f          	j	2028c <__multf3+0x11ac>
   202dc:	05058813          	add	a6,a1,80
   202e0:	01010e13          	add	t3,sp,16
   202e4:	01c80833          	add	a6,a6,t3
   202e8:	fd082803          	lw	a6,-48(a6)
   202ec:	02000313          	li	t1,32
   202f0:	40d30333          	sub	t1,t1,a3
   202f4:	00681833          	sll	a6,a6,t1
   202f8:	0107e7b3          	or	a5,a5,a6
   202fc:	00b505b3          	add	a1,a0,a1
   20300:	00050e93          	mv	t4,a0
   20304:	00000e13          	li	t3,0
   20308:	0ece4063          	blt	t3,a2,203e8 <__multf3+0x1308>
   2030c:	00400593          	li	a1,4
   20310:	00261613          	sll	a2,a2,0x2
   20314:	40e58733          	sub	a4,a1,a4
   20318:	05060613          	add	a2,a2,80
   2031c:	01010593          	add	a1,sp,16
   20320:	00b60633          	add	a2,a2,a1
   20324:	03c12583          	lw	a1,60(sp)
   20328:	00d5d6b3          	srl	a3,a1,a3
   2032c:	fcd62823          	sw	a3,-48(a2)
   20330:	00400693          	li	a3,4
   20334:	40e686b3          	sub	a3,a3,a4
   20338:	00269693          	sll	a3,a3,0x2
   2033c:	00271713          	sll	a4,a4,0x2
   20340:	00800613          	li	a2,8
   20344:	00e50733          	add	a4,a0,a4
   20348:	00c6ea63          	bltu	a3,a2,2035c <__multf3+0x127c>
   2034c:	00072023          	sw	zero,0(a4)
   20350:	00072223          	sw	zero,4(a4)
   20354:	ff868693          	add	a3,a3,-8
   20358:	00870713          	add	a4,a4,8
   2035c:	00400613          	li	a2,4
   20360:	00c6e463          	bltu	a3,a2,20368 <__multf3+0x1288>
   20364:	00072023          	sw	zero,0(a4)
   20368:	03012703          	lw	a4,48(sp)
   2036c:	00f037b3          	snez	a5,a5
   20370:	00e7e7b3          	or	a5,a5,a4
   20374:	02f12823          	sw	a5,48(sp)
   20378:	0077f713          	and	a4,a5,7
   2037c:	04070463          	beqz	a4,203c4 <__multf3+0x12e4>
   20380:	00f7f713          	and	a4,a5,15
   20384:	00400693          	li	a3,4
   20388:	02d70e63          	beq	a4,a3,203c4 <__multf3+0x12e4>
   2038c:	03412703          	lw	a4,52(sp)
   20390:	00478793          	add	a5,a5,4 # 4004 <exit-0xc09c>
   20394:	02f12823          	sw	a5,48(sp)
   20398:	0047b793          	sltiu	a5,a5,4
   2039c:	00f707b3          	add	a5,a4,a5
   203a0:	02f12a23          	sw	a5,52(sp)
   203a4:	00e7b7b3          	sltu	a5,a5,a4
   203a8:	03812703          	lw	a4,56(sp)
   203ac:	00f707b3          	add	a5,a4,a5
   203b0:	02f12c23          	sw	a5,56(sp)
   203b4:	00e7b7b3          	sltu	a5,a5,a4
   203b8:	03c12703          	lw	a4,60(sp)
   203bc:	00e787b3          	add	a5,a5,a4
   203c0:	02f12e23          	sw	a5,60(sp)
   203c4:	03c12703          	lw	a4,60(sp)
   203c8:	00c71793          	sll	a5,a4,0xc
   203cc:	0407d263          	bgez	a5,20410 <__multf3+0x1330>
   203d0:	02012e23          	sw	zero,60(sp)
   203d4:	02012c23          	sw	zero,56(sp)
   203d8:	02012a23          	sw	zero,52(sp)
   203dc:	02012823          	sw	zero,48(sp)
   203e0:	00100793          	li	a5,1
   203e4:	e0dff06f          	j	201f0 <__multf3+0x1110>
   203e8:	0005a803          	lw	a6,0(a1)
   203ec:	0045af03          	lw	t5,4(a1)
   203f0:	00458593          	add	a1,a1,4
   203f4:	00d85833          	srl	a6,a6,a3
   203f8:	006f1f33          	sll	t5,t5,t1
   203fc:	01e86833          	or	a6,a6,t5
   20400:	010ea023          	sw	a6,0(t4)
   20404:	001e0e13          	add	t3,t3,1
   20408:	004e8e93          	add	t4,t4,4
   2040c:	efdff06f          	j	20308 <__multf3+0x1228>
   20410:	00c50613          	add	a2,a0,12
   20414:	00052783          	lw	a5,0(a0)
   20418:	00452683          	lw	a3,4(a0)
   2041c:	00450513          	add	a0,a0,4
   20420:	0037d793          	srl	a5,a5,0x3
   20424:	01d69693          	sll	a3,a3,0x1d
   20428:	00d7e7b3          	or	a5,a5,a3
   2042c:	fef52e23          	sw	a5,-4(a0)
   20430:	fea612e3          	bne	a2,a0,20414 <__multf3+0x1334>
   20434:	00375713          	srl	a4,a4,0x3
   20438:	02e12e23          	sw	a4,60(sp)
   2043c:	00000793          	li	a5,0
   20440:	db1ff06f          	j	201f0 <__multf3+0x1110>
   20444:	03412703          	lw	a4,52(sp)
   20448:	03012783          	lw	a5,48(sp)
   2044c:	00e7e7b3          	or	a5,a5,a4
   20450:	03812703          	lw	a4,56(sp)
   20454:	00e7e7b3          	or	a5,a5,a4
   20458:	03c12703          	lw	a4,60(sp)
   2045c:	00e7e7b3          	or	a5,a5,a4
   20460:	fc078ee3          	beqz	a5,2043c <__multf3+0x135c>
   20464:	02012e23          	sw	zero,60(sp)
   20468:	02012c23          	sw	zero,56(sp)
   2046c:	02012a23          	sw	zero,52(sp)
   20470:	02012823          	sw	zero,48(sp)
   20474:	fc9ff06f          	j	2043c <__multf3+0x135c>
   20478:	000087b7          	lui	a5,0x8
   2047c:	02012e23          	sw	zero,60(sp)
   20480:	02012c23          	sw	zero,56(sp)
   20484:	02012a23          	sw	zero,52(sp)
   20488:	02012823          	sw	zero,48(sp)
   2048c:	fff78793          	add	a5,a5,-1 # 7fff <exit-0x80a1>
   20490:	d61ff06f          	j	201f0 <__multf3+0x1110>

00020494 <__subtf3>:
   20494:	f9010113          	add	sp,sp,-112
   20498:	0085a703          	lw	a4,8(a1)
   2049c:	05512a23          	sw	s5,84(sp)
   204a0:	00c5aa83          	lw	s5,12(a1)
   204a4:	0005a783          	lw	a5,0(a1)
   204a8:	0045a683          	lw	a3,4(a1)
   204ac:	02e12c23          	sw	a4,56(sp)
   204b0:	00e12c23          	sw	a4,24(sp)
   204b4:	010a9713          	sll	a4,s5,0x10
   204b8:	06912223          	sw	s1,100(sp)
   204bc:	01075713          	srl	a4,a4,0x10
   204c0:	001a9493          	sll	s1,s5,0x1
   204c4:	00462803          	lw	a6,4(a2)
   204c8:	00862583          	lw	a1,8(a2)
   204cc:	06812423          	sw	s0,104(sp)
   204d0:	07212023          	sw	s2,96(sp)
   204d4:	00062403          	lw	s0,0(a2)
   204d8:	00c62903          	lw	s2,12(a2)
   204dc:	05412c23          	sw	s4,88(sp)
   204e0:	03512e23          	sw	s5,60(sp)
   204e4:	00050a13          	mv	s4,a0
   204e8:	06112623          	sw	ra,108(sp)
   204ec:	05312e23          	sw	s3,92(sp)
   204f0:	05612823          	sw	s6,80(sp)
   204f4:	05712623          	sw	s7,76(sp)
   204f8:	05812423          	sw	s8,72(sp)
   204fc:	02f12823          	sw	a5,48(sp)
   20500:	02d12a23          	sw	a3,52(sp)
   20504:	00f12823          	sw	a5,16(sp)
   20508:	00d12a23          	sw	a3,20(sp)
   2050c:	00e12e23          	sw	a4,28(sp)
   20510:	0114d493          	srl	s1,s1,0x11
   20514:	01fada93          	srl	s5,s5,0x1f
   20518:	01010513          	add	a0,sp,16
   2051c:	01c10613          	add	a2,sp,28
   20520:	00062703          	lw	a4,0(a2)
   20524:	ffc62683          	lw	a3,-4(a2)
   20528:	ffc60613          	add	a2,a2,-4
   2052c:	00371713          	sll	a4,a4,0x3
   20530:	01d6d693          	srl	a3,a3,0x1d
   20534:	00d76733          	or	a4,a4,a3
   20538:	00e62223          	sw	a4,4(a2)
   2053c:	fec512e3          	bne	a0,a2,20520 <__subtf3+0x8c>
   20540:	01091713          	sll	a4,s2,0x10
   20544:	00191b93          	sll	s7,s2,0x1
   20548:	00379793          	sll	a5,a5,0x3
   2054c:	01075713          	srl	a4,a4,0x10
   20550:	03012a23          	sw	a6,52(sp)
   20554:	03212e23          	sw	s2,60(sp)
   20558:	03012223          	sw	a6,36(sp)
   2055c:	00f12823          	sw	a5,16(sp)
   20560:	02812823          	sw	s0,48(sp)
   20564:	02b12c23          	sw	a1,56(sp)
   20568:	02812023          	sw	s0,32(sp)
   2056c:	02b12423          	sw	a1,40(sp)
   20570:	02e12623          	sw	a4,44(sp)
   20574:	011bdb93          	srl	s7,s7,0x11
   20578:	01f95913          	srl	s2,s2,0x1f
   2057c:	02010813          	add	a6,sp,32
   20580:	02c10313          	add	t1,sp,44
   20584:	00032703          	lw	a4,0(t1)
   20588:	ffc32683          	lw	a3,-4(t1)
   2058c:	ffc30313          	add	t1,t1,-4
   20590:	00371713          	sll	a4,a4,0x3
   20594:	01d6d693          	srl	a3,a3,0x1d
   20598:	00d76733          	or	a4,a4,a3
   2059c:	00e32223          	sw	a4,4(t1)
   205a0:	fe6812e3          	bne	a6,t1,20584 <__subtf3+0xf0>
   205a4:	00341413          	sll	s0,s0,0x3
   205a8:	00008737          	lui	a4,0x8
   205ac:	02812023          	sw	s0,32(sp)
   205b0:	fff70713          	add	a4,a4,-1 # 7fff <exit-0x80a1>
   205b4:	02eb9063          	bne	s7,a4,205d4 <__subtf3+0x140>
   205b8:	02812683          	lw	a3,40(sp)
   205bc:	02412703          	lw	a4,36(sp)
   205c0:	00d76733          	or	a4,a4,a3
   205c4:	02c12683          	lw	a3,44(sp)
   205c8:	00d76733          	or	a4,a4,a3
   205cc:	00876733          	or	a4,a4,s0
   205d0:	00071463          	bnez	a4,205d8 <__subtf3+0x144>
   205d4:	00194913          	xor	s2,s2,1
   205d8:	417488b3          	sub	a7,s1,s7
   205dc:	0b5914e3          	bne	s2,s5,20e84 <__subtf3+0x9f0>
   205e0:	45105063          	blez	a7,20a20 <__subtf3+0x58c>
   205e4:	01412903          	lw	s2,20(sp)
   205e8:	01812983          	lw	s3,24(sp)
   205ec:	01c12b03          	lw	s6,28(sp)
   205f0:	0a0b9263          	bnez	s7,20694 <__subtf3+0x200>
   205f4:	02412683          	lw	a3,36(sp)
   205f8:	02812703          	lw	a4,40(sp)
   205fc:	02c12583          	lw	a1,44(sp)
   20600:	00e6e633          	or	a2,a3,a4
   20604:	00b66633          	or	a2,a2,a1
   20608:	00866633          	or	a2,a2,s0
   2060c:	00061e63          	bnez	a2,20628 <__subtf3+0x194>
   20610:	02f12823          	sw	a5,48(sp)
   20614:	03212a23          	sw	s2,52(sp)
   20618:	03312c23          	sw	s3,56(sp)
   2061c:	03612e23          	sw	s6,60(sp)
   20620:	00088493          	mv	s1,a7
   20624:	08c0006f          	j	206b0 <__subtf3+0x21c>
   20628:	fff88613          	add	a2,a7,-1
   2062c:	04061863          	bnez	a2,2067c <__subtf3+0x1e8>
   20630:	00878433          	add	s0,a5,s0
   20634:	01268933          	add	s2,a3,s2
   20638:	02812823          	sw	s0,48(sp)
   2063c:	00f43433          	sltu	s0,s0,a5
   20640:	00890433          	add	s0,s2,s0
   20644:	02812a23          	sw	s0,52(sp)
   20648:	00d936b3          	sltu	a3,s2,a3
   2064c:	01243433          	sltu	s0,s0,s2
   20650:	013709b3          	add	s3,a4,s3
   20654:	0086e6b3          	or	a3,a3,s0
   20658:	00d986b3          	add	a3,s3,a3
   2065c:	02d12c23          	sw	a3,56(sp)
   20660:	00e9b7b3          	sltu	a5,s3,a4
   20664:	0136b6b3          	sltu	a3,a3,s3
   20668:	00d7e7b3          	or	a5,a5,a3
   2066c:	016585b3          	add	a1,a1,s6
   20670:	00b787b3          	add	a5,a5,a1
   20674:	00100493          	li	s1,1
   20678:	2f80006f          	j	20970 <__subtf3+0x4dc>
   2067c:	00008737          	lui	a4,0x8
   20680:	fff70713          	add	a4,a4,-1 # 7fff <exit-0x80a1>
   20684:	00e88463          	beq	a7,a4,2068c <__subtf3+0x1f8>
   20688:	2a00106f          	j	21928 <__subtf3+0x1494>
   2068c:	02f12823          	sw	a5,48(sp)
   20690:	43c0006f          	j	20acc <__subtf3+0x638>
   20694:	00008737          	lui	a4,0x8
   20698:	fff70713          	add	a4,a4,-1 # 7fff <exit-0x80a1>
   2069c:	16e49a63          	bne	s1,a4,20810 <__subtf3+0x37c>
   206a0:	02f12823          	sw	a5,48(sp)
   206a4:	03212a23          	sw	s2,52(sp)
   206a8:	03312c23          	sw	s3,56(sp)
   206ac:	03612e23          	sw	s6,60(sp)
   206b0:	03012783          	lw	a5,48(sp)
   206b4:	0077f713          	and	a4,a5,7
   206b8:	04070463          	beqz	a4,20700 <__subtf3+0x26c>
   206bc:	00f7f713          	and	a4,a5,15
   206c0:	00400693          	li	a3,4
   206c4:	02d70e63          	beq	a4,a3,20700 <__subtf3+0x26c>
   206c8:	03412703          	lw	a4,52(sp)
   206cc:	00478793          	add	a5,a5,4
   206d0:	02f12823          	sw	a5,48(sp)
   206d4:	0047b793          	sltiu	a5,a5,4
   206d8:	00f707b3          	add	a5,a4,a5
   206dc:	02f12a23          	sw	a5,52(sp)
   206e0:	00e7b7b3          	sltu	a5,a5,a4
   206e4:	03812703          	lw	a4,56(sp)
   206e8:	00f707b3          	add	a5,a4,a5
   206ec:	02f12c23          	sw	a5,56(sp)
   206f0:	00e7b7b3          	sltu	a5,a5,a4
   206f4:	03c12703          	lw	a4,60(sp)
   206f8:	00e787b3          	add	a5,a5,a4
   206fc:	02f12e23          	sw	a5,60(sp)
   20700:	03c12783          	lw	a5,60(sp)
   20704:	00c79713          	sll	a4,a5,0xc
   20708:	02075463          	bgez	a4,20730 <__subtf3+0x29c>
   2070c:	00008737          	lui	a4,0x8
   20710:	00148493          	add	s1,s1,1
   20714:	fff70713          	add	a4,a4,-1 # 7fff <exit-0x80a1>
   20718:	00e49463          	bne	s1,a4,20720 <__subtf3+0x28c>
   2071c:	1f80106f          	j	21914 <__subtf3+0x1480>
   20720:	fff80737          	lui	a4,0xfff80
   20724:	fff70713          	add	a4,a4,-1 # fff7ffff <__BSS_END__+0xfff5c427>
   20728:	00e7f7b3          	and	a5,a5,a4
   2072c:	02f12e23          	sw	a5,60(sp)
   20730:	03010793          	add	a5,sp,48
   20734:	03c10613          	add	a2,sp,60
   20738:	0007a703          	lw	a4,0(a5)
   2073c:	0047a683          	lw	a3,4(a5)
   20740:	00478793          	add	a5,a5,4
   20744:	00375713          	srl	a4,a4,0x3
   20748:	01d69693          	sll	a3,a3,0x1d
   2074c:	00d76733          	or	a4,a4,a3
   20750:	fee7ae23          	sw	a4,-4(a5)
   20754:	fec792e3          	bne	a5,a2,20738 <__subtf3+0x2a4>
   20758:	03c12703          	lw	a4,60(sp)
   2075c:	000086b7          	lui	a3,0x8
   20760:	fff68793          	add	a5,a3,-1 # 7fff <exit-0x80a1>
   20764:	00375713          	srl	a4,a4,0x3
   20768:	02e12e23          	sw	a4,60(sp)
   2076c:	02f49a63          	bne	s1,a5,207a0 <__subtf3+0x30c>
   20770:	03412603          	lw	a2,52(sp)
   20774:	03012783          	lw	a5,48(sp)
   20778:	00c7e7b3          	or	a5,a5,a2
   2077c:	03812603          	lw	a2,56(sp)
   20780:	00c7e7b3          	or	a5,a5,a2
   20784:	00e7e7b3          	or	a5,a5,a4
   20788:	00078c63          	beqz	a5,207a0 <__subtf3+0x30c>
   2078c:	02d12e23          	sw	a3,60(sp)
   20790:	02012c23          	sw	zero,56(sp)
   20794:	02012a23          	sw	zero,52(sp)
   20798:	02012823          	sw	zero,48(sp)
   2079c:	00000a93          	li	s5,0
   207a0:	03c12783          	lw	a5,60(sp)
   207a4:	01149493          	sll	s1,s1,0x11
   207a8:	0114d493          	srl	s1,s1,0x11
   207ac:	00f11623          	sh	a5,12(sp)
   207b0:	03012783          	lw	a5,48(sp)
   207b4:	00fa9a93          	sll	s5,s5,0xf
   207b8:	009aeab3          	or	s5,s5,s1
   207bc:	00fa2023          	sw	a5,0(s4)
   207c0:	03412783          	lw	a5,52(sp)
   207c4:	01511723          	sh	s5,14(sp)
   207c8:	06c12083          	lw	ra,108(sp)
   207cc:	00fa2223          	sw	a5,4(s4)
   207d0:	03812783          	lw	a5,56(sp)
   207d4:	06812403          	lw	s0,104(sp)
   207d8:	06412483          	lw	s1,100(sp)
   207dc:	00fa2423          	sw	a5,8(s4)
   207e0:	00c12783          	lw	a5,12(sp)
   207e4:	06012903          	lw	s2,96(sp)
   207e8:	05c12983          	lw	s3,92(sp)
   207ec:	00fa2623          	sw	a5,12(s4)
   207f0:	05412a83          	lw	s5,84(sp)
   207f4:	05012b03          	lw	s6,80(sp)
   207f8:	04c12b83          	lw	s7,76(sp)
   207fc:	04812c03          	lw	s8,72(sp)
   20800:	000a0513          	mv	a0,s4
   20804:	05812a03          	lw	s4,88(sp)
   20808:	07010113          	add	sp,sp,112
   2080c:	00008067          	ret
   20810:	02c12703          	lw	a4,44(sp)
   20814:	000806b7          	lui	a3,0x80
   20818:	00d76733          	or	a4,a4,a3
   2081c:	02e12623          	sw	a4,44(sp)
   20820:	07400713          	li	a4,116
   20824:	01175463          	bge	a4,a7,2082c <__subtf3+0x398>
   20828:	10c0106f          	j	21934 <__subtf3+0x14a0>
   2082c:	00088613          	mv	a2,a7
   20830:	40565693          	sra	a3,a2,0x5
   20834:	00030513          	mv	a0,t1
   20838:	01f67613          	and	a2,a2,31
   2083c:	00000713          	li	a4,0
   20840:	00000593          	li	a1,0
   20844:	02d59c63          	bne	a1,a3,2087c <__subtf3+0x3e8>
   20848:	00300593          	li	a1,3
   2084c:	40d585b3          	sub	a1,a1,a3
   20850:	00269513          	sll	a0,a3,0x2
   20854:	02061e63          	bnez	a2,20890 <__subtf3+0x3fc>
   20858:	00a308b3          	add	a7,t1,a0
   2085c:	0008a883          	lw	a7,0(a7)
   20860:	00160613          	add	a2,a2,1
   20864:	00430313          	add	t1,t1,4
   20868:	ff132e23          	sw	a7,-4(t1)
   2086c:	fec5d6e3          	bge	a1,a2,20858 <__subtf3+0x3c4>
   20870:	00400613          	li	a2,4
   20874:	40d606b3          	sub	a3,a2,a3
   20878:	0600006f          	j	208d8 <__subtf3+0x444>
   2087c:	00052883          	lw	a7,0(a0)
   20880:	00158593          	add	a1,a1,1
   20884:	00450513          	add	a0,a0,4
   20888:	01176733          	or	a4,a4,a7
   2088c:	fb9ff06f          	j	20844 <__subtf3+0x3b0>
   20890:	04050893          	add	a7,a0,64
   20894:	002888b3          	add	a7,a7,sp
   20898:	fe08a883          	lw	a7,-32(a7)
   2089c:	02000e13          	li	t3,32
   208a0:	40ce0e33          	sub	t3,t3,a2
   208a4:	01c898b3          	sll	a7,a7,t3
   208a8:	01176733          	or	a4,a4,a7
   208ac:	00a80533          	add	a0,a6,a0
   208b0:	00000e93          	li	t4,0
   208b4:	14bec263          	blt	t4,a1,209f8 <__subtf3+0x564>
   208b8:	00400513          	li	a0,4
   208bc:	40d506b3          	sub	a3,a0,a3
   208c0:	02c12503          	lw	a0,44(sp)
   208c4:	00259593          	sll	a1,a1,0x2
   208c8:	04058593          	add	a1,a1,64
   208cc:	002585b3          	add	a1,a1,sp
   208d0:	00c55633          	srl	a2,a0,a2
   208d4:	fec5a023          	sw	a2,-32(a1)
   208d8:	00400613          	li	a2,4
   208dc:	40d60633          	sub	a2,a2,a3
   208e0:	00261613          	sll	a2,a2,0x2
   208e4:	00269693          	sll	a3,a3,0x2
   208e8:	00800593          	li	a1,8
   208ec:	00d806b3          	add	a3,a6,a3
   208f0:	00b66a63          	bltu	a2,a1,20904 <__subtf3+0x470>
   208f4:	0006a023          	sw	zero,0(a3) # 80000 <__BSS_END__+0x5c428>
   208f8:	0006a223          	sw	zero,4(a3)
   208fc:	ff860613          	add	a2,a2,-8
   20900:	00868693          	add	a3,a3,8
   20904:	00400593          	li	a1,4
   20908:	00b66463          	bltu	a2,a1,20910 <__subtf3+0x47c>
   2090c:	0006a023          	sw	zero,0(a3)
   20910:	02012683          	lw	a3,32(sp)
   20914:	00e03733          	snez	a4,a4
   20918:	00d76733          	or	a4,a4,a3
   2091c:	02412683          	lw	a3,36(sp)
   20920:	02e12023          	sw	a4,32(sp)
   20924:	00e78733          	add	a4,a5,a4
   20928:	01268933          	add	s2,a3,s2
   2092c:	02e12823          	sw	a4,48(sp)
   20930:	00f73733          	sltu	a4,a4,a5
   20934:	02812783          	lw	a5,40(sp)
   20938:	00e90733          	add	a4,s2,a4
   2093c:	02e12a23          	sw	a4,52(sp)
   20940:	00d936b3          	sltu	a3,s2,a3
   20944:	01273733          	sltu	a4,a4,s2
   20948:	013789b3          	add	s3,a5,s3
   2094c:	00e6e733          	or	a4,a3,a4
   20950:	00e98733          	add	a4,s3,a4
   20954:	02e12c23          	sw	a4,56(sp)
   20958:	00f9b7b3          	sltu	a5,s3,a5
   2095c:	01373733          	sltu	a4,a4,s3
   20960:	00e7e7b3          	or	a5,a5,a4
   20964:	02c12703          	lw	a4,44(sp)
   20968:	00eb0733          	add	a4,s6,a4
   2096c:	00e787b3          	add	a5,a5,a4
   20970:	02f12e23          	sw	a5,60(sp)
   20974:	00c79713          	sll	a4,a5,0xc
   20978:	d2075ce3          	bgez	a4,206b0 <__subtf3+0x21c>
   2097c:	03012683          	lw	a3,48(sp)
   20980:	fff80737          	lui	a4,0xfff80
   20984:	fff70713          	add	a4,a4,-1 # fff7ffff <__BSS_END__+0xfff5c427>
   20988:	00e7f7b3          	and	a5,a5,a4
   2098c:	02f12e23          	sw	a5,60(sp)
   20990:	00148493          	add	s1,s1,1
   20994:	01f69693          	sll	a3,a3,0x1f
   20998:	03010713          	add	a4,sp,48
   2099c:	03c10513          	add	a0,sp,60
   209a0:	00072603          	lw	a2,0(a4)
   209a4:	00472583          	lw	a1,4(a4)
   209a8:	00470713          	add	a4,a4,4
   209ac:	00165613          	srl	a2,a2,0x1
   209b0:	01f59593          	sll	a1,a1,0x1f
   209b4:	00b66633          	or	a2,a2,a1
   209b8:	fec72e23          	sw	a2,-4(a4)
   209bc:	fee512e3          	bne	a0,a4,209a0 <__subtf3+0x50c>
   209c0:	03012703          	lw	a4,48(sp)
   209c4:	0017d793          	srl	a5,a5,0x1
   209c8:	02f12e23          	sw	a5,60(sp)
   209cc:	00d037b3          	snez	a5,a3
   209d0:	00f767b3          	or	a5,a4,a5
   209d4:	02f12823          	sw	a5,48(sp)
   209d8:	000087b7          	lui	a5,0x8
   209dc:	fff78793          	add	a5,a5,-1 # 7fff <exit-0x80a1>
   209e0:	ccf498e3          	bne	s1,a5,206b0 <__subtf3+0x21c>
   209e4:	02012e23          	sw	zero,60(sp)
   209e8:	02012c23          	sw	zero,56(sp)
   209ec:	02012a23          	sw	zero,52(sp)
   209f0:	02012823          	sw	zero,48(sp)
   209f4:	cbdff06f          	j	206b0 <__subtf3+0x21c>
   209f8:	00052883          	lw	a7,0(a0)
   209fc:	00452f03          	lw	t5,4(a0)
   20a00:	00450513          	add	a0,a0,4
   20a04:	00c8d8b3          	srl	a7,a7,a2
   20a08:	01cf1f33          	sll	t5,t5,t3
   20a0c:	01e8e8b3          	or	a7,a7,t5
   20a10:	01132023          	sw	a7,0(t1)
   20a14:	001e8e93          	add	t4,t4,1
   20a18:	00430313          	add	t1,t1,4
   20a1c:	e99ff06f          	j	208b4 <__subtf3+0x420>
   20a20:	02412903          	lw	s2,36(sp)
   20a24:	02812983          	lw	s3,40(sp)
   20a28:	02c12b03          	lw	s6,44(sp)
   20a2c:	28088063          	beqz	a7,20cac <__subtf3+0x818>
   20a30:	409b85b3          	sub	a1,s7,s1
   20a34:	0a049c63          	bnez	s1,20aec <__subtf3+0x658>
   20a38:	01412683          	lw	a3,20(sp)
   20a3c:	01812703          	lw	a4,24(sp)
   20a40:	01c12883          	lw	a7,28(sp)
   20a44:	00e6e833          	or	a6,a3,a4
   20a48:	01186833          	or	a6,a6,a7
   20a4c:	00f86833          	or	a6,a6,a5
   20a50:	00081e63          	bnez	a6,20a6c <__subtf3+0x5d8>
   20a54:	02812823          	sw	s0,48(sp)
   20a58:	03212a23          	sw	s2,52(sp)
   20a5c:	03312c23          	sw	s3,56(sp)
   20a60:	03612e23          	sw	s6,60(sp)
   20a64:	00058493          	mv	s1,a1
   20a68:	c49ff06f          	j	206b0 <__subtf3+0x21c>
   20a6c:	fff58813          	add	a6,a1,-1
   20a70:	04081663          	bnez	a6,20abc <__subtf3+0x628>
   20a74:	00878433          	add	s0,a5,s0
   20a78:	01268933          	add	s2,a3,s2
   20a7c:	02812823          	sw	s0,48(sp)
   20a80:	00f43433          	sltu	s0,s0,a5
   20a84:	00890433          	add	s0,s2,s0
   20a88:	02812a23          	sw	s0,52(sp)
   20a8c:	00d936b3          	sltu	a3,s2,a3
   20a90:	01243433          	sltu	s0,s0,s2
   20a94:	013709b3          	add	s3,a4,s3
   20a98:	0086e6b3          	or	a3,a3,s0
   20a9c:	00d986b3          	add	a3,s3,a3
   20aa0:	00e9b7b3          	sltu	a5,s3,a4
   20aa4:	02d12c23          	sw	a3,56(sp)
   20aa8:	0136b6b3          	sltu	a3,a3,s3
   20aac:	00d7e7b3          	or	a5,a5,a3
   20ab0:	01688733          	add	a4,a7,s6
   20ab4:	00e787b3          	add	a5,a5,a4
   20ab8:	bbdff06f          	j	20674 <__subtf3+0x1e0>
   20abc:	000087b7          	lui	a5,0x8
   20ac0:	fff78793          	add	a5,a5,-1 # 7fff <exit-0x80a1>
   20ac4:	68f592e3          	bne	a1,a5,21948 <__subtf3+0x14b4>
   20ac8:	02812823          	sw	s0,48(sp)
   20acc:	03212a23          	sw	s2,52(sp)
   20ad0:	03312c23          	sw	s3,56(sp)
   20ad4:	03612e23          	sw	s6,60(sp)
   20ad8:	000084b7          	lui	s1,0x8
   20adc:	fff48493          	add	s1,s1,-1 # 7fff <exit-0x80a1>
   20ae0:	bd1ff06f          	j	206b0 <__subtf3+0x21c>
   20ae4:	00078413          	mv	s0,a5
   20ae8:	fe1ff06f          	j	20ac8 <__subtf3+0x634>
   20aec:	000087b7          	lui	a5,0x8
   20af0:	fff78793          	add	a5,a5,-1 # 7fff <exit-0x80a1>
   20af4:	fcfb8ae3          	beq	s7,a5,20ac8 <__subtf3+0x634>
   20af8:	01c12783          	lw	a5,28(sp)
   20afc:	00080737          	lui	a4,0x80
   20b00:	00e7e7b3          	or	a5,a5,a4
   20b04:	00f12e23          	sw	a5,28(sp)
   20b08:	07400793          	li	a5,116
   20b0c:	64b7c2e3          	blt	a5,a1,21950 <__subtf3+0x14bc>
   20b10:	00058813          	mv	a6,a1
   20b14:	41f85713          	sra	a4,a6,0x1f
   20b18:	01f77713          	and	a4,a4,31
   20b1c:	01070733          	add	a4,a4,a6
   20b20:	40575713          	sra	a4,a4,0x5
   20b24:	00060693          	mv	a3,a2
   20b28:	00000493          	li	s1,0
   20b2c:	00000793          	li	a5,0
   20b30:	02e7ce63          	blt	a5,a4,20b6c <__subtf3+0x6d8>
   20b34:	00300793          	li	a5,3
   20b38:	01f87893          	and	a7,a6,31
   20b3c:	40e787b3          	sub	a5,a5,a4
   20b40:	00271593          	sll	a1,a4,0x2
   20b44:	02089e63          	bnez	a7,20b80 <__subtf3+0x6ec>
   20b48:	00b606b3          	add	a3,a2,a1
   20b4c:	0006a683          	lw	a3,0(a3)
   20b50:	00188893          	add	a7,a7,1
   20b54:	00460613          	add	a2,a2,4
   20b58:	fed62e23          	sw	a3,-4(a2)
   20b5c:	ff17d6e3          	bge	a5,a7,20b48 <__subtf3+0x6b4>
   20b60:	00400793          	li	a5,4
   20b64:	40e78733          	sub	a4,a5,a4
   20b68:	0900006f          	j	20bf8 <__subtf3+0x764>
   20b6c:	0006a583          	lw	a1,0(a3)
   20b70:	00178793          	add	a5,a5,1
   20b74:	00468693          	add	a3,a3,4
   20b78:	00b4e4b3          	or	s1,s1,a1
   20b7c:	fb5ff06f          	j	20b30 <__subtf3+0x69c>
   20b80:	800006b7          	lui	a3,0x80000
   20b84:	01f68693          	add	a3,a3,31 # 8000001f <__BSS_END__+0x7ffdc447>
   20b88:	00d876b3          	and	a3,a6,a3
   20b8c:	0006d863          	bgez	a3,20b9c <__subtf3+0x708>
   20b90:	fff68693          	add	a3,a3,-1
   20b94:	fe06e693          	or	a3,a3,-32
   20b98:	00168693          	add	a3,a3,1
   20b9c:	02000813          	li	a6,32
   20ba0:	40d80833          	sub	a6,a6,a3
   20ba4:	00070693          	mv	a3,a4
   20ba8:	00075463          	bgez	a4,20bb0 <__subtf3+0x71c>
   20bac:	00000693          	li	a3,0
   20bb0:	00269693          	sll	a3,a3,0x2
   20bb4:	04068693          	add	a3,a3,64
   20bb8:	002686b3          	add	a3,a3,sp
   20bbc:	fd06a683          	lw	a3,-48(a3)
   20bc0:	00000313          	li	t1,0
   20bc4:	010696b3          	sll	a3,a3,a6
   20bc8:	00d4e4b3          	or	s1,s1,a3
   20bcc:	00b506b3          	add	a3,a0,a1
   20bd0:	00468693          	add	a3,a3,4
   20bd4:	0af34a63          	blt	t1,a5,20c88 <__subtf3+0x7f4>
   20bd8:	00400693          	li	a3,4
   20bdc:	40e68733          	sub	a4,a3,a4
   20be0:	01c12683          	lw	a3,28(sp)
   20be4:	00279793          	sll	a5,a5,0x2
   20be8:	04078793          	add	a5,a5,64
   20bec:	002787b3          	add	a5,a5,sp
   20bf0:	0116d6b3          	srl	a3,a3,a7
   20bf4:	fcd7a823          	sw	a3,-48(a5)
   20bf8:	00572793          	slti	a5,a4,5
   20bfc:	00000613          	li	a2,0
   20c00:	00078863          	beqz	a5,20c10 <__subtf3+0x77c>
   20c04:	00400613          	li	a2,4
   20c08:	40e60633          	sub	a2,a2,a4
   20c0c:	00261613          	sll	a2,a2,0x2
   20c10:	00271713          	sll	a4,a4,0x2
   20c14:	00e50533          	add	a0,a0,a4
   20c18:	00000593          	li	a1,0
   20c1c:	8c8f00ef          	jal	10ce4 <memset>
   20c20:	01012703          	lw	a4,16(sp)
   20c24:	009037b3          	snez	a5,s1
   20c28:	00e7e7b3          	or	a5,a5,a4
   20c2c:	01412683          	lw	a3,20(sp)
   20c30:	00f12823          	sw	a5,16(sp)
   20c34:	00f407b3          	add	a5,s0,a5
   20c38:	01268933          	add	s2,a3,s2
   20c3c:	02f12823          	sw	a5,48(sp)
   20c40:	0087b7b3          	sltu	a5,a5,s0
   20c44:	00f90733          	add	a4,s2,a5
   20c48:	01812783          	lw	a5,24(sp)
   20c4c:	02e12a23          	sw	a4,52(sp)
   20c50:	00d936b3          	sltu	a3,s2,a3
   20c54:	01273733          	sltu	a4,a4,s2
   20c58:	013789b3          	add	s3,a5,s3
   20c5c:	00e6e733          	or	a4,a3,a4
   20c60:	00e98733          	add	a4,s3,a4
   20c64:	02e12c23          	sw	a4,56(sp)
   20c68:	00f9b7b3          	sltu	a5,s3,a5
   20c6c:	01373733          	sltu	a4,a4,s3
   20c70:	00e7e7b3          	or	a5,a5,a4
   20c74:	01c12703          	lw	a4,28(sp)
   20c78:	000b8493          	mv	s1,s7
   20c7c:	00eb0733          	add	a4,s6,a4
   20c80:	00e787b3          	add	a5,a5,a4
   20c84:	cedff06f          	j	20970 <__subtf3+0x4dc>
   20c88:	ffc6a583          	lw	a1,-4(a3)
   20c8c:	0006ae03          	lw	t3,0(a3)
   20c90:	00130313          	add	t1,t1,1
   20c94:	0115d5b3          	srl	a1,a1,a7
   20c98:	010e1e33          	sll	t3,t3,a6
   20c9c:	01c5e5b3          	or	a1,a1,t3
   20ca0:	00b62023          	sw	a1,0(a2)
   20ca4:	00460613          	add	a2,a2,4
   20ca8:	f29ff06f          	j	20bd0 <__subtf3+0x73c>
   20cac:	00148813          	add	a6,s1,1
   20cb0:	01181893          	sll	a7,a6,0x11
   20cb4:	0128d893          	srl	a7,a7,0x12
   20cb8:	01412683          	lw	a3,20(sp)
   20cbc:	01812703          	lw	a4,24(sp)
   20cc0:	01c12603          	lw	a2,28(sp)
   20cc4:	03010593          	add	a1,sp,48
   20cc8:	03c10513          	add	a0,sp,60
   20ccc:	10089e63          	bnez	a7,20de8 <__subtf3+0x954>
   20cd0:	00e6e833          	or	a6,a3,a4
   20cd4:	00c86833          	or	a6,a6,a2
   20cd8:	00f86833          	or	a6,a6,a5
   20cdc:	0a049863          	bnez	s1,20d8c <__subtf3+0x8f8>
   20ce0:	00081e63          	bnez	a6,20cfc <__subtf3+0x868>
   20ce4:	02812823          	sw	s0,48(sp)
   20ce8:	03212a23          	sw	s2,52(sp)
   20cec:	03312c23          	sw	s3,56(sp)
   20cf0:	03612e23          	sw	s6,60(sp)
   20cf4:	00000493          	li	s1,0
   20cf8:	9b9ff06f          	j	206b0 <__subtf3+0x21c>
   20cfc:	013965b3          	or	a1,s2,s3
   20d00:	0165e5b3          	or	a1,a1,s6
   20d04:	0085e5b3          	or	a1,a1,s0
   20d08:	00059c63          	bnez	a1,20d20 <__subtf3+0x88c>
   20d0c:	02f12823          	sw	a5,48(sp)
   20d10:	02d12a23          	sw	a3,52(sp)
   20d14:	02e12c23          	sw	a4,56(sp)
   20d18:	02c12e23          	sw	a2,60(sp)
   20d1c:	995ff06f          	j	206b0 <__subtf3+0x21c>
   20d20:	00878433          	add	s0,a5,s0
   20d24:	01268933          	add	s2,a3,s2
   20d28:	02812823          	sw	s0,48(sp)
   20d2c:	00f43433          	sltu	s0,s0,a5
   20d30:	00890433          	add	s0,s2,s0
   20d34:	02812a23          	sw	s0,52(sp)
   20d38:	00d936b3          	sltu	a3,s2,a3
   20d3c:	01243433          	sltu	s0,s0,s2
   20d40:	013709b3          	add	s3,a4,s3
   20d44:	0086e6b3          	or	a3,a3,s0
   20d48:	00d986b3          	add	a3,s3,a3
   20d4c:	02d12c23          	sw	a3,56(sp)
   20d50:	00e9b733          	sltu	a4,s3,a4
   20d54:	0136b6b3          	sltu	a3,a3,s3
   20d58:	00d76733          	or	a4,a4,a3
   20d5c:	01660633          	add	a2,a2,s6
   20d60:	00c70733          	add	a4,a4,a2
   20d64:	00c71793          	sll	a5,a4,0xc
   20d68:	0007c663          	bltz	a5,20d74 <__subtf3+0x8e0>
   20d6c:	02e12e23          	sw	a4,60(sp)
   20d70:	941ff06f          	j	206b0 <__subtf3+0x21c>
   20d74:	fff807b7          	lui	a5,0xfff80
   20d78:	fff78793          	add	a5,a5,-1 # fff7ffff <__BSS_END__+0xfff5c427>
   20d7c:	00f77733          	and	a4,a4,a5
   20d80:	02e12e23          	sw	a4,60(sp)
   20d84:	00100493          	li	s1,1
   20d88:	929ff06f          	j	206b0 <__subtf3+0x21c>
   20d8c:	1a080663          	beqz	a6,20f38 <__subtf3+0xaa4>
   20d90:	01396933          	or	s2,s2,s3
   20d94:	01696933          	or	s2,s2,s6
   20d98:	00896933          	or	s2,s2,s0
   20d9c:	1a090263          	beqz	s2,20f40 <__subtf3+0xaac>
   20da0:	000087b7          	lui	a5,0x8
   20da4:	02f12e23          	sw	a5,60(sp)
   20da8:	02012c23          	sw	zero,56(sp)
   20dac:	02012a23          	sw	zero,52(sp)
   20db0:	02012823          	sw	zero,48(sp)
   20db4:	00050793          	mv	a5,a0
   20db8:	0007a703          	lw	a4,0(a5) # 8000 <exit-0x80a0>
   20dbc:	ffc7a683          	lw	a3,-4(a5)
   20dc0:	ffc78793          	add	a5,a5,-4
   20dc4:	00371713          	sll	a4,a4,0x3
   20dc8:	01d6d693          	srl	a3,a3,0x1d
   20dcc:	00d76733          	or	a4,a4,a3
   20dd0:	00e7a223          	sw	a4,4(a5)
   20dd4:	fef592e3          	bne	a1,a5,20db8 <__subtf3+0x924>
   20dd8:	000084b7          	lui	s1,0x8
   20ddc:	fff48493          	add	s1,s1,-1 # 7fff <exit-0x80a1>
   20de0:	00000a93          	li	s5,0
   20de4:	8cdff06f          	j	206b0 <__subtf3+0x21c>
   20de8:	00878433          	add	s0,a5,s0
   20dec:	01268933          	add	s2,a3,s2
   20df0:	02812823          	sw	s0,48(sp)
   20df4:	00f43433          	sltu	s0,s0,a5
   20df8:	00890433          	add	s0,s2,s0
   20dfc:	02812a23          	sw	s0,52(sp)
   20e00:	00d936b3          	sltu	a3,s2,a3
   20e04:	01243433          	sltu	s0,s0,s2
   20e08:	013709b3          	add	s3,a4,s3
   20e0c:	0086e6b3          	or	a3,a3,s0
   20e10:	00d986b3          	add	a3,s3,a3
   20e14:	02d12c23          	sw	a3,56(sp)
   20e18:	00e9b733          	sltu	a4,s3,a4
   20e1c:	0136b6b3          	sltu	a3,a3,s3
   20e20:	00d76733          	or	a4,a4,a3
   20e24:	01660633          	add	a2,a2,s6
   20e28:	00c70733          	add	a4,a4,a2
   20e2c:	02e12e23          	sw	a4,60(sp)
   20e30:	00058793          	mv	a5,a1
   20e34:	0007a683          	lw	a3,0(a5)
   20e38:	0047a603          	lw	a2,4(a5)
   20e3c:	00478793          	add	a5,a5,4
   20e40:	0016d693          	srl	a3,a3,0x1
   20e44:	01f61613          	sll	a2,a2,0x1f
   20e48:	00c6e6b3          	or	a3,a3,a2
   20e4c:	fed7ae23          	sw	a3,-4(a5)
   20e50:	fef512e3          	bne	a0,a5,20e34 <__subtf3+0x9a0>
   20e54:	000087b7          	lui	a5,0x8
   20e58:	fff78793          	add	a5,a5,-1 # 7fff <exit-0x80a1>
   20e5c:	00f80a63          	beq	a6,a5,20e70 <__subtf3+0x9dc>
   20e60:	00175713          	srl	a4,a4,0x1
   20e64:	02e12e23          	sw	a4,60(sp)
   20e68:	00080493          	mv	s1,a6
   20e6c:	845ff06f          	j	206b0 <__subtf3+0x21c>
   20e70:	02012e23          	sw	zero,60(sp)
   20e74:	02012c23          	sw	zero,56(sp)
   20e78:	02012a23          	sw	zero,52(sp)
   20e7c:	02012823          	sw	zero,48(sp)
   20e80:	fe9ff06f          	j	20e68 <__subtf3+0x9d4>
   20e84:	29105a63          	blez	a7,21118 <__subtf3+0xc84>
   20e88:	01412903          	lw	s2,20(sp)
   20e8c:	01812983          	lw	s3,24(sp)
   20e90:	01c12b03          	lw	s6,28(sp)
   20e94:	0a0b9e63          	bnez	s7,20f50 <__subtf3+0xabc>
   20e98:	02412e03          	lw	t3,36(sp)
   20e9c:	02812503          	lw	a0,40(sp)
   20ea0:	02c12683          	lw	a3,44(sp)
   20ea4:	00ae6733          	or	a4,t3,a0
   20ea8:	00d76733          	or	a4,a4,a3
   20eac:	00876733          	or	a4,a4,s0
   20eb0:	f6070063          	beqz	a4,20610 <__subtf3+0x17c>
   20eb4:	fff88e93          	add	t4,a7,-1
   20eb8:	040e9c63          	bnez	t4,20f10 <__subtf3+0xa7c>
   20ebc:	40878733          	sub	a4,a5,s0
   20ec0:	41c90633          	sub	a2,s2,t3
   20ec4:	00e7b5b3          	sltu	a1,a5,a4
   20ec8:	00c93833          	sltu	a6,s2,a2
   20ecc:	40b60633          	sub	a2,a2,a1
   20ed0:	00000593          	li	a1,0
   20ed4:	00e7f663          	bgeu	a5,a4,20ee0 <__subtf3+0xa4c>
   20ed8:	412e0e33          	sub	t3,t3,s2
   20edc:	001e3593          	seqz	a1,t3
   20ee0:	0105e7b3          	or	a5,a1,a6
   20ee4:	40a985b3          	sub	a1,s3,a0
   20ee8:	00b9b833          	sltu	a6,s3,a1
   20eec:	40f585b3          	sub	a1,a1,a5
   20ef0:	00078663          	beqz	a5,20efc <__subtf3+0xa68>
   20ef4:	41350533          	sub	a0,a0,s3
   20ef8:	00153e93          	seqz	t4,a0
   20efc:	40db07b3          	sub	a5,s6,a3
   20f00:	010ee6b3          	or	a3,t4,a6
   20f04:	40d787b3          	sub	a5,a5,a3
   20f08:	00100493          	li	s1,1
   20f0c:	1b80006f          	j	210c4 <__subtf3+0xc30>
   20f10:	00008737          	lui	a4,0x8
   20f14:	fff70713          	add	a4,a4,-1 # 7fff <exit-0x80a1>
   20f18:	f6e88a63          	beq	a7,a4,2068c <__subtf3+0x1f8>
   20f1c:	07400713          	li	a4,116
   20f20:	05d75c63          	bge	a4,t4,20f78 <__subtf3+0xae4>
   20f24:	02012623          	sw	zero,44(sp)
   20f28:	02012423          	sw	zero,40(sp)
   20f2c:	02012223          	sw	zero,36(sp)
   20f30:	00100713          	li	a4,1
   20f34:	1300006f          	j	21064 <__subtf3+0xbd0>
   20f38:	00040793          	mv	a5,s0
   20f3c:	f50ff06f          	j	2068c <__subtf3+0x1f8>
   20f40:	00068913          	mv	s2,a3
   20f44:	00070993          	mv	s3,a4
   20f48:	00060b13          	mv	s6,a2
   20f4c:	f40ff06f          	j	2068c <__subtf3+0x1f8>
   20f50:	00008737          	lui	a4,0x8
   20f54:	fff70713          	add	a4,a4,-1 # 7fff <exit-0x80a1>
   20f58:	b8e486e3          	beq	s1,a4,20ae4 <__subtf3+0x650>
   20f5c:	02c12703          	lw	a4,44(sp)
   20f60:	000806b7          	lui	a3,0x80
   20f64:	00d76733          	or	a4,a4,a3
   20f68:	02e12623          	sw	a4,44(sp)
   20f6c:	07400713          	li	a4,116
   20f70:	fb174ae3          	blt	a4,a7,20f24 <__subtf3+0xa90>
   20f74:	00088e93          	mv	t4,a7
   20f78:	405ed693          	sra	a3,t4,0x5
   20f7c:	00030593          	mv	a1,t1
   20f80:	01fefe93          	and	t4,t4,31
   20f84:	00000713          	li	a4,0
   20f88:	00000613          	li	a2,0
   20f8c:	02d61c63          	bne	a2,a3,20fc4 <__subtf3+0xb30>
   20f90:	00300613          	li	a2,3
   20f94:	40d60633          	sub	a2,a2,a3
   20f98:	00269593          	sll	a1,a3,0x2
   20f9c:	020e9e63          	bnez	t4,20fd8 <__subtf3+0xb44>
   20fa0:	00b30533          	add	a0,t1,a1
   20fa4:	00052503          	lw	a0,0(a0)
   20fa8:	001e8e93          	add	t4,t4,1
   20fac:	00430313          	add	t1,t1,4
   20fb0:	fea32e23          	sw	a0,-4(t1)
   20fb4:	ffd656e3          	bge	a2,t4,20fa0 <__subtf3+0xb0c>
   20fb8:	00400613          	li	a2,4
   20fbc:	40d606b3          	sub	a3,a2,a3
   20fc0:	0600006f          	j	21020 <__subtf3+0xb8c>
   20fc4:	0005a503          	lw	a0,0(a1)
   20fc8:	00160613          	add	a2,a2,1
   20fcc:	00458593          	add	a1,a1,4
   20fd0:	00a76733          	or	a4,a4,a0
   20fd4:	fb9ff06f          	j	20f8c <__subtf3+0xaf8>
   20fd8:	04058513          	add	a0,a1,64
   20fdc:	00250533          	add	a0,a0,sp
   20fe0:	fe052503          	lw	a0,-32(a0)
   20fe4:	02000893          	li	a7,32
   20fe8:	41d888b3          	sub	a7,a7,t4
   20fec:	01151533          	sll	a0,a0,a7
   20ff0:	00a76733          	or	a4,a4,a0
   20ff4:	00b805b3          	add	a1,a6,a1
   20ff8:	00000e13          	li	t3,0
   20ffc:	0ece4a63          	blt	t3,a2,210f0 <__subtf3+0xc5c>
   21000:	00400593          	li	a1,4
   21004:	40d586b3          	sub	a3,a1,a3
   21008:	02c12583          	lw	a1,44(sp)
   2100c:	00261613          	sll	a2,a2,0x2
   21010:	04060613          	add	a2,a2,64
   21014:	00260633          	add	a2,a2,sp
   21018:	01d5d5b3          	srl	a1,a1,t4
   2101c:	feb62023          	sw	a1,-32(a2)
   21020:	00400613          	li	a2,4
   21024:	40d60633          	sub	a2,a2,a3
   21028:	00261613          	sll	a2,a2,0x2
   2102c:	00269693          	sll	a3,a3,0x2
   21030:	00800593          	li	a1,8
   21034:	00d806b3          	add	a3,a6,a3
   21038:	00b66a63          	bltu	a2,a1,2104c <__subtf3+0xbb8>
   2103c:	0006a023          	sw	zero,0(a3) # 80000 <__BSS_END__+0x5c428>
   21040:	0006a223          	sw	zero,4(a3)
   21044:	ff860613          	add	a2,a2,-8
   21048:	00868693          	add	a3,a3,8
   2104c:	00400593          	li	a1,4
   21050:	00b66463          	bltu	a2,a1,21058 <__subtf3+0xbc4>
   21054:	0006a023          	sw	zero,0(a3)
   21058:	02012683          	lw	a3,32(sp)
   2105c:	00e03733          	snez	a4,a4
   21060:	00d76733          	or	a4,a4,a3
   21064:	02412583          	lw	a1,36(sp)
   21068:	02e12023          	sw	a4,32(sp)
   2106c:	40e78733          	sub	a4,a5,a4
   21070:	40b90633          	sub	a2,s2,a1
   21074:	00e7b6b3          	sltu	a3,a5,a4
   21078:	00c93533          	sltu	a0,s2,a2
   2107c:	40d60633          	sub	a2,a2,a3
   21080:	00000693          	li	a3,0
   21084:	00e7f663          	bgeu	a5,a4,21090 <__subtf3+0xbfc>
   21088:	412585b3          	sub	a1,a1,s2
   2108c:	0015b693          	seqz	a3,a1
   21090:	00a6e7b3          	or	a5,a3,a0
   21094:	02812503          	lw	a0,40(sp)
   21098:	00000693          	li	a3,0
   2109c:	40a985b3          	sub	a1,s3,a0
   210a0:	00b9b833          	sltu	a6,s3,a1
   210a4:	40f585b3          	sub	a1,a1,a5
   210a8:	00078663          	beqz	a5,210b4 <__subtf3+0xc20>
   210ac:	41350533          	sub	a0,a0,s3
   210b0:	00153693          	seqz	a3,a0
   210b4:	02c12783          	lw	a5,44(sp)
   210b8:	0106e6b3          	or	a3,a3,a6
   210bc:	40fb07b3          	sub	a5,s6,a5
   210c0:	40d787b3          	sub	a5,a5,a3
   210c4:	02e12823          	sw	a4,48(sp)
   210c8:	02f12e23          	sw	a5,60(sp)
   210cc:	02b12c23          	sw	a1,56(sp)
   210d0:	02c12a23          	sw	a2,52(sp)
   210d4:	00c79713          	sll	a4,a5,0xc
   210d8:	dc075c63          	bgez	a4,206b0 <__subtf3+0x21c>
   210dc:	00080737          	lui	a4,0x80
   210e0:	fff70713          	add	a4,a4,-1 # 7ffff <__BSS_END__+0x5c427>
   210e4:	00e7f7b3          	and	a5,a5,a4
   210e8:	02f12e23          	sw	a5,60(sp)
   210ec:	58c0006f          	j	21678 <__subtf3+0x11e4>
   210f0:	0005a503          	lw	a0,0(a1)
   210f4:	0045af03          	lw	t5,4(a1)
   210f8:	00458593          	add	a1,a1,4
   210fc:	01d55533          	srl	a0,a0,t4
   21100:	011f1f33          	sll	t5,t5,a7
   21104:	01e56533          	or	a0,a0,t5
   21108:	00a32023          	sw	a0,0(t1)
   2110c:	001e0e13          	add	t3,t3,1
   21110:	00430313          	add	t1,t1,4
   21114:	ee9ff06f          	j	20ffc <__subtf3+0xb68>
   21118:	02412c03          	lw	s8,36(sp)
   2111c:	02812983          	lw	s3,40(sp)
   21120:	02c12b03          	lw	s6,44(sp)
   21124:	2a088263          	beqz	a7,213c8 <__subtf3+0xf34>
   21128:	409b8333          	sub	t1,s7,s1
   2112c:	0a049e63          	bnez	s1,211e8 <__subtf3+0xd54>
   21130:	01412583          	lw	a1,20(sp)
   21134:	01812803          	lw	a6,24(sp)
   21138:	01c12683          	lw	a3,28(sp)
   2113c:	0105e8b3          	or	a7,a1,a6
   21140:	00d8e8b3          	or	a7,a7,a3
   21144:	00f8e8b3          	or	a7,a7,a5
   21148:	02089063          	bnez	a7,21168 <__subtf3+0xcd4>
   2114c:	02812823          	sw	s0,48(sp)
   21150:	03812a23          	sw	s8,52(sp)
   21154:	03312c23          	sw	s3,56(sp)
   21158:	03612e23          	sw	s6,60(sp)
   2115c:	00030493          	mv	s1,t1
   21160:	00090a93          	mv	s5,s2
   21164:	d4cff06f          	j	206b0 <__subtf3+0x21c>
   21168:	fff30893          	add	a7,t1,-1
   2116c:	04089c63          	bnez	a7,211c4 <__subtf3+0xd30>
   21170:	40f40733          	sub	a4,s0,a5
   21174:	40bc0633          	sub	a2,s8,a1
   21178:	00e437b3          	sltu	a5,s0,a4
   2117c:	00cc3533          	sltu	a0,s8,a2
   21180:	40f60633          	sub	a2,a2,a5
   21184:	00000793          	li	a5,0
   21188:	00e47663          	bgeu	s0,a4,21194 <__subtf3+0xd00>
   2118c:	418585b3          	sub	a1,a1,s8
   21190:	0015b793          	seqz	a5,a1
   21194:	00a7e7b3          	or	a5,a5,a0
   21198:	410985b3          	sub	a1,s3,a6
   2119c:	00b9b533          	sltu	a0,s3,a1
   211a0:	40f585b3          	sub	a1,a1,a5
   211a4:	00078663          	beqz	a5,211b0 <__subtf3+0xd1c>
   211a8:	41380833          	sub	a6,a6,s3
   211ac:	00183893          	seqz	a7,a6
   211b0:	40db07b3          	sub	a5,s6,a3
   211b4:	00a8e6b3          	or	a3,a7,a0
   211b8:	40d787b3          	sub	a5,a5,a3
   211bc:	00090a93          	mv	s5,s2
   211c0:	d49ff06f          	j	20f08 <__subtf3+0xa74>
   211c4:	000087b7          	lui	a5,0x8
   211c8:	fff78793          	add	a5,a5,-1 # 7fff <exit-0x80a1>
   211cc:	78f31c63          	bne	t1,a5,21964 <__subtf3+0x14d0>
   211d0:	02812823          	sw	s0,48(sp)
   211d4:	03812a23          	sw	s8,52(sp)
   211d8:	03312c23          	sw	s3,56(sp)
   211dc:	03612e23          	sw	s6,60(sp)
   211e0:	00090a93          	mv	s5,s2
   211e4:	8f5ff06f          	j	20ad8 <__subtf3+0x644>
   211e8:	000087b7          	lui	a5,0x8
   211ec:	fff78793          	add	a5,a5,-1 # 7fff <exit-0x80a1>
   211f0:	fefb80e3          	beq	s7,a5,211d0 <__subtf3+0xd3c>
   211f4:	01c12783          	lw	a5,28(sp)
   211f8:	00080737          	lui	a4,0x80
   211fc:	00e7e7b3          	or	a5,a5,a4
   21200:	00f12e23          	sw	a5,28(sp)
   21204:	07400793          	li	a5,116
   21208:	1a67c663          	blt	a5,t1,213b4 <__subtf3+0xf20>
   2120c:	41f35793          	sra	a5,t1,0x1f
   21210:	01f7f793          	and	a5,a5,31
   21214:	006787b3          	add	a5,a5,t1
   21218:	4057d793          	sra	a5,a5,0x5
   2121c:	00060693          	mv	a3,a2
   21220:	00000493          	li	s1,0
   21224:	00000713          	li	a4,0
   21228:	02f74e63          	blt	a4,a5,21264 <__subtf3+0xdd0>
   2122c:	00300713          	li	a4,3
   21230:	01f37e13          	and	t3,t1,31
   21234:	40f708b3          	sub	a7,a4,a5
   21238:	00279693          	sll	a3,a5,0x2
   2123c:	020e1e63          	bnez	t3,21278 <__subtf3+0xde4>
   21240:	00d60733          	add	a4,a2,a3
   21244:	00072703          	lw	a4,0(a4) # 80000 <__BSS_END__+0x5c428>
   21248:	001e0e13          	add	t3,t3,1
   2124c:	00460613          	add	a2,a2,4
   21250:	fee62e23          	sw	a4,-4(a2)
   21254:	ffc8d6e3          	bge	a7,t3,21240 <__subtf3+0xdac>
   21258:	00400713          	li	a4,4
   2125c:	40f707b3          	sub	a5,a4,a5
   21260:	0900006f          	j	212f0 <__subtf3+0xe5c>
   21264:	0006a583          	lw	a1,0(a3)
   21268:	00170713          	add	a4,a4,1
   2126c:	00468693          	add	a3,a3,4
   21270:	00b4e4b3          	or	s1,s1,a1
   21274:	fb5ff06f          	j	21228 <__subtf3+0xd94>
   21278:	80000737          	lui	a4,0x80000
   2127c:	01f70713          	add	a4,a4,31 # 8000001f <__BSS_END__+0x7ffdc447>
   21280:	00e37733          	and	a4,t1,a4
   21284:	00075863          	bgez	a4,21294 <__subtf3+0xe00>
   21288:	fff70713          	add	a4,a4,-1
   2128c:	fe076713          	or	a4,a4,-32
   21290:	00170713          	add	a4,a4,1
   21294:	02000813          	li	a6,32
   21298:	40e80833          	sub	a6,a6,a4
   2129c:	00078593          	mv	a1,a5
   212a0:	0007d463          	bgez	a5,212a8 <__subtf3+0xe14>
   212a4:	00000593          	li	a1,0
   212a8:	00259593          	sll	a1,a1,0x2
   212ac:	04058713          	add	a4,a1,64
   212b0:	002705b3          	add	a1,a4,sp
   212b4:	fd05a703          	lw	a4,-48(a1)
   212b8:	00d506b3          	add	a3,a0,a3
   212bc:	01071733          	sll	a4,a4,a6
   212c0:	00e4e4b3          	or	s1,s1,a4
   212c4:	00000713          	li	a4,0
   212c8:	00468693          	add	a3,a3,4
   212cc:	0d174263          	blt	a4,a7,21390 <__subtf3+0xefc>
   212d0:	01c12683          	lw	a3,28(sp)
   212d4:	00400713          	li	a4,4
   212d8:	40f707b3          	sub	a5,a4,a5
   212dc:	00289713          	sll	a4,a7,0x2
   212e0:	04070713          	add	a4,a4,64
   212e4:	00270733          	add	a4,a4,sp
   212e8:	01c6d6b3          	srl	a3,a3,t3
   212ec:	fcd72823          	sw	a3,-48(a4)
   212f0:	0057a713          	slti	a4,a5,5
   212f4:	00000613          	li	a2,0
   212f8:	00070863          	beqz	a4,21308 <__subtf3+0xe74>
   212fc:	00400613          	li	a2,4
   21300:	40f60633          	sub	a2,a2,a5
   21304:	00261613          	sll	a2,a2,0x2
   21308:	00279793          	sll	a5,a5,0x2
   2130c:	00f50533          	add	a0,a0,a5
   21310:	00000593          	li	a1,0
   21314:	9d1ef0ef          	jal	10ce4 <memset>
   21318:	01012783          	lw	a5,16(sp)
   2131c:	00903733          	snez	a4,s1
   21320:	00f76733          	or	a4,a4,a5
   21324:	01412683          	lw	a3,20(sp)
   21328:	00e12823          	sw	a4,16(sp)
   2132c:	40e40733          	sub	a4,s0,a4
   21330:	40dc0633          	sub	a2,s8,a3
   21334:	00e437b3          	sltu	a5,s0,a4
   21338:	00cc35b3          	sltu	a1,s8,a2
   2133c:	40f60633          	sub	a2,a2,a5
   21340:	00000793          	li	a5,0
   21344:	00e47663          	bgeu	s0,a4,21350 <__subtf3+0xebc>
   21348:	418686b3          	sub	a3,a3,s8
   2134c:	0016b793          	seqz	a5,a3
   21350:	01812503          	lw	a0,24(sp)
   21354:	00b7e7b3          	or	a5,a5,a1
   21358:	00000693          	li	a3,0
   2135c:	40a985b3          	sub	a1,s3,a0
   21360:	00b9b833          	sltu	a6,s3,a1
   21364:	40f585b3          	sub	a1,a1,a5
   21368:	00078663          	beqz	a5,21374 <__subtf3+0xee0>
   2136c:	41350533          	sub	a0,a0,s3
   21370:	00153693          	seqz	a3,a0
   21374:	01c12783          	lw	a5,28(sp)
   21378:	0106e6b3          	or	a3,a3,a6
   2137c:	000b8493          	mv	s1,s7
   21380:	40fb07b3          	sub	a5,s6,a5
   21384:	40d787b3          	sub	a5,a5,a3
   21388:	00090a93          	mv	s5,s2
   2138c:	d39ff06f          	j	210c4 <__subtf3+0xc30>
   21390:	ffc6a583          	lw	a1,-4(a3)
   21394:	0006a303          	lw	t1,0(a3)
   21398:	00170713          	add	a4,a4,1
   2139c:	01c5d5b3          	srl	a1,a1,t3
   213a0:	01031333          	sll	t1,t1,a6
   213a4:	0065e5b3          	or	a1,a1,t1
   213a8:	00b62023          	sw	a1,0(a2)
   213ac:	00460613          	add	a2,a2,4
   213b0:	f19ff06f          	j	212c8 <__subtf3+0xe34>
   213b4:	00012e23          	sw	zero,28(sp)
   213b8:	00012c23          	sw	zero,24(sp)
   213bc:	00012a23          	sw	zero,20(sp)
   213c0:	00100713          	li	a4,1
   213c4:	f61ff06f          	j	21324 <__subtf3+0xe90>
   213c8:	00148593          	add	a1,s1,1
   213cc:	01159513          	sll	a0,a1,0x11
   213d0:	01255513          	srl	a0,a0,0x12
   213d4:	01412683          	lw	a3,20(sp)
   213d8:	01812603          	lw	a2,24(sp)
   213dc:	01c12703          	lw	a4,28(sp)
   213e0:	00008837          	lui	a6,0x8
   213e4:	1c051e63          	bnez	a0,215c0 <__subtf3+0x112c>
   213e8:	013c6533          	or	a0,s8,s3
   213ec:	00c6e5b3          	or	a1,a3,a2
   213f0:	01656533          	or	a0,a0,s6
   213f4:	00e5e5b3          	or	a1,a1,a4
   213f8:	00856533          	or	a0,a0,s0
   213fc:	00f5e5b3          	or	a1,a1,a5
   21400:	10049863          	bnez	s1,21510 <__subtf3+0x107c>
   21404:	02059263          	bnez	a1,21428 <__subtf3+0xf94>
   21408:	02812823          	sw	s0,48(sp)
   2140c:	03812a23          	sw	s8,52(sp)
   21410:	03312c23          	sw	s3,56(sp)
   21414:	03612e23          	sw	s6,60(sp)
   21418:	00090a93          	mv	s5,s2
   2141c:	a8051a63          	bnez	a0,206b0 <__subtf3+0x21c>
   21420:	00000493          	li	s1,0
   21424:	9bdff06f          	j	20de0 <__subtf3+0x94c>
   21428:	00051c63          	bnez	a0,21440 <__subtf3+0xfac>
   2142c:	02f12823          	sw	a5,48(sp)
   21430:	02d12a23          	sw	a3,52(sp)
   21434:	02c12c23          	sw	a2,56(sp)
   21438:	02e12e23          	sw	a4,60(sp)
   2143c:	8b9ff06f          	j	20cf4 <__subtf3+0x860>
   21440:	40878533          	sub	a0,a5,s0
   21444:	41868e33          	sub	t3,a3,s8
   21448:	00a7b833          	sltu	a6,a5,a0
   2144c:	01c6b8b3          	sltu	a7,a3,t3
   21450:	410e0833          	sub	a6,t3,a6
   21454:	00000593          	li	a1,0
   21458:	00a7f463          	bgeu	a5,a0,21460 <__subtf3+0xfcc>
   2145c:	001e3593          	seqz	a1,t3
   21460:	0115e5b3          	or	a1,a1,a7
   21464:	413608b3          	sub	a7,a2,s3
   21468:	01163f33          	sltu	t5,a2,a7
   2146c:	40b88eb3          	sub	t4,a7,a1
   21470:	00000313          	li	t1,0
   21474:	00058463          	beqz	a1,2147c <__subtf3+0xfe8>
   21478:	0018b313          	seqz	t1,a7
   2147c:	01e36333          	or	t1,t1,t5
   21480:	416705b3          	sub	a1,a4,s6
   21484:	406585b3          	sub	a1,a1,t1
   21488:	02b12e23          	sw	a1,60(sp)
   2148c:	03d12c23          	sw	t4,56(sp)
   21490:	03012a23          	sw	a6,52(sp)
   21494:	02a12823          	sw	a0,48(sp)
   21498:	00c59313          	sll	t1,a1,0xc
   2149c:	06035063          	bgez	t1,214fc <__subtf3+0x1068>
   214a0:	40f407b3          	sub	a5,s0,a5
   214a4:	40dc06b3          	sub	a3,s8,a3
   214a8:	00f435b3          	sltu	a1,s0,a5
   214ac:	00dc3c33          	sltu	s8,s8,a3
   214b0:	40b686b3          	sub	a3,a3,a1
   214b4:	00000593          	li	a1,0
   214b8:	00f47463          	bgeu	s0,a5,214c0 <__subtf3+0x102c>
   214bc:	001e3593          	seqz	a1,t3
   214c0:	40c98633          	sub	a2,s3,a2
   214c4:	0185ec33          	or	s8,a1,s8
   214c8:	00c9b9b3          	sltu	s3,s3,a2
   214cc:	00000513          	li	a0,0
   214d0:	41860633          	sub	a2,a2,s8
   214d4:	000c0463          	beqz	s8,214dc <__subtf3+0x1048>
   214d8:	0018b513          	seqz	a0,a7
   214dc:	40eb0733          	sub	a4,s6,a4
   214e0:	01356533          	or	a0,a0,s3
   214e4:	40a70733          	sub	a4,a4,a0
   214e8:	02e12e23          	sw	a4,60(sp)
   214ec:	02c12c23          	sw	a2,56(sp)
   214f0:	02d12a23          	sw	a3,52(sp)
   214f4:	02f12823          	sw	a5,48(sp)
   214f8:	c69ff06f          	j	21160 <__subtf3+0xccc>
   214fc:	01056533          	or	a0,a0,a6
   21500:	01d56533          	or	a0,a0,t4
   21504:	00b56533          	or	a0,a0,a1
   21508:	f0050ce3          	beqz	a0,21420 <__subtf3+0xf8c>
   2150c:	fe8ff06f          	j	20cf4 <__subtf3+0x860>
   21510:	03010893          	add	a7,sp,48
   21514:	04059e63          	bnez	a1,21570 <__subtf3+0x10dc>
   21518:	02051e63          	bnez	a0,21554 <__subtf3+0x10c0>
   2151c:	03012e23          	sw	a6,60(sp)
   21520:	02012c23          	sw	zero,56(sp)
   21524:	02012a23          	sw	zero,52(sp)
   21528:	02012823          	sw	zero,48(sp)
   2152c:	03c10793          	add	a5,sp,60
   21530:	0007a703          	lw	a4,0(a5)
   21534:	ffc7a683          	lw	a3,-4(a5)
   21538:	ffc78793          	add	a5,a5,-4
   2153c:	00371713          	sll	a4,a4,0x3
   21540:	01d6d693          	srl	a3,a3,0x1d
   21544:	00d76733          	or	a4,a4,a3
   21548:	00e7a223          	sw	a4,4(a5)
   2154c:	fef892e3          	bne	a7,a5,21530 <__subtf3+0x109c>
   21550:	889ff06f          	j	20dd8 <__subtf3+0x944>
   21554:	02812823          	sw	s0,48(sp)
   21558:	03812a23          	sw	s8,52(sp)
   2155c:	03312c23          	sw	s3,56(sp)
   21560:	03612e23          	sw	s6,60(sp)
   21564:	00090a93          	mv	s5,s2
   21568:	fff80493          	add	s1,a6,-1 # 7fff <exit-0x80a1>
   2156c:	944ff06f          	j	206b0 <__subtf3+0x21c>
   21570:	00051c63          	bnez	a0,21588 <__subtf3+0x10f4>
   21574:	02f12823          	sw	a5,48(sp)
   21578:	02d12a23          	sw	a3,52(sp)
   2157c:	02c12c23          	sw	a2,56(sp)
   21580:	02e12e23          	sw	a4,60(sp)
   21584:	fe5ff06f          	j	21568 <__subtf3+0x10d4>
   21588:	03012e23          	sw	a6,60(sp)
   2158c:	02012c23          	sw	zero,56(sp)
   21590:	02012a23          	sw	zero,52(sp)
   21594:	02012823          	sw	zero,48(sp)
   21598:	03c10793          	add	a5,sp,60
   2159c:	0007a703          	lw	a4,0(a5)
   215a0:	ffc7a683          	lw	a3,-4(a5)
   215a4:	ffc78793          	add	a5,a5,-4
   215a8:	00371713          	sll	a4,a4,0x3
   215ac:	01d6d693          	srl	a3,a3,0x1d
   215b0:	00d76733          	or	a4,a4,a3
   215b4:	00e7a223          	sw	a4,4(a5)
   215b8:	fef892e3          	bne	a7,a5,2159c <__subtf3+0x1108>
   215bc:	81dff06f          	j	20dd8 <__subtf3+0x944>
   215c0:	40878533          	sub	a0,a5,s0
   215c4:	41868eb3          	sub	t4,a3,s8
   215c8:	00a7b833          	sltu	a6,a5,a0
   215cc:	01d6b333          	sltu	t1,a3,t4
   215d0:	410e8833          	sub	a6,t4,a6
   215d4:	00000593          	li	a1,0
   215d8:	00a7f463          	bgeu	a5,a0,215e0 <__subtf3+0x114c>
   215dc:	001eb593          	seqz	a1,t4
   215e0:	0065e5b3          	or	a1,a1,t1
   215e4:	41360333          	sub	t1,a2,s3
   215e8:	00663fb3          	sltu	t6,a2,t1
   215ec:	40b30f33          	sub	t5,t1,a1
   215f0:	00000e13          	li	t3,0
   215f4:	00058463          	beqz	a1,215fc <__subtf3+0x1168>
   215f8:	00133e13          	seqz	t3,t1
   215fc:	01fe6e33          	or	t3,t3,t6
   21600:	416705b3          	sub	a1,a4,s6
   21604:	41c585b3          	sub	a1,a1,t3
   21608:	02b12e23          	sw	a1,60(sp)
   2160c:	03e12c23          	sw	t5,56(sp)
   21610:	03012a23          	sw	a6,52(sp)
   21614:	02a12823          	sw	a0,48(sp)
   21618:	00c59e13          	sll	t3,a1,0xc
   2161c:	160e5863          	bgez	t3,2178c <__subtf3+0x12f8>
   21620:	40f407b3          	sub	a5,s0,a5
   21624:	40dc06b3          	sub	a3,s8,a3
   21628:	00f435b3          	sltu	a1,s0,a5
   2162c:	00dc3c33          	sltu	s8,s8,a3
   21630:	40b686b3          	sub	a3,a3,a1
   21634:	00000593          	li	a1,0
   21638:	00f47463          	bgeu	s0,a5,21640 <__subtf3+0x11ac>
   2163c:	001eb593          	seqz	a1,t4
   21640:	40c98633          	sub	a2,s3,a2
   21644:	0185ec33          	or	s8,a1,s8
   21648:	00c9b9b3          	sltu	s3,s3,a2
   2164c:	41860633          	sub	a2,a2,s8
   21650:	000c0463          	beqz	s8,21658 <__subtf3+0x11c4>
   21654:	00133893          	seqz	a7,t1
   21658:	40eb05b3          	sub	a1,s6,a4
   2165c:	0138e733          	or	a4,a7,s3
   21660:	40e58733          	sub	a4,a1,a4
   21664:	02e12e23          	sw	a4,60(sp)
   21668:	02c12c23          	sw	a2,56(sp)
   2166c:	02d12a23          	sw	a3,52(sp)
   21670:	02f12823          	sw	a5,48(sp)
   21674:	00090a93          	mv	s5,s2
   21678:	03c12503          	lw	a0,60(sp)
   2167c:	12050263          	beqz	a0,217a0 <__subtf3+0x130c>
   21680:	0ad000ef          	jal	21f2c <__clzsi2>
   21684:	ff450513          	add	a0,a0,-12
   21688:	41f55793          	sra	a5,a0,0x1f
   2168c:	01f7f793          	and	a5,a5,31
   21690:	00a787b3          	add	a5,a5,a0
   21694:	4057d793          	sra	a5,a5,0x5
   21698:	01f57593          	and	a1,a0,31
   2169c:	40f006b3          	neg	a3,a5
   216a0:	12058c63          	beqz	a1,217d8 <__subtf3+0x1344>
   216a4:	80000737          	lui	a4,0x80000
   216a8:	01f70713          	add	a4,a4,31 # 8000001f <__BSS_END__+0x7ffdc447>
   216ac:	00e57733          	and	a4,a0,a4
   216b0:	00075863          	bgez	a4,216c0 <__subtf3+0x122c>
   216b4:	fff70713          	add	a4,a4,-1
   216b8:	fe076713          	or	a4,a4,-32
   216bc:	00170713          	add	a4,a4,1
   216c0:	00269693          	sll	a3,a3,0x2
   216c4:	02000813          	li	a6,32
   216c8:	40e80833          	sub	a6,a6,a4
   216cc:	03010313          	add	t1,sp,48
   216d0:	00c68713          	add	a4,a3,12
   216d4:	00e30733          	add	a4,t1,a4
   216d8:	40d006b3          	neg	a3,a3
   216dc:	12e31463          	bne	t1,a4,21804 <__subtf3+0x1370>
   216e0:	03012683          	lw	a3,48(sp)
   216e4:	fff78713          	add	a4,a5,-1
   216e8:	00279793          	sll	a5,a5,0x2
   216ec:	04078793          	add	a5,a5,64
   216f0:	002787b3          	add	a5,a5,sp
   216f4:	00b696b3          	sll	a3,a3,a1
   216f8:	fed7a823          	sw	a3,-16(a5)
   216fc:	00170713          	add	a4,a4,1
   21700:	03010793          	add	a5,sp,48
   21704:	00271713          	sll	a4,a4,0x2
   21708:	00800693          	li	a3,8
   2170c:	00078893          	mv	a7,a5
   21710:	00d76a63          	bltu	a4,a3,21724 <__subtf3+0x1290>
   21714:	02012823          	sw	zero,48(sp)
   21718:	0007a223          	sw	zero,4(a5)
   2171c:	ff870713          	add	a4,a4,-8
   21720:	03810793          	add	a5,sp,56
   21724:	00400693          	li	a3,4
   21728:	00d76463          	bltu	a4,a3,21730 <__subtf3+0x129c>
   2172c:	0007a023          	sw	zero,0(a5)
   21730:	1c954463          	blt	a0,s1,218f8 <__subtf3+0x1464>
   21734:	40950533          	sub	a0,a0,s1
   21738:	00150513          	add	a0,a0,1
   2173c:	40555793          	sra	a5,a0,0x5
   21740:	00088613          	mv	a2,a7
   21744:	01f57513          	and	a0,a0,31
   21748:	00088693          	mv	a3,a7
   2174c:	00000313          	li	t1,0
   21750:	00000713          	li	a4,0
   21754:	0cf71a63          	bne	a4,a5,21828 <__subtf3+0x1394>
   21758:	00300713          	li	a4,3
   2175c:	40f70733          	sub	a4,a4,a5
   21760:	00279693          	sll	a3,a5,0x2
   21764:	0c051c63          	bnez	a0,2183c <__subtf3+0x13a8>
   21768:	00d605b3          	add	a1,a2,a3
   2176c:	0005a583          	lw	a1,0(a1)
   21770:	00150513          	add	a0,a0,1
   21774:	00460613          	add	a2,a2,4
   21778:	feb62e23          	sw	a1,-4(a2)
   2177c:	fea756e3          	bge	a4,a0,21768 <__subtf3+0x12d4>
   21780:	00400713          	li	a4,4
   21784:	40f707b3          	sub	a5,a4,a5
   21788:	1000006f          	j	21888 <__subtf3+0x13f4>
   2178c:	01056533          	or	a0,a0,a6
   21790:	01e56533          	or	a0,a0,t5
   21794:	00b56533          	or	a0,a0,a1
   21798:	c80504e3          	beqz	a0,21420 <__subtf3+0xf8c>
   2179c:	eddff06f          	j	21678 <__subtf3+0x11e4>
   217a0:	03812503          	lw	a0,56(sp)
   217a4:	00050863          	beqz	a0,217b4 <__subtf3+0x1320>
   217a8:	784000ef          	jal	21f2c <__clzsi2>
   217ac:	02050513          	add	a0,a0,32
   217b0:	ed5ff06f          	j	21684 <__subtf3+0x11f0>
   217b4:	03412503          	lw	a0,52(sp)
   217b8:	00050863          	beqz	a0,217c8 <__subtf3+0x1334>
   217bc:	770000ef          	jal	21f2c <__clzsi2>
   217c0:	04050513          	add	a0,a0,64
   217c4:	ec1ff06f          	j	21684 <__subtf3+0x11f0>
   217c8:	03012503          	lw	a0,48(sp)
   217cc:	760000ef          	jal	21f2c <__clzsi2>
   217d0:	06050513          	add	a0,a0,96
   217d4:	eb1ff06f          	j	21684 <__subtf3+0x11f0>
   217d8:	03c10713          	add	a4,sp,60
   217dc:	00269693          	sll	a3,a3,0x2
   217e0:	00300613          	li	a2,3
   217e4:	00d705b3          	add	a1,a4,a3
   217e8:	0005a583          	lw	a1,0(a1)
   217ec:	fff60613          	add	a2,a2,-1
   217f0:	ffc70713          	add	a4,a4,-4
   217f4:	00b72223          	sw	a1,4(a4)
   217f8:	fef656e3          	bge	a2,a5,217e4 <__subtf3+0x1350>
   217fc:	fff78713          	add	a4,a5,-1
   21800:	efdff06f          	j	216fc <__subtf3+0x1268>
   21804:	00072603          	lw	a2,0(a4)
   21808:	ffc72883          	lw	a7,-4(a4)
   2180c:	00d70e33          	add	t3,a4,a3
   21810:	00b61633          	sll	a2,a2,a1
   21814:	0108d8b3          	srl	a7,a7,a6
   21818:	01166633          	or	a2,a2,a7
   2181c:	00ce2023          	sw	a2,0(t3)
   21820:	ffc70713          	add	a4,a4,-4
   21824:	eb9ff06f          	j	216dc <__subtf3+0x1248>
   21828:	0006a583          	lw	a1,0(a3)
   2182c:	00170713          	add	a4,a4,1
   21830:	00468693          	add	a3,a3,4
   21834:	00b36333          	or	t1,t1,a1
   21838:	f1dff06f          	j	21754 <__subtf3+0x12c0>
   2183c:	04068593          	add	a1,a3,64
   21840:	002585b3          	add	a1,a1,sp
   21844:	ff05a583          	lw	a1,-16(a1)
   21848:	02000813          	li	a6,32
   2184c:	40a80833          	sub	a6,a6,a0
   21850:	010595b3          	sll	a1,a1,a6
   21854:	00b36333          	or	t1,t1,a1
   21858:	00d886b3          	add	a3,a7,a3
   2185c:	00000e13          	li	t3,0
   21860:	00468693          	add	a3,a3,4
   21864:	06ee4863          	blt	t3,a4,218d4 <__subtf3+0x1440>
   21868:	00400693          	li	a3,4
   2186c:	40f687b3          	sub	a5,a3,a5
   21870:	03c12683          	lw	a3,60(sp)
   21874:	00271713          	sll	a4,a4,0x2
   21878:	04070713          	add	a4,a4,64
   2187c:	00270733          	add	a4,a4,sp
   21880:	00a6d533          	srl	a0,a3,a0
   21884:	fea72823          	sw	a0,-16(a4)
   21888:	00400713          	li	a4,4
   2188c:	40f70733          	sub	a4,a4,a5
   21890:	00271713          	sll	a4,a4,0x2
   21894:	00279793          	sll	a5,a5,0x2
   21898:	00800693          	li	a3,8
   2189c:	00f887b3          	add	a5,a7,a5
   218a0:	00d76a63          	bltu	a4,a3,218b4 <__subtf3+0x1420>
   218a4:	0007a023          	sw	zero,0(a5)
   218a8:	0007a223          	sw	zero,4(a5)
   218ac:	ff870713          	add	a4,a4,-8
   218b0:	00878793          	add	a5,a5,8
   218b4:	00400693          	li	a3,4
   218b8:	00d76463          	bltu	a4,a3,218c0 <__subtf3+0x142c>
   218bc:	0007a023          	sw	zero,0(a5)
   218c0:	03012703          	lw	a4,48(sp)
   218c4:	006037b3          	snez	a5,t1
   218c8:	00f767b3          	or	a5,a4,a5
   218cc:	02f12823          	sw	a5,48(sp)
   218d0:	c24ff06f          	j	20cf4 <__subtf3+0x860>
   218d4:	ffc6a583          	lw	a1,-4(a3)
   218d8:	0006ae83          	lw	t4,0(a3)
   218dc:	001e0e13          	add	t3,t3,1
   218e0:	00a5d5b3          	srl	a1,a1,a0
   218e4:	010e9eb3          	sll	t4,t4,a6
   218e8:	01d5e5b3          	or	a1,a1,t4
   218ec:	00b62023          	sw	a1,0(a2)
   218f0:	00460613          	add	a2,a2,4
   218f4:	f6dff06f          	j	21860 <__subtf3+0x13cc>
   218f8:	03c12783          	lw	a5,60(sp)
   218fc:	fff80737          	lui	a4,0xfff80
   21900:	fff70713          	add	a4,a4,-1 # fff7ffff <__BSS_END__+0xfff5c427>
   21904:	00e7f7b3          	and	a5,a5,a4
   21908:	40a484b3          	sub	s1,s1,a0
   2190c:	02f12e23          	sw	a5,60(sp)
   21910:	da1fe06f          	j	206b0 <__subtf3+0x21c>
   21914:	02012e23          	sw	zero,60(sp)
   21918:	02012c23          	sw	zero,56(sp)
   2191c:	02012a23          	sw	zero,52(sp)
   21920:	02012823          	sw	zero,48(sp)
   21924:	e0dfe06f          	j	20730 <__subtf3+0x29c>
   21928:	07400713          	li	a4,116
   2192c:	00c74463          	blt	a4,a2,21934 <__subtf3+0x14a0>
   21930:	f01fe06f          	j	20830 <__subtf3+0x39c>
   21934:	02012623          	sw	zero,44(sp)
   21938:	02012423          	sw	zero,40(sp)
   2193c:	02012223          	sw	zero,36(sp)
   21940:	00100713          	li	a4,1
   21944:	fd9fe06f          	j	2091c <__subtf3+0x488>
   21948:	07400793          	li	a5,116
   2194c:	9d07d463          	bge	a5,a6,20b14 <__subtf3+0x680>
   21950:	00012e23          	sw	zero,28(sp)
   21954:	00012c23          	sw	zero,24(sp)
   21958:	00012a23          	sw	zero,20(sp)
   2195c:	00100793          	li	a5,1
   21960:	accff06f          	j	20c2c <__subtf3+0x798>
   21964:	07400793          	li	a5,116
   21968:	a517c6e3          	blt	a5,a7,213b4 <__subtf3+0xf20>
   2196c:	00088313          	mv	t1,a7
   21970:	89dff06f          	j	2120c <__subtf3+0xd78>

00021974 <__unordtf2>:
   21974:	00052703          	lw	a4,0(a0)
   21978:	00452e83          	lw	t4,4(a0)
   2197c:	00852e03          	lw	t3,8(a0)
   21980:	00c52503          	lw	a0,12(a0)
   21984:	00c5a603          	lw	a2,12(a1)
   21988:	000086b7          	lui	a3,0x8
   2198c:	fff68693          	add	a3,a3,-1 # 7fff <exit-0x80a1>
   21990:	01055813          	srl	a6,a0,0x10
   21994:	0005a783          	lw	a5,0(a1)
   21998:	0045a303          	lw	t1,4(a1)
   2199c:	0085a883          	lw	a7,8(a1)
   219a0:	00d87833          	and	a6,a6,a3
   219a4:	01065593          	srl	a1,a2,0x10
   219a8:	ff010113          	add	sp,sp,-16
   219ac:	00d5f5b3          	and	a1,a1,a3
   219b0:	02d81063          	bne	a6,a3,219d0 <__unordtf2+0x5c>
   219b4:	01d76733          	or	a4,a4,t4
   219b8:	01051513          	sll	a0,a0,0x10
   219bc:	01055513          	srl	a0,a0,0x10
   219c0:	01c76733          	or	a4,a4,t3
   219c4:	00a76733          	or	a4,a4,a0
   219c8:	00100513          	li	a0,1
   219cc:	02071663          	bnez	a4,219f8 <__unordtf2+0x84>
   219d0:	00008737          	lui	a4,0x8
   219d4:	fff70713          	add	a4,a4,-1 # 7fff <exit-0x80a1>
   219d8:	00000513          	li	a0,0
   219dc:	00e59e63          	bne	a1,a4,219f8 <__unordtf2+0x84>
   219e0:	0067e533          	or	a0,a5,t1
   219e4:	01061613          	sll	a2,a2,0x10
   219e8:	01156533          	or	a0,a0,a7
   219ec:	01065613          	srl	a2,a2,0x10
   219f0:	00c56533          	or	a0,a0,a2
   219f4:	00a03533          	snez	a0,a0
   219f8:	01010113          	add	sp,sp,16
   219fc:	00008067          	ret

00021a00 <__fixtfsi>:
   21a00:	00052703          	lw	a4,0(a0)
   21a04:	00452683          	lw	a3,4(a0)
   21a08:	00c52783          	lw	a5,12(a0)
   21a0c:	00852583          	lw	a1,8(a0)
   21a10:	fe010113          	add	sp,sp,-32
   21a14:	00e12023          	sw	a4,0(sp)
   21a18:	00d12223          	sw	a3,4(sp)
   21a1c:	00e12823          	sw	a4,16(sp)
   21a20:	00179693          	sll	a3,a5,0x1
   21a24:	00004737          	lui	a4,0x4
   21a28:	00b12423          	sw	a1,8(sp)
   21a2c:	00f12623          	sw	a5,12(sp)
   21a30:	00b12c23          	sw	a1,24(sp)
   21a34:	0116d693          	srl	a3,a3,0x11
   21a38:	ffe70713          	add	a4,a4,-2 # 3ffe <exit-0xc0a2>
   21a3c:	00000513          	li	a0,0
   21a40:	02d75063          	bge	a4,a3,21a60 <__fixtfsi+0x60>
   21a44:	00004737          	lui	a4,0x4
   21a48:	01d70713          	add	a4,a4,29 # 401d <exit-0xc083>
   21a4c:	01f7d813          	srl	a6,a5,0x1f
   21a50:	00d75c63          	bge	a4,a3,21a68 <__fixtfsi+0x68>
   21a54:	80000537          	lui	a0,0x80000
   21a58:	fff50513          	add	a0,a0,-1 # 7fffffff <__BSS_END__+0x7ffdc427>
   21a5c:	00a80533          	add	a0,a6,a0
   21a60:	02010113          	add	sp,sp,32
   21a64:	00008067          	ret
   21a68:	01079793          	sll	a5,a5,0x10
   21a6c:	00010737          	lui	a4,0x10
   21a70:	0107d793          	srl	a5,a5,0x10
   21a74:	00e7e7b3          	or	a5,a5,a4
   21a78:	00004737          	lui	a4,0x4
   21a7c:	06f70713          	add	a4,a4,111 # 406f <exit-0xc031>
   21a80:	40d70733          	sub	a4,a4,a3
   21a84:	40575613          	sra	a2,a4,0x5
   21a88:	00f12e23          	sw	a5,28(sp)
   21a8c:	01f77713          	and	a4,a4,31
   21a90:	02071463          	bnez	a4,21ab8 <__fixtfsi+0xb8>
   21a94:	00261613          	sll	a2,a2,0x2
   21a98:	02060793          	add	a5,a2,32
   21a9c:	00278633          	add	a2,a5,sp
   21aa0:	ff062783          	lw	a5,-16(a2)
   21aa4:	00f12823          	sw	a5,16(sp)
   21aa8:	01012503          	lw	a0,16(sp)
   21aac:	fa080ae3          	beqz	a6,21a60 <__fixtfsi+0x60>
   21ab0:	40a00533          	neg	a0,a0
   21ab4:	fadff06f          	j	21a60 <__fixtfsi+0x60>
   21ab8:	00200513          	li	a0,2
   21abc:	00000693          	li	a3,0
   21ac0:	02a61063          	bne	a2,a0,21ae0 <__fixtfsi+0xe0>
   21ac4:	02000693          	li	a3,32
   21ac8:	40e686b3          	sub	a3,a3,a4
   21acc:	00d796b3          	sll	a3,a5,a3
   21ad0:	00e5d5b3          	srl	a1,a1,a4
   21ad4:	00b6e6b3          	or	a3,a3,a1
   21ad8:	00d12823          	sw	a3,16(sp)
   21adc:	00100693          	li	a3,1
   21ae0:	00269693          	sll	a3,a3,0x2
   21ae4:	02068693          	add	a3,a3,32
   21ae8:	002686b3          	add	a3,a3,sp
   21aec:	00e7d7b3          	srl	a5,a5,a4
   21af0:	fef6a823          	sw	a5,-16(a3)
   21af4:	fb5ff06f          	j	21aa8 <__fixtfsi+0xa8>

00021af8 <__floatsitf>:
   21af8:	fd010113          	add	sp,sp,-48
   21afc:	02912223          	sw	s1,36(sp)
   21b00:	02112623          	sw	ra,44(sp)
   21b04:	02812423          	sw	s0,40(sp)
   21b08:	03212023          	sw	s2,32(sp)
   21b0c:	00050493          	mv	s1,a0
   21b10:	12058263          	beqz	a1,21c34 <__floatsitf+0x13c>
   21b14:	41f5d793          	sra	a5,a1,0x1f
   21b18:	00b7c433          	xor	s0,a5,a1
   21b1c:	40f40433          	sub	s0,s0,a5
   21b20:	00040513          	mv	a0,s0
   21b24:	01f5d913          	srl	s2,a1,0x1f
   21b28:	404000ef          	jal	21f2c <__clzsi2>
   21b2c:	00004737          	lui	a4,0x4
   21b30:	01e70713          	add	a4,a4,30 # 401e <exit-0xc082>
   21b34:	05150793          	add	a5,a0,81
   21b38:	40a70633          	sub	a2,a4,a0
   21b3c:	00812823          	sw	s0,16(sp)
   21b40:	4057d713          	sra	a4,a5,0x5
   21b44:	00012a23          	sw	zero,20(sp)
   21b48:	00012c23          	sw	zero,24(sp)
   21b4c:	00012e23          	sw	zero,28(sp)
   21b50:	01f7f793          	and	a5,a5,31
   21b54:	02078c63          	beqz	a5,21b8c <__floatsitf+0x94>
   21b58:	00200693          	li	a3,2
   21b5c:	0cd71863          	bne	a4,a3,21c2c <__floatsitf+0x134>
   21b60:	02000693          	li	a3,32
   21b64:	40f686b3          	sub	a3,a3,a5
   21b68:	00d456b3          	srl	a3,s0,a3
   21b6c:	00d12e23          	sw	a3,28(sp)
   21b70:	fff70693          	add	a3,a4,-1
   21b74:	00271713          	sll	a4,a4,0x2
   21b78:	02070713          	add	a4,a4,32
   21b7c:	00270733          	add	a4,a4,sp
   21b80:	00f41433          	sll	s0,s0,a5
   21b84:	fe872823          	sw	s0,-16(a4)
   21b88:	0340006f          	j	21bbc <__floatsitf+0xc4>
   21b8c:	00300793          	li	a5,3
   21b90:	40e787b3          	sub	a5,a5,a4
   21b94:	00279793          	sll	a5,a5,0x2
   21b98:	02078793          	add	a5,a5,32
   21b9c:	002787b3          	add	a5,a5,sp
   21ba0:	ff07a783          	lw	a5,-16(a5)
   21ba4:	00200693          	li	a3,2
   21ba8:	00f12e23          	sw	a5,28(sp)
   21bac:	00200793          	li	a5,2
   21bb0:	00f71663          	bne	a4,a5,21bbc <__floatsitf+0xc4>
   21bb4:	00812c23          	sw	s0,24(sp)
   21bb8:	00100693          	li	a3,1
   21bbc:	00269693          	sll	a3,a3,0x2
   21bc0:	00012823          	sw	zero,16(sp)
   21bc4:	00012a23          	sw	zero,20(sp)
   21bc8:	ffc68693          	add	a3,a3,-4
   21bcc:	00400793          	li	a5,4
   21bd0:	00f6e463          	bltu	a3,a5,21bd8 <__floatsitf+0xe0>
   21bd4:	00012c23          	sw	zero,24(sp)
   21bd8:	00090593          	mv	a1,s2
   21bdc:	01c12783          	lw	a5,28(sp)
   21be0:	00f59413          	sll	s0,a1,0xf
   21be4:	00c46433          	or	s0,s0,a2
   21be8:	00f11623          	sh	a5,12(sp)
   21bec:	01012783          	lw	a5,16(sp)
   21bf0:	00811723          	sh	s0,14(sp)
   21bf4:	02c12083          	lw	ra,44(sp)
   21bf8:	00f4a023          	sw	a5,0(s1)
   21bfc:	01412783          	lw	a5,20(sp)
   21c00:	02812403          	lw	s0,40(sp)
   21c04:	02012903          	lw	s2,32(sp)
   21c08:	00f4a223          	sw	a5,4(s1)
   21c0c:	01812783          	lw	a5,24(sp)
   21c10:	00048513          	mv	a0,s1
   21c14:	00f4a423          	sw	a5,8(s1)
   21c18:	00c12783          	lw	a5,12(sp)
   21c1c:	00f4a623          	sw	a5,12(s1)
   21c20:	02412483          	lw	s1,36(sp)
   21c24:	03010113          	add	sp,sp,48
   21c28:	00008067          	ret
   21c2c:	00300713          	li	a4,3
   21c30:	f41ff06f          	j	21b70 <__floatsitf+0x78>
   21c34:	00012e23          	sw	zero,28(sp)
   21c38:	00012c23          	sw	zero,24(sp)
   21c3c:	00012a23          	sw	zero,20(sp)
   21c40:	00012823          	sw	zero,16(sp)
   21c44:	00000613          	li	a2,0
   21c48:	f95ff06f          	j	21bdc <__floatsitf+0xe4>

00021c4c <__extenddftf2>:
   21c4c:	01465713          	srl	a4,a2,0x14
   21c50:	00c61793          	sll	a5,a2,0xc
   21c54:	7ff77713          	and	a4,a4,2047
   21c58:	fd010113          	add	sp,sp,-48
   21c5c:	00c7d793          	srl	a5,a5,0xc
   21c60:	00170693          	add	a3,a4,1
   21c64:	02812423          	sw	s0,40(sp)
   21c68:	02912223          	sw	s1,36(sp)
   21c6c:	03212023          	sw	s2,32(sp)
   21c70:	02112623          	sw	ra,44(sp)
   21c74:	00b12823          	sw	a1,16(sp)
   21c78:	00f12a23          	sw	a5,20(sp)
   21c7c:	00012e23          	sw	zero,28(sp)
   21c80:	00012c23          	sw	zero,24(sp)
   21c84:	7fe6f693          	and	a3,a3,2046
   21c88:	00050913          	mv	s2,a0
   21c8c:	00058413          	mv	s0,a1
   21c90:	01f65493          	srl	s1,a2,0x1f
   21c94:	08068263          	beqz	a3,21d18 <__extenddftf2+0xcc>
   21c98:	000046b7          	lui	a3,0x4
   21c9c:	c0068693          	add	a3,a3,-1024 # 3c00 <exit-0xc4a0>
   21ca0:	00d70733          	add	a4,a4,a3
   21ca4:	0047d693          	srl	a3,a5,0x4
   21ca8:	00d12e23          	sw	a3,28(sp)
   21cac:	01c79793          	sll	a5,a5,0x1c
   21cb0:	0045d693          	srl	a3,a1,0x4
   21cb4:	00d7e7b3          	or	a5,a5,a3
   21cb8:	01c59413          	sll	s0,a1,0x1c
   21cbc:	00f12c23          	sw	a5,24(sp)
   21cc0:	00812a23          	sw	s0,20(sp)
   21cc4:	00012823          	sw	zero,16(sp)
   21cc8:	01c12783          	lw	a5,28(sp)
   21ccc:	00f49493          	sll	s1,s1,0xf
   21cd0:	00e4e4b3          	or	s1,s1,a4
   21cd4:	00f11623          	sh	a5,12(sp)
   21cd8:	01012783          	lw	a5,16(sp)
   21cdc:	00911723          	sh	s1,14(sp)
   21ce0:	02c12083          	lw	ra,44(sp)
   21ce4:	00f92023          	sw	a5,0(s2)
   21ce8:	01412783          	lw	a5,20(sp)
   21cec:	02812403          	lw	s0,40(sp)
   21cf0:	02412483          	lw	s1,36(sp)
   21cf4:	00f92223          	sw	a5,4(s2)
   21cf8:	01812783          	lw	a5,24(sp)
   21cfc:	00090513          	mv	a0,s2
   21d00:	00f92423          	sw	a5,8(s2)
   21d04:	00c12783          	lw	a5,12(sp)
   21d08:	00f92623          	sw	a5,12(s2)
   21d0c:	02012903          	lw	s2,32(sp)
   21d10:	03010113          	add	sp,sp,48
   21d14:	00008067          	ret
   21d18:	00b7e533          	or	a0,a5,a1
   21d1c:	0e071e63          	bnez	a4,21e18 <__extenddftf2+0x1cc>
   21d20:	fa0504e3          	beqz	a0,21cc8 <__extenddftf2+0x7c>
   21d24:	04078e63          	beqz	a5,21d80 <__extenddftf2+0x134>
   21d28:	00078513          	mv	a0,a5
   21d2c:	200000ef          	jal	21f2c <__clzsi2>
   21d30:	03150693          	add	a3,a0,49
   21d34:	4056d713          	sra	a4,a3,0x5
   21d38:	01f6f693          	and	a3,a3,31
   21d3c:	40e007b3          	neg	a5,a4
   21d40:	04068663          	beqz	a3,21d8c <__extenddftf2+0x140>
   21d44:	00279793          	sll	a5,a5,0x2
   21d48:	00c78613          	add	a2,a5,12
   21d4c:	02000813          	li	a6,32
   21d50:	01010313          	add	t1,sp,16
   21d54:	40d80833          	sub	a6,a6,a3
   21d58:	00c30633          	add	a2,t1,a2
   21d5c:	40f007b3          	neg	a5,a5
   21d60:	08c31a63          	bne	t1,a2,21df4 <__extenddftf2+0x1a8>
   21d64:	fff70793          	add	a5,a4,-1
   21d68:	00271713          	sll	a4,a4,0x2
   21d6c:	02070713          	add	a4,a4,32
   21d70:	00270733          	add	a4,a4,sp
   21d74:	00d416b3          	sll	a3,s0,a3
   21d78:	fed72823          	sw	a3,-16(a4)
   21d7c:	0380006f          	j	21db4 <__extenddftf2+0x168>
   21d80:	1ac000ef          	jal	21f2c <__clzsi2>
   21d84:	02050513          	add	a0,a0,32
   21d88:	fa9ff06f          	j	21d30 <__extenddftf2+0xe4>
   21d8c:	01c10693          	add	a3,sp,28
   21d90:	00279793          	sll	a5,a5,0x2
   21d94:	00300613          	li	a2,3
   21d98:	00f685b3          	add	a1,a3,a5
   21d9c:	0005a583          	lw	a1,0(a1)
   21da0:	fff60613          	add	a2,a2,-1
   21da4:	ffc68693          	add	a3,a3,-4
   21da8:	00b6a223          	sw	a1,4(a3)
   21dac:	fee656e3          	bge	a2,a4,21d98 <__extenddftf2+0x14c>
   21db0:	fff70793          	add	a5,a4,-1
   21db4:	00178793          	add	a5,a5,1
   21db8:	00279793          	sll	a5,a5,0x2
   21dbc:	00800693          	li	a3,8
   21dc0:	01010713          	add	a4,sp,16
   21dc4:	00d7ea63          	bltu	a5,a3,21dd8 <__extenddftf2+0x18c>
   21dc8:	00012823          	sw	zero,16(sp)
   21dcc:	00072223          	sw	zero,4(a4)
   21dd0:	ff878793          	add	a5,a5,-8
   21dd4:	01810713          	add	a4,sp,24
   21dd8:	00400693          	li	a3,4
   21ddc:	00d7e463          	bltu	a5,a3,21de4 <__extenddftf2+0x198>
   21de0:	00072023          	sw	zero,0(a4)
   21de4:	00004737          	lui	a4,0x4
   21de8:	c0c70713          	add	a4,a4,-1012 # 3c0c <exit-0xc494>
   21dec:	40a70733          	sub	a4,a4,a0
   21df0:	ed9ff06f          	j	21cc8 <__extenddftf2+0x7c>
   21df4:	00062583          	lw	a1,0(a2)
   21df8:	ffc62883          	lw	a7,-4(a2)
   21dfc:	00f60e33          	add	t3,a2,a5
   21e00:	00d595b3          	sll	a1,a1,a3
   21e04:	0108d8b3          	srl	a7,a7,a6
   21e08:	0115e5b3          	or	a1,a1,a7
   21e0c:	00be2023          	sw	a1,0(t3)
   21e10:	ffc60613          	add	a2,a2,-4
   21e14:	f4dff06f          	j	21d60 <__extenddftf2+0x114>
   21e18:	02050863          	beqz	a0,21e48 <__extenddftf2+0x1fc>
   21e1c:	01c79713          	sll	a4,a5,0x1c
   21e20:	0045d693          	srl	a3,a1,0x4
   21e24:	00d76733          	or	a4,a4,a3
   21e28:	00e12c23          	sw	a4,24(sp)
   21e2c:	0047d793          	srl	a5,a5,0x4
   21e30:	00008737          	lui	a4,0x8
   21e34:	01c59413          	sll	s0,a1,0x1c
   21e38:	00e7e7b3          	or	a5,a5,a4
   21e3c:	00812a23          	sw	s0,20(sp)
   21e40:	00012823          	sw	zero,16(sp)
   21e44:	00f12e23          	sw	a5,28(sp)
   21e48:	00008737          	lui	a4,0x8
   21e4c:	fff70713          	add	a4,a4,-1 # 7fff <exit-0x80a1>
   21e50:	e79ff06f          	j	21cc8 <__extenddftf2+0x7c>

00021e54 <__mulsi3>:
   21e54:	00050613          	mv	a2,a0
   21e58:	00000513          	li	a0,0
   21e5c:	0015f693          	and	a3,a1,1
   21e60:	00068463          	beqz	a3,21e68 <__mulsi3+0x14>
   21e64:	00c50533          	add	a0,a0,a2
   21e68:	0015d593          	srl	a1,a1,0x1
   21e6c:	00161613          	sll	a2,a2,0x1
   21e70:	fe0596e3          	bnez	a1,21e5c <__mulsi3+0x8>
   21e74:	00008067          	ret

00021e78 <__divsi3>:
   21e78:	06054063          	bltz	a0,21ed8 <__umodsi3+0x10>
   21e7c:	0605c663          	bltz	a1,21ee8 <__umodsi3+0x20>

00021e80 <__hidden___udivsi3>:
   21e80:	00058613          	mv	a2,a1
   21e84:	00050593          	mv	a1,a0
   21e88:	fff00513          	li	a0,-1
   21e8c:	02060c63          	beqz	a2,21ec4 <__hidden___udivsi3+0x44>
   21e90:	00100693          	li	a3,1
   21e94:	00b67a63          	bgeu	a2,a1,21ea8 <__hidden___udivsi3+0x28>
   21e98:	00c05863          	blez	a2,21ea8 <__hidden___udivsi3+0x28>
   21e9c:	00161613          	sll	a2,a2,0x1
   21ea0:	00169693          	sll	a3,a3,0x1
   21ea4:	feb66ae3          	bltu	a2,a1,21e98 <__hidden___udivsi3+0x18>
   21ea8:	00000513          	li	a0,0
   21eac:	00c5e663          	bltu	a1,a2,21eb8 <__hidden___udivsi3+0x38>
   21eb0:	40c585b3          	sub	a1,a1,a2
   21eb4:	00d56533          	or	a0,a0,a3
   21eb8:	0016d693          	srl	a3,a3,0x1
   21ebc:	00165613          	srl	a2,a2,0x1
   21ec0:	fe0696e3          	bnez	a3,21eac <__hidden___udivsi3+0x2c>
   21ec4:	00008067          	ret

00021ec8 <__umodsi3>:
   21ec8:	00008293          	mv	t0,ra
   21ecc:	fb5ff0ef          	jal	21e80 <__hidden___udivsi3>
   21ed0:	00058513          	mv	a0,a1
   21ed4:	00028067          	jr	t0
   21ed8:	40a00533          	neg	a0,a0
   21edc:	00b04863          	bgtz	a1,21eec <__umodsi3+0x24>
   21ee0:	40b005b3          	neg	a1,a1
   21ee4:	f9dff06f          	j	21e80 <__hidden___udivsi3>
   21ee8:	40b005b3          	neg	a1,a1
   21eec:	00008293          	mv	t0,ra
   21ef0:	f91ff0ef          	jal	21e80 <__hidden___udivsi3>
   21ef4:	40a00533          	neg	a0,a0
   21ef8:	00028067          	jr	t0

00021efc <__modsi3>:
   21efc:	00008293          	mv	t0,ra
   21f00:	0005ca63          	bltz	a1,21f14 <__modsi3+0x18>
   21f04:	00054c63          	bltz	a0,21f1c <__modsi3+0x20>
   21f08:	f79ff0ef          	jal	21e80 <__hidden___udivsi3>
   21f0c:	00058513          	mv	a0,a1
   21f10:	00028067          	jr	t0
   21f14:	40b005b3          	neg	a1,a1
   21f18:	fe0558e3          	bgez	a0,21f08 <__modsi3+0xc>
   21f1c:	40a00533          	neg	a0,a0
   21f20:	f61ff0ef          	jal	21e80 <__hidden___udivsi3>
   21f24:	40b00533          	neg	a0,a1
   21f28:	00028067          	jr	t0

00021f2c <__clzsi2>:
   21f2c:	000107b7          	lui	a5,0x10
   21f30:	02f57a63          	bgeu	a0,a5,21f64 <__clzsi2+0x38>
   21f34:	10053793          	sltiu	a5,a0,256
   21f38:	0017b793          	seqz	a5,a5
   21f3c:	00379793          	sll	a5,a5,0x3
   21f40:	00022737          	lui	a4,0x22
   21f44:	02000693          	li	a3,32
   21f48:	40f686b3          	sub	a3,a3,a5
   21f4c:	00f55533          	srl	a0,a0,a5
   21f50:	75870793          	add	a5,a4,1880 # 22758 <__clz_tab>
   21f54:	00a787b3          	add	a5,a5,a0
   21f58:	0007c503          	lbu	a0,0(a5) # 10000 <exit-0xa0>
   21f5c:	40a68533          	sub	a0,a3,a0
   21f60:	00008067          	ret
   21f64:	01000737          	lui	a4,0x1000
   21f68:	01800793          	li	a5,24
   21f6c:	fce57ae3          	bgeu	a0,a4,21f40 <__clzsi2+0x14>
   21f70:	01000793          	li	a5,16
   21f74:	fcdff06f          	j	21f40 <__clzsi2+0x14>
