
build/heap-buffer-under-write:     file format elf32-littleriscv


Disassembly of section .text:

000100a0 <_ZN9__gnu_cxx9__freeresEv>:
   100a0:	ff010113          	add	sp,sp,-16
   100a4:	00812423          	sw	s0,8(sp)
   100a8:	00818413          	add	s0,gp,8 # 444c0 <_ZN12_GLOBAL__N_114emergency_poolE>
   100ac:	00842503          	lw	a0,8(s0)
   100b0:	00112623          	sw	ra,12(sp)
   100b4:	00050663          	beqz	a0,100c0 <_ZN9__gnu_cxx9__freeresEv+0x20>
   100b8:	224140ef          	jal	242dc <free>
   100bc:	00042423          	sw	zero,8(s0)
   100c0:	00c12083          	lw	ra,12(sp)
   100c4:	00812403          	lw	s0,8(sp)
   100c8:	01010113          	add	sp,sp,16
   100cc:	00008067          	ret

000100d0 <_ZSt21__throw_bad_exceptionv>:
   100d0:	ff010113          	add	sp,sp,-16
   100d4:	00400513          	li	a0,4
   100d8:	00112623          	sw	ra,12(sp)
   100dc:	331000ef          	jal	10c0c <__cxa_allocate_exception>
   100e0:	0003b7b7          	lui	a5,0x3b
   100e4:	28478793          	add	a5,a5,644 # 3b284 <_ZTVSt13bad_exception+0x8>
   100e8:	00011637          	lui	a2,0x11
   100ec:	0003b5b7          	lui	a1,0x3b
   100f0:	00f52023          	sw	a5,0(a0)
   100f4:	d7c60613          	add	a2,a2,-644 # 10d7c <_ZNSt13bad_exceptionD1Ev>
   100f8:	21858593          	add	a1,a1,536 # 3b218 <_ZTISt13bad_exception>
   100fc:	7b0010ef          	jal	118ac <__cxa_throw>

00010100 <_ZSt17__throw_bad_allocv>:
   10100:	ff010113          	add	sp,sp,-16
   10104:	00400513          	li	a0,4
   10108:	00112623          	sw	ra,12(sp)
   1010c:	301000ef          	jal	10c0c <__cxa_allocate_exception>
   10110:	0003b7b7          	lui	a5,0x3b
   10114:	1e878793          	add	a5,a5,488 # 3b1e8 <_ZTVSt9bad_alloc+0x8>
   10118:	00011637          	lui	a2,0x11
   1011c:	0003b5b7          	lui	a1,0x3b
   10120:	00f52023          	sw	a5,0(a0)
   10124:	aa860613          	add	a2,a2,-1368 # 10aa8 <_ZNSt9bad_allocD1Ev>
   10128:	1d458593          	add	a1,a1,468 # 3b1d4 <_ZTISt9bad_alloc>
   1012c:	780010ef          	jal	118ac <__cxa_throw>

00010130 <_ZSt28__throw_bad_array_new_lengthv>:
   10130:	ff010113          	add	sp,sp,-16
   10134:	00400513          	li	a0,4
   10138:	00112623          	sw	ra,12(sp)
   1013c:	2d1000ef          	jal	10c0c <__cxa_allocate_exception>
   10140:	0003b7b7          	lui	a5,0x3b
   10144:	3ac78793          	add	a5,a5,940 # 3b3ac <_ZTVSt20bad_array_new_length+0x8>
   10148:	00012637          	lui	a2,0x12
   1014c:	0003b5b7          	lui	a1,0x3b
   10150:	00f52023          	sw	a5,0(a0)
   10154:	18c60613          	add	a2,a2,396 # 1218c <_ZNSt20bad_array_new_lengthD1Ev>
   10158:	39858593          	add	a1,a1,920 # 3b398 <_ZTISt20bad_array_new_length>
   1015c:	750010ef          	jal	118ac <__cxa_throw>

00010160 <_ZSt16__throw_bad_castv>:
   10160:	ff010113          	add	sp,sp,-16
   10164:	00400513          	li	a0,4
   10168:	00112623          	sw	ra,12(sp)
   1016c:	2a1000ef          	jal	10c0c <__cxa_allocate_exception>
   10170:	0003b7b7          	lui	a5,0x3b
   10174:	3d878793          	add	a5,a5,984 # 3b3d8 <_ZTVSt8bad_cast+0x8>
   10178:	00012637          	lui	a2,0x12
   1017c:	0003b5b7          	lui	a1,0x3b
   10180:	00f52023          	sw	a5,0(a0)
   10184:	1d460613          	add	a2,a2,468 # 121d4 <_ZNSt8bad_castD1Ev>
   10188:	3c458593          	add	a1,a1,964 # 3b3c4 <_ZTISt8bad_cast>
   1018c:	720010ef          	jal	118ac <__cxa_throw>

00010190 <_ZSt18__throw_bad_typeidv>:
   10190:	ff010113          	add	sp,sp,-16
   10194:	00400513          	li	a0,4
   10198:	00112623          	sw	ra,12(sp)
   1019c:	271000ef          	jal	10c0c <__cxa_allocate_exception>
   101a0:	0003b7b7          	lui	a5,0x3b
   101a4:	40878793          	add	a5,a5,1032 # 3b408 <_ZTVSt10bad_typeid+0x8>
   101a8:	00012637          	lui	a2,0x12
   101ac:	0003b5b7          	lui	a1,0x3b
   101b0:	00f52023          	sw	a5,0(a0)
   101b4:	21c60613          	add	a2,a2,540 # 1221c <_ZNSt10bad_typeidD1Ev>
   101b8:	3f458593          	add	a1,a1,1012 # 3b3f4 <_ZTISt10bad_typeid>
   101bc:	6f0010ef          	jal	118ac <__cxa_throw>

000101c0 <_ZSt19__throw_logic_errorPKc>:
   101c0:	fe010113          	add	sp,sp,-32
   101c4:	00a12623          	sw	a0,12(sp)
   101c8:	00800513          	li	a0,8
   101cc:	00812c23          	sw	s0,24(sp)
   101d0:	00112e23          	sw	ra,28(sp)
   101d4:	00912a23          	sw	s1,20(sp)
   101d8:	235000ef          	jal	10c0c <__cxa_allocate_exception>
   101dc:	00c12583          	lw	a1,12(sp)
   101e0:	00050413          	mv	s0,a0
   101e4:	629080ef          	jal	1900c <_ZNSt11logic_errorC1EPKc>
   101e8:	00019637          	lui	a2,0x19
   101ec:	0003c5b7          	lui	a1,0x3c
   101f0:	9dc60613          	add	a2,a2,-1572 # 189dc <_ZNSt11logic_errorD1Ev>
   101f4:	12858593          	add	a1,a1,296 # 3c128 <_ZTISt11logic_error>
   101f8:	00040513          	mv	a0,s0
   101fc:	6b0010ef          	jal	118ac <__cxa_throw>
   10200:	00050493          	mv	s1,a0
   10204:	00040513          	mv	a0,s0
   10208:	25d000ef          	jal	10c64 <__cxa_free_exception>
   1020c:	00048513          	mv	a0,s1
   10210:	598120ef          	jal	227a8 <_Unwind_Resume>

00010214 <_ZSt20__throw_domain_errorPKc>:
   10214:	fe010113          	add	sp,sp,-32
   10218:	00a12623          	sw	a0,12(sp)
   1021c:	00800513          	li	a0,8
   10220:	00812c23          	sw	s0,24(sp)
   10224:	00112e23          	sw	ra,28(sp)
   10228:	00912a23          	sw	s1,20(sp)
   1022c:	1e1000ef          	jal	10c0c <__cxa_allocate_exception>
   10230:	00c12583          	lw	a1,12(sp)
   10234:	00050413          	mv	s0,a0
   10238:	62d080ef          	jal	19064 <_ZNSt12domain_errorC1EPKc>
   1023c:	00019637          	lui	a2,0x19
   10240:	0003c5b7          	lui	a1,0x3c
   10244:	a1460613          	add	a2,a2,-1516 # 18a14 <_ZNSt12domain_errorD1Ev>
   10248:	14858593          	add	a1,a1,328 # 3c148 <_ZTISt12domain_error>
   1024c:	00040513          	mv	a0,s0
   10250:	65c010ef          	jal	118ac <__cxa_throw>
   10254:	00050493          	mv	s1,a0
   10258:	00040513          	mv	a0,s0
   1025c:	209000ef          	jal	10c64 <__cxa_free_exception>
   10260:	00048513          	mv	a0,s1
   10264:	544120ef          	jal	227a8 <_Unwind_Resume>

00010268 <_ZSt24__throw_invalid_argumentPKc>:
   10268:	fe010113          	add	sp,sp,-32
   1026c:	00a12623          	sw	a0,12(sp)
   10270:	00800513          	li	a0,8
   10274:	00812c23          	sw	s0,24(sp)
   10278:	00112e23          	sw	ra,28(sp)
   1027c:	00912a23          	sw	s1,20(sp)
   10280:	18d000ef          	jal	10c0c <__cxa_allocate_exception>
   10284:	00c12583          	lw	a1,12(sp)
   10288:	00050413          	mv	s0,a0
   1028c:	609080ef          	jal	19094 <_ZNSt16invalid_argumentC1EPKc>
   10290:	00019637          	lui	a2,0x19
   10294:	0003c5b7          	lui	a1,0x3c
   10298:	a2460613          	add	a2,a2,-1500 # 18a24 <_ZNSt16invalid_argumentD1Ev>
   1029c:	16c58593          	add	a1,a1,364 # 3c16c <_ZTISt16invalid_argument>
   102a0:	00040513          	mv	a0,s0
   102a4:	608010ef          	jal	118ac <__cxa_throw>
   102a8:	00050493          	mv	s1,a0
   102ac:	00040513          	mv	a0,s0
   102b0:	1b5000ef          	jal	10c64 <__cxa_free_exception>
   102b4:	00048513          	mv	a0,s1
   102b8:	4f0120ef          	jal	227a8 <_Unwind_Resume>

000102bc <_ZSt20__throw_length_errorPKc>:
   102bc:	fe010113          	add	sp,sp,-32
   102c0:	00a12623          	sw	a0,12(sp)
   102c4:	00800513          	li	a0,8
   102c8:	00812c23          	sw	s0,24(sp)
   102cc:	00112e23          	sw	ra,28(sp)
   102d0:	00912a23          	sw	s1,20(sp)
   102d4:	139000ef          	jal	10c0c <__cxa_allocate_exception>
   102d8:	00c12583          	lw	a1,12(sp)
   102dc:	00050413          	mv	s0,a0
   102e0:	5e5080ef          	jal	190c4 <_ZNSt12length_errorC1EPKc>
   102e4:	00019637          	lui	a2,0x19
   102e8:	0003c5b7          	lui	a1,0x3c
   102ec:	a3460613          	add	a2,a2,-1484 # 18a34 <_ZNSt12length_errorD1Ev>
   102f0:	18c58593          	add	a1,a1,396 # 3c18c <_ZTISt12length_error>
   102f4:	00040513          	mv	a0,s0
   102f8:	5b4010ef          	jal	118ac <__cxa_throw>
   102fc:	00050493          	mv	s1,a0
   10300:	00040513          	mv	a0,s0
   10304:	161000ef          	jal	10c64 <__cxa_free_exception>
   10308:	00048513          	mv	a0,s1
   1030c:	49c120ef          	jal	227a8 <_Unwind_Resume>

00010310 <_ZSt20__throw_out_of_rangePKc>:
   10310:	fe010113          	add	sp,sp,-32
   10314:	00a12623          	sw	a0,12(sp)
   10318:	00800513          	li	a0,8
   1031c:	00812c23          	sw	s0,24(sp)
   10320:	00112e23          	sw	ra,28(sp)
   10324:	00912a23          	sw	s1,20(sp)
   10328:	0e5000ef          	jal	10c0c <__cxa_allocate_exception>
   1032c:	00c12583          	lw	a1,12(sp)
   10330:	00050413          	mv	s0,a0
   10334:	5c1080ef          	jal	190f4 <_ZNSt12out_of_rangeC1EPKc>
   10338:	00019637          	lui	a2,0x19
   1033c:	0003c5b7          	lui	a1,0x3c
   10340:	a4460613          	add	a2,a2,-1468 # 18a44 <_ZNSt12out_of_rangeD1Ev>
   10344:	1ac58593          	add	a1,a1,428 # 3c1ac <_ZTISt12out_of_range>
   10348:	00040513          	mv	a0,s0
   1034c:	560010ef          	jal	118ac <__cxa_throw>
   10350:	00050493          	mv	s1,a0
   10354:	00040513          	mv	a0,s0
   10358:	10d000ef          	jal	10c64 <__cxa_free_exception>
   1035c:	00048513          	mv	a0,s1
   10360:	448120ef          	jal	227a8 <_Unwind_Resume>

00010364 <_ZSt21__throw_runtime_errorPKc>:
   10364:	fe010113          	add	sp,sp,-32
   10368:	00a12623          	sw	a0,12(sp)
   1036c:	00800513          	li	a0,8
   10370:	00812c23          	sw	s0,24(sp)
   10374:	00112e23          	sw	ra,28(sp)
   10378:	00912a23          	sw	s1,20(sp)
   1037c:	091000ef          	jal	10c0c <__cxa_allocate_exception>
   10380:	00c12583          	lw	a1,12(sp)
   10384:	00050413          	mv	s0,a0
   10388:	59d080ef          	jal	19124 <_ZNSt13runtime_errorC1EPKc>
   1038c:	00019637          	lui	a2,0x19
   10390:	0003c5b7          	lui	a1,0x3c
   10394:	a5460613          	add	a2,a2,-1452 # 18a54 <_ZNSt13runtime_errorD1Ev>
   10398:	1cc58593          	add	a1,a1,460 # 3c1cc <_ZTISt13runtime_error>
   1039c:	00040513          	mv	a0,s0
   103a0:	50c010ef          	jal	118ac <__cxa_throw>
   103a4:	00050493          	mv	s1,a0
   103a8:	00040513          	mv	a0,s0
   103ac:	0b9000ef          	jal	10c64 <__cxa_free_exception>
   103b0:	00048513          	mv	a0,s1
   103b4:	3f4120ef          	jal	227a8 <_Unwind_Resume>

000103b8 <_ZSt19__throw_range_errorPKc>:
   103b8:	fe010113          	add	sp,sp,-32
   103bc:	00a12623          	sw	a0,12(sp)
   103c0:	00800513          	li	a0,8
   103c4:	00812c23          	sw	s0,24(sp)
   103c8:	00112e23          	sw	ra,28(sp)
   103cc:	00912a23          	sw	s1,20(sp)
   103d0:	03d000ef          	jal	10c0c <__cxa_allocate_exception>
   103d4:	00c12583          	lw	a1,12(sp)
   103d8:	00050413          	mv	s0,a0
   103dc:	5a1080ef          	jal	1917c <_ZNSt11range_errorC1EPKc>
   103e0:	00019637          	lui	a2,0x19
   103e4:	0003c5b7          	lui	a1,0x3c
   103e8:	a8c60613          	add	a2,a2,-1396 # 18a8c <_ZNSt11range_errorD1Ev>
   103ec:	1e858593          	add	a1,a1,488 # 3c1e8 <_ZTISt11range_error>
   103f0:	00040513          	mv	a0,s0
   103f4:	4b8010ef          	jal	118ac <__cxa_throw>
   103f8:	00050493          	mv	s1,a0
   103fc:	00040513          	mv	a0,s0
   10400:	065000ef          	jal	10c64 <__cxa_free_exception>
   10404:	00048513          	mv	a0,s1
   10408:	3a0120ef          	jal	227a8 <_Unwind_Resume>

0001040c <_ZSt22__throw_overflow_errorPKc>:
   1040c:	fe010113          	add	sp,sp,-32
   10410:	00a12623          	sw	a0,12(sp)
   10414:	00800513          	li	a0,8
   10418:	00812c23          	sw	s0,24(sp)
   1041c:	00112e23          	sw	ra,28(sp)
   10420:	00912a23          	sw	s1,20(sp)
   10424:	7e8000ef          	jal	10c0c <__cxa_allocate_exception>
   10428:	00c12583          	lw	a1,12(sp)
   1042c:	00050413          	mv	s0,a0
   10430:	57d080ef          	jal	191ac <_ZNSt14overflow_errorC1EPKc>
   10434:	00019637          	lui	a2,0x19
   10438:	0003c5b7          	lui	a1,0x3c
   1043c:	a9c60613          	add	a2,a2,-1380 # 18a9c <_ZNSt14overflow_errorD1Ev>
   10440:	20858593          	add	a1,a1,520 # 3c208 <_ZTISt14overflow_error>
   10444:	00040513          	mv	a0,s0
   10448:	464010ef          	jal	118ac <__cxa_throw>
   1044c:	00050493          	mv	s1,a0
   10450:	00040513          	mv	a0,s0
   10454:	011000ef          	jal	10c64 <__cxa_free_exception>
   10458:	00048513          	mv	a0,s1
   1045c:	34c120ef          	jal	227a8 <_Unwind_Resume>

00010460 <_ZSt23__throw_underflow_errorPKc>:
   10460:	fe010113          	add	sp,sp,-32
   10464:	00a12623          	sw	a0,12(sp)
   10468:	00800513          	li	a0,8
   1046c:	00812c23          	sw	s0,24(sp)
   10470:	00112e23          	sw	ra,28(sp)
   10474:	00912a23          	sw	s1,20(sp)
   10478:	794000ef          	jal	10c0c <__cxa_allocate_exception>
   1047c:	00c12583          	lw	a1,12(sp)
   10480:	00050413          	mv	s0,a0
   10484:	559080ef          	jal	191dc <_ZNSt15underflow_errorC1EPKc>
   10488:	00019637          	lui	a2,0x19
   1048c:	0003c5b7          	lui	a1,0x3c
   10490:	aac60613          	add	a2,a2,-1364 # 18aac <_ZNSt15underflow_errorD1Ev>
   10494:	22858593          	add	a1,a1,552 # 3c228 <_ZTISt15underflow_error>
   10498:	00040513          	mv	a0,s0
   1049c:	410010ef          	jal	118ac <__cxa_throw>
   104a0:	00050493          	mv	s1,a0
   104a4:	00040513          	mv	a0,s0
   104a8:	7bc000ef          	jal	10c64 <__cxa_free_exception>
   104ac:	00048513          	mv	a0,s1
   104b0:	2f8120ef          	jal	227a8 <_Unwind_Resume>

000104b4 <_ZNSt7__cxx1112basic_stringIcSt11char_traitsIcESaIcEE15_M_replace_coldEPcjPKcjj>:
   104b4:	fe010113          	add	sp,sp,-32
   104b8:	00812c23          	sw	s0,24(sp)
   104bc:	00912a23          	sw	s1,20(sp)
   104c0:	01212823          	sw	s2,16(sp)
   104c4:	01312623          	sw	s3,12(sp)
   104c8:	01412423          	sw	s4,8(sp)
   104cc:	00112e23          	sw	ra,28(sp)
   104d0:	00058913          	mv	s2,a1
   104d4:	00060993          	mv	s3,a2
   104d8:	00068413          	mv	s0,a3
   104dc:	00070493          	mv	s1,a4
   104e0:	00078a13          	mv	s4,a5
   104e4:	00070c63          	beqz	a4,104fc <_ZNSt7__cxx1112basic_stringIcSt11char_traitsIcESaIcEE15_M_replace_coldEPcjPKcjj+0x48>
   104e8:	0ee66463          	bltu	a2,a4,105d0 <_ZNSt7__cxx1112basic_stringIcSt11char_traitsIcESaIcEE15_M_replace_coldEPcjPKcjj+0x11c>
   104ec:	00070613          	mv	a2,a4
   104f0:	00068593          	mv	a1,a3
   104f4:	00090513          	mv	a0,s2
   104f8:	3740d0ef          	jal	1d86c <_ZNSt7__cxx1112basic_stringIcSt11char_traitsIcESaIcEE7_S_moveEPcPKcj>
   104fc:	020a1263          	bnez	s4,10520 <_ZNSt7__cxx1112basic_stringIcSt11char_traitsIcESaIcEE15_M_replace_coldEPcjPKcjj+0x6c>
   10500:	01c12083          	lw	ra,28(sp)
   10504:	01812403          	lw	s0,24(sp)
   10508:	01412483          	lw	s1,20(sp)
   1050c:	01012903          	lw	s2,16(sp)
   10510:	00c12983          	lw	s3,12(sp)
   10514:	00812a03          	lw	s4,8(sp)
   10518:	02010113          	add	sp,sp,32
   1051c:	00008067          	ret
   10520:	ff3480e3          	beq	s1,s3,10500 <_ZNSt7__cxx1112basic_stringIcSt11char_traitsIcESaIcEE15_M_replace_coldEPcjPKcjj+0x4c>
   10524:	000a0613          	mv	a2,s4
   10528:	013905b3          	add	a1,s2,s3
   1052c:	00990533          	add	a0,s2,s1
   10530:	33c0d0ef          	jal	1d86c <_ZNSt7__cxx1112basic_stringIcSt11char_traitsIcESaIcEE7_S_moveEPcPKcj>
   10534:	fc99f6e3          	bgeu	s3,s1,10500 <_ZNSt7__cxx1112basic_stringIcSt11char_traitsIcESaIcEE15_M_replace_coldEPcjPKcjj+0x4c>
   10538:	013907b3          	add	a5,s2,s3
   1053c:	00940733          	add	a4,s0,s1
   10540:	02e7e863          	bltu	a5,a4,10570 <_ZNSt7__cxx1112basic_stringIcSt11char_traitsIcESaIcEE15_M_replace_coldEPcjPKcjj+0xbc>
   10544:	00040593          	mv	a1,s0
   10548:	01812403          	lw	s0,24(sp)
   1054c:	01c12083          	lw	ra,28(sp)
   10550:	00c12983          	lw	s3,12(sp)
   10554:	00812a03          	lw	s4,8(sp)
   10558:	00048613          	mv	a2,s1
   1055c:	00090513          	mv	a0,s2
   10560:	01412483          	lw	s1,20(sp)
   10564:	01012903          	lw	s2,16(sp)
   10568:	02010113          	add	sp,sp,32
   1056c:	3000d06f          	j	1d86c <_ZNSt7__cxx1112basic_stringIcSt11char_traitsIcESaIcEE7_S_moveEPcPKcj>
   10570:	02f46e63          	bltu	s0,a5,105ac <_ZNSt7__cxx1112basic_stringIcSt11char_traitsIcESaIcEE15_M_replace_coldEPcjPKcjj+0xf8>
   10574:	41240433          	sub	s0,s0,s2
   10578:	41340433          	sub	s0,s0,s3
   1057c:	00940433          	add	s0,s0,s1
   10580:	00048613          	mv	a2,s1
   10584:	008905b3          	add	a1,s2,s0
   10588:	00090513          	mv	a0,s2
   1058c:	01812403          	lw	s0,24(sp)
   10590:	01c12083          	lw	ra,28(sp)
   10594:	01412483          	lw	s1,20(sp)
   10598:	01012903          	lw	s2,16(sp)
   1059c:	00c12983          	lw	s3,12(sp)
   105a0:	00812a03          	lw	s4,8(sp)
   105a4:	02010113          	add	sp,sp,32
   105a8:	2ac0d06f          	j	1d854 <_ZNSt7__cxx1112basic_stringIcSt11char_traitsIcESaIcEE7_S_copyEPcPKcj>
   105ac:	408789b3          	sub	s3,a5,s0
   105b0:	00098613          	mv	a2,s3
   105b4:	00040593          	mv	a1,s0
   105b8:	00090513          	mv	a0,s2
   105bc:	2b00d0ef          	jal	1d86c <_ZNSt7__cxx1112basic_stringIcSt11char_traitsIcESaIcEE7_S_moveEPcPKcj>
   105c0:	41348633          	sub	a2,s1,s3
   105c4:	009905b3          	add	a1,s2,s1
   105c8:	01390533          	add	a0,s2,s3
   105cc:	fc1ff06f          	j	1058c <_ZNSt7__cxx1112basic_stringIcSt11char_traitsIcESaIcEE15_M_replace_coldEPcjPKcjj+0xd8>
   105d0:	f4079ae3          	bnez	a5,10524 <_ZNSt7__cxx1112basic_stringIcSt11char_traitsIcESaIcEE15_M_replace_coldEPcjPKcjj+0x70>
   105d4:	f65ff06f          	j	10538 <_ZNSt7__cxx1112basic_stringIcSt11char_traitsIcESaIcEE15_M_replace_coldEPcjPKcjj+0x84>

000105d8 <exit>:
   105d8:	ff010113          	add	sp,sp,-16
   105dc:	00000593          	li	a1,0
   105e0:	00812423          	sw	s0,8(sp)
   105e4:	00112623          	sw	ra,12(sp)
   105e8:	00050413          	mv	s0,a0
   105ec:	1bc170ef          	jal	277a8 <__call_exitprocs>
   105f0:	fd41a783          	lw	a5,-44(gp) # 4448c <__stdio_exit_handler>
   105f4:	00078463          	beqz	a5,105fc <exit+0x24>
   105f8:	000780e7          	jalr	a5
   105fc:	00040513          	mv	a0,s0
   10600:	1e1230ef          	jal	33fe0 <_exit>

00010604 <_GLOBAL__sub_I__ZN9__gnu_cxx9__freeresEv>:
   10604:	fb010113          	add	sp,sp,-80
   10608:	04912223          	sw	s1,68(sp)
   1060c:	0003a537          	lui	a0,0x3a
   10610:	00818793          	add	a5,gp,8 # 444c0 <_ZN12_GLOBAL__N_114emergency_poolE>
   10614:	04812423          	sw	s0,72(sp)
   10618:	03412c23          	sw	s4,56(sp)
   1061c:	03512a23          	sw	s5,52(sp)
   10620:	04112623          	sw	ra,76(sp)
   10624:	05212023          	sw	s2,64(sp)
   10628:	03312e23          	sw	s3,60(sp)
   1062c:	39450513          	add	a0,a0,916 # 3a394 <__clzsi2+0x140>
   10630:	0007a223          	sw	zero,4(a5)
   10634:	0007a423          	sw	zero,8(a5)
   10638:	0007a623          	sw	zero,12(a5)
   1063c:	329130ef          	jal	24164 <getenv>
   10640:	00f00793          	li	a5,15
   10644:	00f12823          	sw	a5,16(sp)
   10648:	0003a7b7          	lui	a5,0x3a
   1064c:	3a878793          	add	a5,a5,936 # 3a3a8 <__clzsi2+0x154>
   10650:	00f12a23          	sw	a5,20(sp)
   10654:	00800793          	li	a5,8
   10658:	00f12c23          	sw	a5,24(sp)
   1065c:	0003a7b7          	lui	a5,0x3a
   10660:	3b878793          	add	a5,a5,952 # 3a3b8 <__clzsi2+0x164>
   10664:	00f12e23          	sw	a5,28(sp)
   10668:	00900793          	li	a5,9
   1066c:	02f12223          	sw	a5,36(sp)
   10670:	0003a7b7          	lui	a5,0x3a
   10674:	3c478793          	add	a5,a5,964 # 3a3c4 <__clzsi2+0x170>
   10678:	02f12423          	sw	a5,40(sp)
   1067c:	00400793          	li	a5,4
   10680:	00050413          	mv	s0,a0
   10684:	02012023          	sw	zero,32(sp)
   10688:	02f12623          	sw	a5,44(sp)
   1068c:	00818493          	add	s1,gp,8 # 444c0 <_ZN12_GLOBAL__N_114emergency_poolE>
   10690:	03a00a13          	li	s4,58
   10694:	02e00a93          	li	s5,46
   10698:	06041663          	bnez	s0,10704 <_GLOBAL__sub_I__ZN9__gnu_cxx9__freeresEv+0x100>
   1069c:	02c12583          	lw	a1,44(sp)
   106a0:	04000793          	li	a5,64
   106a4:	00b7d463          	bge	a5,a1,106ac <_GLOBAL__sub_I__ZN9__gnu_cxx9__freeresEv+0xa8>
   106a8:	04000593          	li	a1,64
   106ac:	02012503          	lw	a0,32(sp)
   106b0:	00051463          	bnez	a0,106b8 <_GLOBAL__sub_I__ZN9__gnu_cxx9__freeresEv+0xb4>
   106b4:	00600513          	li	a0,6
   106b8:	02c50513          	add	a0,a0,44
   106bc:	1050f0ef          	jal	1ffc0 <__mulsi3>
   106c0:	00251413          	sll	s0,a0,0x2
   106c4:	0084a623          	sw	s0,12(s1)
   106c8:	00040c63          	beqz	s0,106e0 <_GLOBAL__sub_I__ZN9__gnu_cxx9__freeresEv+0xdc>
   106cc:	00040513          	mv	a0,s0
   106d0:	401130ef          	jal	242d0 <malloc>
   106d4:	00a4a423          	sw	a0,8(s1)
   106d8:	0e051463          	bnez	a0,107c0 <_GLOBAL__sub_I__ZN9__gnu_cxx9__freeresEv+0x1bc>
   106dc:	0004a623          	sw	zero,12(s1)
   106e0:	04c12083          	lw	ra,76(sp)
   106e4:	04812403          	lw	s0,72(sp)
   106e8:	04412483          	lw	s1,68(sp)
   106ec:	04012903          	lw	s2,64(sp)
   106f0:	03c12983          	lw	s3,60(sp)
   106f4:	03812a03          	lw	s4,56(sp)
   106f8:	03412a83          	lw	s5,52(sp)
   106fc:	05010113          	add	sp,sp,80
   10700:	00008067          	ret
   10704:	00044783          	lbu	a5,0(s0)
   10708:	01479463          	bne	a5,s4,10710 <_GLOBAL__sub_I__ZN9__gnu_cxx9__freeresEv+0x10c>
   1070c:	00140413          	add	s0,s0,1
   10710:	00f00713          	li	a4,15
   10714:	00040693          	mv	a3,s0
   10718:	00f00613          	li	a2,15
   1071c:	00000593          	li	a1,0
   10720:	01010513          	add	a0,sp,16
   10724:	5d4000ef          	jal	10cf8 <_ZNKSt17basic_string_viewIcSt11char_traitsIcEE7compareEjjPKcj>
   10728:	04051863          	bnez	a0,10778 <_GLOBAL__sub_I__ZN9__gnu_cxx9__freeresEv+0x174>
   1072c:	00f44783          	lbu	a5,15(s0)
   10730:	05579463          	bne	a5,s5,10778 <_GLOBAL__sub_I__ZN9__gnu_cxx9__freeresEv+0x174>
   10734:	01040413          	add	s0,s0,16
   10738:	01810913          	add	s2,sp,24
   1073c:	00092983          	lw	s3,0(s2)
   10740:	00040693          	mv	a3,s0
   10744:	00000593          	li	a1,0
   10748:	00098713          	mv	a4,s3
   1074c:	00098613          	mv	a2,s3
   10750:	00090513          	mv	a0,s2
   10754:	5a4000ef          	jal	10cf8 <_ZNKSt17basic_string_viewIcSt11char_traitsIcEE7compareEjjPKcj>
   10758:	00051a63          	bnez	a0,1076c <_GLOBAL__sub_I__ZN9__gnu_cxx9__freeresEv+0x168>
   1075c:	013407b3          	add	a5,s0,s3
   10760:	0007c703          	lbu	a4,0(a5)
   10764:	03d00793          	li	a5,61
   10768:	02f70263          	beq	a4,a5,1078c <_GLOBAL__sub_I__ZN9__gnu_cxx9__freeresEv+0x188>
   1076c:	00c90913          	add	s2,s2,12
   10770:	03010793          	add	a5,sp,48
   10774:	fcf914e3          	bne	s2,a5,1073c <_GLOBAL__sub_I__ZN9__gnu_cxx9__freeresEv+0x138>
   10778:	00040513          	mv	a0,s0
   1077c:	03a00593          	li	a1,58
   10780:	6e5150ef          	jal	26664 <strchr>
   10784:	00050413          	mv	s0,a0
   10788:	f11ff06f          	j	10698 <_GLOBAL__sub_I__ZN9__gnu_cxx9__freeresEv+0x94>
   1078c:	00198513          	add	a0,s3,1
   10790:	00a40533          	add	a0,s0,a0
   10794:	00000613          	li	a2,0
   10798:	00c10593          	add	a1,sp,12
   1079c:	305140ef          	jal	252a0 <strtoul>
   107a0:	00c12403          	lw	s0,12(sp)
   107a4:	03a00713          	li	a4,58
   107a8:	00044783          	lbu	a5,0(s0)
   107ac:	00e78463          	beq	a5,a4,107b4 <_GLOBAL__sub_I__ZN9__gnu_cxx9__freeresEv+0x1b0>
   107b0:	fc0794e3          	bnez	a5,10778 <_GLOBAL__sub_I__ZN9__gnu_cxx9__freeresEv+0x174>
   107b4:	fc0542e3          	bltz	a0,10778 <_GLOBAL__sub_I__ZN9__gnu_cxx9__freeresEv+0x174>
   107b8:	00a92423          	sw	a0,8(s2)
   107bc:	fbdff06f          	j	10778 <_GLOBAL__sub_I__ZN9__gnu_cxx9__freeresEv+0x174>
   107c0:	00a4a223          	sw	a0,4(s1)
   107c4:	00852023          	sw	s0,0(a0)
   107c8:	00052223          	sw	zero,4(a0)
   107cc:	f15ff06f          	j	106e0 <_GLOBAL__sub_I__ZN9__gnu_cxx9__freeresEv+0xdc>

000107d0 <register_fini>:
   107d0:	00000793          	li	a5,0
   107d4:	00078863          	beqz	a5,107e4 <register_fini+0x14>
   107d8:	0002f537          	lui	a0,0x2f
   107dc:	e6450513          	add	a0,a0,-412 # 2ee64 <__libc_fini_array>
   107e0:	0fc1706f          	j	278dc <atexit>
   107e4:	00008067          	ret

000107e8 <init_semihosting>:
   107e8:	ff010113          	add	sp,sp,-16
   107ec:	00812423          	sw	s0,8(sp)
   107f0:	39c18413          	add	s0,gp,924 # 44854 <fdtable>
   107f4:	00112623          	sw	ra,12(sp)
   107f8:	00912223          	sw	s1,4(sp)
   107fc:	39c18793          	add	a5,gp,924 # 44854 <fdtable>
   10800:	08040693          	add	a3,s0,128
   10804:	fff00713          	li	a4,-1
   10808:	00e7a023          	sw	a4,0(a5)
   1080c:	00878793          	add	a5,a5,8
   10810:	fed79ce3          	bne	a5,a3,10808 <init_semihosting+0x20>
   10814:	0003b4b7          	lui	s1,0x3b
   10818:	00000593          	li	a1,0
   1081c:	1c048513          	add	a0,s1,448 # 3b1c0 <__clzsi2+0xf6c>
   10820:	2b1230ef          	jal	342d0 <_open>
   10824:	00050793          	mv	a5,a0
   10828:	60100593          	li	a1,1537
   1082c:	1c048513          	add	a0,s1,448
   10830:	00f42023          	sw	a5,0(s0)
   10834:	00042223          	sw	zero,4(s0)
   10838:	299230ef          	jal	342d0 <_open>
   1083c:	00050793          	mv	a5,a0
   10840:	20900593          	li	a1,521
   10844:	1c048513          	add	a0,s1,448
   10848:	00f42423          	sw	a5,8(s0)
   1084c:	00042623          	sw	zero,12(s0)
   10850:	281230ef          	jal	342d0 <_open>
   10854:	00c12083          	lw	ra,12(sp)
   10858:	00a42823          	sw	a0,16(s0)
   1085c:	00042a23          	sw	zero,20(s0)
   10860:	00812403          	lw	s0,8(sp)
   10864:	00412483          	lw	s1,4(sp)
   10868:	01010113          	add	sp,sp,16
   1086c:	00008067          	ret

00010870 <_start>:
   10870:	00034197          	auipc	gp,0x34
   10874:	c4818193          	add	gp,gp,-952 # 444b8 <__global_pointer$>
   10878:	fb018513          	add	a0,gp,-80 # 44468 <_ZN12_GLOBAL__N_113__new_handlerE>
   1087c:	41c18613          	add	a2,gp,1052 # 448d4 <__BSS_END__>
   10880:	40a60633          	sub	a2,a2,a0
   10884:	00000593          	li	a1,0
   10888:	1e9160ef          	jal	27270 <memset>
   1088c:	00017517          	auipc	a0,0x17
   10890:	05050513          	add	a0,a0,80 # 278dc <atexit>
   10894:	00050863          	beqz	a0,108a4 <_start+0x34>
   10898:	0001e517          	auipc	a0,0x1e
   1089c:	5cc50513          	add	a0,a0,1484 # 2ee64 <__libc_fini_array>
   108a0:	03c170ef          	jal	278dc <atexit>
   108a4:	025160ef          	jal	270c8 <__libc_init_array>
   108a8:	00012503          	lw	a0,0(sp)
   108ac:	00410593          	add	a1,sp,4
   108b0:	00000613          	li	a2,0
   108b4:	090000ef          	jal	10944 <main>
   108b8:	d21ff06f          	j	105d8 <exit>

000108bc <__do_global_dtors_aux>:
   108bc:	ff010113          	add	sp,sp,-16
   108c0:	00812423          	sw	s0,8(sp)
   108c4:	fec1c783          	lbu	a5,-20(gp) # 444a4 <completed.1>
   108c8:	00112623          	sw	ra,12(sp)
   108cc:	02079263          	bnez	a5,108f0 <__do_global_dtors_aux+0x34>
   108d0:	000247b7          	lui	a5,0x24
   108d4:	fd478793          	add	a5,a5,-44 # 23fd4 <__deregister_frame_info>
   108d8:	00078863          	beqz	a5,108e8 <__do_global_dtors_aux+0x2c>
   108dc:	0003e537          	lui	a0,0x3e
   108e0:	06050513          	add	a0,a0,96 # 3e060 <__EH_FRAME_BEGIN__>
   108e4:	6f0130ef          	jal	23fd4 <__deregister_frame_info>
   108e8:	00100793          	li	a5,1
   108ec:	fef18623          	sb	a5,-20(gp) # 444a4 <completed.1>
   108f0:	00c12083          	lw	ra,12(sp)
   108f4:	00812403          	lw	s0,8(sp)
   108f8:	01010113          	add	sp,sp,16
   108fc:	00008067          	ret

00010900 <frame_dummy>:
   10900:	000247b7          	lui	a5,0x24
   10904:	e6878793          	add	a5,a5,-408 # 23e68 <__register_frame_info>
   10908:	00078a63          	beqz	a5,1091c <frame_dummy+0x1c>
   1090c:	0003e537          	lui	a0,0x3e
   10910:	ff018593          	add	a1,gp,-16 # 444a8 <object.0>
   10914:	06050513          	add	a0,a0,96 # 3e060 <__EH_FRAME_BEGIN__>
   10918:	5501306f          	j	23e68 <__register_frame_info>
   1091c:	00008067          	ret

00010920 <_ZL20__gthread_key_deletei>:
   10920:	fe010113          	add	sp,sp,-32
   10924:	00812e23          	sw	s0,28(sp)
   10928:	02010413          	add	s0,sp,32
   1092c:	fea42623          	sw	a0,-20(s0)
   10930:	00000793          	li	a5,0
   10934:	00078513          	mv	a0,a5
   10938:	01c12403          	lw	s0,28(sp)
   1093c:	02010113          	add	sp,sp,32
   10940:	00008067          	ret

00010944 <main>:
{
   10944:	fe010113          	add	sp,sp,-32
   10948:	00112e23          	sw	ra,28(sp)
   1094c:	00812c23          	sw	s0,24(sp)
   10950:	02010413          	add	s0,sp,32
    printf("Testing Heap Buffer Under-write (C++)...\n");
   10954:	0003a7b7          	lui	a5,0x3a
   10958:	2a078513          	add	a0,a5,672 # 3a2a0 <__clzsi2+0x4c>
   1095c:	688150ef          	jal	25fe4 <puts>
    int* arr = new int[3];
   10960:	00c00513          	li	a0,12
   10964:	0c4000ef          	jal	10a28 <_Znaj>
   10968:	00050793          	mv	a5,a0
   1096c:	fef42623          	sw	a5,-20(s0)
    if (!arr) {
   10970:	fec42783          	lw	a5,-20(s0)
   10974:	00079c63          	bnez	a5,1098c <main+0x48>
        printf("Allocation failed!\n");
   10978:	0003a7b7          	lui	a5,0x3a
   1097c:	2cc78513          	add	a0,a5,716 # 3a2cc <__clzsi2+0x78>
   10980:	664150ef          	jal	25fe4 <puts>
        return 0;
   10984:	00000793          	li	a5,0
   10988:	0880006f          	j	10a10 <main+0xcc>
    arr[0]=10; arr[1]=20; arr[2]=30;
   1098c:	fec42783          	lw	a5,-20(s0)
   10990:	00a00713          	li	a4,10
   10994:	00e7a023          	sw	a4,0(a5)
   10998:	fec42783          	lw	a5,-20(s0)
   1099c:	00478793          	add	a5,a5,4
   109a0:	01400713          	li	a4,20
   109a4:	00e7a023          	sw	a4,0(a5)
   109a8:	fec42783          	lw	a5,-20(s0)
   109ac:	00878793          	add	a5,a5,8
   109b0:	01e00713          	li	a4,30
   109b4:	00e7a023          	sw	a4,0(a5)
    printf("Attempting under-write arr[-1] = 999 ...\n");
   109b8:	0003a7b7          	lui	a5,0x3a
   109bc:	2e078513          	add	a0,a5,736 # 3a2e0 <__clzsi2+0x8c>
   109c0:	624150ef          	jal	25fe4 <puts>
    arr[-1] = 999;
   109c4:	fec42783          	lw	a5,-20(s0)
   109c8:	ffc78793          	add	a5,a5,-4
   109cc:	3e700713          	li	a4,999
   109d0:	00e7a023          	sw	a4,0(a5)
    printf("arr[-1] now reads: %d (UB)\n", arr[-1]);
   109d4:	fec42783          	lw	a5,-20(s0)
   109d8:	ffc78793          	add	a5,a5,-4
   109dc:	0007a783          	lw	a5,0(a5)
   109e0:	00078593          	mv	a1,a5
   109e4:	0003a7b7          	lui	a5,0x3a
   109e8:	30c78513          	add	a0,a5,780 # 3a30c <__clzsi2+0xb8>
   109ec:	3a8150ef          	jal	25d94 <printf>
    delete[] arr;
   109f0:	fec42783          	lw	a5,-20(s0)
   109f4:	00078663          	beqz	a5,10a00 <main+0xbc>
   109f8:	fec42503          	lw	a0,-20(s0)
   109fc:	028000ef          	jal	10a24 <_ZdaPv>
    printf("Finished.\n");
   10a00:	0003a7b7          	lui	a5,0x3a
   10a04:	32878513          	add	a0,a5,808 # 3a328 <__clzsi2+0xd4>
   10a08:	5dc150ef          	jal	25fe4 <puts>
    return 0;
   10a0c:	00000793          	li	a5,0
}
   10a10:	00078513          	mv	a0,a5
   10a14:	01c12083          	lw	ra,28(sp)
   10a18:	01812403          	lw	s0,24(sp)
   10a1c:	02010113          	add	sp,sp,32
   10a20:	00008067          	ret

00010a24 <_ZdaPv>:
   10a24:	0080006f          	j	10a2c <_ZdlPv>

00010a28 <_Znaj>:
   10a28:	0080006f          	j	10a30 <_Znwj>

00010a2c <_ZdlPv>:
   10a2c:	0b11306f          	j	242dc <free>

00010a30 <_Znwj>:
   10a30:	ff010113          	add	sp,sp,-16
   10a34:	00812423          	sw	s0,8(sp)
   10a38:	00112623          	sw	ra,12(sp)
   10a3c:	00050413          	mv	s0,a0
   10a40:	00051463          	bnez	a0,10a48 <_Znwj+0x18>
   10a44:	00100413          	li	s0,1
   10a48:	00040513          	mv	a0,s0
   10a4c:	085130ef          	jal	242d0 <malloc>
   10a50:	00050a63          	beqz	a0,10a64 <_Znwj+0x34>
   10a54:	00c12083          	lw	ra,12(sp)
   10a58:	00812403          	lw	s0,8(sp)
   10a5c:	01010113          	add	sp,sp,16
   10a60:	00008067          	ret
   10a64:	735000ef          	jal	11998 <_ZSt15get_new_handlerv>
   10a68:	02051663          	bnez	a0,10a94 <_Znwj+0x64>
   10a6c:	00400513          	li	a0,4
   10a70:	19c000ef          	jal	10c0c <__cxa_allocate_exception>
   10a74:	0003b7b7          	lui	a5,0x3b
   10a78:	1e878793          	add	a5,a5,488 # 3b1e8 <_ZTVSt9bad_alloc+0x8>
   10a7c:	00011637          	lui	a2,0x11
   10a80:	0003b5b7          	lui	a1,0x3b
   10a84:	00f52023          	sw	a5,0(a0)
   10a88:	aa860613          	add	a2,a2,-1368 # 10aa8 <_ZNSt9bad_allocD1Ev>
   10a8c:	1d458593          	add	a1,a1,468 # 3b1d4 <_ZTISt9bad_alloc>
   10a90:	61d000ef          	jal	118ac <__cxa_throw>
   10a94:	000500e7          	jalr	a0
   10a98:	fb1ff06f          	j	10a48 <_Znwj+0x18>

00010a9c <_ZNKSt9bad_alloc4whatEv>:
   10a9c:	0003a537          	lui	a0,0x3a
   10aa0:	33450513          	add	a0,a0,820 # 3a334 <__clzsi2+0xe0>
   10aa4:	00008067          	ret

00010aa8 <_ZNSt9bad_allocD1Ev>:
   10aa8:	0003b7b7          	lui	a5,0x3b
   10aac:	1e878793          	add	a5,a5,488 # 3b1e8 <_ZTVSt9bad_alloc+0x8>
   10ab0:	00f52023          	sw	a5,0(a0)
   10ab4:	2c40006f          	j	10d78 <_ZNSt9exceptionD1Ev>

00010ab8 <_ZNSt9bad_allocD0Ev>:
   10ab8:	ff010113          	add	sp,sp,-16
   10abc:	00812423          	sw	s0,8(sp)
   10ac0:	00112623          	sw	ra,12(sp)
   10ac4:	00050413          	mv	s0,a0
   10ac8:	fe1ff0ef          	jal	10aa8 <_ZNSt9bad_allocD1Ev>
   10acc:	00040513          	mv	a0,s0
   10ad0:	00812403          	lw	s0,8(sp)
   10ad4:	00c12083          	lw	ra,12(sp)
   10ad8:	00400593          	li	a1,4
   10adc:	01010113          	add	sp,sp,16
   10ae0:	0040006f          	j	10ae4 <_ZdlPvj>

00010ae4 <_ZdlPvj>:
   10ae4:	f49ff06f          	j	10a2c <_ZdlPv>

00010ae8 <_ZN12_GLOBAL__N_14pool4freeEPv.constprop.0>:
   10ae8:	00818813          	add	a6,gp,8 # 444c0 <_ZN12_GLOBAL__N_114emergency_poolE>
   10aec:	00482783          	lw	a5,4(a6)
   10af0:	ff052703          	lw	a4,-16(a0)
   10af4:	ff050613          	add	a2,a0,-16
   10af8:	00818593          	add	a1,gp,8 # 444c0 <_ZN12_GLOBAL__N_114emergency_poolE>
   10afc:	00078663          	beqz	a5,10b08 <_ZN12_GLOBAL__N_14pool4freeEPv.constprop.0+0x20>
   10b00:	00e606b3          	add	a3,a2,a4
   10b04:	00f6f863          	bgeu	a3,a5,10b14 <_ZN12_GLOBAL__N_14pool4freeEPv.constprop.0+0x2c>
   10b08:	fef52a23          	sw	a5,-12(a0)
   10b0c:	00c5a223          	sw	a2,4(a1)
   10b10:	00008067          	ret
   10b14:	0047a583          	lw	a1,4(a5)
   10b18:	06d79063          	bne	a5,a3,10b78 <_ZN12_GLOBAL__N_14pool4freeEPv.constprop.0+0x90>
   10b1c:	0007a783          	lw	a5,0(a5)
   10b20:	feb52a23          	sw	a1,-12(a0)
   10b24:	00e787b3          	add	a5,a5,a4
   10b28:	fef52823          	sw	a5,-16(a0)
   10b2c:	00c82223          	sw	a2,4(a6)
   10b30:	00008067          	ret
   10b34:	00478593          	add	a1,a5,4
   10b38:	00080793          	mv	a5,a6
   10b3c:	0047a803          	lw	a6,4(a5)
   10b40:	00080e63          	beqz	a6,10b5c <_ZN12_GLOBAL__N_14pool4freeEPv.constprop.0+0x74>
   10b44:	fed868e3          	bltu	a6,a3,10b34 <_ZN12_GLOBAL__N_14pool4freeEPv.constprop.0+0x4c>
   10b48:	01069a63          	bne	a3,a6,10b5c <_ZN12_GLOBAL__N_14pool4freeEPv.constprop.0+0x74>
   10b4c:	0006a803          	lw	a6,0(a3)
   10b50:	0046a683          	lw	a3,4(a3)
   10b54:	01070733          	add	a4,a4,a6
   10b58:	00d7a223          	sw	a3,4(a5)
   10b5c:	0005a783          	lw	a5,0(a1)
   10b60:	0007a683          	lw	a3,0(a5)
   10b64:	00d78833          	add	a6,a5,a3
   10b68:	01061c63          	bne	a2,a6,10b80 <_ZN12_GLOBAL__N_14pool4freeEPv.constprop.0+0x98>
   10b6c:	00e686b3          	add	a3,a3,a4
   10b70:	00d7a023          	sw	a3,0(a5)
   10b74:	00008067          	ret
   10b78:	00c18593          	add	a1,gp,12 # 444c4 <_ZN12_GLOBAL__N_114emergency_poolE+0x4>
   10b7c:	fc1ff06f          	j	10b3c <_ZN12_GLOBAL__N_14pool4freeEPv.constprop.0+0x54>
   10b80:	0047a783          	lw	a5,4(a5)
   10b84:	fee52823          	sw	a4,-16(a0)
   10b88:	fef52a23          	sw	a5,-12(a0)
   10b8c:	0005a783          	lw	a5,0(a1)
   10b90:	00c7a223          	sw	a2,4(a5)
   10b94:	00008067          	ret

00010b98 <_ZN12_GLOBAL__N_14pool8allocateEj.constprop.0>:
   10b98:	01050513          	add	a0,a0,16
   10b9c:	00800793          	li	a5,8
   10ba0:	00f57463          	bgeu	a0,a5,10ba8 <_ZN12_GLOBAL__N_14pool8allocateEj.constprop.0+0x10>
   10ba4:	00800513          	li	a0,8
   10ba8:	00f50513          	add	a0,a0,15
   10bac:	ff057793          	and	a5,a0,-16
   10bb0:	00c1a503          	lw	a0,12(gp) # 444c4 <_ZN12_GLOBAL__N_114emergency_poolE+0x4>
   10bb4:	00c18713          	add	a4,gp,12 # 444c4 <_ZN12_GLOBAL__N_114emergency_poolE+0x4>
   10bb8:	02050c63          	beqz	a0,10bf0 <_ZN12_GLOBAL__N_14pool8allocateEj.constprop.0+0x58>
   10bbc:	00052683          	lw	a3,0(a0)
   10bc0:	00452603          	lw	a2,4(a0)
   10bc4:	02f6e863          	bltu	a3,a5,10bf4 <_ZN12_GLOBAL__N_14pool8allocateEj.constprop.0+0x5c>
   10bc8:	40f685b3          	sub	a1,a3,a5
   10bcc:	00700813          	li	a6,7
   10bd0:	02b87863          	bgeu	a6,a1,10c00 <_ZN12_GLOBAL__N_14pool8allocateEj.constprop.0+0x68>
   10bd4:	00f506b3          	add	a3,a0,a5
   10bd8:	00c6a223          	sw	a2,4(a3)
   10bdc:	00072503          	lw	a0,0(a4)
   10be0:	00b6a023          	sw	a1,0(a3)
   10be4:	00f52023          	sw	a5,0(a0)
   10be8:	00d72023          	sw	a3,0(a4)
   10bec:	01050513          	add	a0,a0,16
   10bf0:	00008067          	ret
   10bf4:	00450713          	add	a4,a0,4
   10bf8:	00060513          	mv	a0,a2
   10bfc:	fbdff06f          	j	10bb8 <_ZN12_GLOBAL__N_14pool8allocateEj.constprop.0+0x20>
   10c00:	00d52023          	sw	a3,0(a0)
   10c04:	00060693          	mv	a3,a2
   10c08:	fe1ff06f          	j	10be8 <_ZN12_GLOBAL__N_14pool8allocateEj.constprop.0+0x50>

00010c0c <__cxa_allocate_exception>:
   10c0c:	ff010113          	add	sp,sp,-16
   10c10:	00812423          	sw	s0,8(sp)
   10c14:	06050413          	add	s0,a0,96
   10c18:	00040513          	mv	a0,s0
   10c1c:	00112623          	sw	ra,12(sp)
   10c20:	6b0130ef          	jal	242d0 <malloc>
   10c24:	00050793          	mv	a5,a0
   10c28:	00051c63          	bnez	a0,10c40 <__cxa_allocate_exception+0x34>
   10c2c:	00040513          	mv	a0,s0
   10c30:	f69ff0ef          	jal	10b98 <_ZN12_GLOBAL__N_14pool8allocateEj.constprop.0>
   10c34:	00050793          	mv	a5,a0
   10c38:	00051463          	bnez	a0,10c40 <__cxa_allocate_exception+0x34>
   10c3c:	345000ef          	jal	11780 <_ZSt9terminatev>
   10c40:	06000613          	li	a2,96
   10c44:	00000593          	li	a1,0
   10c48:	00078513          	mv	a0,a5
   10c4c:	624160ef          	jal	27270 <memset>
   10c50:	00c12083          	lw	ra,12(sp)
   10c54:	00812403          	lw	s0,8(sp)
   10c58:	06050513          	add	a0,a0,96
   10c5c:	01010113          	add	sp,sp,16
   10c60:	00008067          	ret

00010c64 <__cxa_free_exception>:
   10c64:	00818793          	add	a5,gp,8 # 444c0 <_ZN12_GLOBAL__N_114emergency_poolE>
   10c68:	0087a703          	lw	a4,8(a5)
   10c6c:	00c7a783          	lw	a5,12(a5)
   10c70:	fa050513          	add	a0,a0,-96
   10c74:	00f707b3          	add	a5,a4,a5
   10c78:	00f57663          	bgeu	a0,a5,10c84 <__cxa_free_exception+0x20>
   10c7c:	00a77463          	bgeu	a4,a0,10c84 <__cxa_free_exception+0x20>
   10c80:	e69ff06f          	j	10ae8 <_ZN12_GLOBAL__N_14pool4freeEPv.constprop.0>
   10c84:	6581306f          	j	242dc <free>

00010c88 <__cxa_allocate_dependent_exception>:
   10c88:	ff010113          	add	sp,sp,-16
   10c8c:	05000513          	li	a0,80
   10c90:	00112623          	sw	ra,12(sp)
   10c94:	63c130ef          	jal	242d0 <malloc>
   10c98:	00050793          	mv	a5,a0
   10c9c:	00051c63          	bnez	a0,10cb4 <__cxa_allocate_dependent_exception+0x2c>
   10ca0:	05000513          	li	a0,80
   10ca4:	ef5ff0ef          	jal	10b98 <_ZN12_GLOBAL__N_14pool8allocateEj.constprop.0>
   10ca8:	00050793          	mv	a5,a0
   10cac:	00051463          	bnez	a0,10cb4 <__cxa_allocate_dependent_exception+0x2c>
   10cb0:	2d1000ef          	jal	11780 <_ZSt9terminatev>
   10cb4:	05000613          	li	a2,80
   10cb8:	00000593          	li	a1,0
   10cbc:	00078513          	mv	a0,a5
   10cc0:	5b0160ef          	jal	27270 <memset>
   10cc4:	00c12083          	lw	ra,12(sp)
   10cc8:	01010113          	add	sp,sp,16
   10ccc:	00008067          	ret

00010cd0 <__cxa_free_dependent_exception>:
   10cd0:	00818713          	add	a4,gp,8 # 444c0 <_ZN12_GLOBAL__N_114emergency_poolE>
   10cd4:	00872683          	lw	a3,8(a4)
   10cd8:	00c72703          	lw	a4,12(a4)
   10cdc:	00050793          	mv	a5,a0
   10ce0:	00e68733          	add	a4,a3,a4
   10ce4:	00e57663          	bgeu	a0,a4,10cf0 <__cxa_free_dependent_exception+0x20>
   10ce8:	00a6f463          	bgeu	a3,a0,10cf0 <__cxa_free_dependent_exception+0x20>
   10cec:	dfdff06f          	j	10ae8 <_ZN12_GLOBAL__N_14pool4freeEPv.constprop.0>
   10cf0:	00078513          	mv	a0,a5
   10cf4:	5e81306f          	j	242dc <free>

00010cf8 <_ZNKSt17basic_string_viewIcSt11char_traitsIcEE7compareEjjPKcj>:
   10cf8:	00058793          	mv	a5,a1
   10cfc:	00068593          	mv	a1,a3
   10d00:	00052683          	lw	a3,0(a0)
   10d04:	ff010113          	add	sp,sp,-16
   10d08:	00112623          	sw	ra,12(sp)
   10d0c:	00812423          	sw	s0,8(sp)
   10d10:	00912223          	sw	s1,4(sp)
   10d14:	00f6fe63          	bgeu	a3,a5,10d30 <_ZNKSt17basic_string_viewIcSt11char_traitsIcEE7compareEjjPKcj+0x38>
   10d18:	0003a5b7          	lui	a1,0x3a
   10d1c:	0003a537          	lui	a0,0x3a
   10d20:	00078613          	mv	a2,a5
   10d24:	34458593          	add	a1,a1,836 # 3a344 <__clzsi2+0xf0>
   10d28:	36050513          	add	a0,a0,864 # 3a360 <__clzsi2+0x10c>
   10d2c:	10c010ef          	jal	11e38 <_ZSt24__throw_out_of_range_fmtPKcz>
   10d30:	40f68433          	sub	s0,a3,a5
   10d34:	00070493          	mv	s1,a4
   10d38:	00867463          	bgeu	a2,s0,10d40 <_ZNKSt17basic_string_viewIcSt11char_traitsIcEE7compareEjjPKcj+0x48>
   10d3c:	00060413          	mv	s0,a2
   10d40:	00048613          	mv	a2,s1
   10d44:	00947463          	bgeu	s0,s1,10d4c <_ZNKSt17basic_string_viewIcSt11char_traitsIcEE7compareEjjPKcj+0x54>
   10d48:	00040613          	mv	a2,s0
   10d4c:	00060a63          	beqz	a2,10d60 <_ZNKSt17basic_string_viewIcSt11char_traitsIcEE7compareEjjPKcj+0x68>
   10d50:	00452503          	lw	a0,4(a0)
   10d54:	00f50533          	add	a0,a0,a5
   10d58:	091150ef          	jal	265e8 <memcmp>
   10d5c:	00051463          	bnez	a0,10d64 <_ZNKSt17basic_string_viewIcSt11char_traitsIcEE7compareEjjPKcj+0x6c>
   10d60:	40940533          	sub	a0,s0,s1
   10d64:	00c12083          	lw	ra,12(sp)
   10d68:	00812403          	lw	s0,8(sp)
   10d6c:	00412483          	lw	s1,4(sp)
   10d70:	01010113          	add	sp,sp,16
   10d74:	00008067          	ret

00010d78 <_ZNSt9exceptionD1Ev>:
   10d78:	00008067          	ret

00010d7c <_ZNSt13bad_exceptionD1Ev>:
   10d7c:	00008067          	ret

00010d80 <_ZGTtNKSt9exception4whatEv>:
   10d80:	0003a537          	lui	a0,0x3a
   10d84:	3d050513          	add	a0,a0,976 # 3a3d0 <__clzsi2+0x17c>
   10d88:	00008067          	ret

00010d8c <_ZGTtNKSt13bad_exception4whatEv>:
   10d8c:	0003a537          	lui	a0,0x3a
   10d90:	3e050513          	add	a0,a0,992 # 3a3e0 <__clzsi2+0x18c>
   10d94:	00008067          	ret

00010d98 <_ZNSt9exceptionD0Ev>:
   10d98:	00400593          	li	a1,4
   10d9c:	d49ff06f          	j	10ae4 <_ZdlPvj>

00010da0 <_ZNSt13bad_exceptionD0Ev>:
   10da0:	00400593          	li	a1,4
   10da4:	d41ff06f          	j	10ae4 <_ZdlPvj>

00010da8 <_ZN10__cxxabiv115__forced_unwindD1Ev>:
   10da8:	00008067          	ret

00010dac <_ZN10__cxxabiv115__forced_unwindD0Ev>:
   10dac:	00400593          	li	a1,4
   10db0:	d35ff06f          	j	10ae4 <_ZdlPvj>

00010db4 <_ZN10__cxxabiv119__foreign_exceptionD1Ev>:
   10db4:	00008067          	ret

00010db8 <_ZN10__cxxabiv119__foreign_exceptionD0Ev>:
   10db8:	00400593          	li	a1,4
   10dbc:	d29ff06f          	j	10ae4 <_ZdlPvj>

00010dc0 <_ZGTtNKSt9exceptionD1Ev>:
   10dc0:	00008067          	ret

00010dc4 <_ZGTtNKSt13bad_exceptionD1Ev>:
   10dc4:	00008067          	ret

00010dc8 <_ZL12read_uleb128PKhPm>:
   10dc8:	00000713          	li	a4,0
   10dcc:	00000693          	li	a3,0
   10dd0:	00054783          	lbu	a5,0(a0)
   10dd4:	00150513          	add	a0,a0,1
   10dd8:	07f7f613          	and	a2,a5,127
   10ddc:	01879793          	sll	a5,a5,0x18
   10de0:	00d61633          	sll	a2,a2,a3
   10de4:	4187d793          	sra	a5,a5,0x18
   10de8:	00c76733          	or	a4,a4,a2
   10dec:	00768693          	add	a3,a3,7
   10df0:	fe07c0e3          	bltz	a5,10dd0 <_ZL12read_uleb128PKhPm+0x8>
   10df4:	00e5a023          	sw	a4,0(a1)
   10df8:	00008067          	ret

00010dfc <_ZL12read_sleb128PKhPl>:
   10dfc:	00000793          	li	a5,0
   10e00:	00000713          	li	a4,0
   10e04:	00054683          	lbu	a3,0(a0)
   10e08:	00150513          	add	a0,a0,1
   10e0c:	07f6f613          	and	a2,a3,127
   10e10:	00e61633          	sll	a2,a2,a4
   10e14:	00c7e7b3          	or	a5,a5,a2
   10e18:	01869613          	sll	a2,a3,0x18
   10e1c:	41865613          	sra	a2,a2,0x18
   10e20:	00770713          	add	a4,a4,7
   10e24:	fe0640e3          	bltz	a2,10e04 <_ZL12read_sleb128PKhPl+0x8>
   10e28:	01f00613          	li	a2,31
   10e2c:	00e66c63          	bltu	a2,a4,10e44 <_ZL12read_sleb128PKhPl+0x48>
   10e30:	0406f693          	and	a3,a3,64
   10e34:	00068863          	beqz	a3,10e44 <_ZL12read_sleb128PKhPl+0x48>
   10e38:	fff00693          	li	a3,-1
   10e3c:	00e69733          	sll	a4,a3,a4
   10e40:	00e7e7b3          	or	a5,a5,a4
   10e44:	00f5a023          	sw	a5,0(a1)
   10e48:	00008067          	ret

00010e4c <_ZL16get_adjusted_ptrPKSt9type_infoS1_PPv>:
   10e4c:	00062783          	lw	a5,0(a2)
   10e50:	fd010113          	add	sp,sp,-48
   10e54:	02812423          	sw	s0,40(sp)
   10e58:	00f12e23          	sw	a5,28(sp)
   10e5c:	0005a783          	lw	a5,0(a1)
   10e60:	02912223          	sw	s1,36(sp)
   10e64:	00b12623          	sw	a1,12(sp)
   10e68:	0087a783          	lw	a5,8(a5)
   10e6c:	02112623          	sw	ra,44(sp)
   10e70:	00050493          	mv	s1,a0
   10e74:	00058513          	mv	a0,a1
   10e78:	00060413          	mv	s0,a2
   10e7c:	000780e7          	jalr	a5
   10e80:	00c12583          	lw	a1,12(sp)
   10e84:	00050863          	beqz	a0,10e94 <_ZL16get_adjusted_ptrPKSt9type_infoS1_PPv+0x48>
   10e88:	01c12783          	lw	a5,28(sp)
   10e8c:	0007a783          	lw	a5,0(a5)
   10e90:	00f12e23          	sw	a5,28(sp)
   10e94:	0004a783          	lw	a5,0(s1)
   10e98:	00100693          	li	a3,1
   10e9c:	01c10613          	add	a2,sp,28
   10ea0:	0107a783          	lw	a5,16(a5)
   10ea4:	00048513          	mv	a0,s1
   10ea8:	000780e7          	jalr	a5
   10eac:	00050663          	beqz	a0,10eb8 <_ZL16get_adjusted_ptrPKSt9type_infoS1_PPv+0x6c>
   10eb0:	01c12783          	lw	a5,28(sp)
   10eb4:	00f42023          	sw	a5,0(s0)
   10eb8:	02c12083          	lw	ra,44(sp)
   10ebc:	02812403          	lw	s0,40(sp)
   10ec0:	02412483          	lw	s1,36(sp)
   10ec4:	03010113          	add	sp,sp,48
   10ec8:	00008067          	ret

00010ecc <_ZL28read_encoded_value_with_basehjPKhPj>:
   10ecc:	fd010113          	add	sp,sp,-48
   10ed0:	02912223          	sw	s1,36(sp)
   10ed4:	03212023          	sw	s2,32(sp)
   10ed8:	02112623          	sw	ra,44(sp)
   10edc:	02812423          	sw	s0,40(sp)
   10ee0:	01312e23          	sw	s3,28(sp)
   10ee4:	05000793          	li	a5,80
   10ee8:	00060913          	mv	s2,a2
   10eec:	00068493          	mv	s1,a3
   10ef0:	02f51a63          	bne	a0,a5,10f24 <_ZL28read_encoded_value_with_basehjPKhPj+0x58>
   10ef4:	00360513          	add	a0,a2,3
   10ef8:	ffc57513          	and	a0,a0,-4
   10efc:	00052783          	lw	a5,0(a0)
   10f00:	00450513          	add	a0,a0,4
   10f04:	02c12083          	lw	ra,44(sp)
   10f08:	02812403          	lw	s0,40(sp)
   10f0c:	00f4a023          	sw	a5,0(s1)
   10f10:	02012903          	lw	s2,32(sp)
   10f14:	02412483          	lw	s1,36(sp)
   10f18:	01c12983          	lw	s3,28(sp)
   10f1c:	03010113          	add	sp,sp,48
   10f20:	00008067          	ret
   10f24:	00f57793          	and	a5,a0,15
   10f28:	00c00713          	li	a4,12
   10f2c:	00050993          	mv	s3,a0
   10f30:	10f76063          	bltu	a4,a5,11030 <_ZL28read_encoded_value_with_basehjPKhPj+0x164>
   10f34:	0003b737          	lui	a4,0x3b
   10f38:	00279793          	sll	a5,a5,0x2
   10f3c:	2b870713          	add	a4,a4,696 # 3b2b8 <_ZTVN10__cxxabiv119__foreign_exceptionE+0x14>
   10f40:	00e787b3          	add	a5,a5,a4
   10f44:	0007a783          	lw	a5,0(a5)
   10f48:	00058413          	mv	s0,a1
   10f4c:	00078067          	jr	a5
   10f50:	00c10593          	add	a1,sp,12
   10f54:	00060513          	mv	a0,a2
   10f58:	e71ff0ef          	jal	10dc8 <_ZL12read_uleb128PKhPm>
   10f5c:	00c12783          	lw	a5,12(sp)
   10f60:	fa0782e3          	beqz	a5,10f04 <_ZL28read_encoded_value_with_basehjPKhPj+0x38>
   10f64:	0709f713          	and	a4,s3,112
   10f68:	01000693          	li	a3,16
   10f6c:	00d71463          	bne	a4,a3,10f74 <_ZL28read_encoded_value_with_basehjPKhPj+0xa8>
   10f70:	00090413          	mv	s0,s2
   10f74:	01899993          	sll	s3,s3,0x18
   10f78:	4189d993          	sra	s3,s3,0x18
   10f7c:	008787b3          	add	a5,a5,s0
   10f80:	f809d2e3          	bgez	s3,10f04 <_ZL28read_encoded_value_with_basehjPKhPj+0x38>
   10f84:	0007a783          	lw	a5,0(a5)
   10f88:	f7dff06f          	j	10f04 <_ZL28read_encoded_value_with_basehjPKhPj+0x38>
   10f8c:	00c10593          	add	a1,sp,12
   10f90:	00060513          	mv	a0,a2
   10f94:	e69ff0ef          	jal	10dfc <_ZL12read_sleb128PKhPl>
   10f98:	fc5ff06f          	j	10f5c <_ZL28read_encoded_value_with_basehjPKhPj+0x90>
   10f9c:	00164783          	lbu	a5,1(a2)
   10fa0:	00064703          	lbu	a4,0(a2)
   10fa4:	00879793          	sll	a5,a5,0x8
   10fa8:	00e7e7b3          	or	a5,a5,a4
   10fac:	00290513          	add	a0,s2,2
   10fb0:	fb1ff06f          	j	10f60 <_ZL28read_encoded_value_with_basehjPKhPj+0x94>
   10fb4:	00164783          	lbu	a5,1(a2)
   10fb8:	00064703          	lbu	a4,0(a2)
   10fbc:	00879793          	sll	a5,a5,0x8
   10fc0:	00e7e7b3          	or	a5,a5,a4
   10fc4:	01079793          	sll	a5,a5,0x10
   10fc8:	4107d793          	sra	a5,a5,0x10
   10fcc:	fe1ff06f          	j	10fac <_ZL28read_encoded_value_with_basehjPKhPj+0xe0>
   10fd0:	00164783          	lbu	a5,1(a2)
   10fd4:	00064703          	lbu	a4,0(a2)
   10fd8:	00460513          	add	a0,a2,4
   10fdc:	00879793          	sll	a5,a5,0x8
   10fe0:	00e7e7b3          	or	a5,a5,a4
   10fe4:	00264703          	lbu	a4,2(a2)
   10fe8:	01071713          	sll	a4,a4,0x10
   10fec:	00f76733          	or	a4,a4,a5
   10ff0:	00364783          	lbu	a5,3(a2)
   10ff4:	01879793          	sll	a5,a5,0x18
   10ff8:	00e7e7b3          	or	a5,a5,a4
   10ffc:	f65ff06f          	j	10f60 <_ZL28read_encoded_value_with_basehjPKhPj+0x94>
   11000:	00164783          	lbu	a5,1(a2)
   11004:	00064703          	lbu	a4,0(a2)
   11008:	00860513          	add	a0,a2,8
   1100c:	00879793          	sll	a5,a5,0x8
   11010:	00e7e7b3          	or	a5,a5,a4
   11014:	00264703          	lbu	a4,2(a2)
   11018:	01071713          	sll	a4,a4,0x10
   1101c:	00f76733          	or	a4,a4,a5
   11020:	00364783          	lbu	a5,3(a2)
   11024:	01879793          	sll	a5,a5,0x18
   11028:	00e7e7b3          	or	a5,a5,a4
   1102c:	f35ff06f          	j	10f60 <_ZL28read_encoded_value_with_basehjPKhPj+0x94>
   11030:	108130ef          	jal	24138 <abort>

00011034 <_ZL15get_ttype_entryP16lsda_header_infom>:
   11034:	fe010113          	add	sp,sp,-32
   11038:	00812c23          	sw	s0,24(sp)
   1103c:	00112e23          	sw	ra,28(sp)
   11040:	00050413          	mv	s0,a0
   11044:	00912a23          	sw	s1,20(sp)
   11048:	01444483          	lbu	s1,20(s0)
   1104c:	0ff00793          	li	a5,255
   11050:	00058513          	mv	a0,a1
   11054:	06f48463          	beq	s1,a5,110bc <_ZL15get_ttype_entryP16lsda_header_infom+0x88>
   11058:	0074f793          	and	a5,s1,7
   1105c:	00200713          	li	a4,2
   11060:	06e78263          	beq	a5,a4,110c4 <_ZL15get_ttype_entryP16lsda_header_infom+0x90>
   11064:	00f76863          	bltu	a4,a5,11074 <_ZL15get_ttype_entryP16lsda_header_infom+0x40>
   11068:	00400593          	li	a1,4
   1106c:	00078e63          	beqz	a5,11088 <_ZL15get_ttype_entryP16lsda_header_infom+0x54>
   11070:	0c8130ef          	jal	24138 <abort>
   11074:	00300713          	li	a4,3
   11078:	04e78a63          	beq	a5,a4,110cc <_ZL15get_ttype_entryP16lsda_header_infom+0x98>
   1107c:	00400713          	li	a4,4
   11080:	00800593          	li	a1,8
   11084:	fee796e3          	bne	a5,a4,11070 <_ZL15get_ttype_entryP16lsda_header_infom+0x3c>
   11088:	7390e0ef          	jal	1ffc0 <__mulsi3>
   1108c:	00c42603          	lw	a2,12(s0)
   11090:	00842583          	lw	a1,8(s0)
   11094:	00c10693          	add	a3,sp,12
   11098:	40a60633          	sub	a2,a2,a0
   1109c:	00048513          	mv	a0,s1
   110a0:	e2dff0ef          	jal	10ecc <_ZL28read_encoded_value_with_basehjPKhPj>
   110a4:	01c12083          	lw	ra,28(sp)
   110a8:	01812403          	lw	s0,24(sp)
   110ac:	00c12503          	lw	a0,12(sp)
   110b0:	01412483          	lw	s1,20(sp)
   110b4:	02010113          	add	sp,sp,32
   110b8:	00008067          	ret
   110bc:	00000593          	li	a1,0
   110c0:	fc9ff06f          	j	11088 <_ZL15get_ttype_entryP16lsda_header_infom+0x54>
   110c4:	00200593          	li	a1,2
   110c8:	fc1ff06f          	j	11088 <_ZL15get_ttype_entryP16lsda_header_infom+0x54>
   110cc:	00400593          	li	a1,4
   110d0:	fb9ff06f          	j	11088 <_ZL15get_ttype_entryP16lsda_header_infom+0x54>

000110d4 <_ZL20check_exception_specP16lsda_header_infoPKSt9type_infoPvl>:
   110d4:	fd010113          	add	sp,sp,-48
   110d8:	02812423          	sw	s0,40(sp)
   110dc:	00c52403          	lw	s0,12(a0)
   110e0:	fff6c693          	not	a3,a3
   110e4:	02912223          	sw	s1,36(sp)
   110e8:	03212023          	sw	s2,32(sp)
   110ec:	02112623          	sw	ra,44(sp)
   110f0:	00050493          	mv	s1,a0
   110f4:	00058913          	mv	s2,a1
   110f8:	00c12623          	sw	a2,12(sp)
   110fc:	00d40433          	add	s0,s0,a3
   11100:	01c10593          	add	a1,sp,28
   11104:	00040513          	mv	a0,s0
   11108:	cc1ff0ef          	jal	10dc8 <_ZL12read_uleb128PKhPm>
   1110c:	01c12583          	lw	a1,28(sp)
   11110:	00050413          	mv	s0,a0
   11114:	02058a63          	beqz	a1,11148 <_ZL20check_exception_specP16lsda_header_infoPKSt9type_infoPvl+0x74>
   11118:	00048513          	mv	a0,s1
   1111c:	f19ff0ef          	jal	11034 <_ZL15get_ttype_entryP16lsda_header_infom>
   11120:	00c10613          	add	a2,sp,12
   11124:	00090593          	mv	a1,s2
   11128:	d25ff0ef          	jal	10e4c <_ZL16get_adjusted_ptrPKSt9type_infoS1_PPv>
   1112c:	fc050ae3          	beqz	a0,11100 <_ZL20check_exception_specP16lsda_header_infoPKSt9type_infoPvl+0x2c>
   11130:	02c12083          	lw	ra,44(sp)
   11134:	02812403          	lw	s0,40(sp)
   11138:	02412483          	lw	s1,36(sp)
   1113c:	02012903          	lw	s2,32(sp)
   11140:	03010113          	add	sp,sp,48
   11144:	00008067          	ret
   11148:	00000513          	li	a0,0
   1114c:	fe5ff06f          	j	11130 <_ZL20check_exception_specP16lsda_header_infoPKSt9type_infoPvl+0x5c>

00011150 <_ZL21base_of_encoded_valuehP15_Unwind_Context>:
   11150:	0ff00713          	li	a4,255
   11154:	00050793          	mv	a5,a0
   11158:	04e50063          	beq	a0,a4,11198 <_ZL21base_of_encoded_valuehP15_Unwind_Context+0x48>
   1115c:	0707f793          	and	a5,a5,112
   11160:	03000713          	li	a4,48
   11164:	00058513          	mv	a0,a1
   11168:	02e78e63          	beq	a5,a4,111a4 <_ZL21base_of_encoded_valuehP15_Unwind_Context+0x54>
   1116c:	00f76e63          	bltu	a4,a5,11188 <_ZL21base_of_encoded_valuehP15_Unwind_Context+0x38>
   11170:	02000713          	li	a4,32
   11174:	02e78663          	beq	a5,a4,111a0 <_ZL21base_of_encoded_valuehP15_Unwind_Context+0x50>
   11178:	02f77063          	bgeu	a4,a5,11198 <_ZL21base_of_encoded_valuehP15_Unwind_Context+0x48>
   1117c:	ff010113          	add	sp,sp,-16
   11180:	00112623          	sw	ra,12(sp)
   11184:	7b5120ef          	jal	24138 <abort>
   11188:	04000713          	li	a4,64
   1118c:	00e78e63          	beq	a5,a4,111a8 <_ZL21base_of_encoded_valuehP15_Unwind_Context+0x58>
   11190:	05000713          	li	a4,80
   11194:	fee794e3          	bne	a5,a4,1117c <_ZL21base_of_encoded_valuehP15_Unwind_Context+0x2c>
   11198:	00000513          	li	a0,0
   1119c:	00008067          	ret
   111a0:	1801106f          	j	22320 <_Unwind_GetTextRelBase>
   111a4:	1741106f          	j	22318 <_Unwind_GetDataRelBase>
   111a8:	1401106f          	j	222e8 <_Unwind_GetRegionStart>

000111ac <_ZL18read_encoded_valueP15_Unwind_ContexthPKhPj>:
   111ac:	fe010113          	add	sp,sp,-32
   111b0:	00812c23          	sw	s0,24(sp)
   111b4:	00058413          	mv	s0,a1
   111b8:	00050593          	mv	a1,a0
   111bc:	00040513          	mv	a0,s0
   111c0:	00112e23          	sw	ra,28(sp)
   111c4:	00c12623          	sw	a2,12(sp)
   111c8:	00d12423          	sw	a3,8(sp)
   111cc:	f85ff0ef          	jal	11150 <_ZL21base_of_encoded_valuehP15_Unwind_Context>
   111d0:	00050593          	mv	a1,a0
   111d4:	00040513          	mv	a0,s0
   111d8:	01812403          	lw	s0,24(sp)
   111dc:	00812683          	lw	a3,8(sp)
   111e0:	00c12603          	lw	a2,12(sp)
   111e4:	01c12083          	lw	ra,28(sp)
   111e8:	02010113          	add	sp,sp,32
   111ec:	ce1ff06f          	j	10ecc <_ZL28read_encoded_value_with_basehjPKhPj>

000111f0 <_ZL17parse_lsda_headerP15_Unwind_ContextPKhP16lsda_header_info>:
   111f0:	fe010113          	add	sp,sp,-32
   111f4:	00812c23          	sw	s0,24(sp)
   111f8:	00912a23          	sw	s1,20(sp)
   111fc:	01212823          	sw	s2,16(sp)
   11200:	00112e23          	sw	ra,28(sp)
   11204:	00050493          	mv	s1,a0
   11208:	00058913          	mv	s2,a1
   1120c:	00060413          	mv	s0,a2
   11210:	00000793          	li	a5,0
   11214:	00050663          	beqz	a0,11220 <_ZL17parse_lsda_headerP15_Unwind_ContextPKhP16lsda_header_info+0x30>
   11218:	0d0110ef          	jal	222e8 <_Unwind_GetRegionStart>
   1121c:	00050793          	mv	a5,a0
   11220:	00f42023          	sw	a5,0(s0)
   11224:	00094583          	lbu	a1,0(s2)
   11228:	0ff00713          	li	a4,255
   1122c:	00190613          	add	a2,s2,1
   11230:	06e58c63          	beq	a1,a4,112a8 <_ZL17parse_lsda_headerP15_Unwind_ContextPKhP16lsda_header_info+0xb8>
   11234:	00440693          	add	a3,s0,4
   11238:	00048513          	mv	a0,s1
   1123c:	f71ff0ef          	jal	111ac <_ZL18read_encoded_valueP15_Unwind_ContexthPKhPj>
   11240:	00050613          	mv	a2,a0
   11244:	00064703          	lbu	a4,0(a2)
   11248:	0ff00693          	li	a3,255
   1124c:	00160513          	add	a0,a2,1
   11250:	00e40a23          	sb	a4,20(s0)
   11254:	00000793          	li	a5,0
   11258:	00d70a63          	beq	a4,a3,1126c <_ZL17parse_lsda_headerP15_Unwind_ContextPKhP16lsda_header_info+0x7c>
   1125c:	00c10593          	add	a1,sp,12
   11260:	b69ff0ef          	jal	10dc8 <_ZL12read_uleb128PKhPm>
   11264:	00c12783          	lw	a5,12(sp)
   11268:	00f507b3          	add	a5,a0,a5
   1126c:	00f42623          	sw	a5,12(s0)
   11270:	00054783          	lbu	a5,0(a0)
   11274:	00c10593          	add	a1,sp,12
   11278:	00150513          	add	a0,a0,1
   1127c:	00f40aa3          	sb	a5,21(s0)
   11280:	b49ff0ef          	jal	10dc8 <_ZL12read_uleb128PKhPm>
   11284:	00c12783          	lw	a5,12(sp)
   11288:	01c12083          	lw	ra,28(sp)
   1128c:	01412483          	lw	s1,20(sp)
   11290:	00f507b3          	add	a5,a0,a5
   11294:	00f42823          	sw	a5,16(s0)
   11298:	01812403          	lw	s0,24(sp)
   1129c:	01012903          	lw	s2,16(sp)
   112a0:	02010113          	add	sp,sp,32
   112a4:	00008067          	ret
   112a8:	00f42223          	sw	a5,4(s0)
   112ac:	f99ff06f          	j	11244 <_ZL17parse_lsda_headerP15_Unwind_ContextPKhP16lsda_header_info+0x54>

000112b0 <__gxx_personality_v0>:
   112b0:	f8010113          	add	sp,sp,-128
   112b4:	00f12423          	sw	a5,8(sp)
   112b8:	06112e23          	sw	ra,124(sp)
   112bc:	06812c23          	sw	s0,120(sp)
   112c0:	06912a23          	sw	s1,116(sp)
   112c4:	07212823          	sw	s2,112(sp)
   112c8:	07312623          	sw	s3,108(sp)
   112cc:	07412423          	sw	s4,104(sp)
   112d0:	07512223          	sw	s5,100(sp)
   112d4:	07612023          	sw	s6,96(sp)
   112d8:	05712e23          	sw	s7,92(sp)
   112dc:	05812c23          	sw	s8,88(sp)
   112e0:	05912a23          	sw	s9,84(sp)
   112e4:	05a12823          	sw	s10,80(sp)
   112e8:	05b12623          	sw	s11,76(sp)
   112ec:	00012823          	sw	zero,16(sp)
   112f0:	00012a23          	sw	zero,20(sp)
   112f4:	00100793          	li	a5,1
   112f8:	36f51e63          	bne	a0,a5,11674 <__gxx_personality_v0+0x3c4>
   112fc:	bcd4da37          	lui	s4,0xbcd4d
   11300:	500a0a13          	add	s4,s4,1280 # bcd4d500 <__BSS_END__+0xbcd08c2c>
   11304:	b8b1b7b7          	lui	a5,0xb8b1b
   11308:	abc78793          	add	a5,a5,-1348 # b8b1aabc <__BSS_END__+0xb8ad61e8>
   1130c:	01460a33          	add	s4,a2,s4
   11310:	00f686b3          	add	a3,a3,a5
   11314:	00ca3633          	sltu	a2,s4,a2
   11318:	00600793          	li	a5,6
   1131c:	00058b93          	mv	s7,a1
   11320:	00070413          	mv	s0,a4
   11324:	00d60933          	add	s2,a2,a3
   11328:	04f59263          	bne	a1,a5,1136c <__gxx_personality_v0+0xbc>
   1132c:	04091063          	bnez	s2,1136c <__gxx_personality_v0+0xbc>
   11330:	03456e63          	bltu	a0,s4,1136c <__gxx_personality_v0+0xbc>
   11334:	ff472983          	lw	s3,-12(a4)
   11338:	fe872483          	lw	s1,-24(a4)
   1133c:	ff072c03          	lw	s8,-16(a4)
   11340:	00100793          	li	a5,1
   11344:	00098463          	beqz	s3,1134c <__gxx_personality_v0+0x9c>
   11348:	00300793          	li	a5,3
   1134c:	008bfb93          	and	s7,s7,8
   11350:	000b9863          	bnez	s7,11360 <__gxx_personality_v0+0xb0>
   11354:	00091663          	bnez	s2,11360 <__gxx_personality_v0+0xb0>
   11358:	00100713          	li	a4,1
   1135c:	2b477263          	bgeu	a4,s4,11600 <__gxx_personality_v0+0x350>
   11360:	00100713          	li	a4,1
   11364:	28e79663          	bne	a5,a4,115f0 <__gxx_personality_v0+0x340>
   11368:	418000ef          	jal	11780 <_ZSt9terminatev>
   1136c:	00812503          	lw	a0,8(sp)
   11370:	771100ef          	jal	222e0 <_Unwind_GetLanguageSpecificData>
   11374:	00050c13          	mv	s8,a0
   11378:	04051263          	bnez	a0,113bc <__gxx_personality_v0+0x10c>
   1137c:	00800513          	li	a0,8
   11380:	07c12083          	lw	ra,124(sp)
   11384:	07812403          	lw	s0,120(sp)
   11388:	07412483          	lw	s1,116(sp)
   1138c:	07012903          	lw	s2,112(sp)
   11390:	06c12983          	lw	s3,108(sp)
   11394:	06812a03          	lw	s4,104(sp)
   11398:	06412a83          	lw	s5,100(sp)
   1139c:	06012b03          	lw	s6,96(sp)
   113a0:	05c12b83          	lw	s7,92(sp)
   113a4:	05812c03          	lw	s8,88(sp)
   113a8:	05412c83          	lw	s9,84(sp)
   113ac:	05012d03          	lw	s10,80(sp)
   113b0:	04c12d83          	lw	s11,76(sp)
   113b4:	08010113          	add	sp,sp,128
   113b8:	00008067          	ret
   113bc:	00050593          	mv	a1,a0
   113c0:	00812503          	lw	a0,8(sp)
   113c4:	02810613          	add	a2,sp,40
   113c8:	e29ff0ef          	jal	111f0 <_ZL17parse_lsda_headerP15_Unwind_ContextPKhP16lsda_header_info>
   113cc:	00812583          	lw	a1,8(sp)
   113d0:	00a12623          	sw	a0,12(sp)
   113d4:	03c14503          	lbu	a0,60(sp)
   113d8:	d79ff0ef          	jal	11150 <_ZL21base_of_encoded_valuehP15_Unwind_Context>
   113dc:	02a12823          	sw	a0,48(sp)
   113e0:	00812503          	lw	a0,8(sp)
   113e4:	01410593          	add	a1,sp,20
   113e8:	6dd100ef          	jal	222c4 <_Unwind_GetIPInfo>
   113ec:	01412783          	lw	a5,20(sp)
   113f0:	00c12603          	lw	a2,12(sp)
   113f4:	00050993          	mv	s3,a0
   113f8:	00079463          	bnez	a5,11400 <__gxx_personality_v0+0x150>
   113fc:	fff50993          	add	s3,a0,-1
   11400:	03812b03          	lw	s6,56(sp)
   11404:	05666863          	bltu	a2,s6,11454 <__gxx_personality_v0+0x1a4>
   11408:	00000493          	li	s1,0
   1140c:	00000993          	li	s3,0
   11410:	00000b13          	li	s6,0
   11414:	00100793          	li	a5,1
   11418:	001bf713          	and	a4,s7,1
   1141c:	f20708e3          	beqz	a4,1134c <__gxx_personality_v0+0x9c>
   11420:	00200713          	li	a4,2
   11424:	f4e78ce3          	beq	a5,a4,1137c <__gxx_personality_v0+0xcc>
   11428:	02091263          	bnez	s2,1144c <__gxx_personality_v0+0x19c>
   1142c:	00100793          	li	a5,1
   11430:	0147ee63          	bltu	a5,s4,1144c <__gxx_personality_v0+0x19c>
   11434:	01012783          	lw	a5,16(sp)
   11438:	fe942423          	sw	s1,-24(s0)
   1143c:	ff642623          	sw	s6,-20(s0)
   11440:	ff842823          	sw	s8,-16(s0)
   11444:	fef42c23          	sw	a5,-8(s0)
   11448:	ff342a23          	sw	s3,-12(s0)
   1144c:	00600513          	li	a0,6
   11450:	f31ff06f          	j	11380 <__gxx_personality_v0+0xd0>
   11454:	03d14583          	lbu	a1,61(sp)
   11458:	01810693          	add	a3,sp,24
   1145c:	00000513          	li	a0,0
   11460:	00b12623          	sw	a1,12(sp)
   11464:	d49ff0ef          	jal	111ac <_ZL18read_encoded_valueP15_Unwind_ContexthPKhPj>
   11468:	00c12583          	lw	a1,12(sp)
   1146c:	00050613          	mv	a2,a0
   11470:	01c10693          	add	a3,sp,28
   11474:	00000513          	li	a0,0
   11478:	d35ff0ef          	jal	111ac <_ZL18read_encoded_valueP15_Unwind_ContexthPKhPj>
   1147c:	00c12583          	lw	a1,12(sp)
   11480:	00050613          	mv	a2,a0
   11484:	02010693          	add	a3,sp,32
   11488:	00000513          	li	a0,0
   1148c:	d21ff0ef          	jal	111ac <_ZL18read_encoded_valueP15_Unwind_ContexthPKhPj>
   11490:	02410593          	add	a1,sp,36
   11494:	935ff0ef          	jal	10dc8 <_ZL12read_uleb128PKhPm>
   11498:	02812783          	lw	a5,40(sp)
   1149c:	01812703          	lw	a4,24(sp)
   114a0:	00050613          	mv	a2,a0
   114a4:	00e787b3          	add	a5,a5,a4
   114a8:	0cf9e663          	bltu	s3,a5,11574 <__gxx_personality_v0+0x2c4>
   114ac:	01c12703          	lw	a4,28(sp)
   114b0:	00e787b3          	add	a5,a5,a4
   114b4:	f4f9f6e3          	bgeu	s3,a5,11400 <__gxx_personality_v0+0x150>
   114b8:	02012983          	lw	s3,32(sp)
   114bc:	00098663          	beqz	s3,114c8 <__gxx_personality_v0+0x218>
   114c0:	02c12783          	lw	a5,44(sp)
   114c4:	00f989b3          	add	s3,s3,a5
   114c8:	02412783          	lw	a5,36(sp)
   114cc:	08078a63          	beqz	a5,11560 <__gxx_personality_v0+0x2b0>
   114d0:	ea0986e3          	beqz	s3,1137c <__gxx_personality_v0+0xcc>
   114d4:	008bfd93          	and	s11,s7,8
   114d8:	0a0d9263          	bnez	s11,1157c <__gxx_personality_v0+0x2cc>
   114dc:	0a091463          	bnez	s2,11584 <__gxx_personality_v0+0x2d4>
   114e0:	00100713          	li	a4,1
   114e4:	0b476063          	bltu	a4,s4,11584 <__gxx_personality_v0+0x2d4>
   114e8:	00044683          	lbu	a3,0(s0)
   114ec:	02040713          	add	a4,s0,32
   114f0:	0016f693          	and	a3,a3,1
   114f4:	00068463          	beqz	a3,114fc <__gxx_personality_v0+0x24c>
   114f8:	fd042703          	lw	a4,-48(s0)
   114fc:	fb072a83          	lw	s5,-80(a4)
   11500:	00e12823          	sw	a4,16(sp)
   11504:	fff78793          	add	a5,a5,-1
   11508:	00fb0b33          	add	s6,s6,a5
   1150c:	00000d13          	li	s10,0
   11510:	01c10593          	add	a1,sp,28
   11514:	000b0513          	mv	a0,s6
   11518:	8e5ff0ef          	jal	10dfc <_ZL12read_sleb128PKhPl>
   1151c:	02010593          	add	a1,sp,32
   11520:	00050c93          	mv	s9,a0
   11524:	8d9ff0ef          	jal	10dfc <_ZL12read_sleb128PKhPl>
   11528:	01c12483          	lw	s1,28(sp)
   1152c:	0a048e63          	beqz	s1,115e8 <__gxx_personality_v0+0x338>
   11530:	04905e63          	blez	s1,1158c <__gxx_personality_v0+0x2dc>
   11534:	00048593          	mv	a1,s1
   11538:	02810513          	add	a0,sp,40
   1153c:	af9ff0ef          	jal	11034 <_ZL15get_ttype_entryP16lsda_header_infom>
   11540:	00050c63          	beqz	a0,11558 <__gxx_personality_v0+0x2a8>
   11544:	060a8a63          	beqz	s5,115b8 <__gxx_personality_v0+0x308>
   11548:	01010613          	add	a2,sp,16
   1154c:	000a8593          	mv	a1,s5
   11550:	8fdff0ef          	jal	10e4c <_ZL16get_adjusted_ptrPKSt9type_infoS1_PPv>
   11554:	06050263          	beqz	a0,115b8 <__gxx_personality_v0+0x308>
   11558:	00300793          	li	a5,3
   1155c:	ebdff06f          	j	11418 <__gxx_personality_v0+0x168>
   11560:	e0098ee3          	beqz	s3,1137c <__gxx_personality_v0+0xcc>
   11564:	00000493          	li	s1,0
   11568:	00000b13          	li	s6,0
   1156c:	00200793          	li	a5,2
   11570:	ea9ff06f          	j	11418 <__gxx_personality_v0+0x168>
   11574:	000b0613          	mv	a2,s6
   11578:	e89ff06f          	j	11400 <__gxx_personality_v0+0x150>
   1157c:	f1c18a93          	add	s5,gp,-228 # 443d4 <_ZTIN10__cxxabiv115__forced_unwindE>
   11580:	f85ff06f          	j	11504 <__gxx_personality_v0+0x254>
   11584:	f2418a93          	add	s5,gp,-220 # 443dc <_ZTIN10__cxxabiv119__foreign_exceptionE>
   11588:	f7dff06f          	j	11504 <__gxx_personality_v0+0x254>
   1158c:	020a8e63          	beqz	s5,115c8 <__gxx_personality_v0+0x318>
   11590:	020d9c63          	bnez	s11,115c8 <__gxx_personality_v0+0x318>
   11594:	02091a63          	bnez	s2,115c8 <__gxx_personality_v0+0x318>
   11598:	00100793          	li	a5,1
   1159c:	0347e663          	bltu	a5,s4,115c8 <__gxx_personality_v0+0x318>
   115a0:	01012603          	lw	a2,16(sp)
   115a4:	00048693          	mv	a3,s1
   115a8:	000a8593          	mv	a1,s5
   115ac:	02810513          	add	a0,sp,40
   115b0:	b25ff0ef          	jal	110d4 <_ZL20check_exception_specP16lsda_header_infoPKSt9type_infoPvl>
   115b4:	fa0502e3          	beqz	a0,11558 <__gxx_personality_v0+0x2a8>
   115b8:	02012483          	lw	s1,32(sp)
   115bc:	0c048063          	beqz	s1,1167c <__gxx_personality_v0+0x3cc>
   115c0:	009c8b33          	add	s6,s9,s1
   115c4:	f4dff06f          	j	11510 <__gxx_personality_v0+0x260>
   115c8:	03412783          	lw	a5,52(sp)
   115cc:	fff4c513          	not	a0,s1
   115d0:	02410593          	add	a1,sp,36
   115d4:	00a78533          	add	a0,a5,a0
   115d8:	ff0ff0ef          	jal	10dc8 <_ZL12read_uleb128PKhPm>
   115dc:	02412783          	lw	a5,36(sp)
   115e0:	fc079ce3          	bnez	a5,115b8 <__gxx_personality_v0+0x308>
   115e4:	f75ff06f          	j	11558 <__gxx_personality_v0+0x2a8>
   115e8:	00100d13          	li	s10,1
   115ec:	fcdff06f          	j	115b8 <__gxx_personality_v0+0x308>
   115f0:	0404d863          	bgez	s1,11640 <__gxx_personality_v0+0x390>
   115f4:	1ac000ef          	jal	117a0 <_ZSt10unexpectedv>
   115f8:	210070ef          	jal	18808 <__cxa_begin_catch>
   115fc:	d6dff06f          	j	11368 <__gxx_personality_v0+0xb8>
   11600:	00e79663          	bne	a5,a4,1160c <__gxx_personality_v0+0x35c>
   11604:	00040513          	mv	a0,s0
   11608:	1a0070ef          	jal	187a8 <__cxa_call_terminate>
   1160c:	0204da63          	bgez	s1,11640 <__gxx_personality_v0+0x390>
   11610:	00812503          	lw	a0,8(sp)
   11614:	02810613          	add	a2,sp,40
   11618:	000c0593          	mv	a1,s8
   1161c:	bd5ff0ef          	jal	111f0 <_ZL17parse_lsda_headerP15_Unwind_ContextPKhP16lsda_header_info>
   11620:	03c14903          	lbu	s2,60(sp)
   11624:	00812583          	lw	a1,8(sp)
   11628:	00090513          	mv	a0,s2
   1162c:	b25ff0ef          	jal	11150 <_ZL21base_of_encoded_valuehP15_Unwind_Context>
   11630:	00812583          	lw	a1,8(sp)
   11634:	00090513          	mv	a0,s2
   11638:	b19ff0ef          	jal	11150 <_ZL21base_of_encoded_valuehP15_Unwind_Context>
   1163c:	fea42a23          	sw	a0,-12(s0)
   11640:	00812503          	lw	a0,8(sp)
   11644:	00040613          	mv	a2,s0
   11648:	00a00593          	li	a1,10
   1164c:	401100ef          	jal	2224c <_Unwind_SetGR>
   11650:	00812503          	lw	a0,8(sp)
   11654:	00048613          	mv	a2,s1
   11658:	00b00593          	li	a1,11
   1165c:	3f1100ef          	jal	2224c <_Unwind_SetGR>
   11660:	00812503          	lw	a0,8(sp)
   11664:	00098593          	mv	a1,s3
   11668:	471100ef          	jal	222d8 <_Unwind_SetIP>
   1166c:	00700513          	li	a0,7
   11670:	d11ff06f          	j	11380 <__gxx_personality_v0+0xd0>
   11674:	00300513          	li	a0,3
   11678:	d09ff06f          	j	11380 <__gxx_personality_v0+0xd0>
   1167c:	d00d00e3          	beqz	s10,1137c <__gxx_personality_v0+0xcc>
   11680:	eedff06f          	j	1156c <__gxx_personality_v0+0x2bc>

00011684 <__cxa_call_unexpected>:
   11684:	fb010113          	add	sp,sp,-80
   11688:	04812423          	sw	s0,72(sp)
   1168c:	04912223          	sw	s1,68(sp)
   11690:	00050413          	mv	s0,a0
   11694:	05212023          	sw	s2,64(sp)
   11698:	03312e23          	sw	s3,60(sp)
   1169c:	04112623          	sw	ra,76(sp)
   116a0:	168070ef          	jal	18808 <__cxa_begin_catch>
   116a4:	ff442783          	lw	a5,-12(s0)
   116a8:	fd842503          	lw	a0,-40(s0)
   116ac:	ff042983          	lw	s3,-16(s0)
   116b0:	fe842483          	lw	s1,-24(s0)
   116b4:	fdc42903          	lw	s2,-36(s0)
   116b8:	02f12023          	sw	a5,32(sp)
   116bc:	0d4000ef          	jal	11790 <_ZN10__cxxabiv112__unexpectedEPFvvE>
   116c0:	148070ef          	jal	18808 <__cxa_begin_catch>
   116c4:	2c8070ef          	jal	1898c <__cxa_get_globals_fast>
   116c8:	00052783          	lw	a5,0(a0)
   116cc:	0307c703          	lbu	a4,48(a5)
   116d0:	05078413          	add	s0,a5,80
   116d4:	00177713          	and	a4,a4,1
   116d8:	00070463          	beqz	a4,116e0 <__cxa_call_unexpected+0x5c>
   116dc:	0007a403          	lw	s0,0(a5)
   116e0:	01810613          	add	a2,sp,24
   116e4:	00098593          	mv	a1,s3
   116e8:	00000513          	li	a0,0
   116ec:	b05ff0ef          	jal	111f0 <_ZL17parse_lsda_headerP15_Unwind_ContextPKhP16lsda_header_info>
   116f0:	fb042583          	lw	a1,-80(s0)
   116f4:	00048693          	mv	a3,s1
   116f8:	00040613          	mv	a2,s0
   116fc:	01810513          	add	a0,sp,24
   11700:	9d5ff0ef          	jal	110d4 <_ZL20check_exception_specP16lsda_header_infoPKSt9type_infoPvl>
   11704:	00050e63          	beqz	a0,11720 <__cxa_call_unexpected+0x9c>
   11708:	1fc000ef          	jal	11904 <__cxa_rethrow>
   1170c:	00a12623          	sw	a0,12(sp)
   11710:	19c070ef          	jal	188ac <__cxa_end_catch>
   11714:	198070ef          	jal	188ac <__cxa_end_catch>
   11718:	00c12503          	lw	a0,12(sp)
   1171c:	08c110ef          	jal	227a8 <_Unwind_Resume>
   11720:	0003b437          	lui	s0,0x3b
   11724:	00048693          	mv	a3,s1
   11728:	00000613          	li	a2,0
   1172c:	21840593          	add	a1,s0,536 # 3b218 <_ZTISt13bad_exception>
   11730:	01810513          	add	a0,sp,24
   11734:	9a1ff0ef          	jal	110d4 <_ZL20check_exception_specP16lsda_header_infoPKSt9type_infoPvl>
   11738:	02050463          	beqz	a0,11760 <__cxa_call_unexpected+0xdc>
   1173c:	00400513          	li	a0,4
   11740:	cccff0ef          	jal	10c0c <__cxa_allocate_exception>
   11744:	0003b7b7          	lui	a5,0x3b
   11748:	28478793          	add	a5,a5,644 # 3b284 <_ZTVSt13bad_exception+0x8>
   1174c:	00011637          	lui	a2,0x11
   11750:	00f52023          	sw	a5,0(a0)
   11754:	d7c60613          	add	a2,a2,-644 # 10d7c <_ZNSt13bad_exceptionD1Ev>
   11758:	21840593          	add	a1,s0,536
   1175c:	150000ef          	jal	118ac <__cxa_throw>
   11760:	00090513          	mv	a0,s2
   11764:	004000ef          	jal	11768 <_ZN10__cxxabiv111__terminateEPFvvE>

00011768 <_ZN10__cxxabiv111__terminateEPFvvE>:
   11768:	ff010113          	add	sp,sp,-16
   1176c:	00112623          	sw	ra,12(sp)
   11770:	000500e7          	jalr	a0
   11774:	1c5120ef          	jal	24138 <abort>
   11778:	090070ef          	jal	18808 <__cxa_begin_catch>
   1177c:	1bd120ef          	jal	24138 <abort>

00011780 <_ZSt9terminatev>:
   11780:	f981a503          	lw	a0,-104(gp) # 44450 <_ZN10__cxxabiv119__terminate_handlerE>
   11784:	ff010113          	add	sp,sp,-16
   11788:	00112623          	sw	ra,12(sp)
   1178c:	fddff0ef          	jal	11768 <_ZN10__cxxabiv111__terminateEPFvvE>

00011790 <_ZN10__cxxabiv112__unexpectedEPFvvE>:
   11790:	ff010113          	add	sp,sp,-16
   11794:	00112623          	sw	ra,12(sp)
   11798:	000500e7          	jalr	a0
   1179c:	fe5ff0ef          	jal	11780 <_ZSt9terminatev>

000117a0 <_ZSt10unexpectedv>:
   117a0:	f901a503          	lw	a0,-112(gp) # 44448 <_ZN10__cxxabiv120__unexpected_handlerE>
   117a4:	ff010113          	add	sp,sp,-16
   117a8:	00112623          	sw	ra,12(sp)
   117ac:	fe5ff0ef          	jal	11790 <_ZN10__cxxabiv112__unexpectedEPFvvE>

000117b0 <_ZSt13set_terminatePFvvE>:
   117b0:	00050793          	mv	a5,a0
   117b4:	00051663          	bnez	a0,117c0 <_ZSt13set_terminatePFvvE+0x10>
   117b8:	000127b7          	lui	a5,0x12
   117bc:	cd078793          	add	a5,a5,-816 # 11cd0 <_ZN9__gnu_cxx27__verbose_terminate_handlerEv>
   117c0:	f981a503          	lw	a0,-104(gp) # 44450 <_ZN10__cxxabiv119__terminate_handlerE>
   117c4:	f8f1ac23          	sw	a5,-104(gp) # 44450 <_ZN10__cxxabiv119__terminate_handlerE>
   117c8:	00008067          	ret

000117cc <_ZSt13get_terminatev>:
   117cc:	f981a503          	lw	a0,-104(gp) # 44450 <_ZN10__cxxabiv119__terminate_handlerE>
   117d0:	00008067          	ret

000117d4 <_ZSt14set_unexpectedPFvvE>:
   117d4:	00050793          	mv	a5,a0
   117d8:	00051663          	bnez	a0,117e4 <_ZSt14set_unexpectedPFvvE+0x10>
   117dc:	000117b7          	lui	a5,0x11
   117e0:	78078793          	add	a5,a5,1920 # 11780 <_ZSt9terminatev>
   117e4:	f901a503          	lw	a0,-112(gp) # 44448 <_ZN10__cxxabiv120__unexpected_handlerE>
   117e8:	f8f1a823          	sw	a5,-112(gp) # 44448 <_ZN10__cxxabiv120__unexpected_handlerE>
   117ec:	00008067          	ret

000117f0 <_ZSt14get_unexpectedv>:
   117f0:	f901a503          	lw	a0,-112(gp) # 44448 <_ZN10__cxxabiv120__unexpected_handlerE>
   117f4:	00008067          	ret

000117f8 <_ZL23__gxx_exception_cleanup19_Unwind_Reason_CodeP17_Unwind_Exception>:
   117f8:	fe010113          	add	sp,sp,-32
   117fc:	00112e23          	sw	ra,28(sp)
   11800:	00100793          	li	a5,1
   11804:	00a7f663          	bgeu	a5,a0,11810 <_ZL23__gxx_exception_cleanup19_Unwind_Reason_CodeP17_Unwind_Exception+0x18>
   11808:	fdc5a503          	lw	a0,-36(a1)
   1180c:	f5dff0ef          	jal	11768 <_ZN10__cxxabiv111__terminateEPFvvE>
   11810:	fc05a703          	lw	a4,-64(a1)
   11814:	fff70693          	add	a3,a4,-1
   11818:	fcd5a023          	sw	a3,-64(a1)
   1181c:	02f71463          	bne	a4,a5,11844 <_ZL23__gxx_exception_cleanup19_Unwind_Reason_CodeP17_Unwind_Exception+0x4c>
   11820:	fd45a783          	lw	a5,-44(a1)
   11824:	02058513          	add	a0,a1,32
   11828:	00078863          	beqz	a5,11838 <_ZL23__gxx_exception_cleanup19_Unwind_Reason_CodeP17_Unwind_Exception+0x40>
   1182c:	00a12623          	sw	a0,12(sp)
   11830:	000780e7          	jalr	a5
   11834:	00c12503          	lw	a0,12(sp)
   11838:	01c12083          	lw	ra,28(sp)
   1183c:	02010113          	add	sp,sp,32
   11840:	c24ff06f          	j	10c64 <__cxa_free_exception>
   11844:	01c12083          	lw	ra,28(sp)
   11848:	02010113          	add	sp,sp,32
   1184c:	00008067          	ret

00011850 <__cxa_init_primary_exception>:
   11850:	ff010113          	add	sp,sp,-16
   11854:	00112623          	sw	ra,12(sp)
   11858:	00812423          	sw	s0,8(sp)
   1185c:	fab52823          	sw	a1,-80(a0)
   11860:	fac52a23          	sw	a2,-76(a0)
   11864:	fa052023          	sw	zero,-96(a0)
   11868:	00050413          	mv	s0,a0
   1186c:	f85ff0ef          	jal	117f0 <_ZSt14get_unexpectedv>
   11870:	faa42c23          	sw	a0,-72(s0)
   11874:	f59ff0ef          	jal	117cc <_ZSt13get_terminatev>
   11878:	ea81a703          	lw	a4,-344(gp) # 44360 <__SDATA_BEGIN__>
   1187c:	eac1a783          	lw	a5,-340(gp) # 44364 <__SDATA_BEGIN__+0x4>
   11880:	faa42e23          	sw	a0,-68(s0)
   11884:	00c12083          	lw	ra,12(sp)
   11888:	fef42223          	sw	a5,-28(s0)
   1188c:	000117b7          	lui	a5,0x11
   11890:	7f878793          	add	a5,a5,2040 # 117f8 <_ZL23__gxx_exception_cleanup19_Unwind_Reason_CodeP17_Unwind_Exception>
   11894:	fee42023          	sw	a4,-32(s0)
   11898:	fef42423          	sw	a5,-24(s0)
   1189c:	fa040513          	add	a0,s0,-96
   118a0:	00812403          	lw	s0,8(sp)
   118a4:	01010113          	add	sp,sp,16
   118a8:	00008067          	ret

000118ac <__cxa_throw>:
   118ac:	fe010113          	add	sp,sp,-32
   118b0:	00112e23          	sw	ra,28(sp)
   118b4:	00812c23          	sw	s0,24(sp)
   118b8:	00b12623          	sw	a1,12(sp)
   118bc:	00050413          	mv	s0,a0
   118c0:	00c12423          	sw	a2,8(sp)
   118c4:	0d0070ef          	jal	18994 <__cxa_get_globals>
   118c8:	00452783          	lw	a5,4(a0)
   118cc:	00812603          	lw	a2,8(sp)
   118d0:	00c12583          	lw	a1,12(sp)
   118d4:	00178793          	add	a5,a5,1
   118d8:	00f52223          	sw	a5,4(a0)
   118dc:	00040513          	mv	a0,s0
   118e0:	f71ff0ef          	jal	11850 <__cxa_init_primary_exception>
   118e4:	00100793          	li	a5,1
   118e8:	04050413          	add	s0,a0,64
   118ec:	00f52023          	sw	a5,0(a0)
   118f0:	00040513          	mv	a0,s0
   118f4:	321100ef          	jal	22414 <_Unwind_RaiseException>
   118f8:	00040513          	mv	a0,s0
   118fc:	70d060ef          	jal	18808 <__cxa_begin_catch>
   11900:	e81ff0ef          	jal	11780 <_ZSt9terminatev>

00011904 <__cxa_rethrow>:
   11904:	ff010113          	add	sp,sp,-16
   11908:	00112623          	sw	ra,12(sp)
   1190c:	00812423          	sw	s0,8(sp)
   11910:	084070ef          	jal	18994 <__cxa_get_globals>
   11914:	00452703          	lw	a4,4(a0)
   11918:	00052783          	lw	a5,0(a0)
   1191c:	00170713          	add	a4,a4,1
   11920:	00e52223          	sw	a4,4(a0)
   11924:	04078863          	beqz	a5,11974 <__cxa_rethrow+0x70>
   11928:	0307a683          	lw	a3,48(a5)
   1192c:	0347a603          	lw	a2,52(a5)
   11930:	bcd4d737          	lui	a4,0xbcd4d
   11934:	50070713          	add	a4,a4,1280 # bcd4d500 <__BSS_END__+0xbcd08c2c>
   11938:	b8b1b5b7          	lui	a1,0xb8b1b
   1193c:	abc58593          	add	a1,a1,-1348 # b8b1aabc <__BSS_END__+0xb8ad61e8>
   11940:	00e68733          	add	a4,a3,a4
   11944:	00d736b3          	sltu	a3,a4,a3
   11948:	00b60633          	add	a2,a2,a1
   1194c:	00c686b3          	add	a3,a3,a2
   11950:	00069663          	bnez	a3,1195c <__cxa_rethrow+0x58>
   11954:	00100693          	li	a3,1
   11958:	02e6f063          	bgeu	a3,a4,11978 <__cxa_rethrow+0x74>
   1195c:	00052023          	sw	zero,0(a0)
   11960:	03078413          	add	s0,a5,48
   11964:	00040513          	mv	a0,s0
   11968:	751100ef          	jal	228b8 <_Unwind_Resume_or_Rethrow>
   1196c:	00040513          	mv	a0,s0
   11970:	699060ef          	jal	18808 <__cxa_begin_catch>
   11974:	e0dff0ef          	jal	11780 <_ZSt9terminatev>
   11978:	0147a703          	lw	a4,20(a5)
   1197c:	40e00733          	neg	a4,a4
   11980:	00e7aa23          	sw	a4,20(a5)
   11984:	fddff06f          	j	11960 <__cxa_rethrow+0x5c>

00011988 <_ZSt15set_new_handlerPFvvE>:
   11988:	fb01a703          	lw	a4,-80(gp) # 44468 <_ZN12_GLOBAL__N_113__new_handlerE>
   1198c:	faa1a823          	sw	a0,-80(gp) # 44468 <_ZN12_GLOBAL__N_113__new_handlerE>
   11990:	00070513          	mv	a0,a4
   11994:	00008067          	ret

00011998 <_ZSt15get_new_handlerv>:
   11998:	fb01a503          	lw	a0,-80(gp) # 44468 <_ZN12_GLOBAL__N_113__new_handlerE>
   1199c:	00008067          	ret

000119a0 <_ZN10__cxxabiv120__si_class_type_infoD1Ev>:
   119a0:	0003b7b7          	lui	a5,0x3b
   119a4:	32878793          	add	a5,a5,808 # 3b328 <_ZTVN10__cxxabiv120__si_class_type_infoE+0x8>
   119a8:	00f52023          	sw	a5,0(a0)
   119ac:	1250006f          	j	122d0 <_ZN10__cxxabiv117__class_type_infoD1Ev>

000119b0 <_ZN10__cxxabiv120__si_class_type_infoD0Ev>:
   119b0:	ff010113          	add	sp,sp,-16
   119b4:	00812423          	sw	s0,8(sp)
   119b8:	00112623          	sw	ra,12(sp)
   119bc:	00050413          	mv	s0,a0
   119c0:	fe1ff0ef          	jal	119a0 <_ZN10__cxxabiv120__si_class_type_infoD1Ev>
   119c4:	00040513          	mv	a0,s0
   119c8:	00812403          	lw	s0,8(sp)
   119cc:	00c12083          	lw	ra,12(sp)
   119d0:	00c00593          	li	a1,12
   119d4:	01010113          	add	sp,sp,16
   119d8:	90cff06f          	j	10ae4 <_ZdlPvj>

000119dc <_ZNKSt9type_infoeqERKS_.isra.0>:
   119dc:	04b50063          	beq	a0,a1,11a1c <_ZNKSt9type_infoeqERKS_.isra.0+0x40>
   119e0:	00054683          	lbu	a3,0(a0)
   119e4:	02a00713          	li	a4,42
   119e8:	00000793          	li	a5,0
   119ec:	02e68a63          	beq	a3,a4,11a20 <_ZNKSt9type_infoeqERKS_.isra.0+0x44>
   119f0:	0005c783          	lbu	a5,0(a1)
   119f4:	ff010113          	add	sp,sp,-16
   119f8:	00112623          	sw	ra,12(sp)
   119fc:	00e79463          	bne	a5,a4,11a04 <_ZNKSt9type_infoeqERKS_.isra.0+0x28>
   11a00:	00158593          	add	a1,a1,1
   11a04:	429150ef          	jal	2762c <strcmp>
   11a08:	00c12083          	lw	ra,12(sp)
   11a0c:	00153793          	seqz	a5,a0
   11a10:	00078513          	mv	a0,a5
   11a14:	01010113          	add	sp,sp,16
   11a18:	00008067          	ret
   11a1c:	00100793          	li	a5,1
   11a20:	00078513          	mv	a0,a5
   11a24:	00008067          	ret

00011a28 <_ZNK10__cxxabiv120__si_class_type_info12__do_dyncastEiNS_17__class_type_info10__sub_kindEPKS1_PKvS4_S6_RNS1_16__dyncast_resultE>:
   11a28:	fd010113          	add	sp,sp,-48
   11a2c:	01812423          	sw	s8,8(sp)
   11a30:	00452c03          	lw	s8,4(a0)
   11a34:	03212023          	sw	s2,32(sp)
   11a38:	00058913          	mv	s2,a1
   11a3c:	0046a583          	lw	a1,4(a3)
   11a40:	01712623          	sw	s7,12(sp)
   11a44:	00050b93          	mv	s7,a0
   11a48:	000c0513          	mv	a0,s8
   11a4c:	02812423          	sw	s0,40(sp)
   11a50:	02912223          	sw	s1,36(sp)
   11a54:	01312e23          	sw	s3,28(sp)
   11a58:	01412c23          	sw	s4,24(sp)
   11a5c:	01512a23          	sw	s5,20(sp)
   11a60:	01612823          	sw	s6,16(sp)
   11a64:	02112623          	sw	ra,44(sp)
   11a68:	00060993          	mv	s3,a2
   11a6c:	00068a93          	mv	s5,a3
   11a70:	00070413          	mv	s0,a4
   11a74:	00078b13          	mv	s6,a5
   11a78:	00080a13          	mv	s4,a6
   11a7c:	00088493          	mv	s1,a7
   11a80:	f5dff0ef          	jal	119dc <_ZNKSt9type_infoeqERKS_.isra.0>
   11a84:	06050463          	beqz	a0,11aec <_ZNK10__cxxabiv120__si_class_type_info12__do_dyncastEiNS_17__class_type_info10__sub_kindEPKS1_PKvS4_S6_RNS1_16__dyncast_resultE+0xc4>
   11a88:	0084a023          	sw	s0,0(s1)
   11a8c:	0134a223          	sw	s3,4(s1)
   11a90:	04094663          	bltz	s2,11adc <_ZNK10__cxxabiv120__si_class_type_info12__do_dyncastEiNS_17__class_type_info10__sub_kindEPKS1_PKvS4_S6_RNS1_16__dyncast_resultE+0xb4>
   11a94:	01240433          	add	s0,s0,s2
   11a98:	00100793          	li	a5,1
   11a9c:	008a1463          	bne	s4,s0,11aa4 <_ZNK10__cxxabiv120__si_class_type_info12__do_dyncastEiNS_17__class_type_info10__sub_kindEPKS1_PKvS4_S6_RNS1_16__dyncast_resultE+0x7c>
   11aa0:	00600793          	li	a5,6
   11aa4:	00f4a623          	sw	a5,12(s1)
   11aa8:	02c12083          	lw	ra,44(sp)
   11aac:	02812403          	lw	s0,40(sp)
   11ab0:	02412483          	lw	s1,36(sp)
   11ab4:	02012903          	lw	s2,32(sp)
   11ab8:	01c12983          	lw	s3,28(sp)
   11abc:	01812a03          	lw	s4,24(sp)
   11ac0:	01412a83          	lw	s5,20(sp)
   11ac4:	01012b03          	lw	s6,16(sp)
   11ac8:	00c12b83          	lw	s7,12(sp)
   11acc:	00812c03          	lw	s8,8(sp)
   11ad0:	00000513          	li	a0,0
   11ad4:	03010113          	add	sp,sp,48
   11ad8:	00008067          	ret
   11adc:	ffe00793          	li	a5,-2
   11ae0:	fcf914e3          	bne	s2,a5,11aa8 <_ZNK10__cxxabiv120__si_class_type_info12__do_dyncastEiNS_17__class_type_info10__sub_kindEPKS1_PKvS4_S6_RNS1_16__dyncast_resultE+0x80>
   11ae4:	00100793          	li	a5,1
   11ae8:	fbdff06f          	j	11aa4 <_ZNK10__cxxabiv120__si_class_type_info12__do_dyncastEiNS_17__class_type_info10__sub_kindEPKS1_PKvS4_S6_RNS1_16__dyncast_resultE+0x7c>
   11aec:	01441e63          	bne	s0,s4,11b08 <_ZNK10__cxxabiv120__si_class_type_info12__do_dyncastEiNS_17__class_type_info10__sub_kindEPKS1_PKvS4_S6_RNS1_16__dyncast_resultE+0xe0>
   11af0:	004b2583          	lw	a1,4(s6)
   11af4:	000c0513          	mv	a0,s8
   11af8:	ee5ff0ef          	jal	119dc <_ZNKSt9type_infoeqERKS_.isra.0>
   11afc:	00050663          	beqz	a0,11b08 <_ZNK10__cxxabiv120__si_class_type_info12__do_dyncastEiNS_17__class_type_info10__sub_kindEPKS1_PKvS4_S6_RNS1_16__dyncast_resultE+0xe0>
   11b00:	0134a423          	sw	s3,8(s1)
   11b04:	fa5ff06f          	j	11aa8 <_ZNK10__cxxabiv120__si_class_type_info12__do_dyncastEiNS_17__class_type_info10__sub_kindEPKS1_PKvS4_S6_RNS1_16__dyncast_resultE+0x80>
   11b08:	008ba503          	lw	a0,8(s7)
   11b0c:	00040713          	mv	a4,s0
   11b10:	02812403          	lw	s0,40(sp)
   11b14:	00052783          	lw	a5,0(a0)
   11b18:	02c12083          	lw	ra,44(sp)
   11b1c:	00c12b83          	lw	s7,12(sp)
   11b20:	01c7a303          	lw	t1,28(a5)
   11b24:	00812c03          	lw	s8,8(sp)
   11b28:	00048893          	mv	a7,s1
   11b2c:	000a0813          	mv	a6,s4
   11b30:	02412483          	lw	s1,36(sp)
   11b34:	01812a03          	lw	s4,24(sp)
   11b38:	000b0793          	mv	a5,s6
   11b3c:	000a8693          	mv	a3,s5
   11b40:	01012b03          	lw	s6,16(sp)
   11b44:	01412a83          	lw	s5,20(sp)
   11b48:	00098613          	mv	a2,s3
   11b4c:	00090593          	mv	a1,s2
   11b50:	01c12983          	lw	s3,28(sp)
   11b54:	02012903          	lw	s2,32(sp)
   11b58:	03010113          	add	sp,sp,48
   11b5c:	00030067          	jr	t1

00011b60 <_ZNK10__cxxabiv120__si_class_type_info20__do_find_public_srcEiPKvPKNS_17__class_type_infoES2_>:
   11b60:	fe010113          	add	sp,sp,-32
   11b64:	00812c23          	sw	s0,24(sp)
   11b68:	00912a23          	sw	s1,20(sp)
   11b6c:	00112e23          	sw	ra,28(sp)
   11b70:	00050413          	mv	s0,a0
   11b74:	00058493          	mv	s1,a1
   11b78:	02c71663          	bne	a4,a2,11ba4 <_ZNK10__cxxabiv120__si_class_type_info20__do_find_public_srcEiPKvPKNS_17__class_type_infoES2_+0x44>
   11b7c:	0046a583          	lw	a1,4(a3)
   11b80:	00452503          	lw	a0,4(a0)
   11b84:	00e12623          	sw	a4,12(sp)
   11b88:	00c12423          	sw	a2,8(sp)
   11b8c:	00d12223          	sw	a3,4(sp)
   11b90:	e4dff0ef          	jal	119dc <_ZNKSt9type_infoeqERKS_.isra.0>
   11b94:	00412683          	lw	a3,4(sp)
   11b98:	00812603          	lw	a2,8(sp)
   11b9c:	00c12703          	lw	a4,12(sp)
   11ba0:	02051463          	bnez	a0,11bc8 <_ZNK10__cxxabiv120__si_class_type_info20__do_find_public_srcEiPKvPKNS_17__class_type_infoES2_+0x68>
   11ba4:	00842503          	lw	a0,8(s0)
   11ba8:	01812403          	lw	s0,24(sp)
   11bac:	01c12083          	lw	ra,28(sp)
   11bb0:	00052783          	lw	a5,0(a0)
   11bb4:	00048593          	mv	a1,s1
   11bb8:	01412483          	lw	s1,20(sp)
   11bbc:	0207a783          	lw	a5,32(a5)
   11bc0:	02010113          	add	sp,sp,32
   11bc4:	00078067          	jr	a5
   11bc8:	01c12083          	lw	ra,28(sp)
   11bcc:	01812403          	lw	s0,24(sp)
   11bd0:	01412483          	lw	s1,20(sp)
   11bd4:	00600513          	li	a0,6
   11bd8:	02010113          	add	sp,sp,32
   11bdc:	00008067          	ret

00011be0 <_ZNK10__cxxabiv120__si_class_type_info11__do_upcastEPKNS_17__class_type_infoEPKvRNS1_15__upcast_resultE>:
   11be0:	fe010113          	add	sp,sp,-32
   11be4:	00812c23          	sw	s0,24(sp)
   11be8:	00912a23          	sw	s1,20(sp)
   11bec:	01212823          	sw	s2,16(sp)
   11bf0:	01312623          	sw	s3,12(sp)
   11bf4:	00112e23          	sw	ra,28(sp)
   11bf8:	00050993          	mv	s3,a0
   11bfc:	00058413          	mv	s0,a1
   11c00:	00060493          	mv	s1,a2
   11c04:	00068913          	mv	s2,a3
   11c08:	750000ef          	jal	12358 <_ZNK10__cxxabiv117__class_type_info11__do_upcastEPKS0_PKvRNS0_15__upcast_resultE>
   11c0c:	02051c63          	bnez	a0,11c44 <_ZNK10__cxxabiv120__si_class_type_info11__do_upcastEPKNS_17__class_type_infoEPKvRNS1_15__upcast_resultE+0x64>
   11c10:	0089a503          	lw	a0,8(s3)
   11c14:	00040593          	mv	a1,s0
   11c18:	01812403          	lw	s0,24(sp)
   11c1c:	00052783          	lw	a5,0(a0)
   11c20:	01c12083          	lw	ra,28(sp)
   11c24:	00c12983          	lw	s3,12(sp)
   11c28:	0187a783          	lw	a5,24(a5)
   11c2c:	00090693          	mv	a3,s2
   11c30:	00048613          	mv	a2,s1
   11c34:	01012903          	lw	s2,16(sp)
   11c38:	01412483          	lw	s1,20(sp)
   11c3c:	02010113          	add	sp,sp,32
   11c40:	00078067          	jr	a5
   11c44:	01c12083          	lw	ra,28(sp)
   11c48:	01812403          	lw	s0,24(sp)
   11c4c:	01412483          	lw	s1,20(sp)
   11c50:	01012903          	lw	s2,16(sp)
   11c54:	00c12983          	lw	s3,12(sp)
   11c58:	02010113          	add	sp,sp,32
   11c5c:	00008067          	ret

00011c60 <_ZNSt9type_infoD1Ev>:
   11c60:	00008067          	ret

00011c64 <_ZNKSt9type_info14__is_pointer_pEv>:
   11c64:	00000513          	li	a0,0
   11c68:	00008067          	ret

00011c6c <_ZNKSt9type_info11__do_upcastEPKN10__cxxabiv117__class_type_infoEPPv>:
   11c6c:	00000513          	li	a0,0
   11c70:	00008067          	ret

00011c74 <_ZNSt9type_infoD0Ev>:
   11c74:	00800593          	li	a1,8
   11c78:	e6dfe06f          	j	10ae4 <_ZdlPvj>

00011c7c <_ZNKSt9type_info10__do_catchEPKS_PPvj>:
   11c7c:	00452783          	lw	a5,4(a0)
   11c80:	0045a583          	lw	a1,4(a1)
   11c84:	04b78063          	beq	a5,a1,11cc4 <_ZNKSt9type_info10__do_catchEPKS_PPvj+0x48>
   11c88:	0007c683          	lbu	a3,0(a5)
   11c8c:	02a00713          	li	a4,42
   11c90:	00000513          	li	a0,0
   11c94:	02e68c63          	beq	a3,a4,11ccc <_ZNKSt9type_info10__do_catchEPKS_PPvj+0x50>
   11c98:	ff010113          	add	sp,sp,-16
   11c9c:	00112623          	sw	ra,12(sp)
   11ca0:	0005c683          	lbu	a3,0(a1)
   11ca4:	00e69463          	bne	a3,a4,11cac <_ZNKSt9type_info10__do_catchEPKS_PPvj+0x30>
   11ca8:	00158593          	add	a1,a1,1
   11cac:	00078513          	mv	a0,a5
   11cb0:	17d150ef          	jal	2762c <strcmp>
   11cb4:	00c12083          	lw	ra,12(sp)
   11cb8:	00153513          	seqz	a0,a0
   11cbc:	01010113          	add	sp,sp,16
   11cc0:	00008067          	ret
   11cc4:	00100513          	li	a0,1
   11cc8:	00008067          	ret
   11ccc:	00008067          	ret

00011cd0 <_ZN9__gnu_cxx27__verbose_terminate_handlerEv>:
   11cd0:	fb41c703          	lbu	a4,-76(gp) # 4446c <_ZZN9__gnu_cxx27__verbose_terminate_handlerEvE11terminating>
   11cd4:	fd010113          	add	sp,sp,-48
   11cd8:	02812423          	sw	s0,40(sp)
   11cdc:	02112623          	sw	ra,44(sp)
   11ce0:	02912223          	sw	s1,36(sp)
   11ce4:	03212023          	sw	s2,32(sp)
   11ce8:	00070e63          	beqz	a4,11d04 <_ZN9__gnu_cxx27__verbose_terminate_handlerEv+0x34>
   11cec:	fa81a783          	lw	a5,-88(gp) # 44460 <_impure_ptr>
   11cf0:	0003a537          	lui	a0,0x3a
   11cf4:	3f450513          	add	a0,a0,1012 # 3a3f4 <__clzsi2+0x1a0>
   11cf8:	00c7a583          	lw	a1,12(a5)
   11cfc:	27d130ef          	jal	25778 <fputs>
   11d00:	438120ef          	jal	24138 <abort>
   11d04:	00100713          	li	a4,1
   11d08:	fae18a23          	sb	a4,-76(gp) # 4446c <_ZZN9__gnu_cxx27__verbose_terminate_handlerEvE11terminating>
   11d0c:	491060ef          	jal	1899c <__cxa_current_exception_type>
   11d10:	0c050863          	beqz	a0,11de0 <_ZN9__gnu_cxx27__verbose_terminate_handlerEv+0x110>
   11d14:	00452483          	lw	s1,4(a0)
   11d18:	02a00793          	li	a5,42
   11d1c:	0004c703          	lbu	a4,0(s1)
   11d20:	00f71463          	bne	a4,a5,11d28 <_ZN9__gnu_cxx27__verbose_terminate_handlerEv+0x58>
   11d24:	00148493          	add	s1,s1,1
   11d28:	fff00793          	li	a5,-1
   11d2c:	01c10693          	add	a3,sp,28
   11d30:	00000613          	li	a2,0
   11d34:	00000593          	li	a1,0
   11d38:	00048513          	mv	a0,s1
   11d3c:	00f12e23          	sw	a5,28(sp)
   11d40:	10d060ef          	jal	1864c <__cxa_demangle>
   11d44:	fa81a783          	lw	a5,-88(gp) # 44460 <_impure_ptr>
   11d48:	00050913          	mv	s2,a0
   11d4c:	0003a537          	lui	a0,0x3a
   11d50:	00c7a583          	lw	a1,12(a5)
   11d54:	41450513          	add	a0,a0,1044 # 3a414 <__clzsi2+0x1c0>
   11d58:	221130ef          	jal	25778 <fputs>
   11d5c:	01c12783          	lw	a5,28(sp)
   11d60:	06079863          	bnez	a5,11dd0 <_ZN9__gnu_cxx27__verbose_terminate_handlerEv+0x100>
   11d64:	fa81a783          	lw	a5,-88(gp) # 44460 <_impure_ptr>
   11d68:	00090513          	mv	a0,s2
   11d6c:	00c7a583          	lw	a1,12(a5)
   11d70:	209130ef          	jal	25778 <fputs>
   11d74:	fa81a783          	lw	a5,-88(gp) # 44460 <_impure_ptr>
   11d78:	0003a537          	lui	a0,0x3a
   11d7c:	44850513          	add	a0,a0,1096 # 3a448 <__clzsi2+0x1f4>
   11d80:	00c7a583          	lw	a1,12(a5)
   11d84:	1f5130ef          	jal	25778 <fputs>
   11d88:	01c12783          	lw	a5,28(sp)
   11d8c:	00079663          	bnez	a5,11d98 <_ZN9__gnu_cxx27__verbose_terminate_handlerEv+0xc8>
   11d90:	00090513          	mv	a0,s2
   11d94:	548120ef          	jal	242dc <free>
   11d98:	b6dff0ef          	jal	11904 <__cxa_rethrow>
   11d9c:	00100793          	li	a5,1
   11da0:	06f59e63          	bne	a1,a5,11e1c <_ZN9__gnu_cxx27__verbose_terminate_handlerEv+0x14c>
   11da4:	265060ef          	jal	18808 <__cxa_begin_catch>
   11da8:	00052783          	lw	a5,0(a0)
   11dac:	0087a783          	lw	a5,8(a5)
   11db0:	000780e7          	jalr	a5
   11db4:	fa81a783          	lw	a5,-88(gp) # 44460 <_impure_ptr>
   11db8:	00050493          	mv	s1,a0
   11dbc:	0003a537          	lui	a0,0x3a
   11dc0:	00c7a583          	lw	a1,12(a5)
   11dc4:	47c50513          	add	a0,a0,1148 # 3a47c <__clzsi2+0x228>
   11dc8:	1b1130ef          	jal	25778 <fputs>
   11dcc:	0280006f          	j	11df4 <_ZN9__gnu_cxx27__verbose_terminate_handlerEv+0x124>
   11dd0:	fa81a783          	lw	a5,-88(gp) # 44460 <_impure_ptr>
   11dd4:	00048513          	mv	a0,s1
   11dd8:	00c7a583          	lw	a1,12(a5)
   11ddc:	f95ff06f          	j	11d70 <_ZN9__gnu_cxx27__verbose_terminate_handlerEv+0xa0>
   11de0:	fa81a783          	lw	a5,-88(gp) # 44460 <_impure_ptr>
   11de4:	0003a537          	lui	a0,0x3a
   11de8:	44c50513          	add	a0,a0,1100 # 3a44c <__clzsi2+0x1f8>
   11dec:	00c7a583          	lw	a1,12(a5)
   11df0:	f0dff06f          	j	11cfc <_ZN9__gnu_cxx27__verbose_terminate_handlerEv+0x2c>
   11df4:	fa81a783          	lw	a5,-88(gp) # 44460 <_impure_ptr>
   11df8:	00048513          	mv	a0,s1
   11dfc:	00c7a583          	lw	a1,12(a5)
   11e00:	179130ef          	jal	25778 <fputs>
   11e04:	fa81a783          	lw	a5,-88(gp) # 44460 <_impure_ptr>
   11e08:	00a00513          	li	a0,10
   11e0c:	00c7a583          	lw	a1,12(a5)
   11e10:	055130ef          	jal	25664 <fputc>
   11e14:	299060ef          	jal	188ac <__cxa_end_catch>
   11e18:	ee9ff06f          	j	11d00 <_ZN9__gnu_cxx27__verbose_terminate_handlerEv+0x30>
   11e1c:	1ed060ef          	jal	18808 <__cxa_begin_catch>
   11e20:	28d060ef          	jal	188ac <__cxa_end_catch>
   11e24:	eddff06f          	j	11d00 <_ZN9__gnu_cxx27__verbose_terminate_handlerEv+0x30>
   11e28:	00a12623          	sw	a0,12(sp)
   11e2c:	281060ef          	jal	188ac <__cxa_end_catch>
   11e30:	00c12503          	lw	a0,12(sp)
   11e34:	175100ef          	jal	227a8 <_Unwind_Resume>

00011e38 <_ZSt24__throw_out_of_range_fmtPKcz>:
   11e38:	fc010113          	add	sp,sp,-64
   11e3c:	00112e23          	sw	ra,28(sp)
   11e40:	00812c23          	sw	s0,24(sp)
   11e44:	00912a23          	sw	s1,20(sp)
   11e48:	02010413          	add	s0,sp,32
   11e4c:	01212823          	sw	s2,16(sp)
   11e50:	00050493          	mv	s1,a0
   11e54:	00e42823          	sw	a4,16(s0)
   11e58:	01042c23          	sw	a6,24(s0)
   11e5c:	01142e23          	sw	a7,28(s0)
   11e60:	00b42223          	sw	a1,4(s0)
   11e64:	00c42423          	sw	a2,8(s0)
   11e68:	00d42623          	sw	a3,12(s0)
   11e6c:	00f42a23          	sw	a5,20(s0)
   11e70:	680150ef          	jal	274f0 <strlen>
   11e74:	21750793          	add	a5,a0,535
   11e78:	ff07f793          	and	a5,a5,-16
   11e7c:	40f10133          	sub	sp,sp,a5
   11e80:	00f10913          	add	s2,sp,15
   11e84:	ff097913          	and	s2,s2,-16
   11e88:	20050593          	add	a1,a0,512
   11e8c:	00440693          	add	a3,s0,4
   11e90:	00048613          	mv	a2,s1
   11e94:	00090513          	mv	a0,s2
   11e98:	fed42623          	sw	a3,-20(s0)
   11e9c:	1b8000ef          	jal	12054 <_ZN9__gnu_cxx15__snprintf_liteEPcjPKcPv>
   11ea0:	00800513          	li	a0,8
   11ea4:	d69fe0ef          	jal	10c0c <__cxa_allocate_exception>
   11ea8:	00090593          	mv	a1,s2
   11eac:	00050493          	mv	s1,a0
   11eb0:	244070ef          	jal	190f4 <_ZNSt12out_of_rangeC1EPKc>
   11eb4:	00019637          	lui	a2,0x19
   11eb8:	0003c5b7          	lui	a1,0x3c
   11ebc:	a4460613          	add	a2,a2,-1468 # 18a44 <_ZNSt12out_of_rangeD1Ev>
   11ec0:	1ac58593          	add	a1,a1,428 # 3c1ac <_ZTISt12out_of_range>
   11ec4:	00048513          	mv	a0,s1
   11ec8:	9e5ff0ef          	jal	118ac <__cxa_throw>
   11ecc:	00050913          	mv	s2,a0
   11ed0:	00048513          	mv	a0,s1
   11ed4:	d91fe0ef          	jal	10c64 <__cxa_free_exception>
   11ed8:	00090513          	mv	a0,s2
   11edc:	0cd100ef          	jal	227a8 <_Unwind_Resume>

00011ee0 <_ZN9__gnu_cxx26__throw_insufficient_spaceEPKcS1_>:
   11ee0:	f7010113          	add	sp,sp,-144
   11ee4:	08112623          	sw	ra,140(sp)
   11ee8:	08812423          	sw	s0,136(sp)
   11eec:	08912223          	sw	s1,132(sp)
   11ef0:	09010413          	add	s0,sp,144
   11ef4:	09212023          	sw	s2,128(sp)
   11ef8:	07312e23          	sw	s3,124(sp)
   11efc:	00058493          	mv	s1,a1
   11f00:	0003a5b7          	lui	a1,0x3a
   11f04:	00050993          	mv	s3,a0
   11f08:	06900613          	li	a2,105
   11f0c:	48858593          	add	a1,a1,1160 # 3a488 <__clzsi2+0x234>
   11f10:	f7440513          	add	a0,s0,-140
   11f14:	438150ef          	jal	2734c <memcpy>
   11f18:	413484b3          	sub	s1,s1,s3
   11f1c:	08048793          	add	a5,s1,128
   11f20:	ff07f793          	and	a5,a5,-16
   11f24:	40f10133          	sub	sp,sp,a5
   11f28:	00f10913          	add	s2,sp,15
   11f2c:	ff097913          	and	s2,s2,-16
   11f30:	06800613          	li	a2,104
   11f34:	f7440593          	add	a1,s0,-140
   11f38:	00090513          	mv	a0,s2
   11f3c:	410150ef          	jal	2734c <memcpy>
   11f40:	00048613          	mv	a2,s1
   11f44:	00098593          	mv	a1,s3
   11f48:	06890513          	add	a0,s2,104
   11f4c:	400150ef          	jal	2734c <memcpy>
   11f50:	009904b3          	add	s1,s2,s1
   11f54:	06048423          	sb	zero,104(s1)
   11f58:	00090513          	mv	a0,s2
   11f5c:	a64fe0ef          	jal	101c0 <_ZSt19__throw_logic_errorPKc>

00011f60 <_ZN9__gnu_cxx15__concat_size_tEPcjj>:
   11f60:	fd010113          	add	sp,sp,-48
   11f64:	02812423          	sw	s0,40(sp)
   11f68:	02912223          	sw	s1,36(sp)
   11f6c:	03212023          	sw	s2,32(sp)
   11f70:	01312e23          	sw	s3,28(sp)
   11f74:	01412c23          	sw	s4,24(sp)
   11f78:	01512a23          	sw	s5,20(sp)
   11f7c:	01612823          	sw	s6,16(sp)
   11f80:	01712623          	sw	s7,12(sp)
   11f84:	01912223          	sw	s9,4(sp)
   11f88:	02112623          	sw	ra,44(sp)
   11f8c:	01812423          	sw	s8,8(sp)
   11f90:	03010413          	add	s0,sp,48
   11f94:	fe010113          	add	sp,sp,-32
   11f98:	00f10993          	add	s3,sp,15
   11f9c:	ff09f993          	and	s3,s3,-16
   11fa0:	00c98493          	add	s1,s3,12
   11fa4:	0003abb7          	lui	s7,0x3a
   11fa8:	00050a93          	mv	s5,a0
   11fac:	00058b13          	mv	s6,a1
   11fb0:	00060913          	mv	s2,a2
   11fb4:	00048a13          	mv	s4,s1
   11fb8:	4f4b8b93          	add	s7,s7,1268 # 3a4f4 <__clzsi2+0x2a0>
   11fbc:	00900c93          	li	s9,9
   11fc0:	00a00593          	li	a1,10
   11fc4:	00090513          	mv	a0,s2
   11fc8:	06c0e0ef          	jal	20034 <__umodsi3>
   11fcc:	00ab8533          	add	a0,s7,a0
   11fd0:	00054783          	lbu	a5,0(a0)
   11fd4:	00a00593          	li	a1,10
   11fd8:	00090513          	mv	a0,s2
   11fdc:	fefa0fa3          	sb	a5,-1(s4)
   11fe0:	00090c13          	mv	s8,s2
   11fe4:	0080e0ef          	jal	1ffec <__hidden___udivsi3>
   11fe8:	fffa0a13          	add	s4,s4,-1
   11fec:	00050913          	mv	s2,a0
   11ff0:	fd8ce8e3          	bltu	s9,s8,11fc0 <_ZN9__gnu_cxx15__concat_size_tEPcjj+0x60>
   11ff4:	414484b3          	sub	s1,s1,s4
   11ff8:	049b6a63          	bltu	s6,s1,1204c <_ZN9__gnu_cxx15__concat_size_tEPcjj+0xec>
   11ffc:	409985b3          	sub	a1,s3,s1
   12000:	00048613          	mv	a2,s1
   12004:	00c58593          	add	a1,a1,12
   12008:	000a8513          	mv	a0,s5
   1200c:	340150ef          	jal	2734c <memcpy>
   12010:	fd040113          	add	sp,s0,-48
   12014:	02c12083          	lw	ra,44(sp)
   12018:	00048513          	mv	a0,s1
   1201c:	02812403          	lw	s0,40(sp)
   12020:	02412483          	lw	s1,36(sp)
   12024:	02012903          	lw	s2,32(sp)
   12028:	01c12983          	lw	s3,28(sp)
   1202c:	01812a03          	lw	s4,24(sp)
   12030:	01412a83          	lw	s5,20(sp)
   12034:	01012b03          	lw	s6,16(sp)
   12038:	00c12b83          	lw	s7,12(sp)
   1203c:	00812c03          	lw	s8,8(sp)
   12040:	00412c83          	lw	s9,4(sp)
   12044:	03010113          	add	sp,sp,48
   12048:	00008067          	ret
   1204c:	fff00493          	li	s1,-1
   12050:	fc1ff06f          	j	12010 <_ZN9__gnu_cxx15__concat_size_tEPcjj+0xb0>

00012054 <_ZN9__gnu_cxx15__snprintf_liteEPcjPKcPv>:
   12054:	fd010113          	add	sp,sp,-48
   12058:	fff58593          	add	a1,a1,-1
   1205c:	02812423          	sw	s0,40(sp)
   12060:	02912223          	sw	s1,36(sp)
   12064:	03212023          	sw	s2,32(sp)
   12068:	01312e23          	sw	s3,28(sp)
   1206c:	01412c23          	sw	s4,24(sp)
   12070:	01512a23          	sw	s5,20(sp)
   12074:	01612823          	sw	s6,16(sp)
   12078:	01712623          	sw	s7,12(sp)
   1207c:	02112623          	sw	ra,44(sp)
   12080:	01812423          	sw	s8,8(sp)
   12084:	00050913          	mv	s2,a0
   12088:	00060493          	mv	s1,a2
   1208c:	00b509b3          	add	s3,a0,a1
   12090:	00050413          	mv	s0,a0
   12094:	02500a13          	li	s4,37
   12098:	07300a93          	li	s5,115
   1209c:	07a00b13          	li	s6,122
   120a0:	07500b93          	li	s7,117
   120a4:	0004c783          	lbu	a5,0(s1)
   120a8:	0a078063          	beqz	a5,12148 <_ZN9__gnu_cxx15__snprintf_liteEPcjPKcPv+0xf4>
   120ac:	05347263          	bgeu	s0,s3,120f0 <_ZN9__gnu_cxx15__snprintf_liteEPcjPKcPv+0x9c>
   120b0:	01479c63          	bne	a5,s4,120c8 <_ZN9__gnu_cxx15__snprintf_liteEPcjPKcPv+0x74>
   120b4:	0014c783          	lbu	a5,1(s1)
   120b8:	03578263          	beq	a5,s5,120dc <_ZN9__gnu_cxx15__snprintf_liteEPcjPKcPv+0x88>
   120bc:	05678e63          	beq	a5,s6,12118 <_ZN9__gnu_cxx15__snprintf_liteEPcjPKcPv+0xc4>
   120c0:	01479463          	bne	a5,s4,120c8 <_ZN9__gnu_cxx15__snprintf_liteEPcjPKcPv+0x74>
   120c4:	00148493          	add	s1,s1,1
   120c8:	0004c783          	lbu	a5,0(s1)
   120cc:	00140413          	add	s0,s0,1
   120d0:	00148493          	add	s1,s1,1
   120d4:	fef40fa3          	sb	a5,-1(s0)
   120d8:	fcdff06f          	j	120a4 <_ZN9__gnu_cxx15__snprintf_liteEPcjPKcPv+0x50>
   120dc:	0006a783          	lw	a5,0(a3)
   120e0:	00468613          	add	a2,a3,4
   120e4:	0007c703          	lbu	a4,0(a5)
   120e8:	02070263          	beqz	a4,1210c <_ZN9__gnu_cxx15__snprintf_liteEPcjPKcPv+0xb8>
   120ec:	01341863          	bne	s0,s3,120fc <_ZN9__gnu_cxx15__snprintf_liteEPcjPKcPv+0xa8>
   120f0:	00040593          	mv	a1,s0
   120f4:	00090513          	mv	a0,s2
   120f8:	de9ff0ef          	jal	11ee0 <_ZN9__gnu_cxx26__throw_insufficient_spaceEPKcS1_>
   120fc:	00140413          	add	s0,s0,1
   12100:	00178793          	add	a5,a5,1
   12104:	fee40fa3          	sb	a4,-1(s0)
   12108:	fddff06f          	j	120e4 <_ZN9__gnu_cxx15__snprintf_liteEPcjPKcPv+0x90>
   1210c:	00248493          	add	s1,s1,2
   12110:	00060693          	mv	a3,a2
   12114:	f91ff06f          	j	120a4 <_ZN9__gnu_cxx15__snprintf_liteEPcjPKcPv+0x50>
   12118:	0024c783          	lbu	a5,2(s1)
   1211c:	fb7796e3          	bne	a5,s7,120c8 <_ZN9__gnu_cxx15__snprintf_liteEPcjPKcPv+0x74>
   12120:	0006a603          	lw	a2,0(a3)
   12124:	408985b3          	sub	a1,s3,s0
   12128:	00040513          	mv	a0,s0
   1212c:	00468c13          	add	s8,a3,4
   12130:	e31ff0ef          	jal	11f60 <_ZN9__gnu_cxx15__concat_size_tEPcjj>
   12134:	faa05ee3          	blez	a0,120f0 <_ZN9__gnu_cxx15__snprintf_liteEPcjPKcPv+0x9c>
   12138:	00a40433          	add	s0,s0,a0
   1213c:	00348493          	add	s1,s1,3
   12140:	000c0693          	mv	a3,s8
   12144:	f61ff06f          	j	120a4 <_ZN9__gnu_cxx15__snprintf_liteEPcjPKcPv+0x50>
   12148:	00040023          	sb	zero,0(s0)
   1214c:	41240533          	sub	a0,s0,s2
   12150:	02c12083          	lw	ra,44(sp)
   12154:	02812403          	lw	s0,40(sp)
   12158:	02412483          	lw	s1,36(sp)
   1215c:	02012903          	lw	s2,32(sp)
   12160:	01c12983          	lw	s3,28(sp)
   12164:	01812a03          	lw	s4,24(sp)
   12168:	01412a83          	lw	s5,20(sp)
   1216c:	01012b03          	lw	s6,16(sp)
   12170:	00c12b83          	lw	s7,12(sp)
   12174:	00812c03          	lw	s8,8(sp)
   12178:	03010113          	add	sp,sp,48
   1217c:	00008067          	ret

00012180 <_ZNKSt20bad_array_new_length4whatEv>:
   12180:	0003a537          	lui	a0,0x3a
   12184:	50050513          	add	a0,a0,1280 # 3a500 <__clzsi2+0x2ac>
   12188:	00008067          	ret

0001218c <_ZNSt20bad_array_new_lengthD1Ev>:
   1218c:	0003b7b7          	lui	a5,0x3b
   12190:	3ac78793          	add	a5,a5,940 # 3b3ac <_ZTVSt20bad_array_new_length+0x8>
   12194:	00f52023          	sw	a5,0(a0)
   12198:	911fe06f          	j	10aa8 <_ZNSt9bad_allocD1Ev>

0001219c <_ZNSt20bad_array_new_lengthD0Ev>:
   1219c:	ff010113          	add	sp,sp,-16
   121a0:	00812423          	sw	s0,8(sp)
   121a4:	00112623          	sw	ra,12(sp)
   121a8:	00050413          	mv	s0,a0
   121ac:	fe1ff0ef          	jal	1218c <_ZNSt20bad_array_new_lengthD1Ev>
   121b0:	00040513          	mv	a0,s0
   121b4:	00812403          	lw	s0,8(sp)
   121b8:	00c12083          	lw	ra,12(sp)
   121bc:	00400593          	li	a1,4
   121c0:	01010113          	add	sp,sp,16
   121c4:	921fe06f          	j	10ae4 <_ZdlPvj>

000121c8 <_ZNKSt8bad_cast4whatEv>:
   121c8:	0003a537          	lui	a0,0x3a
   121cc:	51c50513          	add	a0,a0,1308 # 3a51c <__clzsi2+0x2c8>
   121d0:	00008067          	ret

000121d4 <_ZNSt8bad_castD1Ev>:
   121d4:	0003b7b7          	lui	a5,0x3b
   121d8:	3d878793          	add	a5,a5,984 # 3b3d8 <_ZTVSt8bad_cast+0x8>
   121dc:	00f52023          	sw	a5,0(a0)
   121e0:	b99fe06f          	j	10d78 <_ZNSt9exceptionD1Ev>

000121e4 <_ZNSt8bad_castD0Ev>:
   121e4:	ff010113          	add	sp,sp,-16
   121e8:	00812423          	sw	s0,8(sp)
   121ec:	00112623          	sw	ra,12(sp)
   121f0:	00050413          	mv	s0,a0
   121f4:	fe1ff0ef          	jal	121d4 <_ZNSt8bad_castD1Ev>
   121f8:	00040513          	mv	a0,s0
   121fc:	00812403          	lw	s0,8(sp)
   12200:	00c12083          	lw	ra,12(sp)
   12204:	00400593          	li	a1,4
   12208:	01010113          	add	sp,sp,16
   1220c:	8d9fe06f          	j	10ae4 <_ZdlPvj>

00012210 <_ZNKSt10bad_typeid4whatEv>:
   12210:	0003a537          	lui	a0,0x3a
   12214:	52c50513          	add	a0,a0,1324 # 3a52c <__clzsi2+0x2d8>
   12218:	00008067          	ret

0001221c <_ZNSt10bad_typeidD1Ev>:
   1221c:	0003b7b7          	lui	a5,0x3b
   12220:	40878793          	add	a5,a5,1032 # 3b408 <_ZTVSt10bad_typeid+0x8>
   12224:	00f52023          	sw	a5,0(a0)
   12228:	b51fe06f          	j	10d78 <_ZNSt9exceptionD1Ev>

0001222c <_ZNSt10bad_typeidD0Ev>:
   1222c:	ff010113          	add	sp,sp,-16
   12230:	00812423          	sw	s0,8(sp)
   12234:	00112623          	sw	ra,12(sp)
   12238:	00050413          	mv	s0,a0
   1223c:	fe1ff0ef          	jal	1221c <_ZNSt10bad_typeidD1Ev>
   12240:	00040513          	mv	a0,s0
   12244:	00812403          	lw	s0,8(sp)
   12248:	00c12083          	lw	ra,12(sp)
   1224c:	00400593          	li	a1,4
   12250:	01010113          	add	sp,sp,16
   12254:	891fe06f          	j	10ae4 <_ZdlPvj>

00012258 <_ZNK10__cxxabiv117__class_type_info11__do_upcastEPKS0_PPv>:
   12258:	fe010113          	add	sp,sp,-32
   1225c:	01000793          	li	a5,16
   12260:	00f12423          	sw	a5,8(sp)
   12264:	00052783          	lw	a5,0(a0)
   12268:	00812c23          	sw	s0,24(sp)
   1226c:	00060413          	mv	s0,a2
   12270:	0187a783          	lw	a5,24(a5)
   12274:	00062603          	lw	a2,0(a2)
   12278:	00112e23          	sw	ra,28(sp)
   1227c:	00012023          	sw	zero,0(sp)
   12280:	00012223          	sw	zero,4(sp)
   12284:	00012623          	sw	zero,12(sp)
   12288:	00010693          	mv	a3,sp
   1228c:	000780e7          	jalr	a5
   12290:	00412783          	lw	a5,4(sp)
   12294:	00600713          	li	a4,6
   12298:	00000513          	li	a0,0
   1229c:	0067f793          	and	a5,a5,6
   122a0:	00e79863          	bne	a5,a4,122b0 <_ZNK10__cxxabiv117__class_type_info11__do_upcastEPKS0_PPv+0x58>
   122a4:	00012783          	lw	a5,0(sp)
   122a8:	00100513          	li	a0,1
   122ac:	00f42023          	sw	a5,0(s0)
   122b0:	01c12083          	lw	ra,28(sp)
   122b4:	01812403          	lw	s0,24(sp)
   122b8:	02010113          	add	sp,sp,32
   122bc:	00008067          	ret

000122c0 <_ZNK10__cxxabiv117__class_type_info20__do_find_public_srcEiPKvPKS0_S2_>:
   122c0:	00600513          	li	a0,6
   122c4:	00c70463          	beq	a4,a2,122cc <_ZNK10__cxxabiv117__class_type_info20__do_find_public_srcEiPKvPKS0_S2_+0xc>
   122c8:	00100513          	li	a0,1
   122cc:	00008067          	ret

000122d0 <_ZN10__cxxabiv117__class_type_infoD1Ev>:
   122d0:	0003b7b7          	lui	a5,0x3b
   122d4:	44c78793          	add	a5,a5,1100 # 3b44c <_ZTVN10__cxxabiv117__class_type_infoE+0x8>
   122d8:	00f52023          	sw	a5,0(a0)
   122dc:	985ff06f          	j	11c60 <_ZNSt9type_infoD1Ev>

000122e0 <_ZN10__cxxabiv117__class_type_infoD0Ev>:
   122e0:	ff010113          	add	sp,sp,-16
   122e4:	00812423          	sw	s0,8(sp)
   122e8:	00112623          	sw	ra,12(sp)
   122ec:	00050413          	mv	s0,a0
   122f0:	fe1ff0ef          	jal	122d0 <_ZN10__cxxabiv117__class_type_infoD1Ev>
   122f4:	00040513          	mv	a0,s0
   122f8:	00812403          	lw	s0,8(sp)
   122fc:	00c12083          	lw	ra,12(sp)
   12300:	00800593          	li	a1,8
   12304:	01010113          	add	sp,sp,16
   12308:	fdcfe06f          	j	10ae4 <_ZdlPvj>

0001230c <_ZNKSt9type_infoeqERKS_.isra.0>:
   1230c:	04b50063          	beq	a0,a1,1234c <_ZNKSt9type_infoeqERKS_.isra.0+0x40>
   12310:	00054683          	lbu	a3,0(a0)
   12314:	02a00713          	li	a4,42
   12318:	00000793          	li	a5,0
   1231c:	02e68a63          	beq	a3,a4,12350 <_ZNKSt9type_infoeqERKS_.isra.0+0x44>
   12320:	0005c783          	lbu	a5,0(a1)
   12324:	ff010113          	add	sp,sp,-16
   12328:	00112623          	sw	ra,12(sp)
   1232c:	00e79463          	bne	a5,a4,12334 <_ZNKSt9type_infoeqERKS_.isra.0+0x28>
   12330:	00158593          	add	a1,a1,1
   12334:	2f8150ef          	jal	2762c <strcmp>
   12338:	00c12083          	lw	ra,12(sp)
   1233c:	00153793          	seqz	a5,a0
   12340:	00078513          	mv	a0,a5
   12344:	01010113          	add	sp,sp,16
   12348:	00008067          	ret
   1234c:	00100793          	li	a5,1
   12350:	00078513          	mv	a0,a5
   12354:	00008067          	ret

00012358 <_ZNK10__cxxabiv117__class_type_info11__do_upcastEPKS0_PKvRNS0_15__upcast_resultE>:
   12358:	0045a583          	lw	a1,4(a1)
   1235c:	00452503          	lw	a0,4(a0)
   12360:	ff010113          	add	sp,sp,-16
   12364:	00812423          	sw	s0,8(sp)
   12368:	00912223          	sw	s1,4(sp)
   1236c:	00112623          	sw	ra,12(sp)
   12370:	00060493          	mv	s1,a2
   12374:	00068413          	mv	s0,a3
   12378:	f95ff0ef          	jal	1230c <_ZNKSt9type_infoeqERKS_.isra.0>
   1237c:	00050c63          	beqz	a0,12394 <_ZNK10__cxxabiv117__class_type_info11__do_upcastEPKS0_PKvRNS0_15__upcast_resultE+0x3c>
   12380:	00800793          	li	a5,8
   12384:	00f42623          	sw	a5,12(s0)
   12388:	00600793          	li	a5,6
   1238c:	00942023          	sw	s1,0(s0)
   12390:	00f42223          	sw	a5,4(s0)
   12394:	00c12083          	lw	ra,12(sp)
   12398:	00812403          	lw	s0,8(sp)
   1239c:	00412483          	lw	s1,4(sp)
   123a0:	01010113          	add	sp,sp,16
   123a4:	00008067          	ret

000123a8 <_ZNK10__cxxabiv117__class_type_info12__do_dyncastEiNS0_10__sub_kindEPKS0_PKvS3_S5_RNS0_16__dyncast_resultE>:
   123a8:	fe010113          	add	sp,sp,-32
   123ac:	00812c23          	sw	s0,24(sp)
   123b0:	00912a23          	sw	s1,20(sp)
   123b4:	01212823          	sw	s2,16(sp)
   123b8:	01312623          	sw	s3,12(sp)
   123bc:	01412423          	sw	s4,8(sp)
   123c0:	00112e23          	sw	ra,28(sp)
   123c4:	00452a03          	lw	s4,4(a0)
   123c8:	00060493          	mv	s1,a2
   123cc:	00068993          	mv	s3,a3
   123d0:	00070913          	mv	s2,a4
   123d4:	00088413          	mv	s0,a7
   123d8:	03071e63          	bne	a4,a6,12414 <_ZNK10__cxxabiv117__class_type_info12__do_dyncastEiNS0_10__sub_kindEPKS0_PKvS3_S5_RNS0_16__dyncast_resultE+0x6c>
   123dc:	0047a583          	lw	a1,4(a5)
   123e0:	000a0513          	mv	a0,s4
   123e4:	f29ff0ef          	jal	1230c <_ZNKSt9type_infoeqERKS_.isra.0>
   123e8:	02050663          	beqz	a0,12414 <_ZNK10__cxxabiv117__class_type_info12__do_dyncastEiNS0_10__sub_kindEPKS0_PKvS3_S5_RNS0_16__dyncast_resultE+0x6c>
   123ec:	00942423          	sw	s1,8(s0)
   123f0:	01c12083          	lw	ra,28(sp)
   123f4:	01812403          	lw	s0,24(sp)
   123f8:	01412483          	lw	s1,20(sp)
   123fc:	01012903          	lw	s2,16(sp)
   12400:	00c12983          	lw	s3,12(sp)
   12404:	00812a03          	lw	s4,8(sp)
   12408:	00000513          	li	a0,0
   1240c:	02010113          	add	sp,sp,32
   12410:	00008067          	ret
   12414:	0049a583          	lw	a1,4(s3)
   12418:	000a0513          	mv	a0,s4
   1241c:	ef1ff0ef          	jal	1230c <_ZNKSt9type_infoeqERKS_.isra.0>
   12420:	fc0508e3          	beqz	a0,123f0 <_ZNK10__cxxabiv117__class_type_info12__do_dyncastEiNS0_10__sub_kindEPKS0_PKvS3_S5_RNS0_16__dyncast_resultE+0x48>
   12424:	00100793          	li	a5,1
   12428:	01242023          	sw	s2,0(s0)
   1242c:	00942223          	sw	s1,4(s0)
   12430:	00f42623          	sw	a5,12(s0)
   12434:	fbdff06f          	j	123f0 <_ZNK10__cxxabiv117__class_type_info12__do_dyncastEiNS0_10__sub_kindEPKS0_PKvS3_S5_RNS0_16__dyncast_resultE+0x48>

00012438 <_ZNK10__cxxabiv117__class_type_info10__do_catchEPKSt9type_infoPPvj>:
   12438:	fe010113          	add	sp,sp,-32
   1243c:	00812c23          	sw	s0,24(sp)
   12440:	00912a23          	sw	s1,20(sp)
   12444:	00058413          	mv	s0,a1
   12448:	00050493          	mv	s1,a0
   1244c:	0045a583          	lw	a1,4(a1)
   12450:	00452503          	lw	a0,4(a0)
   12454:	01212823          	sw	s2,16(sp)
   12458:	00112e23          	sw	ra,28(sp)
   1245c:	00c12623          	sw	a2,12(sp)
   12460:	00068913          	mv	s2,a3
   12464:	ea9ff0ef          	jal	1230c <_ZNKSt9type_infoeqERKS_.isra.0>
   12468:	02051c63          	bnez	a0,124a0 <_ZNK10__cxxabiv117__class_type_info10__do_catchEPKSt9type_infoPPvj+0x68>
   1246c:	00300793          	li	a5,3
   12470:	0327e863          	bltu	a5,s2,124a0 <_ZNK10__cxxabiv117__class_type_info10__do_catchEPKSt9type_infoPPvj+0x68>
   12474:	00042783          	lw	a5,0(s0)
   12478:	00040513          	mv	a0,s0
   1247c:	01812403          	lw	s0,24(sp)
   12480:	00c12603          	lw	a2,12(sp)
   12484:	01c12083          	lw	ra,28(sp)
   12488:	01012903          	lw	s2,16(sp)
   1248c:	0147a783          	lw	a5,20(a5)
   12490:	00048593          	mv	a1,s1
   12494:	01412483          	lw	s1,20(sp)
   12498:	02010113          	add	sp,sp,32
   1249c:	00078067          	jr	a5
   124a0:	01c12083          	lw	ra,28(sp)
   124a4:	01812403          	lw	s0,24(sp)
   124a8:	01412483          	lw	s1,20(sp)
   124ac:	01012903          	lw	s2,16(sp)
   124b0:	02010113          	add	sp,sp,32
   124b4:	00008067          	ret

000124b8 <is_fnqual_component_type>:
   124b8:	04e00793          	li	a5,78
   124bc:	02f50063          	beq	a0,a5,124dc <is_fnqual_component_type+0x24>
   124c0:	00a7e863          	bltu	a5,a0,124d0 <is_fnqual_component_type+0x18>
   124c4:	fe450513          	add	a0,a0,-28
   124c8:	00553513          	sltiu	a0,a0,5
   124cc:	00008067          	ret
   124d0:	fb050513          	add	a0,a0,-80
   124d4:	00253513          	sltiu	a0,a0,2
   124d8:	00008067          	ret
   124dc:	00100513          	li	a0,1
   124e0:	00008067          	ret

000124e4 <d_make_empty>:
   124e4:	01452683          	lw	a3,20(a0)
   124e8:	01852783          	lw	a5,24(a0)
   124ec:	00050713          	mv	a4,a0
   124f0:	02f6d663          	bge	a3,a5,1251c <d_make_empty+0x38>
   124f4:	01052783          	lw	a5,16(a0)
   124f8:	00269613          	sll	a2,a3,0x2
   124fc:	00d60633          	add	a2,a2,a3
   12500:	00261613          	sll	a2,a2,0x2
   12504:	00c78533          	add	a0,a5,a2
   12508:	00052223          	sw	zero,4(a0)
   1250c:	00052423          	sw	zero,8(a0)
   12510:	00168693          	add	a3,a3,1
   12514:	00d72a23          	sw	a3,20(a4)
   12518:	00008067          	ret
   1251c:	00000513          	li	a0,0
   12520:	00008067          	ret

00012524 <d_make_comp>:
   12524:	ff010113          	add	sp,sp,-16
   12528:	00812423          	sw	s0,8(sp)
   1252c:	00912223          	sw	s1,4(sp)
   12530:	01212023          	sw	s2,0(sp)
   12534:	00112623          	sw	ra,12(sp)
   12538:	03100793          	li	a5,49
   1253c:	00058413          	mv	s0,a1
   12540:	00060913          	mv	s2,a2
   12544:	00068493          	mv	s1,a3
   12548:	0ab7ee63          	bltu	a5,a1,12604 <d_make_comp+0xe0>
   1254c:	02800793          	li	a5,40
   12550:	02b7ea63          	bltu	a5,a1,12584 <d_make_comp+0x60>
   12554:	00a00793          	li	a5,10
   12558:	04b7e863          	bltu	a5,a1,125a8 <d_make_comp+0x84>
   1255c:	00400793          	li	a5,4
   12560:	08b7f063          	bgeu	a5,a1,125e0 <d_make_comp+0xbc>
   12564:	ff758793          	add	a5,a1,-9
   12568:	00100713          	li	a4,1
   1256c:	0cf76e63          	bltu	a4,a5,12648 <d_make_comp+0x124>
   12570:	0c090c63          	beqz	s2,12648 <d_make_comp+0x124>
   12574:	f71ff0ef          	jal	124e4 <d_make_empty>
   12578:	0e051e63          	bnez	a0,12674 <d_make_comp+0x150>
   1257c:	00050493          	mv	s1,a0
   12580:	0680006f          	j	125e8 <d_make_comp+0xc4>
   12584:	fd758793          	add	a5,a1,-41
   12588:	00800713          	li	a4,8
   1258c:	0af76e63          	bltu	a4,a5,12648 <d_make_comp+0x124>
   12590:	0003b737          	lui	a4,0x3b
   12594:	00279793          	sll	a5,a5,0x2
   12598:	47070713          	add	a4,a4,1136 # 3b470 <_ZTVN10__cxxabiv117__class_type_infoE+0x2c>
   1259c:	00e787b3          	add	a5,a5,a4
   125a0:	0007a783          	lw	a5,0(a5)
   125a4:	00078067          	jr	a5
   125a8:	ff558713          	add	a4,a1,-11
   125ac:	00100793          	li	a5,1
   125b0:	00e797b3          	sll	a5,a5,a4
   125b4:	2f802737          	lui	a4,0x2f802
   125b8:	ffe70713          	add	a4,a4,-2 # 2f801ffe <__BSS_END__+0x2f7bd72a>
   125bc:	00e7f733          	and	a4,a5,a4
   125c0:	fa0718e3          	bnez	a4,12570 <d_make_comp+0x4c>
   125c4:	00e7d713          	srl	a4,a5,0xe
   125c8:	0ff77713          	zext.b	a4,a4
   125cc:	fa0714e3          	bnez	a4,12574 <d_make_comp+0x50>
   125d0:	00400737          	lui	a4,0x400
   125d4:	00170713          	add	a4,a4,1 # 400001 <__BSS_END__+0x3bb72d>
   125d8:	00e7f7b3          	and	a5,a5,a4
   125dc:	06078663          	beqz	a5,12648 <d_make_comp+0x124>
   125e0:	06090463          	beqz	s2,12648 <d_make_comp+0x124>
   125e4:	f80498e3          	bnez	s1,12574 <d_make_comp+0x50>
   125e8:	00c12083          	lw	ra,12(sp)
   125ec:	00812403          	lw	s0,8(sp)
   125f0:	00012903          	lw	s2,0(sp)
   125f4:	00048513          	mv	a0,s1
   125f8:	00412483          	lw	s1,4(sp)
   125fc:	01010113          	add	sp,sp,16
   12600:	00008067          	ret
   12604:	04f00793          	li	a5,79
   12608:	04b7e463          	bltu	a5,a1,12650 <d_make_comp+0x12c>
   1260c:	03300793          	li	a5,51
   12610:	02b7fc63          	bgeu	a5,a1,12648 <d_make_comp+0x124>
   12614:	fcc40713          	add	a4,s0,-52
   12618:	00100793          	li	a5,1
   1261c:	00e797b3          	sll	a5,a5,a4
   12620:	01c71737          	lui	a4,0x1c71
   12624:	10770713          	add	a4,a4,263 # 1c71107 <__BSS_END__+0x1c2c833>
   12628:	00e7f733          	and	a4,a5,a4
   1262c:	f40712e3          	bnez	a4,12570 <d_make_comp+0x4c>
   12630:	0a003737          	lui	a4,0xa003
   12634:	ef870713          	add	a4,a4,-264 # a002ef8 <__BSS_END__+0x9fbe624>
   12638:	00e7f7b3          	and	a5,a5,a4
   1263c:	fa0792e3          	bnez	a5,125e0 <d_make_comp+0xbc>
   12640:	04e00793          	li	a5,78
   12644:	f2f408e3          	beq	s0,a5,12574 <d_make_comp+0x50>
   12648:	00000493          	li	s1,0
   1264c:	f9dff06f          	j	125e8 <d_make_comp+0xc4>
   12650:	fae58793          	add	a5,a1,-82
   12654:	00900713          	li	a4,9
   12658:	f0f76ee3          	bltu	a4,a5,12574 <d_make_comp+0x50>
   1265c:	0003b737          	lui	a4,0x3b
   12660:	00279793          	sll	a5,a5,0x2
   12664:	49470713          	add	a4,a4,1172 # 3b494 <_ZTVN10__cxxabiv117__class_type_infoE+0x50>
   12668:	00e787b3          	add	a5,a5,a4
   1266c:	0007a783          	lw	a5,0(a5)
   12670:	00078067          	jr	a5
   12674:	00852023          	sw	s0,0(a0)
   12678:	01252623          	sw	s2,12(a0)
   1267c:	00952823          	sw	s1,16(a0)
   12680:	efdff06f          	j	1257c <d_make_comp+0x58>

00012684 <d_make_name>:
   12684:	ff010113          	add	sp,sp,-16
   12688:	00812423          	sw	s0,8(sp)
   1268c:	00912223          	sw	s1,4(sp)
   12690:	00112623          	sw	ra,12(sp)
   12694:	00058493          	mv	s1,a1
   12698:	00060413          	mv	s0,a2
   1269c:	e49ff0ef          	jal	124e4 <d_make_empty>
   126a0:	02050063          	beqz	a0,126c0 <d_make_name+0x3c>
   126a4:	02048863          	beqz	s1,126d4 <d_make_name+0x50>
   126a8:	02805663          	blez	s0,126d4 <d_make_name+0x50>
   126ac:	00052223          	sw	zero,4(a0)
   126b0:	00052423          	sw	zero,8(a0)
   126b4:	00052023          	sw	zero,0(a0)
   126b8:	00952623          	sw	s1,12(a0)
   126bc:	00852823          	sw	s0,16(a0)
   126c0:	00c12083          	lw	ra,12(sp)
   126c4:	00812403          	lw	s0,8(sp)
   126c8:	00412483          	lw	s1,4(sp)
   126cc:	01010113          	add	sp,sp,16
   126d0:	00008067          	ret
   126d4:	00000513          	li	a0,0
   126d8:	fe9ff06f          	j	126c0 <d_make_name+0x3c>

000126dc <d_make_builtin_type>:
   126dc:	ff010113          	add	sp,sp,-16
   126e0:	00812423          	sw	s0,8(sp)
   126e4:	00112623          	sw	ra,12(sp)
   126e8:	00058413          	mv	s0,a1
   126ec:	df9ff0ef          	jal	124e4 <d_make_empty>
   126f0:	00050863          	beqz	a0,12700 <d_make_builtin_type+0x24>
   126f4:	02700793          	li	a5,39
   126f8:	00f52023          	sw	a5,0(a0)
   126fc:	00852623          	sw	s0,12(a0)
   12700:	00c12083          	lw	ra,12(sp)
   12704:	00812403          	lw	s0,8(sp)
   12708:	01010113          	add	sp,sp,16
   1270c:	00008067          	ret

00012710 <d_number>:
   12710:	00c52703          	lw	a4,12(a0)
   12714:	fe010113          	add	sp,sp,-32
   12718:	01212823          	sw	s2,16(sp)
   1271c:	01412423          	sw	s4,8(sp)
   12720:	00112e23          	sw	ra,28(sp)
   12724:	00812c23          	sw	s0,24(sp)
   12728:	00912a23          	sw	s1,20(sp)
   1272c:	01312623          	sw	s3,12(sp)
   12730:	01512223          	sw	s5,4(sp)
   12734:	00074783          	lbu	a5,0(a4)
   12738:	06e00693          	li	a3,110
   1273c:	00050913          	mv	s2,a0
   12740:	00000a13          	li	s4,0
   12744:	00d79a63          	bne	a5,a3,12758 <d_number+0x48>
   12748:	00170793          	add	a5,a4,1
   1274c:	00f52623          	sw	a5,12(a0)
   12750:	00174783          	lbu	a5,1(a4)
   12754:	00100a13          	li	s4,1
   12758:	800009b7          	lui	s3,0x80000
   1275c:	00000413          	li	s0,0
   12760:	00900a93          	li	s5,9
   12764:	fff98993          	add	s3,s3,-1 # 7fffffff <__BSS_END__+0x7ffbb72b>
   12768:	fd078493          	add	s1,a5,-48
   1276c:	0ff4f793          	zext.b	a5,s1
   12770:	02fafa63          	bgeu	s5,a5,127a4 <d_number+0x94>
   12774:	000a0463          	beqz	s4,1277c <d_number+0x6c>
   12778:	40800433          	neg	s0,s0
   1277c:	01c12083          	lw	ra,28(sp)
   12780:	00040513          	mv	a0,s0
   12784:	01812403          	lw	s0,24(sp)
   12788:	01412483          	lw	s1,20(sp)
   1278c:	01012903          	lw	s2,16(sp)
   12790:	00c12983          	lw	s3,12(sp)
   12794:	00812a03          	lw	s4,8(sp)
   12798:	00412a83          	lw	s5,4(sp)
   1279c:	02010113          	add	sp,sp,32
   127a0:	00008067          	ret
   127a4:	00a00593          	li	a1,10
   127a8:	40998533          	sub	a0,s3,s1
   127ac:	0390d0ef          	jal	1ffe4 <__divsi3>
   127b0:	02854463          	blt	a0,s0,127d8 <d_number+0xc8>
   127b4:	00241793          	sll	a5,s0,0x2
   127b8:	008787b3          	add	a5,a5,s0
   127bc:	00179793          	sll	a5,a5,0x1
   127c0:	00f48433          	add	s0,s1,a5
   127c4:	00c92783          	lw	a5,12(s2)
   127c8:	00178713          	add	a4,a5,1
   127cc:	00e92623          	sw	a4,12(s2)
   127d0:	0017c783          	lbu	a5,1(a5)
   127d4:	f95ff06f          	j	12768 <d_number+0x58>
   127d8:	fff00413          	li	s0,-1
   127dc:	fa1ff06f          	j	1277c <d_number+0x6c>

000127e0 <d_number_component>:
   127e0:	ff010113          	add	sp,sp,-16
   127e4:	00812423          	sw	s0,8(sp)
   127e8:	00912223          	sw	s1,4(sp)
   127ec:	00112623          	sw	ra,12(sp)
   127f0:	00050493          	mv	s1,a0
   127f4:	cf1ff0ef          	jal	124e4 <d_make_empty>
   127f8:	00050413          	mv	s0,a0
   127fc:	00050c63          	beqz	a0,12814 <d_number_component+0x34>
   12800:	04300793          	li	a5,67
   12804:	00f52023          	sw	a5,0(a0)
   12808:	00048513          	mv	a0,s1
   1280c:	f05ff0ef          	jal	12710 <d_number>
   12810:	00a42623          	sw	a0,12(s0)
   12814:	00c12083          	lw	ra,12(sp)
   12818:	00040513          	mv	a0,s0
   1281c:	00812403          	lw	s0,8(sp)
   12820:	00412483          	lw	s1,4(sp)
   12824:	01010113          	add	sp,sp,16
   12828:	00008067          	ret

0001282c <d_call_offset>:
   1282c:	ff010113          	add	sp,sp,-16
   12830:	00812423          	sw	s0,8(sp)
   12834:	00112623          	sw	ra,12(sp)
   12838:	00050413          	mv	s0,a0
   1283c:	02059863          	bnez	a1,1286c <d_call_offset+0x40>
   12840:	00c52783          	lw	a5,12(a0)
   12844:	0007c703          	lbu	a4,0(a5)
   12848:	00071c63          	bnez	a4,12860 <d_call_offset+0x34>
   1284c:	00000513          	li	a0,0
   12850:	00c12083          	lw	ra,12(sp)
   12854:	00812403          	lw	s0,8(sp)
   12858:	01010113          	add	sp,sp,16
   1285c:	00008067          	ret
   12860:	00178713          	add	a4,a5,1
   12864:	00e52623          	sw	a4,12(a0)
   12868:	0007c583          	lbu	a1,0(a5)
   1286c:	06800793          	li	a5,104
   12870:	02f59663          	bne	a1,a5,1289c <d_call_offset+0x70>
   12874:	00040513          	mv	a0,s0
   12878:	e99ff0ef          	jal	12710 <d_number>
   1287c:	00c42783          	lw	a5,12(s0)
   12880:	05f00713          	li	a4,95
   12884:	0007c683          	lbu	a3,0(a5)
   12888:	fce692e3          	bne	a3,a4,1284c <d_call_offset+0x20>
   1288c:	00178793          	add	a5,a5,1
   12890:	00f42623          	sw	a5,12(s0)
   12894:	00100513          	li	a0,1
   12898:	fb9ff06f          	j	12850 <d_call_offset+0x24>
   1289c:	07600793          	li	a5,118
   128a0:	faf596e3          	bne	a1,a5,1284c <d_call_offset+0x20>
   128a4:	00040513          	mv	a0,s0
   128a8:	e69ff0ef          	jal	12710 <d_number>
   128ac:	00c42783          	lw	a5,12(s0)
   128b0:	05f00713          	li	a4,95
   128b4:	0007c683          	lbu	a3,0(a5)
   128b8:	f8e69ae3          	bne	a3,a4,1284c <d_call_offset+0x20>
   128bc:	00178793          	add	a5,a5,1
   128c0:	00f42623          	sw	a5,12(s0)
   128c4:	fb1ff06f          	j	12874 <d_call_offset+0x48>

000128c8 <d_ref_qualifier>:
   128c8:	00c52703          	lw	a4,12(a0)
   128cc:	05200693          	li	a3,82
   128d0:	00058613          	mv	a2,a1
   128d4:	00074783          	lbu	a5,0(a4)
   128d8:	00d78e63          	beq	a5,a3,128f4 <d_ref_qualifier+0x2c>
   128dc:	04f00693          	li	a3,79
   128e0:	02d79a63          	bne	a5,a3,12914 <d_ref_qualifier+0x4c>
   128e4:	02c52783          	lw	a5,44(a0)
   128e8:	02000593          	li	a1,32
   128ec:	00378793          	add	a5,a5,3
   128f0:	0100006f          	j	12900 <d_ref_qualifier+0x38>
   128f4:	02c52783          	lw	a5,44(a0)
   128f8:	01f00593          	li	a1,31
   128fc:	00278793          	add	a5,a5,2
   12900:	00170713          	add	a4,a4,1
   12904:	02f52623          	sw	a5,44(a0)
   12908:	00e52623          	sw	a4,12(a0)
   1290c:	00000693          	li	a3,0
   12910:	c15ff06f          	j	12524 <d_make_comp>
   12914:	00058513          	mv	a0,a1
   12918:	00008067          	ret

0001291c <d_compact_number>:
   1291c:	00c52783          	lw	a5,12(a0)
   12920:	ff010113          	add	sp,sp,-16
   12924:	00812423          	sw	s0,8(sp)
   12928:	00112623          	sw	ra,12(sp)
   1292c:	0007c783          	lbu	a5,0(a5)
   12930:	05f00713          	li	a4,95
   12934:	00050413          	mv	s0,a0
   12938:	04e78463          	beq	a5,a4,12980 <d_compact_number+0x64>
   1293c:	06e00713          	li	a4,110
   12940:	00e79c63          	bne	a5,a4,12958 <d_compact_number+0x3c>
   12944:	fff00513          	li	a0,-1
   12948:	00c12083          	lw	ra,12(sp)
   1294c:	00812403          	lw	s0,8(sp)
   12950:	01010113          	add	sp,sp,16
   12954:	00008067          	ret
   12958:	db9ff0ef          	jal	12710 <d_number>
   1295c:	00150513          	add	a0,a0,1
   12960:	fe0542e3          	bltz	a0,12944 <d_compact_number+0x28>
   12964:	00c42783          	lw	a5,12(s0)
   12968:	05f00713          	li	a4,95
   1296c:	0007c683          	lbu	a3,0(a5)
   12970:	fce69ae3          	bne	a3,a4,12944 <d_compact_number+0x28>
   12974:	00178793          	add	a5,a5,1
   12978:	00f42623          	sw	a5,12(s0)
   1297c:	fcdff06f          	j	12948 <d_compact_number+0x2c>
   12980:	00000513          	li	a0,0
   12984:	fe1ff06f          	j	12964 <d_compact_number+0x48>

00012988 <d_template_param>:
   12988:	00c52783          	lw	a5,12(a0)
   1298c:	05400713          	li	a4,84
   12990:	0007c683          	lbu	a3,0(a5)
   12994:	00e68663          	beq	a3,a4,129a0 <d_template_param+0x18>
   12998:	00000513          	li	a0,0
   1299c:	00008067          	ret
   129a0:	ff010113          	add	sp,sp,-16
   129a4:	00812423          	sw	s0,8(sp)
   129a8:	00912223          	sw	s1,4(sp)
   129ac:	00112623          	sw	ra,12(sp)
   129b0:	00178793          	add	a5,a5,1
   129b4:	00f52623          	sw	a5,12(a0)
   129b8:	00050413          	mv	s0,a0
   129bc:	f61ff0ef          	jal	1291c <d_compact_number>
   129c0:	00050493          	mv	s1,a0
   129c4:	00000513          	li	a0,0
   129c8:	0004ce63          	bltz	s1,129e4 <d_template_param+0x5c>
   129cc:	00040513          	mv	a0,s0
   129d0:	b15ff0ef          	jal	124e4 <d_make_empty>
   129d4:	00050863          	beqz	a0,129e4 <d_template_param+0x5c>
   129d8:	00500793          	li	a5,5
   129dc:	00f52023          	sw	a5,0(a0)
   129e0:	00952623          	sw	s1,12(a0)
   129e4:	00c12083          	lw	ra,12(sp)
   129e8:	00812403          	lw	s0,8(sp)
   129ec:	00412483          	lw	s1,4(sp)
   129f0:	01010113          	add	sp,sp,16
   129f4:	00008067          	ret

000129f8 <d_discriminator>:
   129f8:	00c52783          	lw	a5,12(a0)
   129fc:	05f00693          	li	a3,95
   12a00:	0007c703          	lbu	a4,0(a5)
   12a04:	08d71663          	bne	a4,a3,12a90 <d_discriminator+0x98>
   12a08:	ff010113          	add	sp,sp,-16
   12a0c:	00812423          	sw	s0,8(sp)
   12a10:	00912223          	sw	s1,4(sp)
   12a14:	00112623          	sw	ra,12(sp)
   12a18:	00178693          	add	a3,a5,1
   12a1c:	00d52623          	sw	a3,12(a0)
   12a20:	0017c683          	lbu	a3,1(a5)
   12a24:	00050413          	mv	s0,a0
   12a28:	00100493          	li	s1,1
   12a2c:	00e69863          	bne	a3,a4,12a3c <d_discriminator+0x44>
   12a30:	00278793          	add	a5,a5,2
   12a34:	00f52623          	sw	a5,12(a0)
   12a38:	00200493          	li	s1,2
   12a3c:	00040513          	mv	a0,s0
   12a40:	cd1ff0ef          	jal	12710 <d_number>
   12a44:	00050793          	mv	a5,a0
   12a48:	00000513          	li	a0,0
   12a4c:	0207c863          	bltz	a5,12a7c <d_discriminator+0x84>
   12a50:	00200713          	li	a4,2
   12a54:	02e49263          	bne	s1,a4,12a78 <d_discriminator+0x80>
   12a58:	00900713          	li	a4,9
   12a5c:	00f75e63          	bge	a4,a5,12a78 <d_discriminator+0x80>
   12a60:	00c42783          	lw	a5,12(s0)
   12a64:	05f00713          	li	a4,95
   12a68:	0007c683          	lbu	a3,0(a5)
   12a6c:	00e69863          	bne	a3,a4,12a7c <d_discriminator+0x84>
   12a70:	00178793          	add	a5,a5,1
   12a74:	00f42623          	sw	a5,12(s0)
   12a78:	00100513          	li	a0,1
   12a7c:	00c12083          	lw	ra,12(sp)
   12a80:	00812403          	lw	s0,8(sp)
   12a84:	00412483          	lw	s1,4(sp)
   12a88:	01010113          	add	sp,sp,16
   12a8c:	00008067          	ret
   12a90:	00100513          	li	a0,1
   12a94:	00008067          	ret

00012a98 <d_add_substitution>:
   12a98:	00050793          	mv	a5,a0
   12a9c:	02058a63          	beqz	a1,12ad0 <d_add_substitution+0x38>
   12aa0:	02052703          	lw	a4,32(a0)
   12aa4:	02452683          	lw	a3,36(a0)
   12aa8:	00000513          	li	a0,0
   12aac:	02d75463          	bge	a4,a3,12ad4 <d_add_substitution+0x3c>
   12ab0:	01c7a683          	lw	a3,28(a5)
   12ab4:	00271613          	sll	a2,a4,0x2
   12ab8:	00170713          	add	a4,a4,1
   12abc:	00c686b3          	add	a3,a3,a2
   12ac0:	00b6a023          	sw	a1,0(a3)
   12ac4:	02e7a023          	sw	a4,32(a5)
   12ac8:	00100513          	li	a0,1
   12acc:	00008067          	ret
   12ad0:	00000513          	li	a0,0
   12ad4:	00008067          	ret

00012ad8 <d_count_templates_scopes>:
   12ad8:	ff010113          	add	sp,sp,-16
   12adc:	00812423          	sw	s0,8(sp)
   12ae0:	00912223          	sw	s1,4(sp)
   12ae4:	00058413          	mv	s0,a1
   12ae8:	00050493          	mv	s1,a0
   12aec:	00112623          	sw	ra,12(sp)
   12af0:	00100593          	li	a1,1
   12af4:	40000513          	li	a0,1024
   12af8:	04100813          	li	a6,65
   12afc:	02200893          	li	a7,34
   12b00:	04040063          	beqz	s0,12b40 <d_count_templates_scopes+0x68>
   12b04:	00842783          	lw	a5,8(s0)
   12b08:	02f5cc63          	blt	a1,a5,12b40 <d_count_templates_scopes+0x68>
   12b0c:	11c4a603          	lw	a2,284(s1)
   12b10:	02c54863          	blt	a0,a2,12b40 <d_count_templates_scopes+0x68>
   12b14:	00178793          	add	a5,a5,1
   12b18:	00f42423          	sw	a5,8(s0)
   12b1c:	00042783          	lw	a5,0(s0)
   12b20:	0cf86463          	bltu	a6,a5,12be8 <d_count_templates_scopes+0x110>
   12b24:	02f8e863          	bltu	a7,a5,12b54 <d_count_templates_scopes+0x7c>
   12b28:	00700713          	li	a4,7
   12b2c:	04e78863          	beq	a5,a4,12b7c <d_count_templates_scopes+0xa4>
   12b30:	06f76663          	bltu	a4,a5,12b9c <d_count_templates_scopes+0xc4>
   12b34:	00300713          	li	a4,3
   12b38:	04f76663          	bltu	a4,a5,12b84 <d_count_templates_scopes+0xac>
   12b3c:	06079e63          	bnez	a5,12bb8 <d_count_templates_scopes+0xe0>
   12b40:	00c12083          	lw	ra,12(sp)
   12b44:	00812403          	lw	s0,8(sp)
   12b48:	00412483          	lw	s1,4(sp)
   12b4c:	01010113          	add	sp,sp,16
   12b50:	00008067          	ret
   12b54:	fdd78713          	add	a4,a5,-35
   12b58:	7ffe86b7          	lui	a3,0x7ffe8
   12b5c:	00e59733          	sll	a4,a1,a4
   12b60:	dec68693          	add	a3,a3,-532 # 7ffe7dec <__BSS_END__+0x7ffa3518>
   12b64:	00d776b3          	and	a3,a4,a3
   12b68:	04069863          	bnez	a3,12bb8 <d_count_templates_scopes+0xe0>
   12b6c:	00377713          	and	a4,a4,3
   12b70:	08071e63          	bnez	a4,12c0c <d_count_templates_scopes+0x134>
   12b74:	03300713          	li	a4,51
   12b78:	fce794e3          	bne	a5,a4,12b40 <d_count_templates_scopes+0x68>
   12b7c:	01042403          	lw	s0,16(s0)
   12b80:	f81ff06f          	j	12b00 <d_count_templates_scopes+0x28>
   12b84:	00400713          	li	a4,4
   12b88:	fae79ce3          	bne	a5,a4,12b40 <d_count_templates_scopes+0x68>
   12b8c:	1444a783          	lw	a5,324(s1)
   12b90:	00178793          	add	a5,a5,1
   12b94:	14f4a223          	sw	a5,324(s1)
   12b98:	0200006f          	j	12bb8 <d_count_templates_scopes+0xe0>
   12b9c:	00800713          	li	a4,8
   12ba0:	fce78ee3          	beq	a5,a4,12b7c <d_count_templates_scopes+0xa4>
   12ba4:	01700713          	li	a4,23
   12ba8:	00f77863          	bgeu	a4,a5,12bb8 <d_count_templates_scopes+0xe0>
   12bac:	fe778793          	add	a5,a5,-25
   12bb0:	00900713          	li	a4,9
   12bb4:	f8f766e3          	bltu	a4,a5,12b40 <d_count_templates_scopes+0x68>
   12bb8:	00c42583          	lw	a1,12(s0)
   12bbc:	00160613          	add	a2,a2,1
   12bc0:	10c4ae23          	sw	a2,284(s1)
   12bc4:	00048513          	mv	a0,s1
   12bc8:	f11ff0ef          	jal	12ad8 <d_count_templates_scopes>
   12bcc:	01042583          	lw	a1,16(s0)
   12bd0:	00048513          	mv	a0,s1
   12bd4:	f05ff0ef          	jal	12ad8 <d_count_templates_scopes>
   12bd8:	11c4a783          	lw	a5,284(s1)
   12bdc:	fff78793          	add	a5,a5,-1
   12be0:	10f4ae23          	sw	a5,284(s1)
   12be4:	f5dff06f          	j	12b40 <d_count_templates_scopes+0x68>
   12be8:	fbc78793          	add	a5,a5,-68
   12bec:	01100713          	li	a4,17
   12bf0:	f4f768e3          	bltu	a4,a5,12b40 <d_count_templates_scopes+0x68>
   12bf4:	0003b737          	lui	a4,0x3b
   12bf8:	00279793          	sll	a5,a5,0x2
   12bfc:	4bc70713          	add	a4,a4,1212 # 3b4bc <_ZTVN10__cxxabiv117__class_type_infoE+0x78>
   12c00:	00e787b3          	add	a5,a5,a4
   12c04:	0007a783          	lw	a5,0(a5)
   12c08:	00078067          	jr	a5
   12c0c:	00c42783          	lw	a5,12(s0)
   12c10:	0007a703          	lw	a4,0(a5)
   12c14:	00500793          	li	a5,5
   12c18:	faf710e3          	bne	a4,a5,12bb8 <d_count_templates_scopes+0xe0>
   12c1c:	1384a783          	lw	a5,312(s1)
   12c20:	00178793          	add	a5,a5,1
   12c24:	12f4ac23          	sw	a5,312(s1)
   12c28:	f91ff06f          	j	12bb8 <d_count_templates_scopes+0xe0>
   12c2c:	00c42403          	lw	s0,12(s0)
   12c30:	ed1ff06f          	j	12b00 <d_count_templates_scopes+0x28>

00012c34 <d_print_flush>:
   12c34:	10052583          	lw	a1,256(a0)
   12c38:	ff010113          	add	sp,sp,-16
   12c3c:	00812423          	sw	s0,8(sp)
   12c40:	00112623          	sw	ra,12(sp)
   12c44:	00b507b3          	add	a5,a0,a1
   12c48:	00078023          	sb	zero,0(a5)
   12c4c:	10852783          	lw	a5,264(a0)
   12c50:	10c52603          	lw	a2,268(a0)
   12c54:	00050413          	mv	s0,a0
   12c58:	000780e7          	jalr	a5
   12c5c:	12842783          	lw	a5,296(s0)
   12c60:	00c12083          	lw	ra,12(sp)
   12c64:	10042023          	sw	zero,256(s0)
   12c68:	00178793          	add	a5,a5,1
   12c6c:	12f42423          	sw	a5,296(s0)
   12c70:	00812403          	lw	s0,8(sp)
   12c74:	01010113          	add	sp,sp,16
   12c78:	00008067          	ret

00012c7c <d_append_char>:
   12c7c:	10052703          	lw	a4,256(a0)
   12c80:	ff010113          	add	sp,sp,-16
   12c84:	00812423          	sw	s0,8(sp)
   12c88:	00912223          	sw	s1,4(sp)
   12c8c:	00112623          	sw	ra,12(sp)
   12c90:	0ff00793          	li	a5,255
   12c94:	00050413          	mv	s0,a0
   12c98:	00058493          	mv	s1,a1
   12c9c:	00f71463          	bne	a4,a5,12ca4 <d_append_char+0x28>
   12ca0:	f95ff0ef          	jal	12c34 <d_print_flush>
   12ca4:	10042783          	lw	a5,256(s0)
   12ca8:	00178713          	add	a4,a5,1
   12cac:	10e42023          	sw	a4,256(s0)
   12cb0:	00f407b3          	add	a5,s0,a5
   12cb4:	00978023          	sb	s1,0(a5)
   12cb8:	10940223          	sb	s1,260(s0)
   12cbc:	00c12083          	lw	ra,12(sp)
   12cc0:	00812403          	lw	s0,8(sp)
   12cc4:	00412483          	lw	s1,4(sp)
   12cc8:	01010113          	add	sp,sp,16
   12ccc:	00008067          	ret

00012cd0 <d_append_buffer>:
   12cd0:	ff010113          	add	sp,sp,-16
   12cd4:	00812423          	sw	s0,8(sp)
   12cd8:	00912223          	sw	s1,4(sp)
   12cdc:	01212023          	sw	s2,0(sp)
   12ce0:	00112623          	sw	ra,12(sp)
   12ce4:	00050913          	mv	s2,a0
   12ce8:	00058413          	mv	s0,a1
   12cec:	00c584b3          	add	s1,a1,a2
   12cf0:	00941e63          	bne	s0,s1,12d0c <d_append_buffer+0x3c>
   12cf4:	00c12083          	lw	ra,12(sp)
   12cf8:	00812403          	lw	s0,8(sp)
   12cfc:	00412483          	lw	s1,4(sp)
   12d00:	00012903          	lw	s2,0(sp)
   12d04:	01010113          	add	sp,sp,16
   12d08:	00008067          	ret
   12d0c:	00044583          	lbu	a1,0(s0)
   12d10:	00090513          	mv	a0,s2
   12d14:	00140413          	add	s0,s0,1
   12d18:	f65ff0ef          	jal	12c7c <d_append_char>
   12d1c:	fd5ff06f          	j	12cf0 <d_append_buffer+0x20>

00012d20 <d_pack_length>:
   12d20:	00050793          	mv	a5,a0
   12d24:	02f00693          	li	a3,47
   12d28:	00000513          	li	a0,0
   12d2c:	00078a63          	beqz	a5,12d40 <d_pack_length+0x20>
   12d30:	0007a703          	lw	a4,0(a5)
   12d34:	00d71663          	bne	a4,a3,12d40 <d_pack_length+0x20>
   12d38:	00c7a703          	lw	a4,12(a5)
   12d3c:	00071463          	bnez	a4,12d44 <d_pack_length+0x24>
   12d40:	00008067          	ret
   12d44:	0107a783          	lw	a5,16(a5)
   12d48:	00150513          	add	a0,a0,1
   12d4c:	fe1ff06f          	j	12d2c <d_pack_length+0xc>

00012d50 <d_append_string>:
   12d50:	fe010113          	add	sp,sp,-32
   12d54:	00812c23          	sw	s0,24(sp)
   12d58:	00050413          	mv	s0,a0
   12d5c:	00058513          	mv	a0,a1
   12d60:	00112e23          	sw	ra,28(sp)
   12d64:	00b12623          	sw	a1,12(sp)
   12d68:	788140ef          	jal	274f0 <strlen>
   12d6c:	00050613          	mv	a2,a0
   12d70:	00040513          	mv	a0,s0
   12d74:	01812403          	lw	s0,24(sp)
   12d78:	00c12583          	lw	a1,12(sp)
   12d7c:	01c12083          	lw	ra,28(sp)
   12d80:	02010113          	add	sp,sp,32
   12d84:	f4dff06f          	j	12cd0 <d_append_buffer>

00012d88 <d_append_num>:
   12d88:	fd010113          	add	sp,sp,-48
   12d8c:	00058613          	mv	a2,a1
   12d90:	0003a5b7          	lui	a1,0x3a
   12d94:	02812423          	sw	s0,40(sp)
   12d98:	53c58593          	add	a1,a1,1340 # 3a53c <__clzsi2+0x2e8>
   12d9c:	00050413          	mv	s0,a0
   12da0:	00410513          	add	a0,sp,4
   12da4:	02112623          	sw	ra,44(sp)
   12da8:	2b4130ef          	jal	2605c <sprintf>
   12dac:	00410593          	add	a1,sp,4
   12db0:	00040513          	mv	a0,s0
   12db4:	f9dff0ef          	jal	12d50 <d_append_string>
   12db8:	02c12083          	lw	ra,44(sp)
   12dbc:	02812403          	lw	s0,40(sp)
   12dc0:	03010113          	add	sp,sp,48
   12dc4:	00008067          	ret

00012dc8 <d_print_lambda_parm_name>:
   12dc8:	fe010113          	add	sp,sp,-32
   12dcc:	00812c23          	sw	s0,24(sp)
   12dd0:	00112e23          	sw	ra,28(sp)
   12dd4:	fa858793          	add	a5,a1,-88
   12dd8:	00200713          	li	a4,2
   12ddc:	00060413          	mv	s0,a2
   12de0:	02f76c63          	bltu	a4,a5,12e18 <d_print_lambda_parm_name+0x50>
   12de4:	0003c737          	lui	a4,0x3c
   12de8:	00279793          	sll	a5,a5,0x2
   12dec:	8e870713          	add	a4,a4,-1816 # 3b8e8 <CSWTCH.180>
   12df0:	00f707b3          	add	a5,a4,a5
   12df4:	0007a583          	lw	a1,0(a5)
   12df8:	00a12623          	sw	a0,12(sp)
   12dfc:	f55ff0ef          	jal	12d50 <d_append_string>
   12e00:	00040593          	mv	a1,s0
   12e04:	01812403          	lw	s0,24(sp)
   12e08:	00c12503          	lw	a0,12(sp)
   12e0c:	01c12083          	lw	ra,28(sp)
   12e10:	02010113          	add	sp,sp,32
   12e14:	f75ff06f          	j	12d88 <d_append_num>
   12e18:	00100793          	li	a5,1
   12e1c:	0003a5b7          	lui	a1,0x3a
   12e20:	10f52c23          	sw	a5,280(a0)
   12e24:	4f058593          	add	a1,a1,1264 # 3a4f0 <__clzsi2+0x29c>
   12e28:	fd1ff06f          	j	12df8 <d_print_lambda_parm_name+0x30>

00012e2c <d_source_name>:
   12e2c:	ff010113          	add	sp,sp,-16
   12e30:	00812423          	sw	s0,8(sp)
   12e34:	00112623          	sw	ra,12(sp)
   12e38:	00912223          	sw	s1,4(sp)
   12e3c:	01212023          	sw	s2,0(sp)
   12e40:	00050413          	mv	s0,a0
   12e44:	8cdff0ef          	jal	12710 <d_number>
   12e48:	0ca05c63          	blez	a0,12f20 <d_source_name+0xf4>
   12e4c:	00c42903          	lw	s2,12(s0)
   12e50:	00442783          	lw	a5,4(s0)
   12e54:	00050493          	mv	s1,a0
   12e58:	00000513          	li	a0,0
   12e5c:	412787b3          	sub	a5,a5,s2
   12e60:	0897cc63          	blt	a5,s1,12ef8 <d_source_name+0xcc>
   12e64:	00842703          	lw	a4,8(s0)
   12e68:	009907b3          	add	a5,s2,s1
   12e6c:	00f42623          	sw	a5,12(s0)
   12e70:	00477713          	and	a4,a4,4
   12e74:	00070c63          	beqz	a4,12e8c <d_source_name+0x60>
   12e78:	0007c683          	lbu	a3,0(a5)
   12e7c:	02400713          	li	a4,36
   12e80:	00e69663          	bne	a3,a4,12e8c <d_source_name+0x60>
   12e84:	00178793          	add	a5,a5,1
   12e88:	00f42623          	sw	a5,12(s0)
   12e8c:	00900793          	li	a5,9
   12e90:	0897d263          	bge	a5,s1,12f14 <d_source_name+0xe8>
   12e94:	0003a5b7          	lui	a1,0x3a
   12e98:	00800613          	li	a2,8
   12e9c:	54058593          	add	a1,a1,1344 # 3a540 <__clzsi2+0x2ec>
   12ea0:	00090513          	mv	a0,s2
   12ea4:	744130ef          	jal	265e8 <memcmp>
   12ea8:	06051663          	bnez	a0,12f14 <d_source_name+0xe8>
   12eac:	00894783          	lbu	a5,8(s2)
   12eb0:	02e00713          	li	a4,46
   12eb4:	00e78a63          	beq	a5,a4,12ec8 <d_source_name+0x9c>
   12eb8:	05f00713          	li	a4,95
   12ebc:	00e78663          	beq	a5,a4,12ec8 <d_source_name+0x9c>
   12ec0:	02400713          	li	a4,36
   12ec4:	04e79863          	bne	a5,a4,12f14 <d_source_name+0xe8>
   12ec8:	00994703          	lbu	a4,9(s2)
   12ecc:	04e00793          	li	a5,78
   12ed0:	04f71263          	bne	a4,a5,12f14 <d_source_name+0xe8>
   12ed4:	02c42783          	lw	a5,44(s0)
   12ed8:	0003a5b7          	lui	a1,0x3a
   12edc:	01500613          	li	a2,21
   12ee0:	01678793          	add	a5,a5,22
   12ee4:	409787b3          	sub	a5,a5,s1
   12ee8:	02f42623          	sw	a5,44(s0)
   12eec:	54c58593          	add	a1,a1,1356 # 3a54c <__clzsi2+0x2f8>
   12ef0:	00040513          	mv	a0,s0
   12ef4:	f90ff0ef          	jal	12684 <d_make_name>
   12ef8:	02a42423          	sw	a0,40(s0)
   12efc:	00c12083          	lw	ra,12(sp)
   12f00:	00812403          	lw	s0,8(sp)
   12f04:	00412483          	lw	s1,4(sp)
   12f08:	00012903          	lw	s2,0(sp)
   12f0c:	01010113          	add	sp,sp,16
   12f10:	00008067          	ret
   12f14:	00048613          	mv	a2,s1
   12f18:	00090593          	mv	a1,s2
   12f1c:	fd5ff06f          	j	12ef0 <d_source_name+0xc4>
   12f20:	00000513          	li	a0,0
   12f24:	fd9ff06f          	j	12efc <d_source_name+0xd0>

00012f28 <d_abi_tags>:
   12f28:	fe010113          	add	sp,sp,-32
   12f2c:	00912a23          	sw	s1,20(sp)
   12f30:	02852483          	lw	s1,40(a0)
   12f34:	00812c23          	sw	s0,24(sp)
   12f38:	01212823          	sw	s2,16(sp)
   12f3c:	00112e23          	sw	ra,28(sp)
   12f40:	00050413          	mv	s0,a0
   12f44:	00058613          	mv	a2,a1
   12f48:	04200913          	li	s2,66
   12f4c:	00c42783          	lw	a5,12(s0)
   12f50:	0007c703          	lbu	a4,0(a5)
   12f54:	03270263          	beq	a4,s2,12f78 <d_abi_tags+0x50>
   12f58:	02942423          	sw	s1,40(s0)
   12f5c:	01c12083          	lw	ra,28(sp)
   12f60:	01812403          	lw	s0,24(sp)
   12f64:	01412483          	lw	s1,20(sp)
   12f68:	01012903          	lw	s2,16(sp)
   12f6c:	00060513          	mv	a0,a2
   12f70:	02010113          	add	sp,sp,32
   12f74:	00008067          	ret
   12f78:	00178793          	add	a5,a5,1
   12f7c:	00f42623          	sw	a5,12(s0)
   12f80:	00040513          	mv	a0,s0
   12f84:	00c12623          	sw	a2,12(sp)
   12f88:	ea5ff0ef          	jal	12e2c <d_source_name>
   12f8c:	00c12603          	lw	a2,12(sp)
   12f90:	00050693          	mv	a3,a0
   12f94:	04d00593          	li	a1,77
   12f98:	00040513          	mv	a0,s0
   12f9c:	d88ff0ef          	jal	12524 <d_make_comp>
   12fa0:	00050613          	mv	a2,a0
   12fa4:	fa9ff06f          	j	12f4c <d_abi_tags+0x24>

00012fa8 <d_maybe_module_name>:
   12fa8:	fd010113          	add	sp,sp,-48
   12fac:	02812423          	sw	s0,40(sp)
   12fb0:	02912223          	sw	s1,36(sp)
   12fb4:	03212023          	sw	s2,32(sp)
   12fb8:	01312e23          	sw	s3,28(sp)
   12fbc:	02112623          	sw	ra,44(sp)
   12fc0:	00050413          	mv	s0,a0
   12fc4:	00058493          	mv	s1,a1
   12fc8:	05700913          	li	s2,87
   12fcc:	05000993          	li	s3,80
   12fd0:	00c42783          	lw	a5,12(s0)
   12fd4:	0007c703          	lbu	a4,0(a5)
   12fd8:	01270663          	beq	a4,s2,12fe4 <d_maybe_module_name+0x3c>
   12fdc:	00100513          	li	a0,1
   12fe0:	05c0006f          	j	1303c <d_maybe_module_name+0x94>
   12fe4:	00178713          	add	a4,a5,1
   12fe8:	00e42623          	sw	a4,12(s0)
   12fec:	0017c703          	lbu	a4,1(a5)
   12ff0:	05300593          	li	a1,83
   12ff4:	01371863          	bne	a4,s3,13004 <d_maybe_module_name+0x5c>
   12ff8:	00278793          	add	a5,a5,2
   12ffc:	00f42623          	sw	a5,12(s0)
   13000:	05400593          	li	a1,84
   13004:	0004a603          	lw	a2,0(s1)
   13008:	00040513          	mv	a0,s0
   1300c:	00b12623          	sw	a1,12(sp)
   13010:	00c12423          	sw	a2,8(sp)
   13014:	e19ff0ef          	jal	12e2c <d_source_name>
   13018:	00c12583          	lw	a1,12(sp)
   1301c:	00812603          	lw	a2,8(sp)
   13020:	00050693          	mv	a3,a0
   13024:	00040513          	mv	a0,s0
   13028:	cfcff0ef          	jal	12524 <d_make_comp>
   1302c:	00a4a023          	sw	a0,0(s1)
   13030:	00050593          	mv	a1,a0
   13034:	02051263          	bnez	a0,13058 <d_maybe_module_name+0xb0>
   13038:	00000513          	li	a0,0
   1303c:	02c12083          	lw	ra,44(sp)
   13040:	02812403          	lw	s0,40(sp)
   13044:	02412483          	lw	s1,36(sp)
   13048:	02012903          	lw	s2,32(sp)
   1304c:	01c12983          	lw	s3,28(sp)
   13050:	03010113          	add	sp,sp,48
   13054:	00008067          	ret
   13058:	00040513          	mv	a0,s0
   1305c:	a3dff0ef          	jal	12a98 <d_add_substitution>
   13060:	f60518e3          	bnez	a0,12fd0 <d_maybe_module_name+0x28>
   13064:	fd5ff06f          	j	13038 <d_maybe_module_name+0x90>

00013068 <d_index_template_argument>:
   13068:	02f00793          	li	a5,47
   1306c:	0005de63          	bgez	a1,13088 <d_index_template_argument+0x20>
   13070:	00008067          	ret
   13074:	00052703          	lw	a4,0(a0)
   13078:	02f71063          	bne	a4,a5,13098 <d_index_template_argument+0x30>
   1307c:	00058a63          	beqz	a1,13090 <d_index_template_argument+0x28>
   13080:	01052503          	lw	a0,16(a0)
   13084:	fff58593          	add	a1,a1,-1
   13088:	fe0516e3          	bnez	a0,13074 <d_index_template_argument+0xc>
   1308c:	00008067          	ret
   13090:	00c52503          	lw	a0,12(a0)
   13094:	00008067          	ret
   13098:	00000513          	li	a0,0
   1309c:	00008067          	ret

000130a0 <d_lookup_template_argument>:
   130a0:	11052783          	lw	a5,272(a0)
   130a4:	00078a63          	beqz	a5,130b8 <d_lookup_template_argument+0x18>
   130a8:	0047a783          	lw	a5,4(a5)
   130ac:	00c5a583          	lw	a1,12(a1)
   130b0:	0107a503          	lw	a0,16(a5)
   130b4:	fb5ff06f          	j	13068 <d_index_template_argument>
   130b8:	00100793          	li	a5,1
   130bc:	10f52c23          	sw	a5,280(a0)
   130c0:	00000513          	li	a0,0
   130c4:	00008067          	ret

000130c8 <d_find_pack>:
   130c8:	fe010113          	add	sp,sp,-32
   130cc:	01212823          	sw	s2,16(sp)
   130d0:	0003b937          	lui	s2,0x3b
   130d4:	00812c23          	sw	s0,24(sp)
   130d8:	00912a23          	sw	s1,20(sp)
   130dc:	01312623          	sw	s3,12(sp)
   130e0:	00112e23          	sw	ra,28(sp)
   130e4:	00050493          	mv	s1,a0
   130e8:	00058413          	mv	s0,a1
   130ec:	00800993          	li	s3,8
   130f0:	50490913          	add	s2,s2,1284 # 3b504 <_ZTVN10__cxxabiv117__class_type_infoE+0xc0>
   130f4:	02040c63          	beqz	s0,1312c <d_find_pack+0x64>
   130f8:	00042783          	lw	a5,0(s0)
   130fc:	02f9fc63          	bgeu	s3,a5,13134 <d_find_pack+0x6c>
   13100:	03300713          	li	a4,51
   13104:	06e78863          	beq	a5,a4,13174 <d_find_pack+0xac>
   13108:	02f76e63          	bltu	a4,a5,13144 <d_find_pack+0x7c>
   1310c:	fe878793          	add	a5,a5,-24
   13110:	01a00713          	li	a4,26
   13114:	04f76863          	bltu	a4,a5,13164 <d_find_pack+0x9c>
   13118:	fbff8737          	lui	a4,0xfbff8
   1311c:	ffe70713          	add	a4,a4,-2 # fbff7ffe <__BSS_END__+0xfbfb372a>
   13120:	40f75733          	sra	a4,a4,a5
   13124:	00177713          	and	a4,a4,1
   13128:	02071e63          	bnez	a4,13164 <d_find_pack+0x9c>
   1312c:	00000513          	li	a0,0
   13130:	0680006f          	j	13198 <d_find_pack+0xd0>
   13134:	00279793          	sll	a5,a5,0x2
   13138:	012787b3          	add	a5,a5,s2
   1313c:	0007a783          	lw	a5,0(a5)
   13140:	00078067          	jr	a5
   13144:	fbe78793          	add	a5,a5,-66
   13148:	01a00713          	li	a4,26
   1314c:	00f76c63          	bltu	a4,a5,13164 <d_find_pack+0x9c>
   13150:	04001737          	lui	a4,0x4001
   13154:	ce370713          	add	a4,a4,-797 # 4000ce3 <__BSS_END__+0x3fbc40f>
   13158:	00f75733          	srl	a4,a4,a5
   1315c:	00177713          	and	a4,a4,1
   13160:	fc0716e3          	bnez	a4,1312c <d_find_pack+0x64>
   13164:	00c42583          	lw	a1,12(s0)
   13168:	00048513          	mv	a0,s1
   1316c:	f5dff0ef          	jal	130c8 <d_find_pack>
   13170:	02051463          	bnez	a0,13198 <d_find_pack+0xd0>
   13174:	01042403          	lw	s0,16(s0)
   13178:	f7dff06f          	j	130f4 <d_find_pack+0x2c>
   1317c:	00040593          	mv	a1,s0
   13180:	00048513          	mv	a0,s1
   13184:	f1dff0ef          	jal	130a0 <d_lookup_template_argument>
   13188:	fa0502e3          	beqz	a0,1312c <d_find_pack+0x64>
   1318c:	00052703          	lw	a4,0(a0)
   13190:	02f00793          	li	a5,47
   13194:	f8f71ce3          	bne	a4,a5,1312c <d_find_pack+0x64>
   13198:	01c12083          	lw	ra,28(sp)
   1319c:	01812403          	lw	s0,24(sp)
   131a0:	01412483          	lw	s1,20(sp)
   131a4:	01012903          	lw	s2,16(sp)
   131a8:	00c12983          	lw	s3,12(sp)
   131ac:	02010113          	add	sp,sp,32
   131b0:	00008067          	ret

000131b4 <d_growable_string_callback_adapter>:
   131b4:	fe010113          	add	sp,sp,-32
   131b8:	00462703          	lw	a4,4(a2)
   131bc:	00912a23          	sw	s1,20(sp)
   131c0:	00862483          	lw	s1,8(a2)
   131c4:	00158793          	add	a5,a1,1
   131c8:	00812c23          	sw	s0,24(sp)
   131cc:	01212823          	sw	s2,16(sp)
   131d0:	01312623          	sw	s3,12(sp)
   131d4:	00e787b3          	add	a5,a5,a4
   131d8:	00112e23          	sw	ra,28(sp)
   131dc:	00c62703          	lw	a4,12(a2)
   131e0:	00050993          	mv	s3,a0
   131e4:	00058913          	mv	s2,a1
   131e8:	00060413          	mv	s0,a2
   131ec:	06f4f663          	bgeu	s1,a5,13258 <d_growable_string_callback_adapter+0xa4>
   131f0:	02071e63          	bnez	a4,1322c <d_growable_string_callback_adapter+0x78>
   131f4:	00049463          	bnez	s1,131fc <d_growable_string_callback_adapter+0x48>
   131f8:	00200493          	li	s1,2
   131fc:	04f4e663          	bltu	s1,a5,13248 <d_growable_string_callback_adapter+0x94>
   13200:	00042503          	lw	a0,0(s0)
   13204:	00048593          	mv	a1,s1
   13208:	0a5110ef          	jal	24aac <realloc>
   1320c:	04051263          	bnez	a0,13250 <d_growable_string_callback_adapter+0x9c>
   13210:	00042503          	lw	a0,0(s0)
   13214:	0c8110ef          	jal	242dc <free>
   13218:	00100793          	li	a5,1
   1321c:	00042023          	sw	zero,0(s0)
   13220:	00042223          	sw	zero,4(s0)
   13224:	00042423          	sw	zero,8(s0)
   13228:	00f42623          	sw	a5,12(s0)
   1322c:	01c12083          	lw	ra,28(sp)
   13230:	01812403          	lw	s0,24(sp)
   13234:	01412483          	lw	s1,20(sp)
   13238:	01012903          	lw	s2,16(sp)
   1323c:	00c12983          	lw	s3,12(sp)
   13240:	02010113          	add	sp,sp,32
   13244:	00008067          	ret
   13248:	00149493          	sll	s1,s1,0x1
   1324c:	fb1ff06f          	j	131fc <d_growable_string_callback_adapter+0x48>
   13250:	00a42023          	sw	a0,0(s0)
   13254:	00942423          	sw	s1,8(s0)
   13258:	00c42783          	lw	a5,12(s0)
   1325c:	fc0798e3          	bnez	a5,1322c <d_growable_string_callback_adapter+0x78>
   13260:	00442783          	lw	a5,4(s0)
   13264:	00042503          	lw	a0,0(s0)
   13268:	00090613          	mv	a2,s2
   1326c:	00098593          	mv	a1,s3
   13270:	00f50533          	add	a0,a0,a5
   13274:	0d8140ef          	jal	2734c <memcpy>
   13278:	00042783          	lw	a5,0(s0)
   1327c:	00442703          	lw	a4,4(s0)
   13280:	012787b3          	add	a5,a5,s2
   13284:	00e787b3          	add	a5,a5,a4
   13288:	00078023          	sb	zero,0(a5)
   1328c:	00442783          	lw	a5,4(s0)
   13290:	012787b3          	add	a5,a5,s2
   13294:	00f42223          	sw	a5,4(s0)
   13298:	f95ff06f          	j	1322c <d_growable_string_callback_adapter+0x78>

0001329c <is_designated_init>:
   1329c:	00052783          	lw	a5,0(a0)
   132a0:	03800713          	li	a4,56
   132a4:	ffd7f793          	and	a5,a5,-3
   132a8:	04e79063          	bne	a5,a4,132e8 <is_designated_init+0x4c>
   132ac:	00c52783          	lw	a5,12(a0)
   132b0:	06400713          	li	a4,100
   132b4:	00000513          	li	a0,0
   132b8:	00c7a783          	lw	a5,12(a5)
   132bc:	0007a783          	lw	a5,0(a5)
   132c0:	0007c683          	lbu	a3,0(a5)
   132c4:	02e69463          	bne	a3,a4,132ec <is_designated_init+0x50>
   132c8:	0017c783          	lbu	a5,1(a5)
   132cc:	06900713          	li	a4,105
   132d0:	00100513          	li	a0,1
   132d4:	00e78c63          	beq	a5,a4,132ec <is_designated_init+0x50>
   132d8:	0df7f793          	and	a5,a5,223
   132dc:	fa878793          	add	a5,a5,-88
   132e0:	0017b513          	seqz	a0,a5
   132e4:	00008067          	ret
   132e8:	00000513          	li	a0,0
   132ec:	00008067          	ret

000132f0 <op_is_new_cast.isra.0>:
   132f0:	00052783          	lw	a5,0(a0)
   132f4:	06300713          	li	a4,99
   132f8:	00000513          	li	a0,0
   132fc:	0017c683          	lbu	a3,1(a5)
   13300:	02e69463          	bne	a3,a4,13328 <op_is_new_cast.isra.0+0x38>
   13304:	0007c783          	lbu	a5,0(a5)
   13308:	00100693          	li	a3,1
   1330c:	00100513          	li	a0,1
   13310:	f8e78713          	add	a4,a5,-114
   13314:	0ff77713          	zext.b	a4,a4
   13318:	00e6f863          	bgeu	a3,a4,13328 <op_is_new_cast.isra.0+0x38>
   1331c:	f9d78793          	add	a5,a5,-99
   13320:	0027b513          	sltiu	a0,a5,2
   13324:	00008067          	ret
   13328:	00008067          	ret

0001332c <d_print_comp>:
   1332c:	f7010113          	add	sp,sp,-144
   13330:	08812423          	sw	s0,136(sp)
   13334:	08112623          	sw	ra,140(sp)
   13338:	08912223          	sw	s1,132(sp)
   1333c:	09212023          	sw	s2,128(sp)
   13340:	07312e23          	sw	s3,124(sp)
   13344:	07412c23          	sw	s4,120(sp)
   13348:	07512a23          	sw	s5,116(sp)
   1334c:	07612823          	sw	s6,112(sp)
   13350:	07712623          	sw	s7,108(sp)
   13354:	07812423          	sw	s8,104(sp)
   13358:	07912223          	sw	s9,100(sp)
   1335c:	07a12023          	sw	s10,96(sp)
   13360:	00050413          	mv	s0,a0
   13364:	02060063          	beqz	a2,13384 <d_print_comp+0x58>
   13368:	00462703          	lw	a4,4(a2)
   1336c:	00100793          	li	a5,1
   13370:	00060493          	mv	s1,a2
   13374:	00e7c863          	blt	a5,a4,13384 <d_print_comp+0x58>
   13378:	11c52783          	lw	a5,284(a0)
   1337c:	40000693          	li	a3,1024
   13380:	04f6d263          	bge	a3,a5,133c4 <d_print_comp+0x98>
   13384:	00100793          	li	a5,1
   13388:	10f42c23          	sw	a5,280(s0)
   1338c:	08c12083          	lw	ra,140(sp)
   13390:	08812403          	lw	s0,136(sp)
   13394:	08412483          	lw	s1,132(sp)
   13398:	08012903          	lw	s2,128(sp)
   1339c:	07c12983          	lw	s3,124(sp)
   133a0:	07812a03          	lw	s4,120(sp)
   133a4:	07412a83          	lw	s5,116(sp)
   133a8:	07012b03          	lw	s6,112(sp)
   133ac:	06c12b83          	lw	s7,108(sp)
   133b0:	06812c03          	lw	s8,104(sp)
   133b4:	06412c83          	lw	s9,100(sp)
   133b8:	06012d03          	lw	s10,96(sp)
   133bc:	09010113          	add	sp,sp,144
   133c0:	00008067          	ret
   133c4:	00170713          	add	a4,a4,1
   133c8:	00e62223          	sw	a4,4(a2)
   133cc:	00178793          	add	a5,a5,1
   133d0:	10f52e23          	sw	a5,284(a0)
   133d4:	12c52783          	lw	a5,300(a0)
   133d8:	11852983          	lw	s3,280(a0)
   133dc:	00c12823          	sw	a2,16(sp)
   133e0:	01010613          	add	a2,sp,16
   133e4:	00f12a23          	sw	a5,20(sp)
   133e8:	12c52623          	sw	a2,300(a0)
   133ec:	02099c63          	bnez	s3,13424 <d_print_comp+0xf8>
   133f0:	0004aa03          	lw	s4,0(s1)
   133f4:	05c00793          	li	a5,92
   133f8:	0147f463          	bgeu	a5,s4,13400 <d_print_comp+0xd4>
   133fc:	17c0106f          	j	14578 <d_print_comp+0x124c>
   13400:	0003b737          	lui	a4,0x3b
   13404:	002a1793          	sll	a5,s4,0x2
   13408:	52870713          	add	a4,a4,1320 # 3b528 <_ZTVN10__cxxabiv117__class_type_infoE+0xe4>
   1340c:	00e787b3          	add	a5,a5,a4
   13410:	0007a783          	lw	a5,0(a5)
   13414:	00078067          	jr	a5
   13418:	0104a603          	lw	a2,16(s1)
   1341c:	00c4a583          	lw	a1,12(s1)
   13420:	8b1ff0ef          	jal	12cd0 <d_append_buffer>
   13424:	01412783          	lw	a5,20(sp)
   13428:	12f42623          	sw	a5,300(s0)
   1342c:	0044a783          	lw	a5,4(s1)
   13430:	fff78793          	add	a5,a5,-1
   13434:	00f4a223          	sw	a5,4(s1)
   13438:	11c42783          	lw	a5,284(s0)
   1343c:	fff78793          	add	a5,a5,-1
   13440:	10f42e23          	sw	a5,284(s0)
   13444:	f49ff06f          	j	1338c <d_print_comp+0x60>
   13448:	00c4a603          	lw	a2,12(s1)
   1344c:	01100593          	li	a1,17
   13450:	eddff0ef          	jal	1332c <d_print_comp>
   13454:	0003a5b7          	lui	a1,0x3a
   13458:	00040513          	mv	a0,s0
   1345c:	56458593          	add	a1,a1,1380 # 3a564 <__clzsi2+0x310>
   13460:	8f1ff0ef          	jal	12d50 <d_append_string>
   13464:	0104a603          	lw	a2,16(s1)
   13468:	00040513          	mv	a0,s0
   1346c:	01100593          	li	a1,17
   13470:	ebdff0ef          	jal	1332c <d_print_comp>
   13474:	05d00593          	li	a1,93
   13478:	00040513          	mv	a0,s0
   1347c:	801ff0ef          	jal	12c7c <d_append_char>
   13480:	fa5ff06f          	j	13424 <d_print_comp+0xf8>
   13484:	05b00593          	li	a1,91
   13488:	ff4ff0ef          	jal	12c7c <d_append_char>
   1348c:	00048913          	mv	s2,s1
   13490:	0003a9b7          	lui	s3,0x3a
   13494:	00c92603          	lw	a2,12(s2)
   13498:	01100593          	li	a1,17
   1349c:	00040513          	mv	a0,s0
   134a0:	e8dff0ef          	jal	1332c <d_print_comp>
   134a4:	01092903          	lw	s2,16(s2)
   134a8:	00091463          	bnez	s2,134b0 <d_print_comp+0x184>
   134ac:	2a40106f          	j	14750 <d_print_comp+0x1424>
   134b0:	56c98593          	add	a1,s3,1388 # 3a56c <__clzsi2+0x318>
   134b4:	00040513          	mv	a0,s0
   134b8:	899ff0ef          	jal	12d50 <d_append_string>
   134bc:	fd9ff06f          	j	13494 <d_print_comp+0x168>
   134c0:	00c4a603          	lw	a2,12(s1)
   134c4:	01100593          	li	a1,17
   134c8:	e65ff0ef          	jal	1332c <d_print_comp>
   134cc:	00040513          	mv	a0,s0
   134d0:	04000593          	li	a1,64
   134d4:	fa8ff0ef          	jal	12c7c <d_append_char>
   134d8:	0104a603          	lw	a2,16(s1)
   134dc:	01100593          	li	a1,17
   134e0:	00040513          	mv	a0,s0
   134e4:	e49ff0ef          	jal	1332c <d_print_comp>
   134e8:	f3dff06f          	j	13424 <d_print_comp+0xf8>
   134ec:	00c4a603          	lw	a2,12(s1)
   134f0:	00060663          	beqz	a2,134fc <d_print_comp+0x1d0>
   134f4:	01100593          	li	a1,17
   134f8:	e35ff0ef          	jal	1332c <d_print_comp>
   134fc:	0004a703          	lw	a4,0(s1)
   13500:	05400793          	li	a5,84
   13504:	02f70263          	beq	a4,a5,13528 <d_print_comp+0x1fc>
   13508:	00c4a783          	lw	a5,12(s1)
   1350c:	02e00593          	li	a1,46
   13510:	00079e63          	bnez	a5,1352c <d_print_comp+0x200>
   13514:	0104a603          	lw	a2,16(s1)
   13518:	01100593          	li	a1,17
   1351c:	00040513          	mv	a0,s0
   13520:	e0dff0ef          	jal	1332c <d_print_comp>
   13524:	f01ff06f          	j	13424 <d_print_comp+0xf8>
   13528:	03a00593          	li	a1,58
   1352c:	00040513          	mv	a0,s0
   13530:	f4cff0ef          	jal	12c7c <d_append_char>
   13534:	fe1ff06f          	j	13514 <d_print_comp+0x1e8>
   13538:	00c4a603          	lw	a2,12(s1)
   1353c:	01100593          	li	a1,17
   13540:	dedff0ef          	jal	1332c <d_print_comp>
   13544:	0003a5b7          	lui	a1,0x3a
   13548:	57058593          	add	a1,a1,1392 # 3a570 <__clzsi2+0x31c>
   1354c:	00040513          	mv	a0,s0
   13550:	801ff0ef          	jal	12d50 <d_append_string>
   13554:	0104a903          	lw	s2,16(s1)
   13558:	04800793          	li	a5,72
   1355c:	00092703          	lw	a4,0(s2)
   13560:	02f71c63          	bne	a4,a5,13598 <d_print_comp+0x26c>
   13564:	0003a5b7          	lui	a1,0x3a
   13568:	57458593          	add	a1,a1,1396 # 3a574 <__clzsi2+0x320>
   1356c:	00040513          	mv	a0,s0
   13570:	fe0ff0ef          	jal	12d50 <d_append_string>
   13574:	01092583          	lw	a1,16(s2)
   13578:	00040513          	mv	a0,s0
   1357c:	00158593          	add	a1,a1,1
   13580:	809ff0ef          	jal	12d88 <d_append_num>
   13584:	0003a5b7          	lui	a1,0x3a
   13588:	58458593          	add	a1,a1,1412 # 3a584 <__clzsi2+0x330>
   1358c:	00040513          	mv	a0,s0
   13590:	fc0ff0ef          	jal	12d50 <d_append_string>
   13594:	00c92903          	lw	s2,12(s2)
   13598:	00090613          	mv	a2,s2
   1359c:	01100593          	li	a1,17
   135a0:	00040513          	mv	a0,s0
   135a4:	d89ff0ef          	jal	1332c <d_print_comp>
   135a8:	e7dff06f          	j	13424 <d_print_comp+0xf8>
   135ac:	00c4a903          	lw	s2,12(s1)
   135b0:	02010a93          	add	s5,sp,32
   135b4:	11452b83          	lw	s7,276(a0)
   135b8:	000a8a13          	mv	s4,s5
   135bc:	10052a23          	sw	zero,276(a0)
   135c0:	00000993          	li	s3,0
   135c4:	00400c93          	li	s9,4
   135c8:	00090463          	beqz	s2,135d0 <d_print_comp+0x2a4>
   135cc:	01999863          	bne	s3,s9,135dc <d_print_comp+0x2b0>
   135d0:	00100793          	li	a5,1
   135d4:	10f42c23          	sw	a5,280(s0)
   135d8:	e4dff06f          	j	13424 <d_print_comp+0xf8>
   135dc:	000a2423          	sw	zero,8(s4)
   135e0:	11442783          	lw	a5,276(s0)
   135e4:	11042b03          	lw	s6,272(s0)
   135e8:	00092c03          	lw	s8,0(s2)
   135ec:	00fa2023          	sw	a5,0(s4)
   135f0:	11442a23          	sw	s4,276(s0)
   135f4:	012a2223          	sw	s2,4(s4)
   135f8:	016a2623          	sw	s6,12(s4)
   135fc:	000c0513          	mv	a0,s8
   13600:	eb9fe0ef          	jal	124b8 <is_fnqual_component_type>
   13604:	00198993          	add	s3,s3,1
   13608:	010a0a13          	add	s4,s4,16
   1360c:	08051863          	bnez	a0,1369c <d_print_comp+0x370>
   13610:	00200793          	li	a5,2
   13614:	02fc1a63          	bne	s8,a5,13648 <d_print_comp+0x31c>
   13618:	01092903          	lw	s2,16(s2)
   1361c:	04800793          	li	a5,72
   13620:	00092703          	lw	a4,0(s2)
   13624:	00f71463          	bne	a4,a5,1362c <d_print_comp+0x300>
   13628:	00c92903          	lw	s2,12(s2)
   1362c:	00499a13          	sll	s4,s3,0x4
   13630:	014a8a33          	add	s4,s5,s4
   13634:	00400c93          	li	s9,4
   13638:	f8090ce3          	beqz	s2,135d0 <d_print_comp+0x2a4>
   1363c:	00092503          	lw	a0,0(s2)
   13640:	e79fe0ef          	jal	124b8 <is_fnqual_component_type>
   13644:	06051063          	bnez	a0,136a4 <d_print_comp+0x378>
   13648:	00092703          	lw	a4,0(s2)
   1364c:	00400793          	li	a5,4
   13650:	00f71a63          	bne	a4,a5,13664 <d_print_comp+0x338>
   13654:	01810793          	add	a5,sp,24
   13658:	01612c23          	sw	s6,24(sp)
   1365c:	10f42823          	sw	a5,272(s0)
   13660:	01212e23          	sw	s2,28(sp)
   13664:	0104a603          	lw	a2,16(s1)
   13668:	01100593          	li	a1,17
   1366c:	00040513          	mv	a0,s0
   13670:	cbdff0ef          	jal	1332c <d_print_comp>
   13674:	00092703          	lw	a4,0(s2)
   13678:	00400793          	li	a5,4
   1367c:	00f71663          	bne	a4,a5,13688 <d_print_comp+0x35c>
   13680:	01812783          	lw	a5,24(sp)
   13684:	10f42823          	sw	a5,272(s0)
   13688:	00499993          	sll	s3,s3,0x4
   1368c:	013a89b3          	add	s3,s5,s3
   13690:	053a9863          	bne	s5,s3,136e0 <d_print_comp+0x3b4>
   13694:	11742a23          	sw	s7,276(s0)
   13698:	d8dff06f          	j	13424 <d_print_comp+0xf8>
   1369c:	00c92903          	lw	s2,12(s2)
   136a0:	f29ff06f          	j	135c8 <d_print_comp+0x29c>
   136a4:	f39986e3          	beq	s3,s9,135d0 <d_print_comp+0x2a4>
   136a8:	ff0a0c13          	add	s8,s4,-16
   136ac:	000a0513          	mv	a0,s4
   136b0:	01000613          	li	a2,16
   136b4:	000c0593          	mv	a1,s8
   136b8:	495130ef          	jal	2734c <memcpy>
   136bc:	ff2a2a23          	sw	s2,-12(s4)
   136c0:	fe0a2c23          	sw	zero,-8(s4)
   136c4:	018a2023          	sw	s8,0(s4)
   136c8:	11442a23          	sw	s4,276(s0)
   136cc:	ff6a2e23          	sw	s6,-4(s4)
   136d0:	00c92903          	lw	s2,12(s2)
   136d4:	00198993          	add	s3,s3,1
   136d8:	010a0a13          	add	s4,s4,16
   136dc:	f5dff06f          	j	13638 <d_print_comp+0x30c>
   136e0:	ff89a783          	lw	a5,-8(s3)
   136e4:	02079063          	bnez	a5,13704 <d_print_comp+0x3d8>
   136e8:	02000593          	li	a1,32
   136ec:	00040513          	mv	a0,s0
   136f0:	d8cff0ef          	jal	12c7c <d_append_char>
   136f4:	ff49a603          	lw	a2,-12(s3)
   136f8:	01100593          	li	a1,17
   136fc:	00040513          	mv	a0,s0
   13700:	57c010ef          	jal	14c7c <d_print_mod>
   13704:	ff098993          	add	s3,s3,-16
   13708:	f89ff06f          	j	13690 <d_print_comp+0x364>
   1370c:	00c4a603          	lw	a2,12(s1)
   13710:	14852903          	lw	s2,328(a0)
   13714:	11452983          	lw	s3,276(a0)
   13718:	14952423          	sw	s1,328(a0)
   1371c:	10052a23          	sw	zero,276(a0)
   13720:	01100593          	li	a1,17
   13724:	c09ff0ef          	jal	1332c <d_print_comp>
   13728:	10444703          	lbu	a4,260(s0)
   1372c:	03c00793          	li	a5,60
   13730:	00f71863          	bne	a4,a5,13740 <d_print_comp+0x414>
   13734:	02000593          	li	a1,32
   13738:	00040513          	mv	a0,s0
   1373c:	d40ff0ef          	jal	12c7c <d_append_char>
   13740:	03c00593          	li	a1,60
   13744:	00040513          	mv	a0,s0
   13748:	d34ff0ef          	jal	12c7c <d_append_char>
   1374c:	0104a603          	lw	a2,16(s1)
   13750:	01100593          	li	a1,17
   13754:	00040513          	mv	a0,s0
   13758:	bd5ff0ef          	jal	1332c <d_print_comp>
   1375c:	10444703          	lbu	a4,260(s0)
   13760:	03e00793          	li	a5,62
   13764:	00f71863          	bne	a4,a5,13774 <d_print_comp+0x448>
   13768:	02000593          	li	a1,32
   1376c:	00040513          	mv	a0,s0
   13770:	d0cff0ef          	jal	12c7c <d_append_char>
   13774:	03e00593          	li	a1,62
   13778:	00040513          	mv	a0,s0
   1377c:	d00ff0ef          	jal	12c7c <d_append_char>
   13780:	11342a23          	sw	s3,276(s0)
   13784:	15242423          	sw	s2,328(s0)
   13788:	c9dff06f          	j	13424 <d_print_comp+0xf8>
   1378c:	00c4a603          	lw	a2,12(s1)
   13790:	12052783          	lw	a5,288(a0)
   13794:	00160713          	add	a4,a2,1
   13798:	04f75c63          	bge	a4,a5,137f0 <d_print_comp+0x4c4>
   1379c:	11052783          	lw	a5,272(a0)
   137a0:	00060713          	mv	a4,a2
   137a4:	0047a783          	lw	a5,4(a5)
   137a8:	00c7a783          	lw	a5,12(a5)
   137ac:	00078e63          	beqz	a5,137c8 <d_print_comp+0x49c>
   137b0:	02071263          	bnez	a4,137d4 <d_print_comp+0x4a8>
   137b4:	0007a683          	lw	a3,0(a5)
   137b8:	05b00713          	li	a4,91
   137bc:	02e69263          	bne	a3,a4,137e0 <d_print_comp+0x4b4>
   137c0:	00c7a783          	lw	a5,12(a5)
   137c4:	00079e63          	bnez	a5,137e0 <d_print_comp+0x4b4>
   137c8:	00100793          	li	a5,1
   137cc:	10f42c23          	sw	a5,280(s0)
   137d0:	c55ff06f          	j	13424 <d_print_comp+0xf8>
   137d4:	0107a783          	lw	a5,16(a5)
   137d8:	fff70713          	add	a4,a4,-1
   137dc:	fd1ff06f          	j	137ac <d_print_comp+0x480>
   137e0:	0007a583          	lw	a1,0(a5)
   137e4:	00040513          	mv	a0,s0
   137e8:	de0ff0ef          	jal	12dc8 <d_print_lambda_parm_name>
   137ec:	c39ff06f          	j	13424 <d_print_comp+0xf8>
   137f0:	02078463          	beqz	a5,13818 <d_print_comp+0x4ec>
   137f4:	0003a5b7          	lui	a1,0x3a
   137f8:	00500613          	li	a2,5
   137fc:	58858593          	add	a1,a1,1416 # 3a588 <__clzsi2+0x334>
   13800:	cd0ff0ef          	jal	12cd0 <d_append_buffer>
   13804:	00c4a583          	lw	a1,12(s1)
   13808:	00040513          	mv	a0,s0
   1380c:	00158593          	add	a1,a1,1
   13810:	d78ff0ef          	jal	12d88 <d_append_num>
   13814:	c11ff06f          	j	13424 <d_print_comp+0xf8>
   13818:	00048593          	mv	a1,s1
   1381c:	885ff0ef          	jal	130a0 <d_lookup_template_argument>
   13820:	00050613          	mv	a2,a0
   13824:	fa0502e3          	beqz	a0,137c8 <d_print_comp+0x49c>
   13828:	00052703          	lw	a4,0(a0)
   1382c:	02f00793          	li	a5,47
   13830:	00f71a63          	bne	a4,a5,13844 <d_print_comp+0x518>
   13834:	12442583          	lw	a1,292(s0)
   13838:	831ff0ef          	jal	13068 <d_index_template_argument>
   1383c:	00050613          	mv	a2,a0
   13840:	f80504e3          	beqz	a0,137c8 <d_print_comp+0x49c>
   13844:	11042903          	lw	s2,272(s0)
   13848:	01100593          	li	a1,17
   1384c:	00040513          	mv	a0,s0
   13850:	00092783          	lw	a5,0(s2)
   13854:	10f42823          	sw	a5,272(s0)
   13858:	ad5ff0ef          	jal	1332c <d_print_comp>
   1385c:	11242823          	sw	s2,272(s0)
   13860:	bc5ff06f          	j	13424 <d_print_comp+0xf8>
   13864:	0003a5b7          	lui	a1,0x3a
   13868:	59058593          	add	a1,a1,1424 # 3a590 <__clzsi2+0x33c>
   1386c:	ce4ff0ef          	jal	12d50 <d_append_string>
   13870:	00c4a603          	lw	a2,12(s1)
   13874:	01100593          	li	a1,17
   13878:	00040513          	mv	a0,s0
   1387c:	ab1ff0ef          	jal	1332c <d_print_comp>
   13880:	ba5ff06f          	j	13424 <d_print_comp+0xf8>
   13884:	0104a603          	lw	a2,16(s1)
   13888:	01100593          	li	a1,17
   1388c:	aa1ff0ef          	jal	1332c <d_print_comp>
   13890:	b95ff06f          	j	13424 <d_print_comp+0xf8>
   13894:	07e00593          	li	a1,126
   13898:	be4ff0ef          	jal	12c7c <d_append_char>
   1389c:	0104a603          	lw	a2,16(s1)
   138a0:	01100593          	li	a1,17
   138a4:	00040513          	mv	a0,s0
   138a8:	a85ff0ef          	jal	1332c <d_print_comp>
   138ac:	b79ff06f          	j	13424 <d_print_comp+0xf8>
   138b0:	0003a5b7          	lui	a1,0x3a
   138b4:	5b058593          	add	a1,a1,1456 # 3a5b0 <__clzsi2+0x35c>
   138b8:	c98ff0ef          	jal	12d50 <d_append_string>
   138bc:	00c4a603          	lw	a2,12(s1)
   138c0:	01100593          	li	a1,17
   138c4:	00040513          	mv	a0,s0
   138c8:	a65ff0ef          	jal	1332c <d_print_comp>
   138cc:	b59ff06f          	j	13424 <d_print_comp+0xf8>
   138d0:	0003a5b7          	lui	a1,0x3a
   138d4:	5c858593          	add	a1,a1,1480 # 3a5c8 <__clzsi2+0x374>
   138d8:	c78ff0ef          	jal	12d50 <d_append_string>
   138dc:	00c4a603          	lw	a2,12(s1)
   138e0:	01100593          	li	a1,17
   138e4:	00040513          	mv	a0,s0
   138e8:	a45ff0ef          	jal	1332c <d_print_comp>
   138ec:	b39ff06f          	j	13424 <d_print_comp+0xf8>
   138f0:	0003a5b7          	lui	a1,0x3a
   138f4:	5d458593          	add	a1,a1,1492 # 3a5d4 <__clzsi2+0x380>
   138f8:	c58ff0ef          	jal	12d50 <d_append_string>
   138fc:	00c4a603          	lw	a2,12(s1)
   13900:	01100593          	li	a1,17
   13904:	00040513          	mv	a0,s0
   13908:	a25ff0ef          	jal	1332c <d_print_comp>
   1390c:	b19ff06f          	j	13424 <d_print_comp+0xf8>
   13910:	0003a5b7          	lui	a1,0x3a
   13914:	5e058593          	add	a1,a1,1504 # 3a5e0 <__clzsi2+0x38c>
   13918:	c38ff0ef          	jal	12d50 <d_append_string>
   1391c:	00c4a603          	lw	a2,12(s1)
   13920:	00040513          	mv	a0,s0
   13924:	01100593          	li	a1,17
   13928:	a05ff0ef          	jal	1332c <d_print_comp>
   1392c:	0003a5b7          	lui	a1,0x3a
   13930:	00040513          	mv	a0,s0
   13934:	5fc58593          	add	a1,a1,1532 # 3a5fc <__clzsi2+0x3a8>
   13938:	c18ff0ef          	jal	12d50 <d_append_string>
   1393c:	0104a603          	lw	a2,16(s1)
   13940:	01100593          	li	a1,17
   13944:	00040513          	mv	a0,s0
   13948:	9e5ff0ef          	jal	1332c <d_print_comp>
   1394c:	ad9ff06f          	j	13424 <d_print_comp+0xf8>
   13950:	0003a5b7          	lui	a1,0x3a
   13954:	60458593          	add	a1,a1,1540 # 3a604 <__clzsi2+0x3b0>
   13958:	bf8ff0ef          	jal	12d50 <d_append_string>
   1395c:	00c4a603          	lw	a2,12(s1)
   13960:	01100593          	li	a1,17
   13964:	00040513          	mv	a0,s0
   13968:	9c5ff0ef          	jal	1332c <d_print_comp>
   1396c:	ab9ff06f          	j	13424 <d_print_comp+0xf8>
   13970:	0003a5b7          	lui	a1,0x3a
   13974:	61458593          	add	a1,a1,1556 # 3a614 <__clzsi2+0x3c0>
   13978:	bd8ff0ef          	jal	12d50 <d_append_string>
   1397c:	00c4a603          	lw	a2,12(s1)
   13980:	01100593          	li	a1,17
   13984:	00040513          	mv	a0,s0
   13988:	9a5ff0ef          	jal	1332c <d_print_comp>
   1398c:	a99ff06f          	j	13424 <d_print_comp+0xf8>
   13990:	0003a5b7          	lui	a1,0x3a
   13994:	62858593          	add	a1,a1,1576 # 3a628 <__clzsi2+0x3d4>
   13998:	bb8ff0ef          	jal	12d50 <d_append_string>
   1399c:	00c4a603          	lw	a2,12(s1)
   139a0:	01100593          	li	a1,17
   139a4:	00040513          	mv	a0,s0
   139a8:	985ff0ef          	jal	1332c <d_print_comp>
   139ac:	a79ff06f          	j	13424 <d_print_comp+0xf8>
   139b0:	0003a5b7          	lui	a1,0x3a
   139b4:	63c58593          	add	a1,a1,1596 # 3a63c <__clzsi2+0x3e8>
   139b8:	b98ff0ef          	jal	12d50 <d_append_string>
   139bc:	00c4a603          	lw	a2,12(s1)
   139c0:	01100593          	li	a1,17
   139c4:	00040513          	mv	a0,s0
   139c8:	965ff0ef          	jal	1332c <d_print_comp>
   139cc:	a59ff06f          	j	13424 <d_print_comp+0xf8>
   139d0:	0003a5b7          	lui	a1,0x3a
   139d4:	64058593          	add	a1,a1,1600 # 3a640 <__clzsi2+0x3ec>
   139d8:	b78ff0ef          	jal	12d50 <d_append_string>
   139dc:	00c4a603          	lw	a2,12(s1)
   139e0:	01100593          	li	a1,17
   139e4:	00040513          	mv	a0,s0
   139e8:	945ff0ef          	jal	1332c <d_print_comp>
   139ec:	a39ff06f          	j	13424 <d_print_comp+0xf8>
   139f0:	0003a5b7          	lui	a1,0x3a
   139f4:	65458593          	add	a1,a1,1620 # 3a654 <__clzsi2+0x400>
   139f8:	b58ff0ef          	jal	12d50 <d_append_string>
   139fc:	00c4a603          	lw	a2,12(s1)
   13a00:	01100593          	li	a1,17
   13a04:	00040513          	mv	a0,s0
   13a08:	925ff0ef          	jal	1332c <d_print_comp>
   13a0c:	a19ff06f          	j	13424 <d_print_comp+0xf8>
   13a10:	0003a5b7          	lui	a1,0x3a
   13a14:	67058593          	add	a1,a1,1648 # 3a670 <__clzsi2+0x41c>
   13a18:	b38ff0ef          	jal	12d50 <d_append_string>
   13a1c:	00c4a603          	lw	a2,12(s1)
   13a20:	01100593          	li	a1,17
   13a24:	00040513          	mv	a0,s0
   13a28:	905ff0ef          	jal	1332c <d_print_comp>
   13a2c:	9f9ff06f          	j	13424 <d_print_comp+0xf8>
   13a30:	0003a5b7          	lui	a1,0x3a
   13a34:	68058593          	add	a1,a1,1664 # 3a680 <__clzsi2+0x42c>
   13a38:	b18ff0ef          	jal	12d50 <d_append_string>
   13a3c:	00c4a603          	lw	a2,12(s1)
   13a40:	01100593          	li	a1,17
   13a44:	00040513          	mv	a0,s0
   13a48:	8e5ff0ef          	jal	1332c <d_print_comp>
   13a4c:	9d9ff06f          	j	13424 <d_print_comp+0xf8>
   13a50:	0003a5b7          	lui	a1,0x3a
   13a54:	69458593          	add	a1,a1,1684 # 3a694 <__clzsi2+0x440>
   13a58:	af8ff0ef          	jal	12d50 <d_append_string>
   13a5c:	00c4a603          	lw	a2,12(s1)
   13a60:	01100593          	li	a1,17
   13a64:	00040513          	mv	a0,s0
   13a68:	8c5ff0ef          	jal	1332c <d_print_comp>
   13a6c:	9b9ff06f          	j	13424 <d_print_comp+0xf8>
   13a70:	0003a5b7          	lui	a1,0x3a
   13a74:	6ac58593          	add	a1,a1,1708 # 3a6ac <__clzsi2+0x458>
   13a78:	ad8ff0ef          	jal	12d50 <d_append_string>
   13a7c:	00c4a603          	lw	a2,12(s1)
   13a80:	01100593          	li	a1,17
   13a84:	00040513          	mv	a0,s0
   13a88:	8a5ff0ef          	jal	1332c <d_print_comp>
   13a8c:	999ff06f          	j	13424 <d_print_comp+0xf8>
   13a90:	0003a5b7          	lui	a1,0x3a
   13a94:	6c858593          	add	a1,a1,1736 # 3a6c8 <__clzsi2+0x474>
   13a98:	ab8ff0ef          	jal	12d50 <d_append_string>
   13a9c:	0104a603          	lw	a2,16(s1)
   13aa0:	00040513          	mv	a0,s0
   13aa4:	01100593          	li	a1,17
   13aa8:	885ff0ef          	jal	1332c <d_print_comp>
   13aac:	0003a5b7          	lui	a1,0x3a
   13ab0:	00040513          	mv	a0,s0
   13ab4:	6c058593          	add	a1,a1,1728 # 3a6c0 <__clzsi2+0x46c>
   13ab8:	a98ff0ef          	jal	12d50 <d_append_string>
   13abc:	00c4a603          	lw	a2,12(s1)
   13ac0:	01100593          	li	a1,17
   13ac4:	00040513          	mv	a0,s0
   13ac8:	865ff0ef          	jal	1332c <d_print_comp>
   13acc:	959ff06f          	j	13424 <d_print_comp+0xf8>
   13ad0:	0003a5b7          	lui	a1,0x3a
   13ad4:	6e058593          	add	a1,a1,1760 # 3a6e0 <__clzsi2+0x48c>
   13ad8:	a78ff0ef          	jal	12d50 <d_append_string>
   13adc:	00c4a603          	lw	a2,12(s1)
   13ae0:	01100593          	li	a1,17
   13ae4:	00040513          	mv	a0,s0
   13ae8:	845ff0ef          	jal	1332c <d_print_comp>
   13aec:	939ff06f          	j	13424 <d_print_comp+0xf8>
   13af0:	0003a5b7          	lui	a1,0x3a
   13af4:	6f858593          	add	a1,a1,1784 # 3a6f8 <__clzsi2+0x4a4>
   13af8:	a58ff0ef          	jal	12d50 <d_append_string>
   13afc:	00c4a603          	lw	a2,12(s1)
   13b00:	01100593          	li	a1,17
   13b04:	00040513          	mv	a0,s0
   13b08:	825ff0ef          	jal	1332c <d_print_comp>
   13b0c:	919ff06f          	j	13424 <d_print_comp+0xf8>
   13b10:	0003a5b7          	lui	a1,0x3a
   13b14:	6f458593          	add	a1,a1,1780 # 3a6f4 <__clzsi2+0x4a0>
   13b18:	a38ff0ef          	jal	12d50 <d_append_string>
   13b1c:	00c4a603          	lw	a2,12(s1)
   13b20:	01100593          	li	a1,17
   13b24:	00040513          	mv	a0,s0
   13b28:	805ff0ef          	jal	1332c <d_print_comp>
   13b2c:	8f9ff06f          	j	13424 <d_print_comp+0xf8>
   13b30:	0104a603          	lw	a2,16(s1)
   13b34:	00c4a583          	lw	a1,12(s1)
   13b38:	998ff0ef          	jal	12cd0 <d_append_buffer>
   13b3c:	8e9ff06f          	j	13424 <d_print_comp+0xf8>
   13b40:	11452603          	lw	a2,276(a0)
   13b44:	00200713          	li	a4,2
   13b48:	06061463          	bnez	a2,13bb0 <d_print_comp+0x884>
   13b4c:	00048913          	mv	s2,s1
   13b50:	11442783          	lw	a5,276(s0)
   13b54:	03212223          	sw	s2,36(sp)
   13b58:	02012423          	sw	zero,40(sp)
   13b5c:	02f12023          	sw	a5,32(sp)
   13b60:	02010793          	add	a5,sp,32
   13b64:	10f42a23          	sw	a5,276(s0)
   13b68:	11042783          	lw	a5,272(s0)
   13b6c:	02f12623          	sw	a5,44(sp)
   13b70:	00061463          	bnez	a2,13b78 <d_print_comp+0x84c>
   13b74:	00c92603          	lw	a2,12(s2)
   13b78:	01100593          	li	a1,17
   13b7c:	00040513          	mv	a0,s0
   13b80:	facff0ef          	jal	1332c <d_print_comp>
   13b84:	02812783          	lw	a5,40(sp)
   13b88:	00079a63          	bnez	a5,13b9c <d_print_comp+0x870>
   13b8c:	00090613          	mv	a2,s2
   13b90:	01100593          	li	a1,17
   13b94:	00040513          	mv	a0,s0
   13b98:	0e4010ef          	jal	14c7c <d_print_mod>
   13b9c:	02012783          	lw	a5,32(sp)
   13ba0:	10f42a23          	sw	a5,276(s0)
   13ba4:	880980e3          	beqz	s3,13424 <d_print_comp+0xf8>
   13ba8:	11542823          	sw	s5,272(s0)
   13bac:	879ff06f          	j	13424 <d_print_comp+0xf8>
   13bb0:	00862783          	lw	a5,8(a2)
   13bb4:	02079663          	bnez	a5,13be0 <d_print_comp+0x8b4>
   13bb8:	00462783          	lw	a5,4(a2)
   13bbc:	0007a783          	lw	a5,0(a5)
   13bc0:	fe778693          	add	a3,a5,-25
   13bc4:	16d76863          	bltu	a4,a3,13d34 <d_print_comp+0xa08>
   13bc8:	00fa1c63          	bne	s4,a5,13be0 <d_print_comp+0x8b4>
   13bcc:	00c4a603          	lw	a2,12(s1)
   13bd0:	01100593          	li	a1,17
   13bd4:	00040513          	mv	a0,s0
   13bd8:	f54ff0ef          	jal	1332c <d_print_comp>
   13bdc:	849ff06f          	j	13424 <d_print_comp+0xf8>
   13be0:	00062603          	lw	a2,0(a2)
   13be4:	f65ff06f          	j	13b48 <d_print_comp+0x81c>
   13be8:	12052783          	lw	a5,288(a0)
   13bec:	00c4a903          	lw	s2,12(s1)
   13bf0:	12079063          	bnez	a5,13d10 <d_print_comp+0x9e4>
   13bf4:	00092703          	lw	a4,0(s2)
   13bf8:	00500793          	li	a5,5
   13bfc:	00000993          	li	s3,0
   13c00:	10f71863          	bne	a4,a5,13d10 <d_print_comp+0x9e4>
   13c04:	13452703          	lw	a4,308(a0)
   13c08:	00000793          	li	a5,0
   13c0c:	00e7cc63          	blt	a5,a4,13c24 <d_print_comp+0x8f8>
   13c10:	13842783          	lw	a5,312(s0)
   13c14:	02f74663          	blt	a4,a5,13c40 <d_print_comp+0x914>
   13c18:	00100793          	li	a5,1
   13c1c:	10f42c23          	sw	a5,280(s0)
   13c20:	805ff06f          	j	13424 <d_print_comp+0xf8>
   13c24:	13042683          	lw	a3,304(s0)
   13c28:	00379593          	sll	a1,a5,0x3
   13c2c:	00b686b3          	add	a3,a3,a1
   13c30:	0006a583          	lw	a1,0(a3)
   13c34:	0ab90663          	beq	s2,a1,13ce0 <d_print_comp+0x9b4>
   13c38:	00178793          	add	a5,a5,1
   13c3c:	fd1ff06f          	j	13c0c <d_print_comp+0x8e0>
   13c40:	13042783          	lw	a5,304(s0)
   13c44:	00371693          	sll	a3,a4,0x3
   13c48:	11042603          	lw	a2,272(s0)
   13c4c:	00170713          	add	a4,a4,1
   13c50:	00d787b3          	add	a5,a5,a3
   13c54:	12e42a23          	sw	a4,308(s0)
   13c58:	0127a023          	sw	s2,0(a5)
   13c5c:	00478793          	add	a5,a5,4
   13c60:	04061463          	bnez	a2,13ca8 <d_print_comp+0x97c>
   13c64:	0007a023          	sw	zero,0(a5)
   13c68:	00000993          	li	s3,0
   13c6c:	00090593          	mv	a1,s2
   13c70:	00040513          	mv	a0,s0
   13c74:	c2cff0ef          	jal	130a0 <d_lookup_template_argument>
   13c78:	00050913          	mv	s2,a0
   13c7c:	02050063          	beqz	a0,13c9c <d_print_comp+0x970>
   13c80:	00052703          	lw	a4,0(a0)
   13c84:	02f00793          	li	a5,47
   13c88:	08f71463          	bne	a4,a5,13d10 <d_print_comp+0x9e4>
   13c8c:	12442583          	lw	a1,292(s0)
   13c90:	bd8ff0ef          	jal	13068 <d_index_template_argument>
   13c94:	00050913          	mv	s2,a0
   13c98:	06051c63          	bnez	a0,13d10 <d_print_comp+0x9e4>
   13c9c:	b20986e3          	beqz	s3,137c8 <d_print_comp+0x49c>
   13ca0:	11542823          	sw	s5,272(s0)
   13ca4:	b25ff06f          	j	137c8 <d_print_comp+0x49c>
   13ca8:	14042683          	lw	a3,320(s0)
   13cac:	14442703          	lw	a4,324(s0)
   13cb0:	f6e6d4e3          	bge	a3,a4,13c18 <d_print_comp+0x8ec>
   13cb4:	13c42703          	lw	a4,316(s0)
   13cb8:	00369593          	sll	a1,a3,0x3
   13cbc:	00168693          	add	a3,a3,1
   13cc0:	14d42023          	sw	a3,320(s0)
   13cc4:	00462683          	lw	a3,4(a2)
   13cc8:	00b70733          	add	a4,a4,a1
   13ccc:	00d72223          	sw	a3,4(a4)
   13cd0:	00e7a023          	sw	a4,0(a5)
   13cd4:	00062603          	lw	a2,0(a2)
   13cd8:	00070793          	mv	a5,a4
   13cdc:	f85ff06f          	j	13c60 <d_print_comp+0x934>
   13ce0:	00060793          	mv	a5,a2
   13ce4:	0007a703          	lw	a4,0(a5)
   13ce8:	f8e900e3          	beq	s2,a4,13c68 <d_print_comp+0x93c>
   13cec:	00e49463          	bne	s1,a4,13cf4 <d_print_comp+0x9c8>
   13cf0:	f6c79ce3          	bne	a5,a2,13c68 <d_print_comp+0x93c>
   13cf4:	0047a783          	lw	a5,4(a5)
   13cf8:	fe0796e3          	bnez	a5,13ce4 <d_print_comp+0x9b8>
   13cfc:	0046a783          	lw	a5,4(a3)
   13d00:	11042a83          	lw	s5,272(s0)
   13d04:	00100993          	li	s3,1
   13d08:	10f42823          	sw	a5,272(s0)
   13d0c:	f61ff06f          	j	13c6c <d_print_comp+0x940>
   13d10:	00092783          	lw	a5,0(s2)
   13d14:	02300713          	li	a4,35
   13d18:	00000613          	li	a2,0
   13d1c:	e2e78ae3          	beq	a5,a4,13b50 <d_print_comp+0x824>
   13d20:	e2fa08e3          	beq	s4,a5,13b50 <d_print_comp+0x824>
   13d24:	02400713          	li	a4,36
   13d28:	00e79863          	bne	a5,a4,13d38 <d_print_comp+0xa0c>
   13d2c:	00c92603          	lw	a2,12(s2)
   13d30:	e1dff06f          	j	13b4c <d_print_comp+0x820>
   13d34:	00000993          	li	s3,0
   13d38:	00048913          	mv	s2,s1
   13d3c:	00000613          	li	a2,0
   13d40:	e11ff06f          	j	13b50 <d_print_comp+0x824>
   13d44:	00c4a783          	lw	a5,12(s1)
   13d48:	0047a603          	lw	a2,4(a5)
   13d4c:	0007a583          	lw	a1,0(a5)
   13d50:	f81fe0ef          	jal	12cd0 <d_append_buffer>
   13d54:	ed0ff06f          	j	13424 <d_print_comp+0xf8>
   13d58:	00c4a783          	lw	a5,12(s1)
   13d5c:	0007a583          	lw	a1,0(a5)
   13d60:	0047a603          	lw	a2,4(a5)
   13d64:	f6dfe0ef          	jal	12cd0 <d_append_buffer>
   13d68:	01049583          	lh	a1,16(s1)
   13d6c:	00040513          	mv	a0,s0
   13d70:	818ff0ef          	jal	12d88 <d_append_num>
   13d74:	0124c783          	lbu	a5,18(s1)
   13d78:	ea078663          	beqz	a5,13424 <d_print_comp+0xf8>
   13d7c:	00100613          	li	a2,1
   13d80:	01248593          	add	a1,s1,18
   13d84:	00040513          	mv	a0,s0
   13d88:	f49fe0ef          	jal	12cd0 <d_append_buffer>
   13d8c:	e98ff06f          	j	13424 <d_print_comp+0xf8>
   13d90:	00c4a603          	lw	a2,12(s1)
   13d94:	01100593          	li	a1,17
   13d98:	d94ff0ef          	jal	1332c <d_print_comp>
   13d9c:	e88ff06f          	j	13424 <d_print_comp+0xf8>
   13da0:	00c4a603          	lw	a2,12(s1)
   13da4:	11452783          	lw	a5,276(a0)
   13da8:	04060263          	beqz	a2,13dec <d_print_comp+0xac0>
   13dac:	02f12023          	sw	a5,32(sp)
   13db0:	02010793          	add	a5,sp,32
   13db4:	10f52a23          	sw	a5,276(a0)
   13db8:	11052783          	lw	a5,272(a0)
   13dbc:	01100593          	li	a1,17
   13dc0:	02912223          	sw	s1,36(sp)
   13dc4:	02f12623          	sw	a5,44(sp)
   13dc8:	02012423          	sw	zero,40(sp)
   13dcc:	d60ff0ef          	jal	1332c <d_print_comp>
   13dd0:	02012783          	lw	a5,32(sp)
   13dd4:	10f42a23          	sw	a5,276(s0)
   13dd8:	02812783          	lw	a5,40(sp)
   13ddc:	e4079463          	bnez	a5,13424 <d_print_comp+0xf8>
   13de0:	02000593          	li	a1,32
   13de4:	00040513          	mv	a0,s0
   13de8:	e95fe0ef          	jal	12c7c <d_append_char>
   13dec:	11442683          	lw	a3,276(s0)
   13df0:	00048613          	mv	a2,s1
   13df4:	01100593          	li	a1,17
   13df8:	00040513          	mv	a0,s0
   13dfc:	040010ef          	jal	14e3c <d_print_function_type>
   13e00:	e24ff06f          	j	13424 <d_print_comp+0xf8>
   13e04:	11452b03          	lw	s6,276(a0)
   13e08:	11052783          	lw	a5,272(a0)
   13e0c:	02010a93          	add	s5,sp,32
   13e10:	03612023          	sw	s6,32(sp)
   13e14:	11552a23          	sw	s5,276(a0)
   13e18:	02912223          	sw	s1,36(sp)
   13e1c:	02012423          	sw	zero,40(sp)
   13e20:	02f12623          	sw	a5,44(sp)
   13e24:	000b0993          	mv	s3,s6
   13e28:	00100913          	li	s2,1
   13e2c:	00200c13          	li	s8,2
   13e30:	00300c93          	li	s9,3
   13e34:	00100d13          	li	s10,1
   13e38:	00098a63          	beqz	s3,13e4c <d_print_comp+0xb20>
   13e3c:	0049a783          	lw	a5,4(s3)
   13e40:	0007a783          	lw	a5,0(a5)
   13e44:	fe778793          	add	a5,a5,-25
   13e48:	04fc7063          	bgeu	s8,a5,13e88 <d_print_comp+0xb5c>
   13e4c:	0104a603          	lw	a2,16(s1)
   13e50:	01100593          	li	a1,17
   13e54:	00040513          	mv	a0,s0
   13e58:	cd4ff0ef          	jal	1332c <d_print_comp>
   13e5c:	02812783          	lw	a5,40(sp)
   13e60:	11642a23          	sw	s6,276(s0)
   13e64:	00100993          	li	s3,1
   13e68:	da079e63          	bnez	a5,13424 <d_print_comp+0xf8>
   13e6c:	0729ea63          	bltu	s3,s2,13ee0 <d_print_comp+0xbb4>
   13e70:	11442683          	lw	a3,276(s0)
   13e74:	00048613          	mv	a2,s1
   13e78:	01100593          	li	a1,17
   13e7c:	00040513          	mv	a0,s0
   13e80:	2a4010ef          	jal	15124 <d_print_array_type>
   13e84:	da0ff06f          	j	13424 <d_print_comp+0xf8>
   13e88:	0089a783          	lw	a5,8(s3)
   13e8c:	04079663          	bnez	a5,13ed8 <d_print_comp+0xbac>
   13e90:	012cf863          	bgeu	s9,s2,13ea0 <d_print_comp+0xb74>
   13e94:	00100793          	li	a5,1
   13e98:	10f42c23          	sw	a5,280(s0)
   13e9c:	d88ff06f          	j	13424 <d_print_comp+0xf8>
   13ea0:	00491a13          	sll	s4,s2,0x4
   13ea4:	050a0793          	add	a5,s4,80
   13ea8:	01010713          	add	a4,sp,16
   13eac:	00e78bb3          	add	s7,a5,a4
   13eb0:	01000613          	li	a2,16
   13eb4:	00098593          	mv	a1,s3
   13eb8:	fc0b8513          	add	a0,s7,-64
   13ebc:	490130ef          	jal	2734c <memcpy>
   13ec0:	11442783          	lw	a5,276(s0)
   13ec4:	014a8a33          	add	s4,s5,s4
   13ec8:	11442a23          	sw	s4,276(s0)
   13ecc:	fcfba023          	sw	a5,-64(s7)
   13ed0:	01a9a423          	sw	s10,8(s3)
   13ed4:	00190913          	add	s2,s2,1
   13ed8:	0009a983          	lw	s3,0(s3)
   13edc:	f5dff06f          	j	13e38 <d_print_comp+0xb0c>
   13ee0:	fff90913          	add	s2,s2,-1
   13ee4:	00491793          	sll	a5,s2,0x4
   13ee8:	00fa87b3          	add	a5,s5,a5
   13eec:	0047a603          	lw	a2,4(a5)
   13ef0:	01100593          	li	a1,17
   13ef4:	00040513          	mv	a0,s0
   13ef8:	585000ef          	jal	14c7c <d_print_mod>
   13efc:	f71ff06f          	j	13e6c <d_print_comp+0xb40>
   13f00:	11452783          	lw	a5,276(a0)
   13f04:	0104a603          	lw	a2,16(s1)
   13f08:	01100593          	li	a1,17
   13f0c:	02f12023          	sw	a5,32(sp)
   13f10:	02010793          	add	a5,sp,32
   13f14:	10f52a23          	sw	a5,276(a0)
   13f18:	11052783          	lw	a5,272(a0)
   13f1c:	02912223          	sw	s1,36(sp)
   13f20:	02012423          	sw	zero,40(sp)
   13f24:	02f12623          	sw	a5,44(sp)
   13f28:	c04ff0ef          	jal	1332c <d_print_comp>
   13f2c:	02812783          	lw	a5,40(sp)
   13f30:	00079a63          	bnez	a5,13f44 <d_print_comp+0xc18>
   13f34:	00048613          	mv	a2,s1
   13f38:	01100593          	li	a1,17
   13f3c:	00040513          	mv	a0,s0
   13f40:	53d000ef          	jal	14c7c <d_print_mod>
   13f44:	02012783          	lw	a5,32(sp)
   13f48:	10f42a23          	sw	a5,276(s0)
   13f4c:	cd8ff06f          	j	13424 <d_print_comp+0xf8>
   13f50:	00c4a603          	lw	a2,12(s1)
   13f54:	00060663          	beqz	a2,13f60 <d_print_comp+0xc34>
   13f58:	01100593          	li	a1,17
   13f5c:	bd0ff0ef          	jal	1332c <d_print_comp>
   13f60:	0104a783          	lw	a5,16(s1)
   13f64:	cc078063          	beqz	a5,13424 <d_print_comp+0xf8>
   13f68:	10042703          	lw	a4,256(s0)
   13f6c:	0fd00793          	li	a5,253
   13f70:	00e7f663          	bgeu	a5,a4,13f7c <d_print_comp+0xc50>
   13f74:	00040513          	mv	a0,s0
   13f78:	cbdfe0ef          	jal	12c34 <d_print_flush>
   13f7c:	0003a5b7          	lui	a1,0x3a
   13f80:	56c58593          	add	a1,a1,1388 # 3a56c <__clzsi2+0x318>
   13f84:	00040513          	mv	a0,s0
   13f88:	dc9fe0ef          	jal	12d50 <d_append_string>
   13f8c:	0104a603          	lw	a2,16(s1)
   13f90:	01100593          	li	a1,17
   13f94:	00040513          	mv	a0,s0
   13f98:	10042903          	lw	s2,256(s0)
   13f9c:	12842983          	lw	s3,296(s0)
   13fa0:	b8cff0ef          	jal	1332c <d_print_comp>
   13fa4:	12842783          	lw	a5,296(s0)
   13fa8:	c6f99e63          	bne	s3,a5,13424 <d_print_comp+0xf8>
   13fac:	10042783          	lw	a5,256(s0)
   13fb0:	c6f91a63          	bne	s2,a5,13424 <d_print_comp+0xf8>
   13fb4:	ffe90913          	add	s2,s2,-2
   13fb8:	11242023          	sw	s2,256(s0)
   13fbc:	c68ff06f          	j	13424 <d_print_comp+0xf8>
   13fc0:	00c4a603          	lw	a2,12(s1)
   13fc4:	0104a903          	lw	s2,16(s1)
   13fc8:	00060663          	beqz	a2,13fd4 <d_print_comp+0xca8>
   13fcc:	01100593          	li	a1,17
   13fd0:	b5cff0ef          	jal	1332c <d_print_comp>
   13fd4:	00040513          	mv	a0,s0
   13fd8:	07b00593          	li	a1,123
   13fdc:	ca1fe0ef          	jal	12c7c <d_append_char>
   13fe0:	00040513          	mv	a0,s0
   13fe4:	00090613          	mv	a2,s2
   13fe8:	01100593          	li	a1,17
   13fec:	b40ff0ef          	jal	1332c <d_print_comp>
   13ff0:	07d00593          	li	a1,125
   13ff4:	00040513          	mv	a0,s0
   13ff8:	c85fe0ef          	jal	12c7c <d_append_char>
   13ffc:	c28ff06f          	j	13424 <d_print_comp+0xf8>
   14000:	00c4a983          	lw	s3,12(s1)
   14004:	0003a5b7          	lui	a1,0x3a
   14008:	71058593          	add	a1,a1,1808 # 3a710 <__clzsi2+0x4bc>
   1400c:	0089a903          	lw	s2,8(s3)
   14010:	d41fe0ef          	jal	12d50 <d_append_string>
   14014:	0049a783          	lw	a5,4(s3)
   14018:	01900713          	li	a4,25
   1401c:	0007c783          	lbu	a5,0(a5)
   14020:	f9f78793          	add	a5,a5,-97
   14024:	0ff7f793          	zext.b	a5,a5
   14028:	00f76863          	bltu	a4,a5,14038 <d_print_comp+0xd0c>
   1402c:	02000593          	li	a1,32
   14030:	00040513          	mv	a0,s0
   14034:	c49fe0ef          	jal	12c7c <d_append_char>
   14038:	0049a583          	lw	a1,4(s3)
   1403c:	012587b3          	add	a5,a1,s2
   14040:	fff7c703          	lbu	a4,-1(a5)
   14044:	02000793          	li	a5,32
   14048:	00f71463          	bne	a4,a5,14050 <d_print_comp+0xd24>
   1404c:	fff90913          	add	s2,s2,-1
   14050:	00090613          	mv	a2,s2
   14054:	00040513          	mv	a0,s0
   14058:	c79fe0ef          	jal	12cd0 <d_append_buffer>
   1405c:	bc8ff06f          	j	13424 <d_print_comp+0xf8>
   14060:	0003a5b7          	lui	a1,0x3a
   14064:	71c58593          	add	a1,a1,1820 # 3a71c <__clzsi2+0x4c8>
   14068:	ce9fe0ef          	jal	12d50 <d_append_string>
   1406c:	0104a603          	lw	a2,16(s1)
   14070:	01100593          	li	a1,17
   14074:	00040513          	mv	a0,s0
   14078:	ab4ff0ef          	jal	1332c <d_print_comp>
   1407c:	ba8ff06f          	j	13424 <d_print_comp+0xf8>
   14080:	0003a5b7          	lui	a1,0x3a
   14084:	71c58593          	add	a1,a1,1820 # 3a71c <__clzsi2+0x4c8>
   14088:	cc9fe0ef          	jal	12d50 <d_append_string>
   1408c:	14842783          	lw	a5,328(s0)
   14090:	00078c63          	beqz	a5,140a8 <d_print_comp+0xd7c>
   14094:	11042703          	lw	a4,272(s0)
   14098:	02f12223          	sw	a5,36(sp)
   1409c:	02e12023          	sw	a4,32(sp)
   140a0:	02010713          	add	a4,sp,32
   140a4:	10e42823          	sw	a4,272(s0)
   140a8:	00c4a603          	lw	a2,12(s1)
   140ac:	00400793          	li	a5,4
   140b0:	00062703          	lw	a4,0(a2)
   140b4:	02f70263          	beq	a4,a5,140d8 <d_print_comp+0xdac>
   140b8:	01100593          	li	a1,17
   140bc:	00040513          	mv	a0,s0
   140c0:	a6cff0ef          	jal	1332c <d_print_comp>
   140c4:	14842783          	lw	a5,328(s0)
   140c8:	b4078e63          	beqz	a5,13424 <d_print_comp+0xf8>
   140cc:	02012783          	lw	a5,32(sp)
   140d0:	10f42823          	sw	a5,272(s0)
   140d4:	b50ff06f          	j	13424 <d_print_comp+0xf8>
   140d8:	00c62603          	lw	a2,12(a2)
   140dc:	01100593          	li	a1,17
   140e0:	00040513          	mv	a0,s0
   140e4:	a48ff0ef          	jal	1332c <d_print_comp>
   140e8:	14842783          	lw	a5,328(s0)
   140ec:	00078663          	beqz	a5,140f8 <d_print_comp+0xdcc>
   140f0:	02012783          	lw	a5,32(sp)
   140f4:	10f42823          	sw	a5,272(s0)
   140f8:	10444703          	lbu	a4,260(s0)
   140fc:	03c00793          	li	a5,60
   14100:	00f71863          	bne	a4,a5,14110 <d_print_comp+0xde4>
   14104:	02000593          	li	a1,32
   14108:	00040513          	mv	a0,s0
   1410c:	b71fe0ef          	jal	12c7c <d_append_char>
   14110:	03c00593          	li	a1,60
   14114:	00040513          	mv	a0,s0
   14118:	b65fe0ef          	jal	12c7c <d_append_char>
   1411c:	00c4a783          	lw	a5,12(s1)
   14120:	01100593          	li	a1,17
   14124:	00040513          	mv	a0,s0
   14128:	0107a603          	lw	a2,16(a5)
   1412c:	a00ff0ef          	jal	1332c <d_print_comp>
   14130:	10444703          	lbu	a4,260(s0)
   14134:	03e00793          	li	a5,62
   14138:	00f71863          	bne	a4,a5,14148 <d_print_comp+0xe1c>
   1413c:	02000593          	li	a1,32
   14140:	00040513          	mv	a0,s0
   14144:	b39fe0ef          	jal	12c7c <d_append_char>
   14148:	03e00593          	li	a1,62
   1414c:	00040513          	mv	a0,s0
   14150:	b2dfe0ef          	jal	12c7c <d_append_char>
   14154:	ad0ff06f          	j	13424 <d_print_comp+0xf8>
   14158:	00c4a603          	lw	a2,12(s1)
   1415c:	01100593          	li	a1,17
   14160:	0b8010ef          	jal	15218 <d_print_expr_op>
   14164:	ac0ff06f          	j	13424 <d_print_comp+0xf8>
   14168:	00c4aa83          	lw	s5,12(s1)
   1416c:	03200713          	li	a4,50
   14170:	0104a903          	lw	s2,16(s1)
   14174:	000aa783          	lw	a5,0(s5)
   14178:	12e79063          	bne	a5,a4,14298 <d_print_comp+0xf6c>
   1417c:	00caa783          	lw	a5,12(s5)
   14180:	0003a5b7          	lui	a1,0x3a
   14184:	72858593          	add	a1,a1,1832 # 3a728 <__clzsi2+0x4d4>
   14188:	0007aa03          	lw	s4,0(a5)
   1418c:	000a0513          	mv	a0,s4
   14190:	49c130ef          	jal	2762c <strcmp>
   14194:	00092783          	lw	a5,0(s2)
   14198:	06051263          	bnez	a0,141fc <d_print_comp+0xed0>
   1419c:	00300713          	li	a4,3
   141a0:	04e79e63          	bne	a5,a4,141fc <d_print_comp+0xed0>
   141a4:	00c92783          	lw	a5,12(s2)
   141a8:	00100713          	li	a4,1
   141ac:	0007a683          	lw	a3,0(a5)
   141b0:	00e69c63          	bne	a3,a4,141c8 <d_print_comp+0xe9c>
   141b4:	01092703          	lw	a4,16(s2)
   141b8:	00072683          	lw	a3,0(a4)
   141bc:	02900713          	li	a4,41
   141c0:	00e69463          	bne	a3,a4,141c8 <d_print_comp+0xe9c>
   141c4:	00078913          	mv	s2,a5
   141c8:	0003a5b7          	lui	a1,0x3a
   141cc:	72c58593          	add	a1,a1,1836 # 3a72c <__clzsi2+0x4d8>
   141d0:	000a0513          	mv	a0,s4
   141d4:	458130ef          	jal	2762c <strcmp>
   141d8:	04051863          	bnez	a0,14228 <d_print_comp+0xefc>
   141dc:	00090593          	mv	a1,s2
   141e0:	00040513          	mv	a0,s0
   141e4:	ee5fe0ef          	jal	130c8 <d_find_pack>
   141e8:	b39fe0ef          	jal	12d20 <d_pack_length>
   141ec:	00050593          	mv	a1,a0
   141f0:	00040513          	mv	a0,s0
   141f4:	b95fe0ef          	jal	12d88 <d_append_num>
   141f8:	a2cff06f          	j	13424 <d_print_comp+0xf8>
   141fc:	03900713          	li	a4,57
   14200:	fce794e3          	bne	a5,a4,141c8 <d_print_comp+0xe9c>
   14204:	00c92603          	lw	a2,12(s2)
   14208:	00040513          	mv	a0,s0
   1420c:	01100593          	li	a1,17
   14210:	02c010ef          	jal	1523c <d_print_subexpr>
   14214:	000a8613          	mv	a2,s5
   14218:	01100593          	li	a1,17
   1421c:	00040513          	mv	a0,s0
   14220:	7f9000ef          	jal	15218 <d_print_expr_op>
   14224:	a00ff06f          	j	13424 <d_print_comp+0xf8>
   14228:	0003a5b7          	lui	a1,0x3a
   1422c:	73058593          	add	a1,a1,1840 # 3a730 <__clzsi2+0x4dc>
   14230:	000a0513          	mv	a0,s4
   14234:	3f8130ef          	jal	2762c <strcmp>
   14238:	00050993          	mv	s3,a0
   1423c:	06051463          	bnez	a0,142a4 <d_print_comp+0xf78>
   14240:	02f00a13          	li	s4,47
   14244:	04c00a93          	li	s5,76
   14248:	00090663          	beqz	s2,14254 <d_print_comp+0xf28>
   1424c:	00092783          	lw	a5,0(s2)
   14250:	01478a63          	beq	a5,s4,14264 <d_print_comp+0xf38>
   14254:	00098593          	mv	a1,s3
   14258:	00040513          	mv	a0,s0
   1425c:	b2dfe0ef          	jal	12d88 <d_append_num>
   14260:	9c4ff06f          	j	13424 <d_print_comp+0xf8>
   14264:	00c92783          	lw	a5,12(s2)
   14268:	fe0786e3          	beqz	a5,14254 <d_print_comp+0xf28>
   1426c:	0007a703          	lw	a4,0(a5)
   14270:	03571063          	bne	a4,s5,14290 <d_print_comp+0xf64>
   14274:	00c7a583          	lw	a1,12(a5)
   14278:	00040513          	mv	a0,s0
   1427c:	e4dfe0ef          	jal	130c8 <d_find_pack>
   14280:	aa1fe0ef          	jal	12d20 <d_pack_length>
   14284:	00a989b3          	add	s3,s3,a0
   14288:	01092903          	lw	s2,16(s2)
   1428c:	fbdff06f          	j	14248 <d_print_comp+0xf1c>
   14290:	00198993          	add	s3,s3,1
   14294:	ff5ff06f          	j	14288 <d_print_comp+0xf5c>
   14298:	03400713          	li	a4,52
   1429c:	02e78863          	beq	a5,a4,142cc <d_print_comp+0xfa0>
   142a0:	00000a13          	li	s4,0
   142a4:	000a8613          	mv	a2,s5
   142a8:	01100593          	li	a1,17
   142ac:	00040513          	mv	a0,s0
   142b0:	769000ef          	jal	15218 <d_print_expr_op>
   142b4:	040a1063          	bnez	s4,142f4 <d_print_comp+0xfc8>
   142b8:	00090613          	mv	a2,s2
   142bc:	01100593          	li	a1,17
   142c0:	00040513          	mv	a0,s0
   142c4:	779000ef          	jal	1523c <d_print_subexpr>
   142c8:	95cff06f          	j	13424 <d_print_comp+0xf8>
   142cc:	02800593          	li	a1,40
   142d0:	9adfe0ef          	jal	12c7c <d_append_char>
   142d4:	00caa603          	lw	a2,12(s5)
   142d8:	00040513          	mv	a0,s0
   142dc:	01100593          	li	a1,17
   142e0:	84cff0ef          	jal	1332c <d_print_comp>
   142e4:	02900593          	li	a1,41
   142e8:	00040513          	mv	a0,s0
   142ec:	991fe0ef          	jal	12c7c <d_append_char>
   142f0:	fc9ff06f          	j	142b8 <d_print_comp+0xf8c>
   142f4:	0003a5b7          	lui	a1,0x3a
   142f8:	73458593          	add	a1,a1,1844 # 3a734 <__clzsi2+0x4e0>
   142fc:	000a0513          	mv	a0,s4
   14300:	32c130ef          	jal	2762c <strcmp>
   14304:	00051c63          	bnez	a0,1431c <d_print_comp+0xff0>
   14308:	00090613          	mv	a2,s2
   1430c:	01100593          	li	a1,17
   14310:	00040513          	mv	a0,s0
   14314:	818ff0ef          	jal	1332c <d_print_comp>
   14318:	90cff06f          	j	13424 <d_print_comp+0xf8>
   1431c:	0003b5b7          	lui	a1,0x3b
   14320:	aec58593          	add	a1,a1,-1300 # 3aaec <__clzsi2+0x898>
   14324:	000a0513          	mv	a0,s4
   14328:	304130ef          	jal	2762c <strcmp>
   1432c:	f80516e3          	bnez	a0,142b8 <d_print_comp+0xf8c>
   14330:	00040513          	mv	a0,s0
   14334:	02800593          	li	a1,40
   14338:	945fe0ef          	jal	12c7c <d_append_char>
   1433c:	00040513          	mv	a0,s0
   14340:	00090613          	mv	a2,s2
   14344:	01100593          	li	a1,17
   14348:	fe5fe0ef          	jal	1332c <d_print_comp>
   1434c:	02900593          	li	a1,41
   14350:	00040513          	mv	a0,s0
   14354:	929fe0ef          	jal	12c7c <d_append_char>
   14358:	8ccff06f          	j	13424 <d_print_comp+0xf8>
   1435c:	0104a783          	lw	a5,16(s1)
   14360:	0007a703          	lw	a4,0(a5)
   14364:	03900793          	li	a5,57
   14368:	c6f71063          	bne	a4,a5,137c8 <d_print_comp+0x49c>
   1436c:	00c4a603          	lw	a2,12(s1)
   14370:	00c62503          	lw	a0,12(a2)
   14374:	00c12623          	sw	a2,12(sp)
   14378:	f79fe0ef          	jal	132f0 <op_is_new_cast.isra.0>
   1437c:	00c12603          	lw	a2,12(sp)
   14380:	06050263          	beqz	a0,143e4 <d_print_comp+0x10b8>
   14384:	00040513          	mv	a0,s0
   14388:	01100593          	li	a1,17
   1438c:	68d000ef          	jal	15218 <d_print_expr_op>
   14390:	00040513          	mv	a0,s0
   14394:	03c00593          	li	a1,60
   14398:	8e5fe0ef          	jal	12c7c <d_append_char>
   1439c:	0104a783          	lw	a5,16(s1)
   143a0:	00040513          	mv	a0,s0
   143a4:	01100593          	li	a1,17
   143a8:	00c7a603          	lw	a2,12(a5)
   143ac:	f81fe0ef          	jal	1332c <d_print_comp>
   143b0:	0003a5b7          	lui	a1,0x3a
   143b4:	00040513          	mv	a0,s0
   143b8:	73858593          	add	a1,a1,1848 # 3a738 <__clzsi2+0x4e4>
   143bc:	995fe0ef          	jal	12d50 <d_append_string>
   143c0:	0104a783          	lw	a5,16(s1)
   143c4:	00040513          	mv	a0,s0
   143c8:	01100593          	li	a1,17
   143cc:	0107a603          	lw	a2,16(a5)
   143d0:	f5dfe0ef          	jal	1332c <d_print_comp>
   143d4:	02900593          	li	a1,41
   143d8:	00040513          	mv	a0,s0
   143dc:	8a1fe0ef          	jal	12c7c <d_append_char>
   143e0:	844ff06f          	j	13424 <d_print_comp+0xf8>
   143e4:	00048613          	mv	a2,s1
   143e8:	01100593          	li	a1,17
   143ec:	00040513          	mv	a0,s0
   143f0:	6d1000ef          	jal	152c0 <d_maybe_print_fold_expression>
   143f4:	00050463          	beqz	a0,143fc <d_print_comp+0x10d0>
   143f8:	82cff06f          	j	13424 <d_print_comp+0xf8>
   143fc:	00048613          	mv	a2,s1
   14400:	01100593          	li	a1,17
   14404:	00040513          	mv	a0,s0
   14408:	04c010ef          	jal	15454 <d_maybe_print_designated_init>
   1440c:	00050463          	beqz	a0,14414 <d_print_comp+0x10e8>
   14410:	814ff06f          	j	13424 <d_print_comp+0xf8>
   14414:	00c4a783          	lw	a5,12(s1)
   14418:	03200713          	li	a4,50
   1441c:	0007a683          	lw	a3,0(a5)
   14420:	02e69863          	bne	a3,a4,14450 <d_print_comp+0x1124>
   14424:	00c7a783          	lw	a5,12(a5)
   14428:	00100713          	li	a4,1
   1442c:	0087a683          	lw	a3,8(a5)
   14430:	02e69063          	bne	a3,a4,14450 <d_print_comp+0x1124>
   14434:	0047a783          	lw	a5,4(a5)
   14438:	0007c703          	lbu	a4,0(a5)
   1443c:	03e00793          	li	a5,62
   14440:	00f71863          	bne	a4,a5,14450 <d_print_comp+0x1124>
   14444:	02800593          	li	a1,40
   14448:	00040513          	mv	a0,s0
   1444c:	831fe0ef          	jal	12c7c <d_append_char>
   14450:	00c4a783          	lw	a5,12(s1)
   14454:	0003aa37          	lui	s4,0x3a
   14458:	73ca0593          	add	a1,s4,1852 # 3a73c <__clzsi2+0x4e8>
   1445c:	00c7a783          	lw	a5,12(a5)
   14460:	0007a503          	lw	a0,0(a5)
   14464:	1c8130ef          	jal	2762c <strcmp>
   14468:	0104a783          	lw	a5,16(s1)
   1446c:	00c7a603          	lw	a2,12(a5)
   14470:	02051663          	bnez	a0,1449c <d_print_comp+0x1170>
   14474:	00062703          	lw	a4,0(a2)
   14478:	00300793          	li	a5,3
   1447c:	02f71063          	bne	a4,a5,1449c <d_print_comp+0x1170>
   14480:	01062783          	lw	a5,16(a2)
   14484:	0007a703          	lw	a4,0(a5)
   14488:	02900793          	li	a5,41
   1448c:	00f70663          	beq	a4,a5,14498 <d_print_comp+0x116c>
   14490:	00100793          	li	a5,1
   14494:	10f42c23          	sw	a5,280(s0)
   14498:	00c62603          	lw	a2,12(a2)
   1449c:	01100593          	li	a1,17
   144a0:	00040513          	mv	a0,s0
   144a4:	599000ef          	jal	1523c <d_print_subexpr>
   144a8:	00c4a903          	lw	s2,12(s1)
   144ac:	0003a5b7          	lui	a1,0x3a
   144b0:	74058593          	add	a1,a1,1856 # 3a740 <__clzsi2+0x4ec>
   144b4:	00c92783          	lw	a5,12(s2)
   144b8:	0007a983          	lw	s3,0(a5)
   144bc:	00098513          	mv	a0,s3
   144c0:	16c130ef          	jal	2762c <strcmp>
   144c4:	06051e63          	bnez	a0,14540 <d_print_comp+0x1214>
   144c8:	05b00593          	li	a1,91
   144cc:	00040513          	mv	a0,s0
   144d0:	facfe0ef          	jal	12c7c <d_append_char>
   144d4:	0104a783          	lw	a5,16(s1)
   144d8:	01100593          	li	a1,17
   144dc:	00040513          	mv	a0,s0
   144e0:	0107a603          	lw	a2,16(a5)
   144e4:	e49fe0ef          	jal	1332c <d_print_comp>
   144e8:	05d00593          	li	a1,93
   144ec:	00040513          	mv	a0,s0
   144f0:	f8cfe0ef          	jal	12c7c <d_append_char>
   144f4:	00c4a783          	lw	a5,12(s1)
   144f8:	03200713          	li	a4,50
   144fc:	0007a683          	lw	a3,0(a5)
   14500:	00e68463          	beq	a3,a4,14508 <d_print_comp+0x11dc>
   14504:	f21fe06f          	j	13424 <d_print_comp+0xf8>
   14508:	00c7a783          	lw	a5,12(a5)
   1450c:	00100713          	li	a4,1
   14510:	0087a683          	lw	a3,8(a5)
   14514:	00e68463          	beq	a3,a4,1451c <d_print_comp+0x11f0>
   14518:	f0dfe06f          	j	13424 <d_print_comp+0xf8>
   1451c:	0047a783          	lw	a5,4(a5)
   14520:	0007c703          	lbu	a4,0(a5)
   14524:	03e00793          	li	a5,62
   14528:	00f70463          	beq	a4,a5,14530 <d_print_comp+0x1204>
   1452c:	ef9fe06f          	j	13424 <d_print_comp+0xf8>
   14530:	02900593          	li	a1,41
   14534:	00040513          	mv	a0,s0
   14538:	f44fe0ef          	jal	12c7c <d_append_char>
   1453c:	ee9fe06f          	j	13424 <d_print_comp+0xf8>
   14540:	73ca0593          	add	a1,s4,1852
   14544:	00098513          	mv	a0,s3
   14548:	0e4130ef          	jal	2762c <strcmp>
   1454c:	00050a63          	beqz	a0,14560 <d_print_comp+0x1234>
   14550:	00090613          	mv	a2,s2
   14554:	01100593          	li	a1,17
   14558:	00040513          	mv	a0,s0
   1455c:	4bd000ef          	jal	15218 <d_print_expr_op>
   14560:	0104a783          	lw	a5,16(s1)
   14564:	01100593          	li	a1,17
   14568:	00040513          	mv	a0,s0
   1456c:	0107a603          	lw	a2,16(a5)
   14570:	4cd000ef          	jal	1523c <d_print_subexpr>
   14574:	f81ff06f          	j	144f4 <d_print_comp+0x11c8>
   14578:	00100793          	li	a5,1
   1457c:	10f42c23          	sw	a5,280(s0)
   14580:	ea5fe06f          	j	13424 <d_print_comp+0xf8>
   14584:	0104a783          	lw	a5,16(s1)
   14588:	03b00713          	li	a4,59
   1458c:	0007a683          	lw	a3,0(a5)
   14590:	a2e69c63          	bne	a3,a4,137c8 <d_print_comp+0x49c>
   14594:	0107a783          	lw	a5,16(a5)
   14598:	0007a703          	lw	a4,0(a5)
   1459c:	03c00793          	li	a5,60
   145a0:	a2f71463          	bne	a4,a5,137c8 <d_print_comp+0x49c>
   145a4:	00048613          	mv	a2,s1
   145a8:	01100593          	li	a1,17
   145ac:	515000ef          	jal	152c0 <d_maybe_print_fold_expression>
   145b0:	00050463          	beqz	a0,145b8 <d_print_comp+0x128c>
   145b4:	e71fe06f          	j	13424 <d_print_comp+0xf8>
   145b8:	00048613          	mv	a2,s1
   145bc:	01100593          	li	a1,17
   145c0:	00040513          	mv	a0,s0
   145c4:	691000ef          	jal	15454 <d_maybe_print_designated_init>
   145c8:	00050463          	beqz	a0,145d0 <d_print_comp+0x12a4>
   145cc:	e59fe06f          	j	13424 <d_print_comp+0xf8>
   145d0:	0104a783          	lw	a5,16(s1)
   145d4:	00c4aa03          	lw	s4,12(s1)
   145d8:	0003a5b7          	lui	a1,0x3a
   145dc:	00c7a603          	lw	a2,12(a5)
   145e0:	0107a783          	lw	a5,16(a5)
   145e4:	74458593          	add	a1,a1,1860 # 3a744 <__clzsi2+0x4f0>
   145e8:	00c12623          	sw	a2,12(sp)
   145ec:	00c7a983          	lw	s3,12(a5)
   145f0:	0107a903          	lw	s2,16(a5)
   145f4:	00ca2783          	lw	a5,12(s4)
   145f8:	0007a503          	lw	a0,0(a5)
   145fc:	030130ef          	jal	2762c <strcmp>
   14600:	00c12603          	lw	a2,12(sp)
   14604:	04051a63          	bnez	a0,14658 <d_print_comp+0x132c>
   14608:	00040513          	mv	a0,s0
   1460c:	01100593          	li	a1,17
   14610:	42d000ef          	jal	1523c <d_print_subexpr>
   14614:	000a0613          	mv	a2,s4
   14618:	00040513          	mv	a0,s0
   1461c:	01100593          	li	a1,17
   14620:	3f9000ef          	jal	15218 <d_print_expr_op>
   14624:	00098613          	mv	a2,s3
   14628:	00040513          	mv	a0,s0
   1462c:	01100593          	li	a1,17
   14630:	40d000ef          	jal	1523c <d_print_subexpr>
   14634:	0003a5b7          	lui	a1,0x3a
   14638:	00040513          	mv	a0,s0
   1463c:	74858593          	add	a1,a1,1864 # 3a748 <__clzsi2+0x4f4>
   14640:	f10fe0ef          	jal	12d50 <d_append_string>
   14644:	00090613          	mv	a2,s2
   14648:	01100593          	li	a1,17
   1464c:	00040513          	mv	a0,s0
   14650:	3ed000ef          	jal	1523c <d_print_subexpr>
   14654:	dd1fe06f          	j	13424 <d_print_comp+0xf8>
   14658:	0003a5b7          	lui	a1,0x3a
   1465c:	74c58593          	add	a1,a1,1868 # 3a74c <__clzsi2+0x4f8>
   14660:	00040513          	mv	a0,s0
   14664:	00c12623          	sw	a2,12(sp)
   14668:	ee8fe0ef          	jal	12d50 <d_append_string>
   1466c:	00c12603          	lw	a2,12(sp)
   14670:	00c62783          	lw	a5,12(a2)
   14674:	00078e63          	beqz	a5,14690 <d_print_comp+0x1364>
   14678:	01100593          	li	a1,17
   1467c:	00040513          	mv	a0,s0
   14680:	3bd000ef          	jal	1523c <d_print_subexpr>
   14684:	02000593          	li	a1,32
   14688:	00040513          	mv	a0,s0
   1468c:	df0fe0ef          	jal	12c7c <d_append_char>
   14690:	00098613          	mv	a2,s3
   14694:	01100593          	li	a1,17
   14698:	00040513          	mv	a0,s0
   1469c:	c91fe0ef          	jal	1332c <d_print_comp>
   146a0:	00091463          	bnez	s2,146a8 <d_print_comp+0x137c>
   146a4:	d81fe06f          	j	13424 <d_print_comp+0xf8>
   146a8:	00090613          	mv	a2,s2
   146ac:	01100593          	li	a1,17
   146b0:	00040513          	mv	a0,s0
   146b4:	389000ef          	jal	1523c <d_print_subexpr>
   146b8:	d6dfe06f          	j	13424 <d_print_comp+0xf8>
   146bc:	00c4a783          	lw	a5,12(s1)
   146c0:	02700713          	li	a4,39
   146c4:	0007a683          	lw	a3,0(a5)
   146c8:	1ae69463          	bne	a3,a4,14870 <d_print_comp+0x1544>
   146cc:	00c7a783          	lw	a5,12(a5)
   146d0:	0107a903          	lw	s2,16(a5)
   146d4:	00600793          	li	a5,6
   146d8:	0927e463          	bltu	a5,s2,14760 <d_print_comp+0x1434>
   146dc:	0c091a63          	bnez	s2,147b0 <d_print_comp+0x1484>
   146e0:	02800593          	li	a1,40
   146e4:	00040513          	mv	a0,s0
   146e8:	d94fe0ef          	jal	12c7c <d_append_char>
   146ec:	00c4a603          	lw	a2,12(s1)
   146f0:	01100593          	li	a1,17
   146f4:	00040513          	mv	a0,s0
   146f8:	c35fe0ef          	jal	1332c <d_print_comp>
   146fc:	02900593          	li	a1,41
   14700:	00040513          	mv	a0,s0
   14704:	d78fe0ef          	jal	12c7c <d_append_char>
   14708:	0004a703          	lw	a4,0(s1)
   1470c:	03e00793          	li	a5,62
   14710:	00f71863          	bne	a4,a5,14720 <d_print_comp+0x13f4>
   14714:	02d00593          	li	a1,45
   14718:	00040513          	mv	a0,s0
   1471c:	d60fe0ef          	jal	12c7c <d_append_char>
   14720:	00800793          	li	a5,8
   14724:	00f91863          	bne	s2,a5,14734 <d_print_comp+0x1408>
   14728:	05b00593          	li	a1,91
   1472c:	00040513          	mv	a0,s0
   14730:	d4cfe0ef          	jal	12c7c <d_append_char>
   14734:	0104a603          	lw	a2,16(s1)
   14738:	01100593          	li	a1,17
   1473c:	00040513          	mv	a0,s0
   14740:	bedfe0ef          	jal	1332c <d_print_comp>
   14744:	00800793          	li	a5,8
   14748:	00f90463          	beq	s2,a5,14750 <d_print_comp+0x1424>
   1474c:	cd9fe06f          	j	13424 <d_print_comp+0xf8>
   14750:	05d00593          	li	a1,93
   14754:	00040513          	mv	a0,s0
   14758:	d24fe0ef          	jal	12c7c <d_append_char>
   1475c:	cc9fe06f          	j	13424 <d_print_comp+0xf8>
   14760:	00700793          	li	a5,7
   14764:	f6f91ee3          	bne	s2,a5,146e0 <d_print_comp+0x13b4>
   14768:	0104a783          	lw	a5,16(s1)
   1476c:	0007a703          	lw	a4,0(a5)
   14770:	f60718e3          	bnez	a4,146e0 <d_print_comp+0x13b4>
   14774:	0107a683          	lw	a3,16(a5)
   14778:	00100713          	li	a4,1
   1477c:	f6e692e3          	bne	a3,a4,146e0 <d_print_comp+0x13b4>
   14780:	03d00713          	li	a4,61
   14784:	f4ea1ee3          	bne	s4,a4,146e0 <d_print_comp+0x13b4>
   14788:	00c7a783          	lw	a5,12(a5)
   1478c:	03000713          	li	a4,48
   14790:	0007c783          	lbu	a5,0(a5)
   14794:	0ce78663          	beq	a5,a4,14860 <d_print_comp+0x1534>
   14798:	03100713          	li	a4,49
   1479c:	f4e792e3          	bne	a5,a4,146e0 <d_print_comp+0x13b4>
   147a0:	0003a5b7          	lui	a1,0x3a
   147a4:	76858593          	add	a1,a1,1896 # 3a768 <__clzsi2+0x514>
   147a8:	da8fe0ef          	jal	12d50 <d_append_string>
   147ac:	c79fe06f          	j	13424 <d_print_comp+0xf8>
   147b0:	0104a783          	lw	a5,16(s1)
   147b4:	0007a783          	lw	a5,0(a5)
   147b8:	f20794e3          	bnez	a5,146e0 <d_print_comp+0x13b4>
   147bc:	03e00793          	li	a5,62
   147c0:	00fa1663          	bne	s4,a5,147cc <d_print_comp+0x14a0>
   147c4:	02d00593          	li	a1,45
   147c8:	cb4fe0ef          	jal	12c7c <d_append_char>
   147cc:	0104a603          	lw	a2,16(s1)
   147d0:	01100593          	li	a1,17
   147d4:	00040513          	mv	a0,s0
   147d8:	b55fe0ef          	jal	1332c <d_print_comp>
   147dc:	ffe90913          	add	s2,s2,-2
   147e0:	00400793          	li	a5,4
   147e4:	0127f463          	bgeu	a5,s2,147ec <d_print_comp+0x14c0>
   147e8:	c3dfe06f          	j	13424 <d_print_comp+0xf8>
   147ec:	0003b7b7          	lui	a5,0x3b
   147f0:	69c78793          	add	a5,a5,1692 # 3b69c <_ZTVN10__cxxabiv117__class_type_infoE+0x258>
   147f4:	00291913          	sll	s2,s2,0x2
   147f8:	00f90933          	add	s2,s2,a5
   147fc:	00092783          	lw	a5,0(s2)
   14800:	00078067          	jr	a5
   14804:	07500593          	li	a1,117
   14808:	00040513          	mv	a0,s0
   1480c:	c70fe0ef          	jal	12c7c <d_append_char>
   14810:	c15fe06f          	j	13424 <d_print_comp+0xf8>
   14814:	06c00593          	li	a1,108
   14818:	00040513          	mv	a0,s0
   1481c:	c60fe0ef          	jal	12c7c <d_append_char>
   14820:	c05fe06f          	j	13424 <d_print_comp+0xf8>
   14824:	0003a5b7          	lui	a1,0x3a
   14828:	75458593          	add	a1,a1,1876 # 3a754 <__clzsi2+0x500>
   1482c:	00040513          	mv	a0,s0
   14830:	d20fe0ef          	jal	12d50 <d_append_string>
   14834:	bf1fe06f          	j	13424 <d_print_comp+0xf8>
   14838:	0003a5b7          	lui	a1,0x3a
   1483c:	75858593          	add	a1,a1,1880 # 3a758 <__clzsi2+0x504>
   14840:	00040513          	mv	a0,s0
   14844:	d0cfe0ef          	jal	12d50 <d_append_string>
   14848:	bddfe06f          	j	13424 <d_print_comp+0xf8>
   1484c:	0003a5b7          	lui	a1,0x3a
   14850:	75c58593          	add	a1,a1,1884 # 3a75c <__clzsi2+0x508>
   14854:	00040513          	mv	a0,s0
   14858:	cf8fe0ef          	jal	12d50 <d_append_string>
   1485c:	bc9fe06f          	j	13424 <d_print_comp+0xf8>
   14860:	0003a5b7          	lui	a1,0x3a
   14864:	76058593          	add	a1,a1,1888 # 3a760 <__clzsi2+0x50c>
   14868:	ce8fe0ef          	jal	12d50 <d_append_string>
   1486c:	bb9fe06f          	j	13424 <d_print_comp+0xf8>
   14870:	00000913          	li	s2,0
   14874:	e6dff06f          	j	146e0 <d_print_comp+0x13b4>
   14878:	00c4a603          	lw	a2,12(s1)
   1487c:	01100593          	li	a1,17
   14880:	aadfe0ef          	jal	1332c <d_print_comp>
   14884:	00040513          	mv	a0,s0
   14888:	02800593          	li	a1,40
   1488c:	bf0fe0ef          	jal	12c7c <d_append_char>
   14890:	0104a603          	lw	a2,16(s1)
   14894:	00040513          	mv	a0,s0
   14898:	01100593          	li	a1,17
   1489c:	a91fe0ef          	jal	1332c <d_print_comp>
   148a0:	02900593          	li	a1,41
   148a4:	00040513          	mv	a0,s0
   148a8:	bd4fe0ef          	jal	12c7c <d_append_char>
   148ac:	b79fe06f          	j	13424 <d_print_comp+0xf8>
   148b0:	00c4a583          	lw	a1,12(s1)
   148b4:	cd4fe0ef          	jal	12d88 <d_append_num>
   148b8:	b6dfe06f          	j	13424 <d_print_comp+0xf8>
   148bc:	0003a5b7          	lui	a1,0x3a
   148c0:	77058593          	add	a1,a1,1904 # 3a770 <__clzsi2+0x51c>
   148c4:	c8cfe0ef          	jal	12d50 <d_append_string>
   148c8:	00c4a603          	lw	a2,12(s1)
   148cc:	01100593          	li	a1,17
   148d0:	00040513          	mv	a0,s0
   148d4:	a59fe0ef          	jal	1332c <d_print_comp>
   148d8:	b4dfe06f          	j	13424 <d_print_comp+0xf8>
   148dc:	00c4a603          	lw	a2,12(s1)
   148e0:	01100593          	li	a1,17
   148e4:	a49fe0ef          	jal	1332c <d_print_comp>
   148e8:	0104a603          	lw	a2,16(s1)
   148ec:	01100593          	li	a1,17
   148f0:	00040513          	mv	a0,s0
   148f4:	a39fe0ef          	jal	1332c <d_print_comp>
   148f8:	b2dfe06f          	j	13424 <d_print_comp+0xf8>
   148fc:	00c4c583          	lbu	a1,12(s1)
   14900:	b7cfe0ef          	jal	12c7c <d_append_char>
   14904:	b21fe06f          	j	13424 <d_print_comp+0xf8>
   14908:	0003a5b7          	lui	a1,0x3a
   1490c:	78058593          	add	a1,a1,1920 # 3a780 <__clzsi2+0x52c>
   14910:	c40fe0ef          	jal	12d50 <d_append_string>
   14914:	00c4a603          	lw	a2,12(s1)
   14918:	00040513          	mv	a0,s0
   1491c:	01100593          	li	a1,17
   14920:	a0dfe0ef          	jal	1332c <d_print_comp>
   14924:	02900593          	li	a1,41
   14928:	00040513          	mv	a0,s0
   1492c:	b50fe0ef          	jal	12c7c <d_append_char>
   14930:	af5fe06f          	j	13424 <d_print_comp+0xf8>
   14934:	12052903          	lw	s2,288(a0)
   14938:	00c4aa03          	lw	s4,12(s1)
   1493c:	02090463          	beqz	s2,14964 <d_print_comp+0x1638>
   14940:	00040513          	mv	a0,s0
   14944:	000a0613          	mv	a2,s4
   14948:	01100593          	li	a1,17
   1494c:	0f1000ef          	jal	1523c <d_print_subexpr>
   14950:	0003a5b7          	lui	a1,0x3a
   14954:	78c58593          	add	a1,a1,1932 # 3a78c <__clzsi2+0x538>
   14958:	00040513          	mv	a0,s0
   1495c:	bf4fe0ef          	jal	12d50 <d_append_string>
   14960:	ac5fe06f          	j	13424 <d_print_comp+0xf8>
   14964:	000a0593          	mv	a1,s4
   14968:	f60fe0ef          	jal	130c8 <d_find_pack>
   1496c:	fc050ae3          	beqz	a0,14940 <d_print_comp+0x1614>
   14970:	bb0fe0ef          	jal	12d20 <d_pack_length>
   14974:	00050993          	mv	s3,a0
   14978:	0003aab7          	lui	s5,0x3a
   1497c:	01394463          	blt	s2,s3,14984 <d_print_comp+0x1658>
   14980:	aa5fe06f          	j	13424 <d_print_comp+0xf8>
   14984:	00090863          	beqz	s2,14994 <d_print_comp+0x1668>
   14988:	56ca8593          	add	a1,s5,1388 # 3a56c <__clzsi2+0x318>
   1498c:	00040513          	mv	a0,s0
   14990:	bc0fe0ef          	jal	12d50 <d_append_string>
   14994:	13242223          	sw	s2,292(s0)
   14998:	000a0613          	mv	a2,s4
   1499c:	01100593          	li	a1,17
   149a0:	00040513          	mv	a0,s0
   149a4:	989fe0ef          	jal	1332c <d_print_comp>
   149a8:	00190913          	add	s2,s2,1
   149ac:	fd1ff06f          	j	1497c <d_print_comp+0x1650>
   149b0:	00c4a903          	lw	s2,12(s1)
   149b4:	00091a63          	bnez	s2,149c8 <d_print_comp+0x169c>
   149b8:	0003a5b7          	lui	a1,0x3a
   149bc:	79058593          	add	a1,a1,1936 # 3a790 <__clzsi2+0x53c>
   149c0:	b90fe0ef          	jal	12d50 <d_append_string>
   149c4:	a61fe06f          	j	13424 <d_print_comp+0xf8>
   149c8:	0003a5b7          	lui	a1,0x3a
   149cc:	79858593          	add	a1,a1,1944 # 3a798 <__clzsi2+0x544>
   149d0:	b80fe0ef          	jal	12d50 <d_append_string>
   149d4:	00090593          	mv	a1,s2
   149d8:	00040513          	mv	a0,s0
   149dc:	bacfe0ef          	jal	12d88 <d_append_num>
   149e0:	07d00593          	li	a1,125
   149e4:	00040513          	mv	a0,s0
   149e8:	a94fe0ef          	jal	12c7c <d_append_char>
   149ec:	a39fe06f          	j	13424 <d_print_comp+0xf8>
   149f0:	0003a5b7          	lui	a1,0x3a
   149f4:	7a058593          	add	a1,a1,1952 # 3a7a0 <__clzsi2+0x54c>
   149f8:	b58fe0ef          	jal	12d50 <d_append_string>
   149fc:	00c4a603          	lw	a2,12(s1)
   14a00:	01100593          	li	a1,17
   14a04:	00040513          	mv	a0,s0
   14a08:	925fe0ef          	jal	1332c <d_print_comp>
   14a0c:	a19fe06f          	j	13424 <d_print_comp+0xf8>
   14a10:	0003a5b7          	lui	a1,0x3a
   14a14:	7c058593          	add	a1,a1,1984 # 3a7c0 <__clzsi2+0x56c>
   14a18:	b38fe0ef          	jal	12d50 <d_append_string>
   14a1c:	00c4a603          	lw	a2,12(s1)
   14a20:	01100593          	li	a1,17
   14a24:	00040513          	mv	a0,s0
   14a28:	905fe0ef          	jal	1332c <d_print_comp>
   14a2c:	9f9fe06f          	j	13424 <d_print_comp+0xf8>
   14a30:	0003a5b7          	lui	a1,0x3a
   14a34:	7e058593          	add	a1,a1,2016 # 3a7e0 <__clzsi2+0x58c>
   14a38:	b18fe0ef          	jal	12d50 <d_append_string>
   14a3c:	11042783          	lw	a5,272(s0)
   14a40:	00c4a983          	lw	s3,12(s1)
   14a44:	12042a03          	lw	s4,288(s0)
   14a48:	02f12023          	sw	a5,32(sp)
   14a4c:	02010793          	add	a5,sp,32
   14a50:	12042023          	sw	zero,288(s0)
   14a54:	02012223          	sw	zero,36(sp)
   14a58:	10f42823          	sw	a5,272(s0)
   14a5c:	04098063          	beqz	s3,14a9c <d_print_comp+0x1770>
   14a60:	0009a703          	lw	a4,0(s3)
   14a64:	05700793          	li	a5,87
   14a68:	02f71a63          	bne	a4,a5,14a9c <d_print_comp+0x1770>
   14a6c:	03c00593          	li	a1,60
   14a70:	00040513          	mv	a0,s0
   14a74:	03312223          	sw	s3,36(sp)
   14a78:	a04fe0ef          	jal	12c7c <d_append_char>
   14a7c:	00c9a903          	lw	s2,12(s3)
   14a80:	0003aab7          	lui	s5,0x3a
   14a84:	05b00b13          	li	s6,91
   14a88:	06091c63          	bnez	s2,14b00 <d_print_comp+0x17d4>
   14a8c:	03e00593          	li	a1,62
   14a90:	00040513          	mv	a0,s0
   14a94:	9e8fe0ef          	jal	12c7c <d_append_char>
   14a98:	0109a983          	lw	s3,16(s3)
   14a9c:	12042783          	lw	a5,288(s0)
   14aa0:	00040513          	mv	a0,s0
   14aa4:	02800593          	li	a1,40
   14aa8:	00178793          	add	a5,a5,1
   14aac:	12f42023          	sw	a5,288(s0)
   14ab0:	9ccfe0ef          	jal	12c7c <d_append_char>
   14ab4:	00098613          	mv	a2,s3
   14ab8:	00040513          	mv	a0,s0
   14abc:	01100593          	li	a1,17
   14ac0:	86dfe0ef          	jal	1332c <d_print_comp>
   14ac4:	02012783          	lw	a5,32(sp)
   14ac8:	0003a5b7          	lui	a1,0x3a
   14acc:	00040513          	mv	a0,s0
   14ad0:	10f42823          	sw	a5,272(s0)
   14ad4:	13442023          	sw	s4,288(s0)
   14ad8:	7e858593          	add	a1,a1,2024 # 3a7e8 <__clzsi2+0x594>
   14adc:	a74fe0ef          	jal	12d50 <d_append_string>
   14ae0:	0104a583          	lw	a1,16(s1)
   14ae4:	00040513          	mv	a0,s0
   14ae8:	00158593          	add	a1,a1,1
   14aec:	a9cfe0ef          	jal	12d88 <d_append_num>
   14af0:	07d00593          	li	a1,125
   14af4:	00040513          	mv	a0,s0
   14af8:	984fe0ef          	jal	12c7c <d_append_char>
   14afc:	929fe06f          	j	13424 <d_print_comp+0xf8>
   14b00:	12042783          	lw	a5,288(s0)
   14b04:	00178713          	add	a4,a5,1
   14b08:	12e42023          	sw	a4,288(s0)
   14b0c:	00078863          	beqz	a5,14b1c <d_print_comp+0x17f0>
   14b10:	56ca8593          	add	a1,s5,1388 # 3a56c <__clzsi2+0x318>
   14b14:	00040513          	mv	a0,s0
   14b18:	a38fe0ef          	jal	12d50 <d_append_string>
   14b1c:	00090613          	mv	a2,s2
   14b20:	01100593          	li	a1,17
   14b24:	00040513          	mv	a0,s0
   14b28:	805fe0ef          	jal	1332c <d_print_comp>
   14b2c:	02000593          	li	a1,32
   14b30:	00040513          	mv	a0,s0
   14b34:	948fe0ef          	jal	12c7c <d_append_char>
   14b38:	00092783          	lw	a5,0(s2)
   14b3c:	01679463          	bne	a5,s6,14b44 <d_print_comp+0x1818>
   14b40:	00c92903          	lw	s2,12(s2)
   14b44:	12042603          	lw	a2,288(s0)
   14b48:	00092583          	lw	a1,0(s2)
   14b4c:	00040513          	mv	a0,s0
   14b50:	fff60613          	add	a2,a2,-1
   14b54:	a74fe0ef          	jal	12dc8 <d_print_lambda_parm_name>
   14b58:	01092903          	lw	s2,16(s2)
   14b5c:	f2dff06f          	j	14a88 <d_print_comp+0x175c>
   14b60:	0003a5b7          	lui	a1,0x3a
   14b64:	7ec58593          	add	a1,a1,2028 # 3a7ec <__clzsi2+0x598>
   14b68:	9e8fe0ef          	jal	12d50 <d_append_string>
   14b6c:	00c4a583          	lw	a1,12(s1)
   14b70:	00040513          	mv	a0,s0
   14b74:	00158593          	add	a1,a1,1
   14b78:	a10fe0ef          	jal	12d88 <d_append_num>
   14b7c:	07d00593          	li	a1,125
   14b80:	00040513          	mv	a0,s0
   14b84:	8f8fe0ef          	jal	12c7c <d_append_char>
   14b88:	89dfe06f          	j	13424 <d_print_comp+0xf8>
   14b8c:	00c4a603          	lw	a2,12(s1)
   14b90:	01100593          	li	a1,17
   14b94:	f98fe0ef          	jal	1332c <d_print_comp>
   14b98:	0003a5b7          	lui	a1,0x3a
   14b9c:	00040513          	mv	a0,s0
   14ba0:	7fc58593          	add	a1,a1,2044 # 3a7fc <__clzsi2+0x5a8>
   14ba4:	9acfe0ef          	jal	12d50 <d_append_string>
   14ba8:	0104a603          	lw	a2,16(s1)
   14bac:	00040513          	mv	a0,s0
   14bb0:	01100593          	li	a1,17
   14bb4:	f78fe0ef          	jal	1332c <d_print_comp>
   14bb8:	05d00593          	li	a1,93
   14bbc:	00040513          	mv	a0,s0
   14bc0:	8bcfe0ef          	jal	12c7c <d_append_char>
   14bc4:	861fe06f          	j	13424 <d_print_comp+0xf8>
   14bc8:	03c00593          	li	a1,60
   14bcc:	8b0fe0ef          	jal	12c7c <d_append_char>
   14bd0:	00c4a903          	lw	s2,12(s1)
   14bd4:	00000993          	li	s3,0
   14bd8:	0003aa37          	lui	s4,0x3a
   14bdc:	00091a63          	bnez	s2,14bf0 <d_print_comp+0x18c4>
   14be0:	03e00593          	li	a1,62
   14be4:	00040513          	mv	a0,s0
   14be8:	894fe0ef          	jal	12c7c <d_append_char>
   14bec:	839fe06f          	j	13424 <d_print_comp+0xf8>
   14bf0:	00098863          	beqz	s3,14c00 <d_print_comp+0x18d4>
   14bf4:	56ca0593          	add	a1,s4,1388 # 3a56c <__clzsi2+0x318>
   14bf8:	00040513          	mv	a0,s0
   14bfc:	954fe0ef          	jal	12d50 <d_append_string>
   14c00:	00090613          	mv	a2,s2
   14c04:	01100593          	li	a1,17
   14c08:	00040513          	mv	a0,s0
   14c0c:	f20fe0ef          	jal	1332c <d_print_comp>
   14c10:	00198993          	add	s3,s3,1
   14c14:	01092903          	lw	s2,16(s2)
   14c18:	fc5ff06f          	j	14bdc <d_print_comp+0x18b0>
   14c1c:	0003b5b7          	lui	a1,0x3b
   14c20:	80858593          	add	a1,a1,-2040 # 3a808 <__clzsi2+0x5b4>
   14c24:	92cfe0ef          	jal	12d50 <d_append_string>
   14c28:	ffcfe06f          	j	13424 <d_print_comp+0xf8>
   14c2c:	0003b5b7          	lui	a1,0x3b
   14c30:	81458593          	add	a1,a1,-2028 # 3a814 <__clzsi2+0x5c0>
   14c34:	91cfe0ef          	jal	12d50 <d_append_string>
   14c38:	00c4a603          	lw	a2,12(s1)
   14c3c:	00040513          	mv	a0,s0
   14c40:	01100593          	li	a1,17
   14c44:	ee8fe0ef          	jal	1332c <d_print_comp>
   14c48:	0003b5b7          	lui	a1,0x3b
   14c4c:	82058593          	add	a1,a1,-2016 # 3a820 <__clzsi2+0x5cc>
   14c50:	00040513          	mv	a0,s0
   14c54:	8fcfe0ef          	jal	12d50 <d_append_string>
   14c58:	fccfe06f          	j	13424 <d_print_comp+0xf8>
   14c5c:	00c4a603          	lw	a2,12(s1)
   14c60:	01100593          	li	a1,17
   14c64:	ec8fe0ef          	jal	1332c <d_print_comp>
   14c68:	0003a5b7          	lui	a1,0x3a
   14c6c:	78c58593          	add	a1,a1,1932 # 3a78c <__clzsi2+0x538>
   14c70:	00040513          	mv	a0,s0
   14c74:	8dcfe0ef          	jal	12d50 <d_append_string>
   14c78:	facfe06f          	j	13424 <d_print_comp+0xf8>

00014c7c <d_print_mod>:
   14c7c:	00062783          	lw	a5,0(a2)
   14c80:	ff010113          	add	sp,sp,-16
   14c84:	00912223          	sw	s1,4(sp)
   14c88:	00112623          	sw	ra,12(sp)
   14c8c:	00812423          	sw	s0,8(sp)
   14c90:	00300713          	li	a4,3
   14c94:	00060493          	mv	s1,a2
   14c98:	14e78c63          	beq	a5,a4,14df0 <d_print_mod+0x174>
   14c9c:	fe778793          	add	a5,a5,-25
   14ca0:	03800713          	li	a4,56
   14ca4:	00050413          	mv	s0,a0
   14ca8:	16f76c63          	bltu	a4,a5,14e20 <d_print_mod+0x1a4>
   14cac:	0003b737          	lui	a4,0x3b
   14cb0:	00279793          	sll	a5,a5,0x2
   14cb4:	6b070713          	add	a4,a4,1712 # 3b6b0 <_ZTVN10__cxxabiv117__class_type_infoE+0x26c>
   14cb8:	00e787b3          	add	a5,a5,a4
   14cbc:	0007a783          	lw	a5,0(a5)
   14cc0:	00078067          	jr	a5
   14cc4:	0003b5b7          	lui	a1,0x3b
   14cc8:	82858593          	add	a1,a1,-2008 # 3a828 <__clzsi2+0x5d4>
   14ccc:	00040513          	mv	a0,s0
   14cd0:	00812403          	lw	s0,8(sp)
   14cd4:	00c12083          	lw	ra,12(sp)
   14cd8:	00412483          	lw	s1,4(sp)
   14cdc:	01010113          	add	sp,sp,16
   14ce0:	870fe06f          	j	12d50 <d_append_string>
   14ce4:	0003b5b7          	lui	a1,0x3b
   14ce8:	83458593          	add	a1,a1,-1996 # 3a834 <__clzsi2+0x5e0>
   14cec:	fe1ff06f          	j	14ccc <d_print_mod+0x50>
   14cf0:	0003b5b7          	lui	a1,0x3b
   14cf4:	84058593          	add	a1,a1,-1984 # 3a840 <__clzsi2+0x5ec>
   14cf8:	fd5ff06f          	j	14ccc <d_print_mod+0x50>
   14cfc:	0003b5b7          	lui	a1,0x3b
   14d00:	84858593          	add	a1,a1,-1976 # 3a848 <__clzsi2+0x5f4>
   14d04:	fc9ff06f          	j	14ccc <d_print_mod+0x50>
   14d08:	0003b5b7          	lui	a1,0x3b
   14d0c:	85c58593          	add	a1,a1,-1956 # 3a85c <__clzsi2+0x608>
   14d10:	00040513          	mv	a0,s0
   14d14:	83cfe0ef          	jal	12d50 <d_append_string>
   14d18:	0104a783          	lw	a5,16(s1)
   14d1c:	10078663          	beqz	a5,14e28 <d_print_mod+0x1ac>
   14d20:	02800593          	li	a1,40
   14d24:	00040513          	mv	a0,s0
   14d28:	f55fd0ef          	jal	12c7c <d_append_char>
   14d2c:	0104a603          	lw	a2,16(s1)
   14d30:	01100593          	li	a1,17
   14d34:	00040513          	mv	a0,s0
   14d38:	df4fe0ef          	jal	1332c <d_print_comp>
   14d3c:	02900593          	li	a1,41
   14d40:	02c0006f          	j	14d6c <d_print_mod+0xf0>
   14d44:	0003b5b7          	lui	a1,0x3b
   14d48:	86858593          	add	a1,a1,-1944 # 3a868 <__clzsi2+0x614>
   14d4c:	fc5ff06f          	j	14d10 <d_print_mod+0x94>
   14d50:	02000593          	li	a1,32
   14d54:	f29fd0ef          	jal	12c7c <d_append_char>
   14d58:	0104a603          	lw	a2,16(s1)
   14d5c:	01100593          	li	a1,17
   14d60:	00040513          	mv	a0,s0
   14d64:	0940006f          	j	14df8 <d_print_mod+0x17c>
   14d68:	02a00593          	li	a1,42
   14d6c:	00040513          	mv	a0,s0
   14d70:	00812403          	lw	s0,8(sp)
   14d74:	00c12083          	lw	ra,12(sp)
   14d78:	00412483          	lw	s1,4(sp)
   14d7c:	01010113          	add	sp,sp,16
   14d80:	efdfd06f          	j	12c7c <d_append_char>
   14d84:	02000593          	li	a1,32
   14d88:	ef5fd0ef          	jal	12c7c <d_append_char>
   14d8c:	02600593          	li	a1,38
   14d90:	fddff06f          	j	14d6c <d_print_mod+0xf0>
   14d94:	02000593          	li	a1,32
   14d98:	ee5fd0ef          	jal	12c7c <d_append_char>
   14d9c:	0003b5b7          	lui	a1,0x3b
   14da0:	87058593          	add	a1,a1,-1936 # 3a870 <__clzsi2+0x61c>
   14da4:	f29ff06f          	j	14ccc <d_print_mod+0x50>
   14da8:	0003b5b7          	lui	a1,0x3b
   14dac:	87458593          	add	a1,a1,-1932 # 3a874 <__clzsi2+0x620>
   14db0:	f1dff06f          	j	14ccc <d_print_mod+0x50>
   14db4:	0003b5b7          	lui	a1,0x3b
   14db8:	88058593          	add	a1,a1,-1920 # 3a880 <__clzsi2+0x62c>
   14dbc:	f11ff06f          	j	14ccc <d_print_mod+0x50>
   14dc0:	10454703          	lbu	a4,260(a0)
   14dc4:	02800793          	li	a5,40
   14dc8:	00f70663          	beq	a4,a5,14dd4 <d_print_mod+0x158>
   14dcc:	02000593          	li	a1,32
   14dd0:	eadfd0ef          	jal	12c7c <d_append_char>
   14dd4:	00c4a603          	lw	a2,12(s1)
   14dd8:	01100593          	li	a1,17
   14ddc:	00040513          	mv	a0,s0
   14de0:	d4cfe0ef          	jal	1332c <d_print_comp>
   14de4:	0003b5b7          	lui	a1,0x3b
   14de8:	88c58593          	add	a1,a1,-1908 # 3a88c <__clzsi2+0x638>
   14dec:	ee1ff06f          	j	14ccc <d_print_mod+0x50>
   14df0:	00c62603          	lw	a2,12(a2)
   14df4:	01100593          	li	a1,17
   14df8:	00812403          	lw	s0,8(sp)
   14dfc:	00c12083          	lw	ra,12(sp)
   14e00:	00412483          	lw	s1,4(sp)
   14e04:	01010113          	add	sp,sp,16
   14e08:	d24fe06f          	j	1332c <d_print_comp>
   14e0c:	0003b5b7          	lui	a1,0x3b
   14e10:	89058593          	add	a1,a1,-1904 # 3a890 <__clzsi2+0x63c>
   14e14:	f3dfd0ef          	jal	12d50 <d_append_string>
   14e18:	00c4a603          	lw	a2,12(s1)
   14e1c:	f15ff06f          	j	14d30 <d_print_mod+0xb4>
   14e20:	00048613          	mv	a2,s1
   14e24:	f39ff06f          	j	14d5c <d_print_mod+0xe0>
   14e28:	00c12083          	lw	ra,12(sp)
   14e2c:	00812403          	lw	s0,8(sp)
   14e30:	00412483          	lw	s1,4(sp)
   14e34:	01010113          	add	sp,sp,16
   14e38:	00008067          	ret

00014e3c <d_print_function_type>:
   14e3c:	fe010113          	add	sp,sp,-32
   14e40:	00912a23          	sw	s1,20(sp)
   14e44:	00068713          	mv	a4,a3
   14e48:	00068493          	mv	s1,a3
   14e4c:	000436b7          	lui	a3,0x43
   14e50:	00812c23          	sw	s0,24(sp)
   14e54:	01212823          	sw	s2,16(sp)
   14e58:	00112e23          	sw	ra,28(sp)
   14e5c:	00060913          	mv	s2,a2
   14e60:	01312623          	sw	s3,12(sp)
   14e64:	01412423          	sw	s4,8(sp)
   14e68:	00050413          	mv	s0,a0
   14e6c:	01200613          	li	a2,18
   14e70:	00100593          	li	a1,1
   14e74:	10768693          	add	a3,a3,263 # 43107 <__EH_FRAME_BEGIN__+0x50a7>
   14e78:	00071663          	bnez	a4,14e84 <d_print_function_type+0x48>
   14e7c:	00000993          	li	s3,0
   14e80:	0740006f          	j	14ef4 <d_print_function_type+0xb8>
   14e84:	00872783          	lw	a5,8(a4)
   14e88:	fe079ae3          	bnez	a5,14e7c <d_print_function_type+0x40>
   14e8c:	00472783          	lw	a5,4(a4)
   14e90:	0007a783          	lw	a5,0(a5)
   14e94:	fe778793          	add	a5,a5,-25
   14e98:	00f66e63          	bltu	a2,a5,14eb4 <d_print_function_type+0x78>
   14e9c:	00f597b3          	sll	a5,a1,a5
   14ea0:	00d7f533          	and	a0,a5,a3
   14ea4:	02051463          	bnez	a0,14ecc <d_print_function_type+0x90>
   14ea8:	0097d513          	srl	a0,a5,0x9
   14eac:	00757513          	and	a0,a0,7
   14eb0:	00051663          	bnez	a0,14ebc <d_print_function_type+0x80>
   14eb4:	00072703          	lw	a4,0(a4)
   14eb8:	fc1ff06f          	j	14e78 <d_print_function_type+0x3c>
   14ebc:	10444783          	lbu	a5,260(s0)
   14ec0:	02800713          	li	a4,40
   14ec4:	0fd7f793          	and	a5,a5,253
   14ec8:	00e78e63          	beq	a5,a4,14ee4 <d_print_function_type+0xa8>
   14ecc:	10444703          	lbu	a4,260(s0)
   14ed0:	02000793          	li	a5,32
   14ed4:	00f70863          	beq	a4,a5,14ee4 <d_print_function_type+0xa8>
   14ed8:	02000593          	li	a1,32
   14edc:	00040513          	mv	a0,s0
   14ee0:	d9dfd0ef          	jal	12c7c <d_append_char>
   14ee4:	02800593          	li	a1,40
   14ee8:	00040513          	mv	a0,s0
   14eec:	d91fd0ef          	jal	12c7c <d_append_char>
   14ef0:	00100993          	li	s3,1
   14ef4:	11442a03          	lw	s4,276(s0)
   14ef8:	00000693          	li	a3,0
   14efc:	10042a23          	sw	zero,276(s0)
   14f00:	00048613          	mv	a2,s1
   14f04:	01100593          	li	a1,17
   14f08:	00040513          	mv	a0,s0
   14f0c:	078000ef          	jal	14f84 <d_print_mod_list>
   14f10:	00098863          	beqz	s3,14f20 <d_print_function_type+0xe4>
   14f14:	02900593          	li	a1,41
   14f18:	00040513          	mv	a0,s0
   14f1c:	d61fd0ef          	jal	12c7c <d_append_char>
   14f20:	02800593          	li	a1,40
   14f24:	00040513          	mv	a0,s0
   14f28:	d55fd0ef          	jal	12c7c <d_append_char>
   14f2c:	01092603          	lw	a2,16(s2)
   14f30:	00060863          	beqz	a2,14f40 <d_print_function_type+0x104>
   14f34:	01100593          	li	a1,17
   14f38:	00040513          	mv	a0,s0
