
build/double-free:     file format elf32-littleriscv


Disassembly of section .text:

000100a0 <exit>:
   100a0:	ff010113          	add	sp,sp,-16
   100a4:	00000593          	li	a1,0
   100a8:	00812423          	sw	s0,8(sp)
   100ac:	00112623          	sw	ra,12(sp)
   100b0:	00050413          	mv	s0,a0
   100b4:	4e8010ef          	jal	1159c <__call_exitprocs>
   100b8:	d541a783          	lw	a5,-684(gp) # 1456c <__stdio_exit_handler>
   100bc:	00078463          	beqz	a5,100c4 <exit+0x24>
   100c0:	000780e7          	jalr	a5
   100c4:	00040513          	mv	a0,s0
   100c8:	288030ef          	jal	13350 <_exit>

000100cc <register_fini>:
   100cc:	00000793          	li	a5,0
   100d0:	00078863          	beqz	a5,100e0 <register_fini+0x14>
   100d4:	00012537          	lui	a0,0x12
   100d8:	67450513          	add	a0,a0,1652 # 12674 <__libc_fini_array>
   100dc:	5f40106f          	j	116d0 <atexit>
   100e0:	00008067          	ret

000100e4 <init_semihosting>:
   100e4:	ff010113          	add	sp,sp,-16
   100e8:	00812423          	sw	s0,8(sp)
   100ec:	07018413          	add	s0,gp,112 # 14888 <fdtable>
   100f0:	00112623          	sw	ra,12(sp)
   100f4:	00912223          	sw	s1,4(sp)
   100f8:	07018793          	add	a5,gp,112 # 14888 <fdtable>
   100fc:	08040693          	add	a3,s0,128
   10100:	fff00713          	li	a4,-1
   10104:	00e7a023          	sw	a4,0(a5)
   10108:	00878793          	add	a5,a5,8
   1010c:	fed79ce3          	bne	a5,a3,10104 <init_semihosting+0x20>
   10110:	000144b7          	lui	s1,0x14
   10114:	00000593          	li	a1,0
   10118:	a9448513          	add	a0,s1,-1388 # 13a94 <__modsi3+0x8c>
   1011c:	524030ef          	jal	13640 <_open>
   10120:	00050793          	mv	a5,a0
   10124:	60100593          	li	a1,1537
   10128:	a9448513          	add	a0,s1,-1388
   1012c:	00f42023          	sw	a5,0(s0)
   10130:	00042223          	sw	zero,4(s0)
   10134:	50c030ef          	jal	13640 <_open>
   10138:	00050793          	mv	a5,a0
   1013c:	20900593          	li	a1,521
   10140:	a9448513          	add	a0,s1,-1388
   10144:	00f42423          	sw	a5,8(s0)
   10148:	00042623          	sw	zero,12(s0)
   1014c:	4f4030ef          	jal	13640 <_open>
   10150:	00c12083          	lw	ra,12(sp)
   10154:	00a42823          	sw	a0,16(s0)
   10158:	00042a23          	sw	zero,20(s0)
   1015c:	00812403          	lw	s0,8(sp)
   10160:	00412483          	lw	s1,4(sp)
   10164:	01010113          	add	sp,sp,16
   10168:	00008067          	ret

0001016c <_start>:
   1016c:	00004197          	auipc	gp,0x4
   10170:	6ac18193          	add	gp,gp,1708 # 14818 <__global_pointer$>
   10174:	d4818513          	add	a0,gp,-696 # 14560 <__malloc_max_total_mem>
   10178:	0f018613          	add	a2,gp,240 # 14908 <__BSS_END__>
   1017c:	40a60633          	sub	a2,a2,a0
   10180:	00000593          	li	a1,0
   10184:	2b0010ef          	jal	11434 <memset>
   10188:	00001517          	auipc	a0,0x1
   1018c:	54850513          	add	a0,a0,1352 # 116d0 <atexit>
   10190:	00050863          	beqz	a0,101a0 <_start+0x34>
   10194:	00002517          	auipc	a0,0x2
   10198:	4e050513          	add	a0,a0,1248 # 12674 <__libc_fini_array>
   1019c:	534010ef          	jal	116d0 <atexit>
   101a0:	1f8010ef          	jal	11398 <__libc_init_array>
   101a4:	00012503          	lw	a0,0(sp)
   101a8:	00410593          	add	a1,sp,4
   101ac:	00000613          	li	a2,0
   101b0:	06c000ef          	jal	1021c <main>
   101b4:	eedff06f          	j	100a0 <exit>

000101b8 <__do_global_dtors_aux>:
   101b8:	ff010113          	add	sp,sp,-16
   101bc:	00812423          	sw	s0,8(sp)
   101c0:	d641c783          	lbu	a5,-668(gp) # 1457c <completed.1>
   101c4:	00112623          	sw	ra,12(sp)
   101c8:	02079263          	bnez	a5,101ec <__do_global_dtors_aux+0x34>
   101cc:	00000793          	li	a5,0
   101d0:	00078a63          	beqz	a5,101e4 <__do_global_dtors_aux+0x2c>
   101d4:	00014537          	lui	a0,0x14
   101d8:	00050513          	mv	a0,a0
   101dc:	00000097          	auipc	ra,0x0
   101e0:	000000e7          	jalr	zero # 0 <exit-0x100a0>
   101e4:	00100793          	li	a5,1
   101e8:	d6f18223          	sb	a5,-668(gp) # 1457c <completed.1>
   101ec:	00c12083          	lw	ra,12(sp)
   101f0:	00812403          	lw	s0,8(sp)
   101f4:	01010113          	add	sp,sp,16
   101f8:	00008067          	ret

000101fc <frame_dummy>:
   101fc:	00000793          	li	a5,0
   10200:	00078c63          	beqz	a5,10218 <frame_dummy+0x1c>
   10204:	00014537          	lui	a0,0x14
   10208:	d6818593          	add	a1,gp,-664 # 14580 <object.0>
   1020c:	00050513          	mv	a0,a0
   10210:	00000317          	auipc	t1,0x0
   10214:	00000067          	jr	zero # 0 <exit-0x100a0>
   10218:	00008067          	ret

0001021c <main>:
#include <stdio.h>
#include <stdlib.h>

int main() {
   1021c:	fe010113          	add	sp,sp,-32
   10220:	00112e23          	sw	ra,28(sp)
   10224:	00812c23          	sw	s0,24(sp)
   10228:	02010413          	add	s0,sp,32
    printf("Testing Double Free...\n");
   1022c:	000147b7          	lui	a5,0x14
   10230:	a3878513          	add	a0,a5,-1480 # 13a38 <__modsi3+0x30>
   10234:	539000ef          	jal	10f6c <puts>

    int *ptr = (int*)malloc(sizeof(int));
   10238:	00400513          	li	a0,4
   1023c:	07c000ef          	jal	102b8 <malloc>
   10240:	00050793          	mv	a5,a0
   10244:	fef42623          	sw	a5,-20(s0)
    if (!ptr) { printf("malloc returned NULL\n"); return 0; }
   10248:	fec42783          	lw	a5,-20(s0)
   1024c:	00079c63          	bnez	a5,10264 <main+0x48>
   10250:	000147b7          	lui	a5,0x14
   10254:	a5078513          	add	a0,a5,-1456 # 13a50 <__modsi3+0x48>
   10258:	515000ef          	jal	10f6c <puts>
   1025c:	00000793          	li	a5,0
   10260:	0440006f          	j	102a4 <main+0x88>
    *ptr = 42;
   10264:	fec42783          	lw	a5,-20(s0)
   10268:	02a00713          	li	a4,42
   1026c:	00e7a023          	sw	a4,0(a5)

    int *ptr2 = ptr;
   10270:	fec42783          	lw	a5,-20(s0)
   10274:	fef42423          	sw	a5,-24(s0)

    free(ptr);
   10278:	fec42503          	lw	a0,-20(s0)
   1027c:	048000ef          	jal	102c4 <free>
    printf("Free one complete\n");
   10280:	000147b7          	lui	a5,0x14
   10284:	a6878513          	add	a0,a5,-1432 # 13a68 <__modsi3+0x60>
   10288:	4e5000ef          	jal	10f6c <puts>

    free(ptr2);
   1028c:	fe842503          	lw	a0,-24(s0)
   10290:	034000ef          	jal	102c4 <free>
    printf("Free two complete\n");
   10294:	000147b7          	lui	a5,0x14
   10298:	a7c78513          	add	a0,a5,-1412 # 13a7c <__modsi3+0x74>
   1029c:	4d1000ef          	jal	10f6c <puts>

    return 0;
   102a0:	00000793          	li	a5,0
   102a4:	00078513          	mv	a0,a5
   102a8:	01c12083          	lw	ra,28(sp)
   102ac:	01812403          	lw	s0,24(sp)
   102b0:	02010113          	add	sp,sp,32
   102b4:	00008067          	ret

000102b8 <malloc>:
   102b8:	00050593          	mv	a1,a0
   102bc:	d441a503          	lw	a0,-700(gp) # 1455c <_impure_ptr>
   102c0:	0100006f          	j	102d0 <_malloc_r>

000102c4 <free>:
   102c4:	00050593          	mv	a1,a0
   102c8:	d441a503          	lw	a0,-700(gp) # 1455c <_impure_ptr>
   102cc:	5500106f          	j	1181c <_free_r>

000102d0 <_malloc_r>:
   102d0:	fd010113          	add	sp,sp,-48
   102d4:	01312e23          	sw	s3,28(sp)
   102d8:	02112623          	sw	ra,44(sp)
   102dc:	02812423          	sw	s0,40(sp)
   102e0:	02912223          	sw	s1,36(sp)
   102e4:	03212023          	sw	s2,32(sp)
   102e8:	00b58793          	add	a5,a1,11
   102ec:	01600713          	li	a4,22
   102f0:	00050993          	mv	s3,a0
   102f4:	08f76263          	bltu	a4,a5,10378 <_malloc_r+0xa8>
   102f8:	01000793          	li	a5,16
   102fc:	20b7e663          	bltu	a5,a1,10508 <_malloc_r+0x238>
   10300:	78c000ef          	jal	10a8c <__malloc_lock>
   10304:	01800793          	li	a5,24
   10308:	00200593          	li	a1,2
   1030c:	01000493          	li	s1,16
   10310:	00014937          	lui	s2,0x14
   10314:	01890913          	add	s2,s2,24 # 14018 <__malloc_av_>
   10318:	00f907b3          	add	a5,s2,a5
   1031c:	0047a403          	lw	s0,4(a5)
   10320:	ff878713          	add	a4,a5,-8
   10324:	34e40463          	beq	s0,a4,1066c <_malloc_r+0x39c>
   10328:	00442783          	lw	a5,4(s0)
   1032c:	00c42683          	lw	a3,12(s0)
   10330:	00842603          	lw	a2,8(s0)
   10334:	ffc7f793          	and	a5,a5,-4
   10338:	00f407b3          	add	a5,s0,a5
   1033c:	0047a703          	lw	a4,4(a5)
   10340:	00d62623          	sw	a3,12(a2)
   10344:	00c6a423          	sw	a2,8(a3)
   10348:	00176713          	or	a4,a4,1
   1034c:	00098513          	mv	a0,s3
   10350:	00e7a223          	sw	a4,4(a5)
   10354:	73c000ef          	jal	10a90 <__malloc_unlock>
   10358:	00840513          	add	a0,s0,8
   1035c:	02c12083          	lw	ra,44(sp)
   10360:	02812403          	lw	s0,40(sp)
   10364:	02412483          	lw	s1,36(sp)
   10368:	02012903          	lw	s2,32(sp)
   1036c:	01c12983          	lw	s3,28(sp)
   10370:	03010113          	add	sp,sp,48
   10374:	00008067          	ret
   10378:	ff87f493          	and	s1,a5,-8
   1037c:	1807c663          	bltz	a5,10508 <_malloc_r+0x238>
   10380:	18b4e463          	bltu	s1,a1,10508 <_malloc_r+0x238>
   10384:	708000ef          	jal	10a8c <__malloc_lock>
   10388:	1f700793          	li	a5,503
   1038c:	3e97fa63          	bgeu	a5,s1,10780 <_malloc_r+0x4b0>
   10390:	0094d793          	srl	a5,s1,0x9
   10394:	18078263          	beqz	a5,10518 <_malloc_r+0x248>
   10398:	00400713          	li	a4,4
   1039c:	34f76063          	bltu	a4,a5,106dc <_malloc_r+0x40c>
   103a0:	0064d793          	srl	a5,s1,0x6
   103a4:	03978593          	add	a1,a5,57
   103a8:	03878813          	add	a6,a5,56
   103ac:	00359613          	sll	a2,a1,0x3
   103b0:	00014937          	lui	s2,0x14
   103b4:	01890913          	add	s2,s2,24 # 14018 <__malloc_av_>
   103b8:	00c90633          	add	a2,s2,a2
   103bc:	00462403          	lw	s0,4(a2)
   103c0:	ff860613          	add	a2,a2,-8
   103c4:	02860863          	beq	a2,s0,103f4 <_malloc_r+0x124>
   103c8:	00f00513          	li	a0,15
   103cc:	0140006f          	j	103e0 <_malloc_r+0x110>
   103d0:	00c42683          	lw	a3,12(s0)
   103d4:	28075863          	bgez	a4,10664 <_malloc_r+0x394>
   103d8:	00d60e63          	beq	a2,a3,103f4 <_malloc_r+0x124>
   103dc:	00068413          	mv	s0,a3
   103e0:	00442783          	lw	a5,4(s0)
   103e4:	ffc7f793          	and	a5,a5,-4
   103e8:	40978733          	sub	a4,a5,s1
   103ec:	fee552e3          	bge	a0,a4,103d0 <_malloc_r+0x100>
   103f0:	00080593          	mv	a1,a6
   103f4:	01092403          	lw	s0,16(s2)
   103f8:	00014837          	lui	a6,0x14
   103fc:	02080813          	add	a6,a6,32 # 14020 <__malloc_av_+0x8>
   10400:	25040e63          	beq	s0,a6,1065c <_malloc_r+0x38c>
   10404:	00442783          	lw	a5,4(s0)
   10408:	00f00693          	li	a3,15
   1040c:	ffc7f793          	and	a5,a5,-4
   10410:	40978733          	sub	a4,a5,s1
   10414:	36e6cc63          	blt	a3,a4,1078c <_malloc_r+0x4bc>
   10418:	01092a23          	sw	a6,20(s2)
   1041c:	01092823          	sw	a6,16(s2)
   10420:	34075063          	bgez	a4,10760 <_malloc_r+0x490>
   10424:	1ff00713          	li	a4,511
   10428:	00492503          	lw	a0,4(s2)
   1042c:	24f76863          	bltu	a4,a5,1067c <_malloc_r+0x3ac>
   10430:	ff87f713          	and	a4,a5,-8
   10434:	00870713          	add	a4,a4,8
   10438:	00e90733          	add	a4,s2,a4
   1043c:	00072683          	lw	a3,0(a4)
   10440:	0057d613          	srl	a2,a5,0x5
   10444:	00100793          	li	a5,1
   10448:	00c797b3          	sll	a5,a5,a2
   1044c:	00f56533          	or	a0,a0,a5
   10450:	ff870793          	add	a5,a4,-8
   10454:	00f42623          	sw	a5,12(s0)
   10458:	00d42423          	sw	a3,8(s0)
   1045c:	00a92223          	sw	a0,4(s2)
   10460:	00872023          	sw	s0,0(a4)
   10464:	0086a623          	sw	s0,12(a3)
   10468:	4025d793          	sra	a5,a1,0x2
   1046c:	00100613          	li	a2,1
   10470:	00f61633          	sll	a2,a2,a5
   10474:	0ac56a63          	bltu	a0,a2,10528 <_malloc_r+0x258>
   10478:	00a677b3          	and	a5,a2,a0
   1047c:	02079463          	bnez	a5,104a4 <_malloc_r+0x1d4>
   10480:	00161613          	sll	a2,a2,0x1
   10484:	ffc5f593          	and	a1,a1,-4
   10488:	00a677b3          	and	a5,a2,a0
   1048c:	00458593          	add	a1,a1,4
   10490:	00079a63          	bnez	a5,104a4 <_malloc_r+0x1d4>
   10494:	00161613          	sll	a2,a2,0x1
   10498:	00a677b3          	and	a5,a2,a0
   1049c:	00458593          	add	a1,a1,4
   104a0:	fe078ae3          	beqz	a5,10494 <_malloc_r+0x1c4>
   104a4:	00f00893          	li	a7,15
   104a8:	00359313          	sll	t1,a1,0x3
   104ac:	00690333          	add	t1,s2,t1
   104b0:	00030513          	mv	a0,t1
   104b4:	00c52783          	lw	a5,12(a0) # 1400c <__frame_dummy_init_array_entry+0x4>
   104b8:	00058e13          	mv	t3,a1
   104bc:	24f50263          	beq	a0,a5,10700 <_malloc_r+0x430>
   104c0:	0047a703          	lw	a4,4(a5)
   104c4:	00078413          	mv	s0,a5
   104c8:	00c7a783          	lw	a5,12(a5)
   104cc:	ffc77713          	and	a4,a4,-4
   104d0:	409706b3          	sub	a3,a4,s1
   104d4:	24d8c263          	blt	a7,a3,10718 <_malloc_r+0x448>
   104d8:	fe06c2e3          	bltz	a3,104bc <_malloc_r+0x1ec>
   104dc:	00e40733          	add	a4,s0,a4
   104e0:	00472683          	lw	a3,4(a4)
   104e4:	00842603          	lw	a2,8(s0)
   104e8:	00098513          	mv	a0,s3
   104ec:	0016e693          	or	a3,a3,1
   104f0:	00d72223          	sw	a3,4(a4)
   104f4:	00f62623          	sw	a5,12(a2)
   104f8:	00c7a423          	sw	a2,8(a5)
   104fc:	594000ef          	jal	10a90 <__malloc_unlock>
   10500:	00840513          	add	a0,s0,8
   10504:	e59ff06f          	j	1035c <_malloc_r+0x8c>
   10508:	00c00793          	li	a5,12
   1050c:	00f9a023          	sw	a5,0(s3)
   10510:	00000513          	li	a0,0
   10514:	e49ff06f          	j	1035c <_malloc_r+0x8c>
   10518:	20000613          	li	a2,512
   1051c:	04000593          	li	a1,64
   10520:	03f00813          	li	a6,63
   10524:	e8dff06f          	j	103b0 <_malloc_r+0xe0>
   10528:	00892403          	lw	s0,8(s2)
   1052c:	01612823          	sw	s6,16(sp)
   10530:	00442783          	lw	a5,4(s0)
   10534:	ffc7fb13          	and	s6,a5,-4
   10538:	009b6863          	bltu	s6,s1,10548 <_malloc_r+0x278>
   1053c:	409b0733          	sub	a4,s6,s1
   10540:	00f00793          	li	a5,15
   10544:	0ce7ca63          	blt	a5,a4,10618 <_malloc_r+0x348>
   10548:	01912223          	sw	s9,4(sp)
   1054c:	01512a23          	sw	s5,20(sp)
   10550:	d3c1a703          	lw	a4,-708(gp) # 14554 <__malloc_sbrk_base>
   10554:	d501aa83          	lw	s5,-688(gp) # 14568 <__malloc_top_pad>
   10558:	01412c23          	sw	s4,24(sp)
   1055c:	01712623          	sw	s7,12(sp)
   10560:	fff00793          	li	a5,-1
   10564:	01640a33          	add	s4,s0,s6
   10568:	01548ab3          	add	s5,s1,s5
   1056c:	3cf70663          	beq	a4,a5,10938 <_malloc_r+0x668>
   10570:	000017b7          	lui	a5,0x1
   10574:	00f78793          	add	a5,a5,15 # 100f <exit-0xf091>
   10578:	00fa8ab3          	add	s5,s5,a5
   1057c:	fffff7b7          	lui	a5,0xfffff
   10580:	00fafab3          	and	s5,s5,a5
   10584:	000a8593          	mv	a1,s5
   10588:	00098513          	mv	a0,s3
   1058c:	549000ef          	jal	112d4 <_sbrk_r>
   10590:	fff00793          	li	a5,-1
   10594:	00050b93          	mv	s7,a0
   10598:	44f50a63          	beq	a0,a5,109ec <_malloc_r+0x71c>
   1059c:	01812423          	sw	s8,8(sp)
   105a0:	23456e63          	bltu	a0,s4,107dc <_malloc_r+0x50c>
   105a4:	d8018c13          	add	s8,gp,-640 # 14598 <__malloc_current_mallinfo>
   105a8:	000c2583          	lw	a1,0(s8)
   105ac:	00ba85b3          	add	a1,s5,a1
   105b0:	00bc2023          	sw	a1,0(s8)
   105b4:	00058713          	mv	a4,a1
   105b8:	2aaa1663          	bne	s4,a0,10864 <_malloc_r+0x594>
   105bc:	01451793          	sll	a5,a0,0x14
   105c0:	2a079263          	bnez	a5,10864 <_malloc_r+0x594>
   105c4:	00892b83          	lw	s7,8(s2)
   105c8:	015b07b3          	add	a5,s6,s5
   105cc:	0017e793          	or	a5,a5,1
   105d0:	00fba223          	sw	a5,4(s7)
   105d4:	d4c1a683          	lw	a3,-692(gp) # 14564 <__malloc_max_sbrked_mem>
   105d8:	00b6f463          	bgeu	a3,a1,105e0 <_malloc_r+0x310>
   105dc:	d4b1a623          	sw	a1,-692(gp) # 14564 <__malloc_max_sbrked_mem>
   105e0:	d481a683          	lw	a3,-696(gp) # 14560 <__malloc_max_total_mem>
   105e4:	00b6f463          	bgeu	a3,a1,105ec <_malloc_r+0x31c>
   105e8:	d4b1a423          	sw	a1,-696(gp) # 14560 <__malloc_max_total_mem>
   105ec:	00812c03          	lw	s8,8(sp)
   105f0:	000b8413          	mv	s0,s7
   105f4:	ffc7f793          	and	a5,a5,-4
   105f8:	40978733          	sub	a4,a5,s1
   105fc:	3897ea63          	bltu	a5,s1,10990 <_malloc_r+0x6c0>
   10600:	00f00793          	li	a5,15
   10604:	38e7d663          	bge	a5,a4,10990 <_malloc_r+0x6c0>
   10608:	01812a03          	lw	s4,24(sp)
   1060c:	01412a83          	lw	s5,20(sp)
   10610:	00c12b83          	lw	s7,12(sp)
   10614:	00412c83          	lw	s9,4(sp)
   10618:	0014e793          	or	a5,s1,1
   1061c:	00f42223          	sw	a5,4(s0)
   10620:	009404b3          	add	s1,s0,s1
   10624:	00992423          	sw	s1,8(s2)
   10628:	00176713          	or	a4,a4,1
   1062c:	00098513          	mv	a0,s3
   10630:	00e4a223          	sw	a4,4(s1)
   10634:	45c000ef          	jal	10a90 <__malloc_unlock>
   10638:	02c12083          	lw	ra,44(sp)
   1063c:	00840513          	add	a0,s0,8
   10640:	02812403          	lw	s0,40(sp)
   10644:	01012b03          	lw	s6,16(sp)
   10648:	02412483          	lw	s1,36(sp)
   1064c:	02012903          	lw	s2,32(sp)
   10650:	01c12983          	lw	s3,28(sp)
   10654:	03010113          	add	sp,sp,48
   10658:	00008067          	ret
   1065c:	00492503          	lw	a0,4(s2)
   10660:	e09ff06f          	j	10468 <_malloc_r+0x198>
   10664:	00842603          	lw	a2,8(s0)
   10668:	cd1ff06f          	j	10338 <_malloc_r+0x68>
   1066c:	00c7a403          	lw	s0,12(a5) # fffff00c <__BSS_END__+0xfffea704>
   10670:	00258593          	add	a1,a1,2
   10674:	d88780e3          	beq	a5,s0,103f4 <_malloc_r+0x124>
   10678:	cb1ff06f          	j	10328 <_malloc_r+0x58>
   1067c:	0097d713          	srl	a4,a5,0x9
   10680:	00400693          	li	a3,4
   10684:	14e6f263          	bgeu	a3,a4,107c8 <_malloc_r+0x4f8>
   10688:	01400693          	li	a3,20
   1068c:	32e6e463          	bltu	a3,a4,109b4 <_malloc_r+0x6e4>
   10690:	05c70613          	add	a2,a4,92
   10694:	05b70693          	add	a3,a4,91
   10698:	00361613          	sll	a2,a2,0x3
   1069c:	00c90633          	add	a2,s2,a2
   106a0:	00062703          	lw	a4,0(a2)
   106a4:	ff860613          	add	a2,a2,-8
   106a8:	00e61863          	bne	a2,a4,106b8 <_malloc_r+0x3e8>
   106ac:	2940006f          	j	10940 <_malloc_r+0x670>
   106b0:	00872703          	lw	a4,8(a4)
   106b4:	00e60863          	beq	a2,a4,106c4 <_malloc_r+0x3f4>
   106b8:	00472683          	lw	a3,4(a4)
   106bc:	ffc6f693          	and	a3,a3,-4
   106c0:	fed7e8e3          	bltu	a5,a3,106b0 <_malloc_r+0x3e0>
   106c4:	00c72603          	lw	a2,12(a4)
   106c8:	00c42623          	sw	a2,12(s0)
   106cc:	00e42423          	sw	a4,8(s0)
   106d0:	00862423          	sw	s0,8(a2)
   106d4:	00872623          	sw	s0,12(a4)
   106d8:	d91ff06f          	j	10468 <_malloc_r+0x198>
   106dc:	01400713          	li	a4,20
   106e0:	10f77863          	bgeu	a4,a5,107f0 <_malloc_r+0x520>
   106e4:	05400713          	li	a4,84
   106e8:	2ef76463          	bltu	a4,a5,109d0 <_malloc_r+0x700>
   106ec:	00c4d793          	srl	a5,s1,0xc
   106f0:	06f78593          	add	a1,a5,111
   106f4:	06e78813          	add	a6,a5,110
   106f8:	00359613          	sll	a2,a1,0x3
   106fc:	cb5ff06f          	j	103b0 <_malloc_r+0xe0>
   10700:	001e0e13          	add	t3,t3,1
   10704:	003e7793          	and	a5,t3,3
   10708:	00850513          	add	a0,a0,8
   1070c:	10078063          	beqz	a5,1080c <_malloc_r+0x53c>
   10710:	00c52783          	lw	a5,12(a0)
   10714:	da9ff06f          	j	104bc <_malloc_r+0x1ec>
   10718:	00842603          	lw	a2,8(s0)
   1071c:	0014e593          	or	a1,s1,1
   10720:	00b42223          	sw	a1,4(s0)
   10724:	00f62623          	sw	a5,12(a2)
   10728:	00c7a423          	sw	a2,8(a5)
   1072c:	009404b3          	add	s1,s0,s1
   10730:	00992a23          	sw	s1,20(s2)
   10734:	00992823          	sw	s1,16(s2)
   10738:	0016e793          	or	a5,a3,1
   1073c:	0104a623          	sw	a6,12(s1)
   10740:	0104a423          	sw	a6,8(s1)
   10744:	00f4a223          	sw	a5,4(s1)
   10748:	00e40733          	add	a4,s0,a4
   1074c:	00098513          	mv	a0,s3
   10750:	00d72023          	sw	a3,0(a4)
   10754:	33c000ef          	jal	10a90 <__malloc_unlock>
   10758:	00840513          	add	a0,s0,8
   1075c:	c01ff06f          	j	1035c <_malloc_r+0x8c>
   10760:	00f407b3          	add	a5,s0,a5
   10764:	0047a703          	lw	a4,4(a5)
   10768:	00098513          	mv	a0,s3
   1076c:	00176713          	or	a4,a4,1
   10770:	00e7a223          	sw	a4,4(a5)
   10774:	31c000ef          	jal	10a90 <__malloc_unlock>
   10778:	00840513          	add	a0,s0,8
   1077c:	be1ff06f          	j	1035c <_malloc_r+0x8c>
   10780:	0034d593          	srl	a1,s1,0x3
   10784:	00848793          	add	a5,s1,8
   10788:	b89ff06f          	j	10310 <_malloc_r+0x40>
   1078c:	0014e693          	or	a3,s1,1
   10790:	00d42223          	sw	a3,4(s0)
   10794:	009404b3          	add	s1,s0,s1
   10798:	00992a23          	sw	s1,20(s2)
   1079c:	00992823          	sw	s1,16(s2)
   107a0:	00176693          	or	a3,a4,1
   107a4:	0104a623          	sw	a6,12(s1)
   107a8:	0104a423          	sw	a6,8(s1)
   107ac:	00d4a223          	sw	a3,4(s1)
   107b0:	00f407b3          	add	a5,s0,a5
   107b4:	00098513          	mv	a0,s3
   107b8:	00e7a023          	sw	a4,0(a5)
   107bc:	2d4000ef          	jal	10a90 <__malloc_unlock>
   107c0:	00840513          	add	a0,s0,8
   107c4:	b99ff06f          	j	1035c <_malloc_r+0x8c>
   107c8:	0067d713          	srl	a4,a5,0x6
   107cc:	03970613          	add	a2,a4,57
   107d0:	03870693          	add	a3,a4,56
   107d4:	00361613          	sll	a2,a2,0x3
   107d8:	ec5ff06f          	j	1069c <_malloc_r+0x3cc>
   107dc:	07240c63          	beq	s0,s2,10854 <_malloc_r+0x584>
   107e0:	00892403          	lw	s0,8(s2)
   107e4:	00812c03          	lw	s8,8(sp)
   107e8:	00442783          	lw	a5,4(s0)
   107ec:	e09ff06f          	j	105f4 <_malloc_r+0x324>
   107f0:	05c78593          	add	a1,a5,92
   107f4:	05b78813          	add	a6,a5,91
   107f8:	00359613          	sll	a2,a1,0x3
   107fc:	bb5ff06f          	j	103b0 <_malloc_r+0xe0>
   10800:	00832783          	lw	a5,8(t1) # 10218 <frame_dummy+0x1c>
   10804:	fff58593          	add	a1,a1,-1
   10808:	26679e63          	bne	a5,t1,10a84 <_malloc_r+0x7b4>
   1080c:	0035f793          	and	a5,a1,3
   10810:	ff830313          	add	t1,t1,-8
   10814:	fe0796e3          	bnez	a5,10800 <_malloc_r+0x530>
   10818:	00492703          	lw	a4,4(s2)
   1081c:	fff64793          	not	a5,a2
   10820:	00e7f7b3          	and	a5,a5,a4
   10824:	00f92223          	sw	a5,4(s2)
   10828:	00161613          	sll	a2,a2,0x1
   1082c:	cec7eee3          	bltu	a5,a2,10528 <_malloc_r+0x258>
   10830:	ce060ce3          	beqz	a2,10528 <_malloc_r+0x258>
   10834:	00f67733          	and	a4,a2,a5
   10838:	00071a63          	bnez	a4,1084c <_malloc_r+0x57c>
   1083c:	00161613          	sll	a2,a2,0x1
   10840:	00f67733          	and	a4,a2,a5
   10844:	004e0e13          	add	t3,t3,4
   10848:	fe070ae3          	beqz	a4,1083c <_malloc_r+0x56c>
   1084c:	000e0593          	mv	a1,t3
   10850:	c59ff06f          	j	104a8 <_malloc_r+0x1d8>
   10854:	d8018c13          	add	s8,gp,-640 # 14598 <__malloc_current_mallinfo>
   10858:	000c2703          	lw	a4,0(s8)
   1085c:	00ea8733          	add	a4,s5,a4
   10860:	00ec2023          	sw	a4,0(s8)
   10864:	d3c1a683          	lw	a3,-708(gp) # 14554 <__malloc_sbrk_base>
   10868:	fff00793          	li	a5,-1
   1086c:	18f68663          	beq	a3,a5,109f8 <_malloc_r+0x728>
   10870:	414b87b3          	sub	a5,s7,s4
   10874:	00e787b3          	add	a5,a5,a4
   10878:	00fc2023          	sw	a5,0(s8)
   1087c:	007bfc93          	and	s9,s7,7
   10880:	0c0c8c63          	beqz	s9,10958 <_malloc_r+0x688>
   10884:	419b8bb3          	sub	s7,s7,s9
   10888:	000017b7          	lui	a5,0x1
   1088c:	00878793          	add	a5,a5,8 # 1008 <exit-0xf098>
   10890:	008b8b93          	add	s7,s7,8
   10894:	419785b3          	sub	a1,a5,s9
   10898:	015b8ab3          	add	s5,s7,s5
   1089c:	415585b3          	sub	a1,a1,s5
   108a0:	01459593          	sll	a1,a1,0x14
   108a4:	0145da13          	srl	s4,a1,0x14
   108a8:	000a0593          	mv	a1,s4
   108ac:	00098513          	mv	a0,s3
   108b0:	225000ef          	jal	112d4 <_sbrk_r>
   108b4:	fff00793          	li	a5,-1
   108b8:	18f50063          	beq	a0,a5,10a38 <_malloc_r+0x768>
   108bc:	41750533          	sub	a0,a0,s7
   108c0:	01450ab3          	add	s5,a0,s4
   108c4:	000c2703          	lw	a4,0(s8)
   108c8:	01792423          	sw	s7,8(s2)
   108cc:	001ae793          	or	a5,s5,1
   108d0:	00ea05b3          	add	a1,s4,a4
   108d4:	00bc2023          	sw	a1,0(s8)
   108d8:	00fba223          	sw	a5,4(s7)
   108dc:	cf240ce3          	beq	s0,s2,105d4 <_malloc_r+0x304>
   108e0:	00f00693          	li	a3,15
   108e4:	0b66f063          	bgeu	a3,s6,10984 <_malloc_r+0x6b4>
   108e8:	00442703          	lw	a4,4(s0)
   108ec:	ff4b0793          	add	a5,s6,-12
   108f0:	ff87f793          	and	a5,a5,-8
   108f4:	00177713          	and	a4,a4,1
   108f8:	00f76733          	or	a4,a4,a5
   108fc:	00e42223          	sw	a4,4(s0)
   10900:	00500613          	li	a2,5
   10904:	00f40733          	add	a4,s0,a5
   10908:	00c72223          	sw	a2,4(a4)
   1090c:	00c72423          	sw	a2,8(a4)
   10910:	00f6e663          	bltu	a3,a5,1091c <_malloc_r+0x64c>
   10914:	004ba783          	lw	a5,4(s7)
   10918:	cbdff06f          	j	105d4 <_malloc_r+0x304>
   1091c:	00840593          	add	a1,s0,8
   10920:	00098513          	mv	a0,s3
   10924:	6f9000ef          	jal	1181c <_free_r>
   10928:	00892b83          	lw	s7,8(s2)
   1092c:	000c2583          	lw	a1,0(s8)
   10930:	004ba783          	lw	a5,4(s7)
   10934:	ca1ff06f          	j	105d4 <_malloc_r+0x304>
   10938:	010a8a93          	add	s5,s5,16
   1093c:	c49ff06f          	j	10584 <_malloc_r+0x2b4>
   10940:	4026d693          	sra	a3,a3,0x2
   10944:	00100793          	li	a5,1
   10948:	00d797b3          	sll	a5,a5,a3
   1094c:	00f56533          	or	a0,a0,a5
   10950:	00a92223          	sw	a0,4(s2)
   10954:	d75ff06f          	j	106c8 <_malloc_r+0x3f8>
   10958:	015b85b3          	add	a1,s7,s5
   1095c:	40b005b3          	neg	a1,a1
   10960:	01459593          	sll	a1,a1,0x14
   10964:	0145da13          	srl	s4,a1,0x14
   10968:	000a0593          	mv	a1,s4
   1096c:	00098513          	mv	a0,s3
   10970:	165000ef          	jal	112d4 <_sbrk_r>
   10974:	fff00793          	li	a5,-1
   10978:	f4f512e3          	bne	a0,a5,108bc <_malloc_r+0x5ec>
   1097c:	00000a13          	li	s4,0
   10980:	f45ff06f          	j	108c4 <_malloc_r+0x5f4>
   10984:	00812c03          	lw	s8,8(sp)
   10988:	00100793          	li	a5,1
   1098c:	00fba223          	sw	a5,4(s7)
   10990:	00098513          	mv	a0,s3
   10994:	0fc000ef          	jal	10a90 <__malloc_unlock>
   10998:	00000513          	li	a0,0
   1099c:	01812a03          	lw	s4,24(sp)
   109a0:	01412a83          	lw	s5,20(sp)
   109a4:	01012b03          	lw	s6,16(sp)
   109a8:	00c12b83          	lw	s7,12(sp)
   109ac:	00412c83          	lw	s9,4(sp)
   109b0:	9adff06f          	j	1035c <_malloc_r+0x8c>
   109b4:	05400693          	li	a3,84
   109b8:	04e6e463          	bltu	a3,a4,10a00 <_malloc_r+0x730>
   109bc:	00c7d713          	srl	a4,a5,0xc
   109c0:	06f70613          	add	a2,a4,111
   109c4:	06e70693          	add	a3,a4,110
   109c8:	00361613          	sll	a2,a2,0x3
   109cc:	cd1ff06f          	j	1069c <_malloc_r+0x3cc>
   109d0:	15400713          	li	a4,340
   109d4:	04f76463          	bltu	a4,a5,10a1c <_malloc_r+0x74c>
   109d8:	00f4d793          	srl	a5,s1,0xf
   109dc:	07878593          	add	a1,a5,120
   109e0:	07778813          	add	a6,a5,119
   109e4:	00359613          	sll	a2,a1,0x3
   109e8:	9c9ff06f          	j	103b0 <_malloc_r+0xe0>
   109ec:	00892403          	lw	s0,8(s2)
   109f0:	00442783          	lw	a5,4(s0)
   109f4:	c01ff06f          	j	105f4 <_malloc_r+0x324>
   109f8:	d371ae23          	sw	s7,-708(gp) # 14554 <__malloc_sbrk_base>
   109fc:	e81ff06f          	j	1087c <_malloc_r+0x5ac>
   10a00:	15400693          	li	a3,340
   10a04:	04e6e463          	bltu	a3,a4,10a4c <_malloc_r+0x77c>
   10a08:	00f7d713          	srl	a4,a5,0xf
   10a0c:	07870613          	add	a2,a4,120
   10a10:	07770693          	add	a3,a4,119
   10a14:	00361613          	sll	a2,a2,0x3
   10a18:	c85ff06f          	j	1069c <_malloc_r+0x3cc>
   10a1c:	55400713          	li	a4,1364
   10a20:	04f76463          	bltu	a4,a5,10a68 <_malloc_r+0x798>
   10a24:	0124d793          	srl	a5,s1,0x12
   10a28:	07d78593          	add	a1,a5,125
   10a2c:	07c78813          	add	a6,a5,124
   10a30:	00359613          	sll	a2,a1,0x3
   10a34:	97dff06f          	j	103b0 <_malloc_r+0xe0>
   10a38:	ff8c8c93          	add	s9,s9,-8
   10a3c:	019a8ab3          	add	s5,s5,s9
   10a40:	417a8ab3          	sub	s5,s5,s7
   10a44:	00000a13          	li	s4,0
   10a48:	e7dff06f          	j	108c4 <_malloc_r+0x5f4>
   10a4c:	55400693          	li	a3,1364
   10a50:	02e6e463          	bltu	a3,a4,10a78 <_malloc_r+0x7a8>
   10a54:	0127d713          	srl	a4,a5,0x12
   10a58:	07d70613          	add	a2,a4,125
   10a5c:	07c70693          	add	a3,a4,124
   10a60:	00361613          	sll	a2,a2,0x3
   10a64:	c39ff06f          	j	1069c <_malloc_r+0x3cc>
   10a68:	3f800613          	li	a2,1016
   10a6c:	07f00593          	li	a1,127
   10a70:	07e00813          	li	a6,126
   10a74:	93dff06f          	j	103b0 <_malloc_r+0xe0>
   10a78:	3f800613          	li	a2,1016
   10a7c:	07e00693          	li	a3,126
   10a80:	c1dff06f          	j	1069c <_malloc_r+0x3cc>
   10a84:	00492783          	lw	a5,4(s2)
   10a88:	da1ff06f          	j	10828 <_malloc_r+0x558>

00010a8c <__malloc_lock>:
   10a8c:	00008067          	ret

00010a90 <__malloc_unlock>:
   10a90:	00008067          	ret

00010a94 <__fp_lock>:
   10a94:	00000513          	li	a0,0
   10a98:	00008067          	ret

00010a9c <stdio_exit_handler>:
   10a9c:	000125b7          	lui	a1,0x12
   10aa0:	c0818613          	add	a2,gp,-1016 # 14420 <__sglue>
   10aa4:	b2058593          	add	a1,a1,-1248 # 11b20 <_fclose_r>
   10aa8:	c1818513          	add	a0,gp,-1000 # 14430 <_impure_data>
   10aac:	33c0006f          	j	10de8 <_fwalk_sglue>

00010ab0 <cleanup_stdio>:
   10ab0:	00452583          	lw	a1,4(a0)
   10ab4:	ff010113          	add	sp,sp,-16
   10ab8:	00812423          	sw	s0,8(sp)
   10abc:	00112623          	sw	ra,12(sp)
   10ac0:	da818793          	add	a5,gp,-600 # 145c0 <__sf>
   10ac4:	00050413          	mv	s0,a0
   10ac8:	00f58463          	beq	a1,a5,10ad0 <cleanup_stdio+0x20>
   10acc:	054010ef          	jal	11b20 <_fclose_r>
   10ad0:	00842583          	lw	a1,8(s0)
   10ad4:	e1018793          	add	a5,gp,-496 # 14628 <__sf+0x68>
   10ad8:	00f58663          	beq	a1,a5,10ae4 <cleanup_stdio+0x34>
   10adc:	00040513          	mv	a0,s0
   10ae0:	040010ef          	jal	11b20 <_fclose_r>
   10ae4:	00c42583          	lw	a1,12(s0)
   10ae8:	e7818793          	add	a5,gp,-392 # 14690 <__sf+0xd0>
   10aec:	00f58c63          	beq	a1,a5,10b04 <cleanup_stdio+0x54>
   10af0:	00040513          	mv	a0,s0
   10af4:	00812403          	lw	s0,8(sp)
   10af8:	00c12083          	lw	ra,12(sp)
   10afc:	01010113          	add	sp,sp,16
   10b00:	0200106f          	j	11b20 <_fclose_r>
   10b04:	00c12083          	lw	ra,12(sp)
   10b08:	00812403          	lw	s0,8(sp)
   10b0c:	01010113          	add	sp,sp,16
   10b10:	00008067          	ret

00010b14 <__fp_unlock>:
   10b14:	00000513          	li	a0,0
   10b18:	00008067          	ret

00010b1c <global_stdio_init.part.0>:
   10b1c:	fe010113          	add	sp,sp,-32
   10b20:	000117b7          	lui	a5,0x11
   10b24:	00812c23          	sw	s0,24(sp)
   10b28:	a9c78793          	add	a5,a5,-1380 # 10a9c <stdio_exit_handler>
   10b2c:	da818413          	add	s0,gp,-600 # 145c0 <__sf>
   10b30:	00112e23          	sw	ra,28(sp)
   10b34:	00912a23          	sw	s1,20(sp)
   10b38:	01212823          	sw	s2,16(sp)
   10b3c:	01312623          	sw	s3,12(sp)
   10b40:	01412423          	sw	s4,8(sp)
   10b44:	d4f1aa23          	sw	a5,-684(gp) # 1456c <__stdio_exit_handler>
   10b48:	00800613          	li	a2,8
   10b4c:	00400793          	li	a5,4
   10b50:	00000593          	li	a1,0
   10b54:	e0418513          	add	a0,gp,-508 # 1461c <__sf+0x5c>
   10b58:	00f42623          	sw	a5,12(s0)
   10b5c:	00042023          	sw	zero,0(s0)
   10b60:	00042223          	sw	zero,4(s0)
   10b64:	00042423          	sw	zero,8(s0)
   10b68:	06042223          	sw	zero,100(s0)
   10b6c:	00042823          	sw	zero,16(s0)
   10b70:	00042a23          	sw	zero,20(s0)
   10b74:	00042c23          	sw	zero,24(s0)
   10b78:	0bd000ef          	jal	11434 <memset>
   10b7c:	000107b7          	lui	a5,0x10
   10b80:	00011a37          	lui	s4,0x11
   10b84:	000119b7          	lui	s3,0x11
   10b88:	00011937          	lui	s2,0x11
   10b8c:	000114b7          	lui	s1,0x11
   10b90:	f78a0a13          	add	s4,s4,-136 # 10f78 <__sread>
   10b94:	fdc98993          	add	s3,s3,-36 # 10fdc <__swrite>
   10b98:	06490913          	add	s2,s2,100 # 11064 <__sseek>
   10b9c:	0dc48493          	add	s1,s1,220 # 110dc <__sclose>
   10ba0:	00978793          	add	a5,a5,9 # 10009 <exit-0x97>
   10ba4:	00800613          	li	a2,8
   10ba8:	00000593          	li	a1,0
   10bac:	e6c18513          	add	a0,gp,-404 # 14684 <__sf+0xc4>
   10bb0:	03442023          	sw	s4,32(s0)
   10bb4:	03342223          	sw	s3,36(s0)
   10bb8:	03242423          	sw	s2,40(s0)
   10bbc:	02942623          	sw	s1,44(s0)
   10bc0:	06f42a23          	sw	a5,116(s0)
   10bc4:	00842e23          	sw	s0,28(s0)
   10bc8:	06042423          	sw	zero,104(s0)
   10bcc:	06042623          	sw	zero,108(s0)
   10bd0:	06042823          	sw	zero,112(s0)
   10bd4:	0c042623          	sw	zero,204(s0)
   10bd8:	06042c23          	sw	zero,120(s0)
   10bdc:	06042e23          	sw	zero,124(s0)
   10be0:	08042023          	sw	zero,128(s0)
   10be4:	051000ef          	jal	11434 <memset>
   10be8:	000207b7          	lui	a5,0x20
   10bec:	01278793          	add	a5,a5,18 # 20012 <__BSS_END__+0xb70a>
   10bf0:	e1018713          	add	a4,gp,-496 # 14628 <__sf+0x68>
   10bf4:	00800613          	li	a2,8
   10bf8:	00000593          	li	a1,0
   10bfc:	ed418513          	add	a0,gp,-300 # 146ec <__sf+0x12c>
   10c00:	09442423          	sw	s4,136(s0)
   10c04:	09342623          	sw	s3,140(s0)
   10c08:	09242823          	sw	s2,144(s0)
   10c0c:	08942a23          	sw	s1,148(s0)
   10c10:	0cf42e23          	sw	a5,220(s0)
   10c14:	08e42223          	sw	a4,132(s0)
   10c18:	0c042823          	sw	zero,208(s0)
   10c1c:	0c042a23          	sw	zero,212(s0)
   10c20:	0c042c23          	sw	zero,216(s0)
   10c24:	12042a23          	sw	zero,308(s0)
   10c28:	0e042023          	sw	zero,224(s0)
   10c2c:	0e042223          	sw	zero,228(s0)
   10c30:	0e042423          	sw	zero,232(s0)
   10c34:	001000ef          	jal	11434 <memset>
   10c38:	e7818793          	add	a5,gp,-392 # 14690 <__sf+0xd0>
   10c3c:	0f442823          	sw	s4,240(s0)
   10c40:	0f342a23          	sw	s3,244(s0)
   10c44:	0f242c23          	sw	s2,248(s0)
   10c48:	0e942e23          	sw	s1,252(s0)
   10c4c:	01c12083          	lw	ra,28(sp)
   10c50:	0ef42623          	sw	a5,236(s0)
   10c54:	01812403          	lw	s0,24(sp)
   10c58:	01412483          	lw	s1,20(sp)
   10c5c:	01012903          	lw	s2,16(sp)
   10c60:	00c12983          	lw	s3,12(sp)
   10c64:	00812a03          	lw	s4,8(sp)
   10c68:	02010113          	add	sp,sp,32
   10c6c:	00008067          	ret

00010c70 <__sfp>:
   10c70:	d541a783          	lw	a5,-684(gp) # 1456c <__stdio_exit_handler>
   10c74:	fe010113          	add	sp,sp,-32
   10c78:	01312623          	sw	s3,12(sp)
   10c7c:	00112e23          	sw	ra,28(sp)
   10c80:	00812c23          	sw	s0,24(sp)
   10c84:	00912a23          	sw	s1,20(sp)
   10c88:	01212823          	sw	s2,16(sp)
   10c8c:	00050993          	mv	s3,a0
   10c90:	0e078663          	beqz	a5,10d7c <__sfp+0x10c>
   10c94:	c0818913          	add	s2,gp,-1016 # 14420 <__sglue>
   10c98:	fff00493          	li	s1,-1
   10c9c:	00492783          	lw	a5,4(s2)
   10ca0:	00892403          	lw	s0,8(s2)
   10ca4:	fff78793          	add	a5,a5,-1
   10ca8:	0007d863          	bgez	a5,10cb8 <__sfp+0x48>
   10cac:	0800006f          	j	10d2c <__sfp+0xbc>
   10cb0:	06840413          	add	s0,s0,104
   10cb4:	06978c63          	beq	a5,s1,10d2c <__sfp+0xbc>
   10cb8:	00c41703          	lh	a4,12(s0)
   10cbc:	fff78793          	add	a5,a5,-1
   10cc0:	fe0718e3          	bnez	a4,10cb0 <__sfp+0x40>
   10cc4:	ffff07b7          	lui	a5,0xffff0
   10cc8:	00178793          	add	a5,a5,1 # ffff0001 <__BSS_END__+0xfffdb6f9>
   10ccc:	00f42623          	sw	a5,12(s0)
   10cd0:	06042223          	sw	zero,100(s0)
   10cd4:	00042023          	sw	zero,0(s0)
   10cd8:	00042423          	sw	zero,8(s0)
   10cdc:	00042223          	sw	zero,4(s0)
   10ce0:	00042823          	sw	zero,16(s0)
   10ce4:	00042a23          	sw	zero,20(s0)
   10ce8:	00042c23          	sw	zero,24(s0)
   10cec:	00800613          	li	a2,8
   10cf0:	00000593          	li	a1,0
   10cf4:	05c40513          	add	a0,s0,92
   10cf8:	73c000ef          	jal	11434 <memset>
   10cfc:	02042823          	sw	zero,48(s0)
   10d00:	02042a23          	sw	zero,52(s0)
   10d04:	04042223          	sw	zero,68(s0)
   10d08:	04042423          	sw	zero,72(s0)
   10d0c:	01c12083          	lw	ra,28(sp)
   10d10:	00040513          	mv	a0,s0
   10d14:	01812403          	lw	s0,24(sp)
   10d18:	01412483          	lw	s1,20(sp)
   10d1c:	01012903          	lw	s2,16(sp)
   10d20:	00c12983          	lw	s3,12(sp)
   10d24:	02010113          	add	sp,sp,32
   10d28:	00008067          	ret
   10d2c:	00092403          	lw	s0,0(s2)
   10d30:	00040663          	beqz	s0,10d3c <__sfp+0xcc>
   10d34:	00040913          	mv	s2,s0
   10d38:	f65ff06f          	j	10c9c <__sfp+0x2c>
   10d3c:	1ac00593          	li	a1,428
   10d40:	00098513          	mv	a0,s3
   10d44:	d8cff0ef          	jal	102d0 <_malloc_r>
   10d48:	00050413          	mv	s0,a0
   10d4c:	02050c63          	beqz	a0,10d84 <__sfp+0x114>
   10d50:	00c50513          	add	a0,a0,12
   10d54:	00400793          	li	a5,4
   10d58:	00042023          	sw	zero,0(s0)
   10d5c:	00f42223          	sw	a5,4(s0)
   10d60:	00a42423          	sw	a0,8(s0)
   10d64:	1a000613          	li	a2,416
   10d68:	00000593          	li	a1,0
   10d6c:	6c8000ef          	jal	11434 <memset>
   10d70:	00892023          	sw	s0,0(s2)
   10d74:	00040913          	mv	s2,s0
   10d78:	f25ff06f          	j	10c9c <__sfp+0x2c>
   10d7c:	da1ff0ef          	jal	10b1c <global_stdio_init.part.0>
   10d80:	f15ff06f          	j	10c94 <__sfp+0x24>
   10d84:	00092023          	sw	zero,0(s2)
   10d88:	00c00793          	li	a5,12
   10d8c:	00f9a023          	sw	a5,0(s3)
   10d90:	f7dff06f          	j	10d0c <__sfp+0x9c>

00010d94 <__sinit>:
   10d94:	03452783          	lw	a5,52(a0)
   10d98:	00078463          	beqz	a5,10da0 <__sinit+0xc>
   10d9c:	00008067          	ret
   10da0:	d541a703          	lw	a4,-684(gp) # 1456c <__stdio_exit_handler>
   10da4:	000117b7          	lui	a5,0x11
   10da8:	ab078793          	add	a5,a5,-1360 # 10ab0 <cleanup_stdio>
   10dac:	02f52a23          	sw	a5,52(a0)
   10db0:	fe0716e3          	bnez	a4,10d9c <__sinit+0x8>
   10db4:	d69ff06f          	j	10b1c <global_stdio_init.part.0>

00010db8 <__sfp_lock_acquire>:
   10db8:	00008067          	ret

00010dbc <__sfp_lock_release>:
   10dbc:	00008067          	ret

00010dc0 <__fp_lock_all>:
   10dc0:	000115b7          	lui	a1,0x11
   10dc4:	c0818613          	add	a2,gp,-1016 # 14420 <__sglue>
   10dc8:	a9458593          	add	a1,a1,-1388 # 10a94 <__fp_lock>
   10dcc:	00000513          	li	a0,0
   10dd0:	0180006f          	j	10de8 <_fwalk_sglue>

00010dd4 <__fp_unlock_all>:
   10dd4:	000115b7          	lui	a1,0x11
   10dd8:	c0818613          	add	a2,gp,-1016 # 14420 <__sglue>
   10ddc:	b1458593          	add	a1,a1,-1260 # 10b14 <__fp_unlock>
   10de0:	00000513          	li	a0,0
   10de4:	0040006f          	j	10de8 <_fwalk_sglue>

00010de8 <_fwalk_sglue>:
   10de8:	fd010113          	add	sp,sp,-48
   10dec:	03212023          	sw	s2,32(sp)
   10df0:	01312e23          	sw	s3,28(sp)
   10df4:	01412c23          	sw	s4,24(sp)
   10df8:	01512a23          	sw	s5,20(sp)
   10dfc:	01612823          	sw	s6,16(sp)
   10e00:	01712623          	sw	s7,12(sp)
   10e04:	02112623          	sw	ra,44(sp)
   10e08:	02812423          	sw	s0,40(sp)
   10e0c:	02912223          	sw	s1,36(sp)
   10e10:	00050b13          	mv	s6,a0
   10e14:	00058b93          	mv	s7,a1
   10e18:	00060a93          	mv	s5,a2
   10e1c:	00000a13          	li	s4,0
   10e20:	00100993          	li	s3,1
   10e24:	fff00913          	li	s2,-1
   10e28:	004aa483          	lw	s1,4(s5)
   10e2c:	008aa403          	lw	s0,8(s5)
   10e30:	fff48493          	add	s1,s1,-1
   10e34:	0204c863          	bltz	s1,10e64 <_fwalk_sglue+0x7c>
   10e38:	00c45783          	lhu	a5,12(s0)
   10e3c:	00f9fe63          	bgeu	s3,a5,10e58 <_fwalk_sglue+0x70>
   10e40:	00e41783          	lh	a5,14(s0)
   10e44:	00040593          	mv	a1,s0
   10e48:	000b0513          	mv	a0,s6
   10e4c:	01278663          	beq	a5,s2,10e58 <_fwalk_sglue+0x70>
   10e50:	000b80e7          	jalr	s7
   10e54:	00aa6a33          	or	s4,s4,a0
   10e58:	fff48493          	add	s1,s1,-1
   10e5c:	06840413          	add	s0,s0,104
   10e60:	fd249ce3          	bne	s1,s2,10e38 <_fwalk_sglue+0x50>
   10e64:	000aaa83          	lw	s5,0(s5)
   10e68:	fc0a90e3          	bnez	s5,10e28 <_fwalk_sglue+0x40>
   10e6c:	02c12083          	lw	ra,44(sp)
   10e70:	02812403          	lw	s0,40(sp)
   10e74:	02412483          	lw	s1,36(sp)
   10e78:	02012903          	lw	s2,32(sp)
   10e7c:	01c12983          	lw	s3,28(sp)
   10e80:	01412a83          	lw	s5,20(sp)
   10e84:	01012b03          	lw	s6,16(sp)
   10e88:	00c12b83          	lw	s7,12(sp)
   10e8c:	000a0513          	mv	a0,s4
   10e90:	01812a03          	lw	s4,24(sp)
   10e94:	03010113          	add	sp,sp,48
   10e98:	00008067          	ret

00010e9c <_puts_r>:
   10e9c:	fc010113          	add	sp,sp,-64
   10ea0:	02812c23          	sw	s0,56(sp)
   10ea4:	00050413          	mv	s0,a0
   10ea8:	00058513          	mv	a0,a1
   10eac:	02912a23          	sw	s1,52(sp)
   10eb0:	02112e23          	sw	ra,60(sp)
   10eb4:	00058493          	mv	s1,a1
   10eb8:	658000ef          	jal	11510 <strlen>
   10ebc:	000147b7          	lui	a5,0x14
   10ec0:	a9078793          	add	a5,a5,-1392 # 13a90 <__modsi3+0x88>
   10ec4:	02f12423          	sw	a5,40(sp)
   10ec8:	00100793          	li	a5,1
   10ecc:	02f12623          	sw	a5,44(sp)
   10ed0:	03442703          	lw	a4,52(s0)
   10ed4:	02010793          	add	a5,sp,32
   10ed8:	00150693          	add	a3,a0,1
   10edc:	00f12a23          	sw	a5,20(sp)
   10ee0:	00200793          	li	a5,2
   10ee4:	02912023          	sw	s1,32(sp)
   10ee8:	02a12223          	sw	a0,36(sp)
   10eec:	00d12e23          	sw	a3,28(sp)
   10ef0:	00f12c23          	sw	a5,24(sp)
   10ef4:	00842583          	lw	a1,8(s0)
   10ef8:	06070063          	beqz	a4,10f58 <_puts_r+0xbc>
   10efc:	00c59783          	lh	a5,12(a1)
   10f00:	01279713          	sll	a4,a5,0x12
   10f04:	02074263          	bltz	a4,10f28 <_puts_r+0x8c>
   10f08:	0645a703          	lw	a4,100(a1)
   10f0c:	ffffe6b7          	lui	a3,0xffffe
   10f10:	fff68693          	add	a3,a3,-1 # ffffdfff <__BSS_END__+0xfffe96f7>
   10f14:	00002637          	lui	a2,0x2
   10f18:	00c7e7b3          	or	a5,a5,a2
   10f1c:	00d77733          	and	a4,a4,a3
   10f20:	00f59623          	sh	a5,12(a1)
   10f24:	06e5a223          	sw	a4,100(a1)
   10f28:	01410613          	add	a2,sp,20
   10f2c:	00040513          	mv	a0,s0
   10f30:	02c010ef          	jal	11f5c <__sfvwrite_r>
   10f34:	03c12083          	lw	ra,60(sp)
   10f38:	03812403          	lw	s0,56(sp)
   10f3c:	00153513          	seqz	a0,a0
   10f40:	40a00533          	neg	a0,a0
   10f44:	00b57513          	and	a0,a0,11
   10f48:	03412483          	lw	s1,52(sp)
   10f4c:	fff50513          	add	a0,a0,-1
   10f50:	04010113          	add	sp,sp,64
   10f54:	00008067          	ret
   10f58:	00040513          	mv	a0,s0
   10f5c:	00b12623          	sw	a1,12(sp)
   10f60:	e35ff0ef          	jal	10d94 <__sinit>
   10f64:	00c12583          	lw	a1,12(sp)
   10f68:	f95ff06f          	j	10efc <_puts_r+0x60>

00010f6c <puts>:
   10f6c:	00050593          	mv	a1,a0
   10f70:	d441a503          	lw	a0,-700(gp) # 1455c <_impure_ptr>
   10f74:	f29ff06f          	j	10e9c <_puts_r>

00010f78 <__sread>:
   10f78:	ff010113          	add	sp,sp,-16
   10f7c:	00812423          	sw	s0,8(sp)
   10f80:	00058413          	mv	s0,a1
   10f84:	00e59583          	lh	a1,14(a1)
   10f88:	00112623          	sw	ra,12(sp)
   10f8c:	2e0000ef          	jal	1126c <_read_r>
   10f90:	02054063          	bltz	a0,10fb0 <__sread+0x38>
   10f94:	05042783          	lw	a5,80(s0)
   10f98:	00c12083          	lw	ra,12(sp)
   10f9c:	00a787b3          	add	a5,a5,a0
   10fa0:	04f42823          	sw	a5,80(s0)
   10fa4:	00812403          	lw	s0,8(sp)
   10fa8:	01010113          	add	sp,sp,16
   10fac:	00008067          	ret
   10fb0:	00c45783          	lhu	a5,12(s0)
   10fb4:	fffff737          	lui	a4,0xfffff
   10fb8:	fff70713          	add	a4,a4,-1 # ffffefff <__BSS_END__+0xfffea6f7>
   10fbc:	00e7f7b3          	and	a5,a5,a4
   10fc0:	00c12083          	lw	ra,12(sp)
   10fc4:	00f41623          	sh	a5,12(s0)
   10fc8:	00812403          	lw	s0,8(sp)
   10fcc:	01010113          	add	sp,sp,16
   10fd0:	00008067          	ret

00010fd4 <__seofread>:
   10fd4:	00000513          	li	a0,0
   10fd8:	00008067          	ret

00010fdc <__swrite>:
   10fdc:	00c59783          	lh	a5,12(a1)
   10fe0:	fe010113          	add	sp,sp,-32
   10fe4:	00812c23          	sw	s0,24(sp)
   10fe8:	00912a23          	sw	s1,20(sp)
   10fec:	01212823          	sw	s2,16(sp)
   10ff0:	01312623          	sw	s3,12(sp)
   10ff4:	00112e23          	sw	ra,28(sp)
   10ff8:	1007f713          	and	a4,a5,256
   10ffc:	00058413          	mv	s0,a1
   11000:	00050493          	mv	s1,a0
   11004:	00060913          	mv	s2,a2
   11008:	00068993          	mv	s3,a3
   1100c:	04071063          	bnez	a4,1104c <__swrite+0x70>
   11010:	fffff737          	lui	a4,0xfffff
   11014:	fff70713          	add	a4,a4,-1 # ffffefff <__BSS_END__+0xfffea6f7>
   11018:	00e7f7b3          	and	a5,a5,a4
   1101c:	00e41583          	lh	a1,14(s0)
   11020:	00f41623          	sh	a5,12(s0)
   11024:	01812403          	lw	s0,24(sp)
   11028:	01c12083          	lw	ra,28(sp)
   1102c:	00098693          	mv	a3,s3
   11030:	00090613          	mv	a2,s2
   11034:	00c12983          	lw	s3,12(sp)
   11038:	01012903          	lw	s2,16(sp)
   1103c:	00048513          	mv	a0,s1
   11040:	01412483          	lw	s1,20(sp)
   11044:	02010113          	add	sp,sp,32
   11048:	2e80006f          	j	11330 <_write_r>
   1104c:	00e59583          	lh	a1,14(a1)
   11050:	00200693          	li	a3,2
   11054:	00000613          	li	a2,0
   11058:	1ac000ef          	jal	11204 <_lseek_r>
   1105c:	00c41783          	lh	a5,12(s0)
   11060:	fb1ff06f          	j	11010 <__swrite+0x34>

00011064 <__sseek>:
   11064:	ff010113          	add	sp,sp,-16
   11068:	00812423          	sw	s0,8(sp)
   1106c:	00058413          	mv	s0,a1
   11070:	00e59583          	lh	a1,14(a1)
   11074:	00112623          	sw	ra,12(sp)
   11078:	18c000ef          	jal	11204 <_lseek_r>
   1107c:	fff00793          	li	a5,-1
   11080:	02f50863          	beq	a0,a5,110b0 <__sseek+0x4c>
   11084:	00c45783          	lhu	a5,12(s0)
   11088:	00001737          	lui	a4,0x1
   1108c:	00c12083          	lw	ra,12(sp)
   11090:	00e7e7b3          	or	a5,a5,a4
   11094:	01079793          	sll	a5,a5,0x10
   11098:	4107d793          	sra	a5,a5,0x10
   1109c:	04a42823          	sw	a0,80(s0)
   110a0:	00f41623          	sh	a5,12(s0)
   110a4:	00812403          	lw	s0,8(sp)
   110a8:	01010113          	add	sp,sp,16
   110ac:	00008067          	ret
   110b0:	00c45783          	lhu	a5,12(s0)
   110b4:	fffff737          	lui	a4,0xfffff
   110b8:	fff70713          	add	a4,a4,-1 # ffffefff <__BSS_END__+0xfffea6f7>
   110bc:	00e7f7b3          	and	a5,a5,a4
   110c0:	01079793          	sll	a5,a5,0x10
   110c4:	4107d793          	sra	a5,a5,0x10
   110c8:	00c12083          	lw	ra,12(sp)
   110cc:	00f41623          	sh	a5,12(s0)
   110d0:	00812403          	lw	s0,8(sp)
   110d4:	01010113          	add	sp,sp,16
   110d8:	00008067          	ret

000110dc <__sclose>:
   110dc:	00e59583          	lh	a1,14(a1)
   110e0:	0040006f          	j	110e4 <_close_r>

000110e4 <_close_r>:
   110e4:	ff010113          	add	sp,sp,-16
   110e8:	00812423          	sw	s0,8(sp)
   110ec:	00912223          	sw	s1,4(sp)
   110f0:	00050413          	mv	s0,a0
   110f4:	00058513          	mv	a0,a1
   110f8:	00112623          	sw	ra,12(sp)
   110fc:	d401ac23          	sw	zero,-680(gp) # 14570 <errno>
   11100:	1c0020ef          	jal	132c0 <_close>
   11104:	fff00793          	li	a5,-1
   11108:	00f50c63          	beq	a0,a5,11120 <_close_r+0x3c>
   1110c:	00c12083          	lw	ra,12(sp)
   11110:	00812403          	lw	s0,8(sp)
   11114:	00412483          	lw	s1,4(sp)
   11118:	01010113          	add	sp,sp,16
   1111c:	00008067          	ret
   11120:	d581a783          	lw	a5,-680(gp) # 14570 <errno>
   11124:	fe0784e3          	beqz	a5,1110c <_close_r+0x28>
   11128:	00c12083          	lw	ra,12(sp)
   1112c:	00f42023          	sw	a5,0(s0)
   11130:	00812403          	lw	s0,8(sp)
   11134:	00412483          	lw	s1,4(sp)
   11138:	01010113          	add	sp,sp,16
   1113c:	00008067          	ret

00011140 <_reclaim_reent>:
   11140:	d441a783          	lw	a5,-700(gp) # 1455c <_impure_ptr>
   11144:	0aa78e63          	beq	a5,a0,11200 <_reclaim_reent+0xc0>
   11148:	04452583          	lw	a1,68(a0)
   1114c:	fe010113          	add	sp,sp,-32
   11150:	00912a23          	sw	s1,20(sp)
   11154:	00112e23          	sw	ra,28(sp)
   11158:	00050493          	mv	s1,a0
   1115c:	04058c63          	beqz	a1,111b4 <_reclaim_reent+0x74>
   11160:	01212823          	sw	s2,16(sp)
   11164:	01312623          	sw	s3,12(sp)
   11168:	00812c23          	sw	s0,24(sp)
   1116c:	00000913          	li	s2,0
   11170:	08000993          	li	s3,128
   11174:	012587b3          	add	a5,a1,s2
   11178:	0007a403          	lw	s0,0(a5)
   1117c:	00040e63          	beqz	s0,11198 <_reclaim_reent+0x58>
   11180:	00040593          	mv	a1,s0
   11184:	00042403          	lw	s0,0(s0)
   11188:	00048513          	mv	a0,s1
   1118c:	690000ef          	jal	1181c <_free_r>
   11190:	fe0418e3          	bnez	s0,11180 <_reclaim_reent+0x40>
   11194:	0444a583          	lw	a1,68(s1)
   11198:	00490913          	add	s2,s2,4
   1119c:	fd391ce3          	bne	s2,s3,11174 <_reclaim_reent+0x34>
   111a0:	00048513          	mv	a0,s1
   111a4:	678000ef          	jal	1181c <_free_r>
   111a8:	01812403          	lw	s0,24(sp)
   111ac:	01012903          	lw	s2,16(sp)
   111b0:	00c12983          	lw	s3,12(sp)
   111b4:	0384a583          	lw	a1,56(s1)
   111b8:	00058663          	beqz	a1,111c4 <_reclaim_reent+0x84>
   111bc:	00048513          	mv	a0,s1
   111c0:	65c000ef          	jal	1181c <_free_r>
   111c4:	04c4a583          	lw	a1,76(s1)
   111c8:	00058663          	beqz	a1,111d4 <_reclaim_reent+0x94>
   111cc:	00048513          	mv	a0,s1
   111d0:	64c000ef          	jal	1181c <_free_r>
   111d4:	0344a783          	lw	a5,52(s1)
   111d8:	00078c63          	beqz	a5,111f0 <_reclaim_reent+0xb0>
   111dc:	01c12083          	lw	ra,28(sp)
   111e0:	00048513          	mv	a0,s1
   111e4:	01412483          	lw	s1,20(sp)
   111e8:	02010113          	add	sp,sp,32
   111ec:	00078067          	jr	a5
   111f0:	01c12083          	lw	ra,28(sp)
   111f4:	01412483          	lw	s1,20(sp)
   111f8:	02010113          	add	sp,sp,32
   111fc:	00008067          	ret
   11200:	00008067          	ret

00011204 <_lseek_r>:
   11204:	ff010113          	add	sp,sp,-16
   11208:	00058713          	mv	a4,a1
   1120c:	00812423          	sw	s0,8(sp)
   11210:	00912223          	sw	s1,4(sp)
   11214:	00060593          	mv	a1,a2
   11218:	00050413          	mv	s0,a0
   1121c:	00068613          	mv	a2,a3
   11220:	00070513          	mv	a0,a4
   11224:	00112623          	sw	ra,12(sp)
   11228:	d401ac23          	sw	zero,-680(gp) # 14570 <errno>
   1122c:	2e4020ef          	jal	13510 <_lseek>
   11230:	fff00793          	li	a5,-1
   11234:	00f50c63          	beq	a0,a5,1124c <_lseek_r+0x48>
   11238:	00c12083          	lw	ra,12(sp)
   1123c:	00812403          	lw	s0,8(sp)
   11240:	00412483          	lw	s1,4(sp)
   11244:	01010113          	add	sp,sp,16
   11248:	00008067          	ret
   1124c:	d581a783          	lw	a5,-680(gp) # 14570 <errno>
   11250:	fe0784e3          	beqz	a5,11238 <_lseek_r+0x34>
   11254:	00c12083          	lw	ra,12(sp)
   11258:	00f42023          	sw	a5,0(s0)
   1125c:	00812403          	lw	s0,8(sp)
   11260:	00412483          	lw	s1,4(sp)
   11264:	01010113          	add	sp,sp,16
   11268:	00008067          	ret

0001126c <_read_r>:
   1126c:	ff010113          	add	sp,sp,-16
   11270:	00058713          	mv	a4,a1
   11274:	00812423          	sw	s0,8(sp)
   11278:	00912223          	sw	s1,4(sp)
   1127c:	00060593          	mv	a1,a2
   11280:	00050413          	mv	s0,a0
   11284:	00068613          	mv	a2,a3
   11288:	00070513          	mv	a0,a4
   1128c:	00112623          	sw	ra,12(sp)
   11290:	d401ac23          	sw	zero,-680(gp) # 14570 <errno>
   11294:	4ac020ef          	jal	13740 <_read>
   11298:	fff00793          	li	a5,-1
   1129c:	00f50c63          	beq	a0,a5,112b4 <_read_r+0x48>
   112a0:	00c12083          	lw	ra,12(sp)
   112a4:	00812403          	lw	s0,8(sp)
   112a8:	00412483          	lw	s1,4(sp)
   112ac:	01010113          	add	sp,sp,16
   112b0:	00008067          	ret
   112b4:	d581a783          	lw	a5,-680(gp) # 14570 <errno>
   112b8:	fe0784e3          	beqz	a5,112a0 <_read_r+0x34>
   112bc:	00c12083          	lw	ra,12(sp)
   112c0:	00f42023          	sw	a5,0(s0)
   112c4:	00812403          	lw	s0,8(sp)
   112c8:	00412483          	lw	s1,4(sp)
   112cc:	01010113          	add	sp,sp,16
   112d0:	00008067          	ret

000112d4 <_sbrk_r>:
   112d4:	ff010113          	add	sp,sp,-16
   112d8:	00812423          	sw	s0,8(sp)
   112dc:	00912223          	sw	s1,4(sp)
   112e0:	00050413          	mv	s0,a0
   112e4:	00058513          	mv	a0,a1
   112e8:	00112623          	sw	ra,12(sp)
   112ec:	d401ac23          	sw	zero,-680(gp) # 14570 <errno>
   112f0:	510020ef          	jal	13800 <_sbrk>
   112f4:	fff00793          	li	a5,-1
   112f8:	00f50c63          	beq	a0,a5,11310 <_sbrk_r+0x3c>
   112fc:	00c12083          	lw	ra,12(sp)
   11300:	00812403          	lw	s0,8(sp)
   11304:	00412483          	lw	s1,4(sp)
   11308:	01010113          	add	sp,sp,16
   1130c:	00008067          	ret
   11310:	d581a783          	lw	a5,-680(gp) # 14570 <errno>
   11314:	fe0784e3          	beqz	a5,112fc <_sbrk_r+0x28>
   11318:	00c12083          	lw	ra,12(sp)
   1131c:	00f42023          	sw	a5,0(s0)
   11320:	00812403          	lw	s0,8(sp)
   11324:	00412483          	lw	s1,4(sp)
   11328:	01010113          	add	sp,sp,16
   1132c:	00008067          	ret

00011330 <_write_r>:
   11330:	ff010113          	add	sp,sp,-16
   11334:	00058713          	mv	a4,a1
   11338:	00812423          	sw	s0,8(sp)
   1133c:	00912223          	sw	s1,4(sp)
   11340:	00060593          	mv	a1,a2
   11344:	00050413          	mv	s0,a0
   11348:	00068613          	mv	a2,a3
   1134c:	00070513          	mv	a0,a4
   11350:	00112623          	sw	ra,12(sp)
   11354:	d401ac23          	sw	zero,-680(gp) # 14570 <errno>
   11358:	568020ef          	jal	138c0 <_write>
   1135c:	fff00793          	li	a5,-1
   11360:	00f50c63          	beq	a0,a5,11378 <_write_r+0x48>
   11364:	00c12083          	lw	ra,12(sp)
   11368:	00812403          	lw	s0,8(sp)
   1136c:	00412483          	lw	s1,4(sp)
   11370:	01010113          	add	sp,sp,16
   11374:	00008067          	ret
   11378:	d581a783          	lw	a5,-680(gp) # 14570 <errno>
   1137c:	fe0784e3          	beqz	a5,11364 <_write_r+0x34>
   11380:	00c12083          	lw	ra,12(sp)
   11384:	00f42023          	sw	a5,0(s0)
   11388:	00812403          	lw	s0,8(sp)
   1138c:	00412483          	lw	s1,4(sp)
   11390:	01010113          	add	sp,sp,16
   11394:	00008067          	ret

00011398 <__libc_init_array>:
   11398:	ff010113          	add	sp,sp,-16
   1139c:	00812423          	sw	s0,8(sp)
   113a0:	000147b7          	lui	a5,0x14
   113a4:	00014437          	lui	s0,0x14
   113a8:	01212023          	sw	s2,0(sp)
   113ac:	00478793          	add	a5,a5,4 # 14004 <__init_array_start>
   113b0:	00440713          	add	a4,s0,4 # 14004 <__init_array_start>
   113b4:	00112623          	sw	ra,12(sp)
   113b8:	00912223          	sw	s1,4(sp)
   113bc:	40e78933          	sub	s2,a5,a4
   113c0:	02e78263          	beq	a5,a4,113e4 <__libc_init_array+0x4c>
   113c4:	40295913          	sra	s2,s2,0x2
   113c8:	00440413          	add	s0,s0,4
   113cc:	00000493          	li	s1,0
   113d0:	00042783          	lw	a5,0(s0)
   113d4:	00148493          	add	s1,s1,1
   113d8:	00440413          	add	s0,s0,4
   113dc:	000780e7          	jalr	a5
   113e0:	ff24e8e3          	bltu	s1,s2,113d0 <__libc_init_array+0x38>
   113e4:	00014437          	lui	s0,0x14
   113e8:	000147b7          	lui	a5,0x14
   113ec:	01078793          	add	a5,a5,16 # 14010 <__do_global_dtors_aux_fini_array_entry>
   113f0:	00440713          	add	a4,s0,4 # 14004 <__init_array_start>
   113f4:	40e78933          	sub	s2,a5,a4
   113f8:	40295913          	sra	s2,s2,0x2
   113fc:	02e78063          	beq	a5,a4,1141c <__libc_init_array+0x84>
   11400:	00440413          	add	s0,s0,4
   11404:	00000493          	li	s1,0
   11408:	00042783          	lw	a5,0(s0)
   1140c:	00148493          	add	s1,s1,1
   11410:	00440413          	add	s0,s0,4
   11414:	000780e7          	jalr	a5
   11418:	ff24e8e3          	bltu	s1,s2,11408 <__libc_init_array+0x70>
   1141c:	00c12083          	lw	ra,12(sp)
   11420:	00812403          	lw	s0,8(sp)
   11424:	00412483          	lw	s1,4(sp)
   11428:	00012903          	lw	s2,0(sp)
   1142c:	01010113          	add	sp,sp,16
   11430:	00008067          	ret

00011434 <memset>:
   11434:	00f00313          	li	t1,15
   11438:	00050713          	mv	a4,a0
   1143c:	02c37e63          	bgeu	t1,a2,11478 <memset+0x44>
   11440:	00f77793          	and	a5,a4,15
   11444:	0a079063          	bnez	a5,114e4 <memset+0xb0>
   11448:	08059263          	bnez	a1,114cc <memset+0x98>
   1144c:	ff067693          	and	a3,a2,-16
   11450:	00f67613          	and	a2,a2,15
   11454:	00e686b3          	add	a3,a3,a4
   11458:	00b72023          	sw	a1,0(a4)
   1145c:	00b72223          	sw	a1,4(a4)
   11460:	00b72423          	sw	a1,8(a4)
   11464:	00b72623          	sw	a1,12(a4)
   11468:	01070713          	add	a4,a4,16
   1146c:	fed766e3          	bltu	a4,a3,11458 <memset+0x24>
   11470:	00061463          	bnez	a2,11478 <memset+0x44>
   11474:	00008067          	ret
   11478:	40c306b3          	sub	a3,t1,a2
   1147c:	00269693          	sll	a3,a3,0x2
   11480:	00000297          	auipc	t0,0x0
   11484:	005686b3          	add	a3,a3,t0
   11488:	00c68067          	jr	12(a3)
   1148c:	00b70723          	sb	a1,14(a4)
   11490:	00b706a3          	sb	a1,13(a4)
   11494:	00b70623          	sb	a1,12(a4)
   11498:	00b705a3          	sb	a1,11(a4)
   1149c:	00b70523          	sb	a1,10(a4)
   114a0:	00b704a3          	sb	a1,9(a4)
   114a4:	00b70423          	sb	a1,8(a4)
   114a8:	00b703a3          	sb	a1,7(a4)
   114ac:	00b70323          	sb	a1,6(a4)
   114b0:	00b702a3          	sb	a1,5(a4)
   114b4:	00b70223          	sb	a1,4(a4)
   114b8:	00b701a3          	sb	a1,3(a4)
   114bc:	00b70123          	sb	a1,2(a4)
   114c0:	00b700a3          	sb	a1,1(a4)
   114c4:	00b70023          	sb	a1,0(a4)
   114c8:	00008067          	ret
   114cc:	0ff5f593          	zext.b	a1,a1
   114d0:	00859693          	sll	a3,a1,0x8
   114d4:	00d5e5b3          	or	a1,a1,a3
   114d8:	01059693          	sll	a3,a1,0x10
   114dc:	00d5e5b3          	or	a1,a1,a3
   114e0:	f6dff06f          	j	1144c <memset+0x18>
   114e4:	00279693          	sll	a3,a5,0x2
   114e8:	00000297          	auipc	t0,0x0
   114ec:	005686b3          	add	a3,a3,t0
   114f0:	00008293          	mv	t0,ra
   114f4:	fa0680e7          	jalr	-96(a3)
   114f8:	00028093          	mv	ra,t0
   114fc:	ff078793          	add	a5,a5,-16
   11500:	40f70733          	sub	a4,a4,a5
   11504:	00f60633          	add	a2,a2,a5
   11508:	f6c378e3          	bgeu	t1,a2,11478 <memset+0x44>
   1150c:	f3dff06f          	j	11448 <memset+0x14>

00011510 <strlen>:
   11510:	00357793          	and	a5,a0,3
   11514:	00050713          	mv	a4,a0
   11518:	04079c63          	bnez	a5,11570 <strlen+0x60>
   1151c:	7f7f86b7          	lui	a3,0x7f7f8
   11520:	f7f68693          	add	a3,a3,-129 # 7f7f7f7f <__BSS_END__+0x7f7e3677>
   11524:	fff00593          	li	a1,-1
   11528:	00072603          	lw	a2,0(a4)
   1152c:	00470713          	add	a4,a4,4
   11530:	00d677b3          	and	a5,a2,a3
   11534:	00d787b3          	add	a5,a5,a3
   11538:	00c7e7b3          	or	a5,a5,a2
   1153c:	00d7e7b3          	or	a5,a5,a3
   11540:	feb784e3          	beq	a5,a1,11528 <strlen+0x18>
   11544:	ffc74683          	lbu	a3,-4(a4)
   11548:	40a707b3          	sub	a5,a4,a0
   1154c:	04068463          	beqz	a3,11594 <strlen+0x84>
   11550:	ffd74683          	lbu	a3,-3(a4)
   11554:	02068c63          	beqz	a3,1158c <strlen+0x7c>
   11558:	ffe74503          	lbu	a0,-2(a4)
   1155c:	00a03533          	snez	a0,a0
   11560:	00f50533          	add	a0,a0,a5
   11564:	ffe50513          	add	a0,a0,-2
   11568:	00008067          	ret
   1156c:	fa0688e3          	beqz	a3,1151c <strlen+0xc>
   11570:	00074783          	lbu	a5,0(a4)
   11574:	00170713          	add	a4,a4,1
   11578:	00377693          	and	a3,a4,3
   1157c:	fe0798e3          	bnez	a5,1156c <strlen+0x5c>
   11580:	40a70733          	sub	a4,a4,a0
   11584:	fff70513          	add	a0,a4,-1
   11588:	00008067          	ret
   1158c:	ffd78513          	add	a0,a5,-3
   11590:	00008067          	ret
   11594:	ffc78513          	add	a0,a5,-4
   11598:	00008067          	ret

0001159c <__call_exitprocs>:
   1159c:	fd010113          	add	sp,sp,-48
   115a0:	01412c23          	sw	s4,24(sp)
   115a4:	03212023          	sw	s2,32(sp)
   115a8:	d5c1a903          	lw	s2,-676(gp) # 14574 <__atexit>
   115ac:	02112623          	sw	ra,44(sp)
   115b0:	0a090863          	beqz	s2,11660 <__call_exitprocs+0xc4>
   115b4:	01312e23          	sw	s3,28(sp)
   115b8:	01512a23          	sw	s5,20(sp)
   115bc:	01612823          	sw	s6,16(sp)
   115c0:	01712623          	sw	s7,12(sp)
   115c4:	02812423          	sw	s0,40(sp)
   115c8:	02912223          	sw	s1,36(sp)
   115cc:	01812423          	sw	s8,8(sp)
   115d0:	00050b13          	mv	s6,a0
   115d4:	00058b93          	mv	s7,a1
   115d8:	fff00993          	li	s3,-1
   115dc:	00100a93          	li	s5,1
   115e0:	00492483          	lw	s1,4(s2)
   115e4:	fff48413          	add	s0,s1,-1
   115e8:	04044e63          	bltz	s0,11644 <__call_exitprocs+0xa8>
   115ec:	00249493          	sll	s1,s1,0x2
   115f0:	009904b3          	add	s1,s2,s1
   115f4:	080b9063          	bnez	s7,11674 <__call_exitprocs+0xd8>
   115f8:	00492783          	lw	a5,4(s2)
   115fc:	0044a683          	lw	a3,4(s1)
   11600:	fff78793          	add	a5,a5,-1
   11604:	0a878c63          	beq	a5,s0,116bc <__call_exitprocs+0x120>
   11608:	0004a223          	sw	zero,4(s1)
   1160c:	02068663          	beqz	a3,11638 <__call_exitprocs+0x9c>
   11610:	18892783          	lw	a5,392(s2)
   11614:	008a9733          	sll	a4,s5,s0
   11618:	00492c03          	lw	s8,4(s2)
   1161c:	00f777b3          	and	a5,a4,a5
   11620:	06079663          	bnez	a5,1168c <__call_exitprocs+0xf0>
   11624:	000680e7          	jalr	a3
   11628:	00492703          	lw	a4,4(s2)
   1162c:	d5c1a783          	lw	a5,-676(gp) # 14574 <__atexit>
   11630:	09871063          	bne	a4,s8,116b0 <__call_exitprocs+0x114>
   11634:	07279e63          	bne	a5,s2,116b0 <__call_exitprocs+0x114>
   11638:	fff40413          	add	s0,s0,-1
   1163c:	ffc48493          	add	s1,s1,-4
   11640:	fb341ae3          	bne	s0,s3,115f4 <__call_exitprocs+0x58>
   11644:	02812403          	lw	s0,40(sp)
   11648:	02412483          	lw	s1,36(sp)
   1164c:	01c12983          	lw	s3,28(sp)
   11650:	01412a83          	lw	s5,20(sp)
   11654:	01012b03          	lw	s6,16(sp)
   11658:	00c12b83          	lw	s7,12(sp)
   1165c:	00812c03          	lw	s8,8(sp)
   11660:	02c12083          	lw	ra,44(sp)
   11664:	02012903          	lw	s2,32(sp)
   11668:	01812a03          	lw	s4,24(sp)
   1166c:	03010113          	add	sp,sp,48
   11670:	00008067          	ret
   11674:	1044a783          	lw	a5,260(s1)
   11678:	f97780e3          	beq	a5,s7,115f8 <__call_exitprocs+0x5c>
   1167c:	fff40413          	add	s0,s0,-1
   11680:	ffc48493          	add	s1,s1,-4
   11684:	ff3418e3          	bne	s0,s3,11674 <__call_exitprocs+0xd8>
   11688:	fbdff06f          	j	11644 <__call_exitprocs+0xa8>
   1168c:	18c92783          	lw	a5,396(s2)
   11690:	0844a583          	lw	a1,132(s1)
   11694:	00f77733          	and	a4,a4,a5
   11698:	02071663          	bnez	a4,116c4 <__call_exitprocs+0x128>
   1169c:	000b0513          	mv	a0,s6
   116a0:	000680e7          	jalr	a3
   116a4:	00492703          	lw	a4,4(s2)
   116a8:	d5c1a783          	lw	a5,-676(gp) # 14574 <__atexit>
   116ac:	f98704e3          	beq	a4,s8,11634 <__call_exitprocs+0x98>
   116b0:	f8078ae3          	beqz	a5,11644 <__call_exitprocs+0xa8>
   116b4:	00078913          	mv	s2,a5
   116b8:	f29ff06f          	j	115e0 <__call_exitprocs+0x44>
   116bc:	00892223          	sw	s0,4(s2)
   116c0:	f4dff06f          	j	1160c <__call_exitprocs+0x70>
   116c4:	00058513          	mv	a0,a1
   116c8:	000680e7          	jalr	a3
   116cc:	f5dff06f          	j	11628 <__call_exitprocs+0x8c>

000116d0 <atexit>:
   116d0:	00050593          	mv	a1,a0
   116d4:	00000693          	li	a3,0
   116d8:	00000613          	li	a2,0
   116dc:	00000513          	li	a0,0
   116e0:	2a00106f          	j	12980 <__register_exitproc>

000116e4 <_malloc_trim_r>:
   116e4:	fe010113          	add	sp,sp,-32
   116e8:	01312623          	sw	s3,12(sp)
   116ec:	000149b7          	lui	s3,0x14
   116f0:	00812c23          	sw	s0,24(sp)
   116f4:	00912a23          	sw	s1,20(sp)
   116f8:	01212823          	sw	s2,16(sp)
   116fc:	01412423          	sw	s4,8(sp)
   11700:	00112e23          	sw	ra,28(sp)
   11704:	00058a13          	mv	s4,a1
   11708:	00050913          	mv	s2,a0
   1170c:	01898993          	add	s3,s3,24 # 14018 <__malloc_av_>
   11710:	b7cff0ef          	jal	10a8c <__malloc_lock>
   11714:	0089a703          	lw	a4,8(s3)
   11718:	000017b7          	lui	a5,0x1
   1171c:	fef78793          	add	a5,a5,-17 # fef <exit-0xf0b1>
   11720:	00472483          	lw	s1,4(a4)
   11724:	00001737          	lui	a4,0x1
   11728:	ffc4f493          	and	s1,s1,-4
   1172c:	00f48433          	add	s0,s1,a5
   11730:	41440433          	sub	s0,s0,s4
   11734:	00c45413          	srl	s0,s0,0xc
   11738:	fff40413          	add	s0,s0,-1
   1173c:	00c41413          	sll	s0,s0,0xc
   11740:	00e44e63          	blt	s0,a4,1175c <_malloc_trim_r+0x78>
   11744:	00000593          	li	a1,0
   11748:	00090513          	mv	a0,s2
   1174c:	b89ff0ef          	jal	112d4 <_sbrk_r>
   11750:	0089a783          	lw	a5,8(s3)
   11754:	009787b3          	add	a5,a5,s1
   11758:	02f50863          	beq	a0,a5,11788 <_malloc_trim_r+0xa4>
   1175c:	00090513          	mv	a0,s2
   11760:	b30ff0ef          	jal	10a90 <__malloc_unlock>
   11764:	01c12083          	lw	ra,28(sp)
   11768:	01812403          	lw	s0,24(sp)
   1176c:	01412483          	lw	s1,20(sp)
   11770:	01012903          	lw	s2,16(sp)
   11774:	00c12983          	lw	s3,12(sp)
   11778:	00812a03          	lw	s4,8(sp)
   1177c:	00000513          	li	a0,0
   11780:	02010113          	add	sp,sp,32
   11784:	00008067          	ret
   11788:	408005b3          	neg	a1,s0
   1178c:	00090513          	mv	a0,s2
   11790:	b45ff0ef          	jal	112d4 <_sbrk_r>
   11794:	fff00793          	li	a5,-1
   11798:	04f50863          	beq	a0,a5,117e8 <_malloc_trim_r+0x104>
   1179c:	d8018793          	add	a5,gp,-640 # 14598 <__malloc_current_mallinfo>
   117a0:	0007a703          	lw	a4,0(a5)
   117a4:	0089a683          	lw	a3,8(s3)
   117a8:	408484b3          	sub	s1,s1,s0
   117ac:	0014e493          	or	s1,s1,1
   117b0:	40870733          	sub	a4,a4,s0
   117b4:	00090513          	mv	a0,s2
   117b8:	0096a223          	sw	s1,4(a3)
   117bc:	00e7a023          	sw	a4,0(a5)
   117c0:	ad0ff0ef          	jal	10a90 <__malloc_unlock>
   117c4:	01c12083          	lw	ra,28(sp)
   117c8:	01812403          	lw	s0,24(sp)
   117cc:	01412483          	lw	s1,20(sp)
   117d0:	01012903          	lw	s2,16(sp)
   117d4:	00c12983          	lw	s3,12(sp)
   117d8:	00812a03          	lw	s4,8(sp)
   117dc:	00100513          	li	a0,1
   117e0:	02010113          	add	sp,sp,32
   117e4:	00008067          	ret
   117e8:	00000593          	li	a1,0
   117ec:	00090513          	mv	a0,s2
   117f0:	ae5ff0ef          	jal	112d4 <_sbrk_r>
   117f4:	0089a703          	lw	a4,8(s3)
   117f8:	00f00693          	li	a3,15
   117fc:	40e507b3          	sub	a5,a0,a4
   11800:	f4f6dee3          	bge	a3,a5,1175c <_malloc_trim_r+0x78>
   11804:	d3c1a683          	lw	a3,-708(gp) # 14554 <__malloc_sbrk_base>
   11808:	0017e793          	or	a5,a5,1
   1180c:	00f72223          	sw	a5,4(a4) # 1004 <exit-0xf09c>
   11810:	40d50533          	sub	a0,a0,a3
   11814:	d8a1a023          	sw	a0,-640(gp) # 14598 <__malloc_current_mallinfo>
   11818:	f45ff06f          	j	1175c <_malloc_trim_r+0x78>

0001181c <_free_r>:
   1181c:	18058263          	beqz	a1,119a0 <_free_r+0x184>
   11820:	ff010113          	add	sp,sp,-16
   11824:	00812423          	sw	s0,8(sp)
   11828:	00912223          	sw	s1,4(sp)
   1182c:	00058413          	mv	s0,a1
   11830:	00050493          	mv	s1,a0
   11834:	00112623          	sw	ra,12(sp)
   11838:	a54ff0ef          	jal	10a8c <__malloc_lock>
   1183c:	ffc42503          	lw	a0,-4(s0)
   11840:	ff840713          	add	a4,s0,-8
   11844:	000145b7          	lui	a1,0x14
   11848:	ffe57793          	and	a5,a0,-2
   1184c:	00f70633          	add	a2,a4,a5
   11850:	01858593          	add	a1,a1,24 # 14018 <__malloc_av_>
   11854:	00462683          	lw	a3,4(a2) # 2004 <exit-0xe09c>
   11858:	0085a803          	lw	a6,8(a1)
   1185c:	ffc6f693          	and	a3,a3,-4
   11860:	1ac80263          	beq	a6,a2,11a04 <_free_r+0x1e8>
   11864:	00d62223          	sw	a3,4(a2)
   11868:	00157513          	and	a0,a0,1
   1186c:	00d60833          	add	a6,a2,a3
   11870:	0a051063          	bnez	a0,11910 <_free_r+0xf4>
   11874:	ff842303          	lw	t1,-8(s0)
   11878:	00482803          	lw	a6,4(a6)
   1187c:	00014537          	lui	a0,0x14
   11880:	40670733          	sub	a4,a4,t1
   11884:	00872883          	lw	a7,8(a4)
   11888:	02050513          	add	a0,a0,32 # 14020 <__malloc_av_+0x8>
   1188c:	006787b3          	add	a5,a5,t1
   11890:	00187813          	and	a6,a6,1
   11894:	14a88263          	beq	a7,a0,119d8 <_free_r+0x1bc>
   11898:	00c72303          	lw	t1,12(a4)
   1189c:	0068a623          	sw	t1,12(a7)
   118a0:	01132423          	sw	a7,8(t1)
   118a4:	1a080663          	beqz	a6,11a50 <_free_r+0x234>
   118a8:	0017e693          	or	a3,a5,1
   118ac:	00d72223          	sw	a3,4(a4)
   118b0:	00f62023          	sw	a5,0(a2)
   118b4:	1ff00693          	li	a3,511
   118b8:	06f6ec63          	bltu	a3,a5,11930 <_free_r+0x114>
   118bc:	ff87f693          	and	a3,a5,-8
   118c0:	00868693          	add	a3,a3,8
   118c4:	0045a503          	lw	a0,4(a1)
   118c8:	00d586b3          	add	a3,a1,a3
   118cc:	0006a603          	lw	a2,0(a3)
   118d0:	0057d813          	srl	a6,a5,0x5
   118d4:	00100793          	li	a5,1
   118d8:	010797b3          	sll	a5,a5,a6
   118dc:	00a7e7b3          	or	a5,a5,a0
   118e0:	ff868513          	add	a0,a3,-8
   118e4:	00a72623          	sw	a0,12(a4)
   118e8:	00c72423          	sw	a2,8(a4)
   118ec:	00f5a223          	sw	a5,4(a1)
   118f0:	00e6a023          	sw	a4,0(a3)
   118f4:	00e62623          	sw	a4,12(a2)
   118f8:	00812403          	lw	s0,8(sp)
   118fc:	00c12083          	lw	ra,12(sp)
   11900:	00048513          	mv	a0,s1
   11904:	00412483          	lw	s1,4(sp)
   11908:	01010113          	add	sp,sp,16
   1190c:	984ff06f          	j	10a90 <__malloc_unlock>
   11910:	00482503          	lw	a0,4(a6)
   11914:	00157513          	and	a0,a0,1
   11918:	08050663          	beqz	a0,119a4 <_free_r+0x188>
   1191c:	0017e693          	or	a3,a5,1
   11920:	fed42e23          	sw	a3,-4(s0)
   11924:	00f62023          	sw	a5,0(a2)
   11928:	1ff00693          	li	a3,511
   1192c:	f8f6f8e3          	bgeu	a3,a5,118bc <_free_r+0xa0>
   11930:	0097d693          	srl	a3,a5,0x9
   11934:	00400613          	li	a2,4
   11938:	12d66063          	bltu	a2,a3,11a58 <_free_r+0x23c>
   1193c:	0067d693          	srl	a3,a5,0x6
   11940:	03968513          	add	a0,a3,57
   11944:	03868613          	add	a2,a3,56
   11948:	00351513          	sll	a0,a0,0x3
   1194c:	00a58533          	add	a0,a1,a0
   11950:	00052683          	lw	a3,0(a0)
   11954:	ff850513          	add	a0,a0,-8
   11958:	00d51863          	bne	a0,a3,11968 <_free_r+0x14c>
   1195c:	1540006f          	j	11ab0 <_free_r+0x294>
   11960:	0086a683          	lw	a3,8(a3)
   11964:	00d50863          	beq	a0,a3,11974 <_free_r+0x158>
   11968:	0046a603          	lw	a2,4(a3)
   1196c:	ffc67613          	and	a2,a2,-4
   11970:	fec7e8e3          	bltu	a5,a2,11960 <_free_r+0x144>
   11974:	00c6a503          	lw	a0,12(a3)
   11978:	00a72623          	sw	a0,12(a4)
   1197c:	00d72423          	sw	a3,8(a4)
   11980:	00812403          	lw	s0,8(sp)
   11984:	00e52423          	sw	a4,8(a0)
   11988:	00c12083          	lw	ra,12(sp)
   1198c:	00048513          	mv	a0,s1
   11990:	00412483          	lw	s1,4(sp)
   11994:	00e6a623          	sw	a4,12(a3)
   11998:	01010113          	add	sp,sp,16
   1199c:	8f4ff06f          	j	10a90 <__malloc_unlock>
   119a0:	00008067          	ret
   119a4:	00014537          	lui	a0,0x14
   119a8:	00d787b3          	add	a5,a5,a3
   119ac:	02050513          	add	a0,a0,32 # 14020 <__malloc_av_+0x8>
   119b0:	00862683          	lw	a3,8(a2)
   119b4:	0ca68c63          	beq	a3,a0,11a8c <_free_r+0x270>
   119b8:	00c62803          	lw	a6,12(a2)
   119bc:	0017e513          	or	a0,a5,1
   119c0:	00f70633          	add	a2,a4,a5
   119c4:	0106a623          	sw	a6,12(a3)
   119c8:	00d82423          	sw	a3,8(a6)
   119cc:	00a72223          	sw	a0,4(a4)
   119d0:	00f62023          	sw	a5,0(a2)
   119d4:	ee1ff06f          	j	118b4 <_free_r+0x98>
   119d8:	12081c63          	bnez	a6,11b10 <_free_r+0x2f4>
   119dc:	00862583          	lw	a1,8(a2)
   119e0:	00c62603          	lw	a2,12(a2)
   119e4:	00f686b3          	add	a3,a3,a5
   119e8:	0016e793          	or	a5,a3,1
   119ec:	00c5a623          	sw	a2,12(a1)
   119f0:	00b62423          	sw	a1,8(a2)
   119f4:	00f72223          	sw	a5,4(a4)
   119f8:	00d70733          	add	a4,a4,a3
   119fc:	00d72023          	sw	a3,0(a4)
   11a00:	ef9ff06f          	j	118f8 <_free_r+0xdc>
   11a04:	00157513          	and	a0,a0,1
   11a08:	00d786b3          	add	a3,a5,a3
   11a0c:	02051063          	bnez	a0,11a2c <_free_r+0x210>
   11a10:	ff842503          	lw	a0,-8(s0)
   11a14:	40a70733          	sub	a4,a4,a0
   11a18:	00c72783          	lw	a5,12(a4)
   11a1c:	00872603          	lw	a2,8(a4)
   11a20:	00a686b3          	add	a3,a3,a0
   11a24:	00f62623          	sw	a5,12(a2)
   11a28:	00c7a423          	sw	a2,8(a5)
   11a2c:	0016e613          	or	a2,a3,1
   11a30:	d401a783          	lw	a5,-704(gp) # 14558 <__malloc_trim_threshold>
   11a34:	00c72223          	sw	a2,4(a4)
   11a38:	00e5a423          	sw	a4,8(a1)
   11a3c:	eaf6eee3          	bltu	a3,a5,118f8 <_free_r+0xdc>
   11a40:	d501a583          	lw	a1,-688(gp) # 14568 <__malloc_top_pad>
   11a44:	00048513          	mv	a0,s1
   11a48:	c9dff0ef          	jal	116e4 <_malloc_trim_r>
   11a4c:	eadff06f          	j	118f8 <_free_r+0xdc>
   11a50:	00d787b3          	add	a5,a5,a3
   11a54:	f5dff06f          	j	119b0 <_free_r+0x194>
   11a58:	01400613          	li	a2,20
   11a5c:	02d67063          	bgeu	a2,a3,11a7c <_free_r+0x260>
   11a60:	05400613          	li	a2,84
   11a64:	06d66463          	bltu	a2,a3,11acc <_free_r+0x2b0>
   11a68:	00c7d693          	srl	a3,a5,0xc
   11a6c:	06f68513          	add	a0,a3,111
   11a70:	06e68613          	add	a2,a3,110
   11a74:	00351513          	sll	a0,a0,0x3
   11a78:	ed5ff06f          	j	1194c <_free_r+0x130>
   11a7c:	05c68513          	add	a0,a3,92
   11a80:	05b68613          	add	a2,a3,91
   11a84:	00351513          	sll	a0,a0,0x3
   11a88:	ec5ff06f          	j	1194c <_free_r+0x130>
   11a8c:	00e5aa23          	sw	a4,20(a1)
   11a90:	00e5a823          	sw	a4,16(a1)
   11a94:	0017e693          	or	a3,a5,1
   11a98:	00a72623          	sw	a0,12(a4)
   11a9c:	00a72423          	sw	a0,8(a4)
   11aa0:	00d72223          	sw	a3,4(a4)
   11aa4:	00f70733          	add	a4,a4,a5
   11aa8:	00f72023          	sw	a5,0(a4)
   11aac:	e4dff06f          	j	118f8 <_free_r+0xdc>
   11ab0:	0045a803          	lw	a6,4(a1)
   11ab4:	40265613          	sra	a2,a2,0x2
   11ab8:	00100793          	li	a5,1
   11abc:	00c797b3          	sll	a5,a5,a2
   11ac0:	0107e7b3          	or	a5,a5,a6
   11ac4:	00f5a223          	sw	a5,4(a1)
   11ac8:	eb1ff06f          	j	11978 <_free_r+0x15c>
   11acc:	15400613          	li	a2,340
   11ad0:	00d66c63          	bltu	a2,a3,11ae8 <_free_r+0x2cc>
   11ad4:	00f7d693          	srl	a3,a5,0xf
   11ad8:	07868513          	add	a0,a3,120
   11adc:	07768613          	add	a2,a3,119
   11ae0:	00351513          	sll	a0,a0,0x3
   11ae4:	e69ff06f          	j	1194c <_free_r+0x130>
   11ae8:	55400613          	li	a2,1364
   11aec:	00d66c63          	bltu	a2,a3,11b04 <_free_r+0x2e8>
   11af0:	0127d693          	srl	a3,a5,0x12
   11af4:	07d68513          	add	a0,a3,125
   11af8:	07c68613          	add	a2,a3,124
   11afc:	00351513          	sll	a0,a0,0x3
   11b00:	e4dff06f          	j	1194c <_free_r+0x130>
   11b04:	3f800513          	li	a0,1016
   11b08:	07e00613          	li	a2,126
   11b0c:	e41ff06f          	j	1194c <_free_r+0x130>
   11b10:	0017e693          	or	a3,a5,1
   11b14:	00d72223          	sw	a3,4(a4)
   11b18:	00f62023          	sw	a5,0(a2)
   11b1c:	dddff06f          	j	118f8 <_free_r+0xdc>

00011b20 <_fclose_r>:
   11b20:	ff010113          	add	sp,sp,-16
   11b24:	00112623          	sw	ra,12(sp)
   11b28:	01212023          	sw	s2,0(sp)
   11b2c:	02058863          	beqz	a1,11b5c <_fclose_r+0x3c>
   11b30:	00812423          	sw	s0,8(sp)
   11b34:	00912223          	sw	s1,4(sp)
   11b38:	00058413          	mv	s0,a1
   11b3c:	00050493          	mv	s1,a0
   11b40:	00050663          	beqz	a0,11b4c <_fclose_r+0x2c>
   11b44:	03452783          	lw	a5,52(a0)
   11b48:	0c078c63          	beqz	a5,11c20 <_fclose_r+0x100>
   11b4c:	00c41783          	lh	a5,12(s0)
   11b50:	02079263          	bnez	a5,11b74 <_fclose_r+0x54>
   11b54:	00812403          	lw	s0,8(sp)
   11b58:	00412483          	lw	s1,4(sp)
   11b5c:	00c12083          	lw	ra,12(sp)
   11b60:	00000913          	li	s2,0
   11b64:	00090513          	mv	a0,s2
   11b68:	00012903          	lw	s2,0(sp)
   11b6c:	01010113          	add	sp,sp,16
   11b70:	00008067          	ret
   11b74:	00040593          	mv	a1,s0
   11b78:	00048513          	mv	a0,s1
   11b7c:	0b8000ef          	jal	11c34 <__sflush_r>
   11b80:	02c42783          	lw	a5,44(s0)
   11b84:	00050913          	mv	s2,a0
   11b88:	00078a63          	beqz	a5,11b9c <_fclose_r+0x7c>
   11b8c:	01c42583          	lw	a1,28(s0)
   11b90:	00048513          	mv	a0,s1
   11b94:	000780e7          	jalr	a5
   11b98:	06054463          	bltz	a0,11c00 <_fclose_r+0xe0>
   11b9c:	00c45783          	lhu	a5,12(s0)
   11ba0:	0807f793          	and	a5,a5,128
   11ba4:	06079663          	bnez	a5,11c10 <_fclose_r+0xf0>
   11ba8:	03042583          	lw	a1,48(s0)
   11bac:	00058c63          	beqz	a1,11bc4 <_fclose_r+0xa4>
   11bb0:	04040793          	add	a5,s0,64
   11bb4:	00f58663          	beq	a1,a5,11bc0 <_fclose_r+0xa0>
   11bb8:	00048513          	mv	a0,s1
   11bbc:	c61ff0ef          	jal	1181c <_free_r>
   11bc0:	02042823          	sw	zero,48(s0)
   11bc4:	04442583          	lw	a1,68(s0)
   11bc8:	00058863          	beqz	a1,11bd8 <_fclose_r+0xb8>
   11bcc:	00048513          	mv	a0,s1
   11bd0:	c4dff0ef          	jal	1181c <_free_r>
   11bd4:	04042223          	sw	zero,68(s0)
   11bd8:	9e0ff0ef          	jal	10db8 <__sfp_lock_acquire>
   11bdc:	00041623          	sh	zero,12(s0)
   11be0:	9dcff0ef          	jal	10dbc <__sfp_lock_release>
   11be4:	00c12083          	lw	ra,12(sp)
   11be8:	00812403          	lw	s0,8(sp)
   11bec:	00412483          	lw	s1,4(sp)
   11bf0:	00090513          	mv	a0,s2
   11bf4:	00012903          	lw	s2,0(sp)
   11bf8:	01010113          	add	sp,sp,16
   11bfc:	00008067          	ret
   11c00:	00c45783          	lhu	a5,12(s0)
   11c04:	fff00913          	li	s2,-1
   11c08:	0807f793          	and	a5,a5,128
   11c0c:	f8078ee3          	beqz	a5,11ba8 <_fclose_r+0x88>
   11c10:	01042583          	lw	a1,16(s0)
   11c14:	00048513          	mv	a0,s1
   11c18:	c05ff0ef          	jal	1181c <_free_r>
   11c1c:	f8dff06f          	j	11ba8 <_fclose_r+0x88>
   11c20:	974ff0ef          	jal	10d94 <__sinit>
   11c24:	f29ff06f          	j	11b4c <_fclose_r+0x2c>

00011c28 <fclose>:
   11c28:	00050593          	mv	a1,a0
   11c2c:	d441a503          	lw	a0,-700(gp) # 1455c <_impure_ptr>
   11c30:	ef1ff06f          	j	11b20 <_fclose_r>

00011c34 <__sflush_r>:
   11c34:	00c59703          	lh	a4,12(a1)
   11c38:	fe010113          	add	sp,sp,-32
   11c3c:	00812c23          	sw	s0,24(sp)
   11c40:	01312623          	sw	s3,12(sp)
   11c44:	00112e23          	sw	ra,28(sp)
   11c48:	00877793          	and	a5,a4,8
   11c4c:	00058413          	mv	s0,a1
   11c50:	00050993          	mv	s3,a0
   11c54:	12079063          	bnez	a5,11d74 <__sflush_r+0x140>
   11c58:	000017b7          	lui	a5,0x1
   11c5c:	80078793          	add	a5,a5,-2048 # 800 <exit-0xf8a0>
   11c60:	0045a683          	lw	a3,4(a1)
   11c64:	00f767b3          	or	a5,a4,a5
   11c68:	00f59623          	sh	a5,12(a1)
   11c6c:	18d05263          	blez	a3,11df0 <__sflush_r+0x1bc>
   11c70:	02842803          	lw	a6,40(s0)
   11c74:	0e080463          	beqz	a6,11d5c <__sflush_r+0x128>
   11c78:	00912a23          	sw	s1,20(sp)
   11c7c:	01371693          	sll	a3,a4,0x13
   11c80:	0009a483          	lw	s1,0(s3)
   11c84:	0009a023          	sw	zero,0(s3)
   11c88:	01c42583          	lw	a1,28(s0)
   11c8c:	1606ce63          	bltz	a3,11e08 <__sflush_r+0x1d4>
   11c90:	00000613          	li	a2,0
   11c94:	00100693          	li	a3,1
   11c98:	00098513          	mv	a0,s3
   11c9c:	000800e7          	jalr	a6
   11ca0:	fff00793          	li	a5,-1
   11ca4:	00050613          	mv	a2,a0
   11ca8:	1af50463          	beq	a0,a5,11e50 <__sflush_r+0x21c>
   11cac:	00c41783          	lh	a5,12(s0)
   11cb0:	02842803          	lw	a6,40(s0)
   11cb4:	01c42583          	lw	a1,28(s0)
   11cb8:	0047f793          	and	a5,a5,4
   11cbc:	00078e63          	beqz	a5,11cd8 <__sflush_r+0xa4>
   11cc0:	00442703          	lw	a4,4(s0)
   11cc4:	03042783          	lw	a5,48(s0)
   11cc8:	40e60633          	sub	a2,a2,a4
   11ccc:	00078663          	beqz	a5,11cd8 <__sflush_r+0xa4>
   11cd0:	03c42783          	lw	a5,60(s0)
   11cd4:	40f60633          	sub	a2,a2,a5
   11cd8:	00000693          	li	a3,0
   11cdc:	00098513          	mv	a0,s3
   11ce0:	000800e7          	jalr	a6
   11ce4:	fff00793          	li	a5,-1
   11ce8:	12f51463          	bne	a0,a5,11e10 <__sflush_r+0x1dc>
   11cec:	0009a683          	lw	a3,0(s3)
   11cf0:	01d00793          	li	a5,29
   11cf4:	00c41703          	lh	a4,12(s0)
   11cf8:	16d7ea63          	bltu	a5,a3,11e6c <__sflush_r+0x238>
   11cfc:	204007b7          	lui	a5,0x20400
   11d00:	00178793          	add	a5,a5,1 # 20400001 <__BSS_END__+0x203eb6f9>
   11d04:	00d7d7b3          	srl	a5,a5,a3
   11d08:	0017f793          	and	a5,a5,1
   11d0c:	16078063          	beqz	a5,11e6c <__sflush_r+0x238>
   11d10:	01042603          	lw	a2,16(s0)
   11d14:	fffff7b7          	lui	a5,0xfffff
   11d18:	7ff78793          	add	a5,a5,2047 # fffff7ff <__BSS_END__+0xfffeaef7>
   11d1c:	00f777b3          	and	a5,a4,a5
   11d20:	00f41623          	sh	a5,12(s0)
   11d24:	00042223          	sw	zero,4(s0)
   11d28:	00c42023          	sw	a2,0(s0)
   11d2c:	01371793          	sll	a5,a4,0x13
   11d30:	0007d463          	bgez	a5,11d38 <__sflush_r+0x104>
   11d34:	10068263          	beqz	a3,11e38 <__sflush_r+0x204>
   11d38:	03042583          	lw	a1,48(s0)
   11d3c:	0099a023          	sw	s1,0(s3)
   11d40:	10058463          	beqz	a1,11e48 <__sflush_r+0x214>
   11d44:	04040793          	add	a5,s0,64
   11d48:	00f58663          	beq	a1,a5,11d54 <__sflush_r+0x120>
   11d4c:	00098513          	mv	a0,s3
   11d50:	acdff0ef          	jal	1181c <_free_r>
   11d54:	01412483          	lw	s1,20(sp)
   11d58:	02042823          	sw	zero,48(s0)
   11d5c:	00000513          	li	a0,0
   11d60:	01c12083          	lw	ra,28(sp)
   11d64:	01812403          	lw	s0,24(sp)
   11d68:	00c12983          	lw	s3,12(sp)
   11d6c:	02010113          	add	sp,sp,32
   11d70:	00008067          	ret
   11d74:	01212823          	sw	s2,16(sp)
   11d78:	0105a903          	lw	s2,16(a1)
   11d7c:	08090263          	beqz	s2,11e00 <__sflush_r+0x1cc>
   11d80:	00912a23          	sw	s1,20(sp)
   11d84:	0005a483          	lw	s1,0(a1)
   11d88:	00377713          	and	a4,a4,3
   11d8c:	0125a023          	sw	s2,0(a1)
   11d90:	412484b3          	sub	s1,s1,s2
   11d94:	00000793          	li	a5,0
   11d98:	00071463          	bnez	a4,11da0 <__sflush_r+0x16c>
   11d9c:	0145a783          	lw	a5,20(a1)
   11da0:	00f42423          	sw	a5,8(s0)
   11da4:	00904863          	bgtz	s1,11db4 <__sflush_r+0x180>
   11da8:	0540006f          	j	11dfc <__sflush_r+0x1c8>
   11dac:	00a90933          	add	s2,s2,a0
   11db0:	04905663          	blez	s1,11dfc <__sflush_r+0x1c8>
   11db4:	02442783          	lw	a5,36(s0)
   11db8:	01c42583          	lw	a1,28(s0)
   11dbc:	00048693          	mv	a3,s1
   11dc0:	00090613          	mv	a2,s2
   11dc4:	00098513          	mv	a0,s3
   11dc8:	000780e7          	jalr	a5
   11dcc:	40a484b3          	sub	s1,s1,a0
   11dd0:	fca04ee3          	bgtz	a0,11dac <__sflush_r+0x178>
   11dd4:	00c41703          	lh	a4,12(s0)
   11dd8:	01012903          	lw	s2,16(sp)
   11ddc:	04076713          	or	a4,a4,64
   11de0:	01412483          	lw	s1,20(sp)
   11de4:	00e41623          	sh	a4,12(s0)
   11de8:	fff00513          	li	a0,-1
   11dec:	f75ff06f          	j	11d60 <__sflush_r+0x12c>
   11df0:	03c5a683          	lw	a3,60(a1)
   11df4:	e6d04ee3          	bgtz	a3,11c70 <__sflush_r+0x3c>
   11df8:	f65ff06f          	j	11d5c <__sflush_r+0x128>
   11dfc:	01412483          	lw	s1,20(sp)
   11e00:	01012903          	lw	s2,16(sp)
   11e04:	f59ff06f          	j	11d5c <__sflush_r+0x128>
   11e08:	05042603          	lw	a2,80(s0)
   11e0c:	eadff06f          	j	11cb8 <__sflush_r+0x84>
   11e10:	00c41703          	lh	a4,12(s0)
   11e14:	01042683          	lw	a3,16(s0)
   11e18:	fffff7b7          	lui	a5,0xfffff
   11e1c:	7ff78793          	add	a5,a5,2047 # fffff7ff <__BSS_END__+0xfffeaef7>
   11e20:	00f777b3          	and	a5,a4,a5
   11e24:	00f41623          	sh	a5,12(s0)
   11e28:	00042223          	sw	zero,4(s0)
   11e2c:	00d42023          	sw	a3,0(s0)
   11e30:	01371793          	sll	a5,a4,0x13
   11e34:	f007d2e3          	bgez	a5,11d38 <__sflush_r+0x104>
   11e38:	03042583          	lw	a1,48(s0)
   11e3c:	04a42823          	sw	a0,80(s0)
   11e40:	0099a023          	sw	s1,0(s3)
   11e44:	f00590e3          	bnez	a1,11d44 <__sflush_r+0x110>
   11e48:	01412483          	lw	s1,20(sp)
   11e4c:	f11ff06f          	j	11d5c <__sflush_r+0x128>
   11e50:	0009a783          	lw	a5,0(s3)
   11e54:	e4078ce3          	beqz	a5,11cac <__sflush_r+0x78>
   11e58:	01d00713          	li	a4,29
   11e5c:	00e78c63          	beq	a5,a4,11e74 <__sflush_r+0x240>
   11e60:	01600713          	li	a4,22
   11e64:	00e78863          	beq	a5,a4,11e74 <__sflush_r+0x240>
   11e68:	00c41703          	lh	a4,12(s0)
   11e6c:	04076713          	or	a4,a4,64
   11e70:	f71ff06f          	j	11de0 <__sflush_r+0x1ac>
   11e74:	0099a023          	sw	s1,0(s3)
   11e78:	01412483          	lw	s1,20(sp)
   11e7c:	ee1ff06f          	j	11d5c <__sflush_r+0x128>

00011e80 <_fflush_r>:
   11e80:	fe010113          	add	sp,sp,-32
   11e84:	00812c23          	sw	s0,24(sp)
   11e88:	00112e23          	sw	ra,28(sp)
   11e8c:	00050413          	mv	s0,a0
   11e90:	00050663          	beqz	a0,11e9c <_fflush_r+0x1c>
   11e94:	03452783          	lw	a5,52(a0)
   11e98:	02078a63          	beqz	a5,11ecc <_fflush_r+0x4c>
   11e9c:	00c59783          	lh	a5,12(a1)
   11ea0:	00079c63          	bnez	a5,11eb8 <_fflush_r+0x38>
   11ea4:	01c12083          	lw	ra,28(sp)
   11ea8:	01812403          	lw	s0,24(sp)
   11eac:	00000513          	li	a0,0
   11eb0:	02010113          	add	sp,sp,32
   11eb4:	00008067          	ret
   11eb8:	00040513          	mv	a0,s0
   11ebc:	01812403          	lw	s0,24(sp)
   11ec0:	01c12083          	lw	ra,28(sp)
   11ec4:	02010113          	add	sp,sp,32
   11ec8:	d6dff06f          	j	11c34 <__sflush_r>
   11ecc:	00b12623          	sw	a1,12(sp)
   11ed0:	ec5fe0ef          	jal	10d94 <__sinit>
   11ed4:	00c12583          	lw	a1,12(sp)
   11ed8:	fc5ff06f          	j	11e9c <_fflush_r+0x1c>

00011edc <fflush>:
   11edc:	06050063          	beqz	a0,11f3c <fflush+0x60>
   11ee0:	00050593          	mv	a1,a0
   11ee4:	d441a503          	lw	a0,-700(gp) # 1455c <_impure_ptr>
   11ee8:	00050663          	beqz	a0,11ef4 <fflush+0x18>
   11eec:	03452783          	lw	a5,52(a0)
   11ef0:	00078c63          	beqz	a5,11f08 <fflush+0x2c>
   11ef4:	00c59783          	lh	a5,12(a1)
   11ef8:	00079663          	bnez	a5,11f04 <fflush+0x28>
   11efc:	00000513          	li	a0,0
   11f00:	00008067          	ret
   11f04:	d31ff06f          	j	11c34 <__sflush_r>
   11f08:	fe010113          	add	sp,sp,-32
   11f0c:	00b12623          	sw	a1,12(sp)
   11f10:	00a12423          	sw	a0,8(sp)
   11f14:	00112e23          	sw	ra,28(sp)
   11f18:	e7dfe0ef          	jal	10d94 <__sinit>
   11f1c:	00c12583          	lw	a1,12(sp)
   11f20:	00812503          	lw	a0,8(sp)
   11f24:	00c59783          	lh	a5,12(a1)
   11f28:	02079463          	bnez	a5,11f50 <fflush+0x74>
   11f2c:	01c12083          	lw	ra,28(sp)
   11f30:	00000513          	li	a0,0
   11f34:	02010113          	add	sp,sp,32
   11f38:	00008067          	ret
   11f3c:	000125b7          	lui	a1,0x12
   11f40:	c0818613          	add	a2,gp,-1016 # 14420 <__sglue>
   11f44:	e8058593          	add	a1,a1,-384 # 11e80 <_fflush_r>
   11f48:	c1818513          	add	a0,gp,-1000 # 14430 <_impure_data>
   11f4c:	e9dfe06f          	j	10de8 <_fwalk_sglue>
   11f50:	01c12083          	lw	ra,28(sp)
   11f54:	02010113          	add	sp,sp,32
   11f58:	cddff06f          	j	11c34 <__sflush_r>

00011f5c <__sfvwrite_r>:
   11f5c:	00862783          	lw	a5,8(a2)
   11f60:	2c078463          	beqz	a5,12228 <__sfvwrite_r+0x2cc>
   11f64:	00c59683          	lh	a3,12(a1)
   11f68:	fd010113          	add	sp,sp,-48
   11f6c:	02812423          	sw	s0,40(sp)
   11f70:	01412c23          	sw	s4,24(sp)
   11f74:	01612823          	sw	s6,16(sp)
   11f78:	02112623          	sw	ra,44(sp)
   11f7c:	0086f793          	and	a5,a3,8
   11f80:	00060b13          	mv	s6,a2
   11f84:	00050a13          	mv	s4,a0
   11f88:	00058413          	mv	s0,a1
   11f8c:	08078e63          	beqz	a5,12028 <__sfvwrite_r+0xcc>
   11f90:	0105a783          	lw	a5,16(a1)
   11f94:	08078a63          	beqz	a5,12028 <__sfvwrite_r+0xcc>
   11f98:	02912223          	sw	s1,36(sp)
   11f9c:	03212023          	sw	s2,32(sp)
   11fa0:	01312e23          	sw	s3,28(sp)
   11fa4:	01512a23          	sw	s5,20(sp)
   11fa8:	0026f793          	and	a5,a3,2
   11fac:	000b2483          	lw	s1,0(s6)
   11fb0:	0a078463          	beqz	a5,12058 <__sfvwrite_r+0xfc>
   11fb4:	02442783          	lw	a5,36(s0)
   11fb8:	01c42583          	lw	a1,28(s0)
   11fbc:	80000ab7          	lui	s5,0x80000
   11fc0:	00000993          	li	s3,0
   11fc4:	00000913          	li	s2,0
   11fc8:	c00a8a93          	add	s5,s5,-1024 # 7ffffc00 <__BSS_END__+0x7ffeb2f8>
   11fcc:	00098613          	mv	a2,s3
   11fd0:	000a0513          	mv	a0,s4
   11fd4:	04090263          	beqz	s2,12018 <__sfvwrite_r+0xbc>
   11fd8:	00090693          	mv	a3,s2
   11fdc:	012af463          	bgeu	s5,s2,11fe4 <__sfvwrite_r+0x88>
   11fe0:	000a8693          	mv	a3,s5
   11fe4:	000780e7          	jalr	a5
   11fe8:	46a05263          	blez	a0,1244c <__sfvwrite_r+0x4f0>
   11fec:	008b2783          	lw	a5,8(s6)
   11ff0:	00a989b3          	add	s3,s3,a0
   11ff4:	40a90933          	sub	s2,s2,a0
   11ff8:	40a787b3          	sub	a5,a5,a0
   11ffc:	00fb2423          	sw	a5,8(s6)
   12000:	1a078663          	beqz	a5,121ac <__sfvwrite_r+0x250>
   12004:	02442783          	lw	a5,36(s0)
   12008:	01c42583          	lw	a1,28(s0)
   1200c:	00098613          	mv	a2,s3
   12010:	000a0513          	mv	a0,s4
   12014:	fc0912e3          	bnez	s2,11fd8 <__sfvwrite_r+0x7c>
   12018:	0004a983          	lw	s3,0(s1)
   1201c:	0044a903          	lw	s2,4(s1)
   12020:	00848493          	add	s1,s1,8
   12024:	fa9ff06f          	j	11fcc <__sfvwrite_r+0x70>
   12028:	00040593          	mv	a1,s0
   1202c:	000a0513          	mv	a0,s4
   12030:	440000ef          	jal	12470 <__swsetup_r>
   12034:	1c051c63          	bnez	a0,1220c <__sfvwrite_r+0x2b0>
   12038:	00c41683          	lh	a3,12(s0)
   1203c:	02912223          	sw	s1,36(sp)
   12040:	03212023          	sw	s2,32(sp)
   12044:	01312e23          	sw	s3,28(sp)
   12048:	01512a23          	sw	s5,20(sp)
   1204c:	0026f793          	and	a5,a3,2
   12050:	000b2483          	lw	s1,0(s6)
   12054:	f60790e3          	bnez	a5,11fb4 <__sfvwrite_r+0x58>
   12058:	01712623          	sw	s7,12(sp)
   1205c:	01812423          	sw	s8,8(sp)
   12060:	0016f793          	and	a5,a3,1
   12064:	1c079663          	bnez	a5,12230 <__sfvwrite_r+0x2d4>
   12068:	00042783          	lw	a5,0(s0)
   1206c:	00842703          	lw	a4,8(s0)
   12070:	80000ab7          	lui	s5,0x80000
   12074:	01912223          	sw	s9,4(sp)
   12078:	00000b93          	li	s7,0
   1207c:	00000993          	li	s3,0
   12080:	fffa8a93          	add	s5,s5,-1 # 7fffffff <__BSS_END__+0x7ffeb6f7>
   12084:	00078513          	mv	a0,a5
   12088:	00070c13          	mv	s8,a4
   1208c:	10098263          	beqz	s3,12190 <__sfvwrite_r+0x234>
   12090:	2006f613          	and	a2,a3,512
   12094:	28060863          	beqz	a2,12324 <__sfvwrite_r+0x3c8>
   12098:	00070c93          	mv	s9,a4
   1209c:	32e9e863          	bltu	s3,a4,123cc <__sfvwrite_r+0x470>
   120a0:	4806f713          	and	a4,a3,1152
   120a4:	08070a63          	beqz	a4,12138 <__sfvwrite_r+0x1dc>
   120a8:	01442603          	lw	a2,20(s0)
   120ac:	01042583          	lw	a1,16(s0)
   120b0:	00161713          	sll	a4,a2,0x1
   120b4:	00c70733          	add	a4,a4,a2
   120b8:	40b78933          	sub	s2,a5,a1
   120bc:	01f75c13          	srl	s8,a4,0x1f
   120c0:	00ec0c33          	add	s8,s8,a4
   120c4:	00190793          	add	a5,s2,1
   120c8:	401c5c13          	sra	s8,s8,0x1
   120cc:	013787b3          	add	a5,a5,s3
   120d0:	000c0613          	mv	a2,s8
   120d4:	00fc7663          	bgeu	s8,a5,120e0 <__sfvwrite_r+0x184>
   120d8:	00078c13          	mv	s8,a5
   120dc:	00078613          	mv	a2,a5
   120e0:	4006f693          	and	a3,a3,1024
   120e4:	32068063          	beqz	a3,12404 <__sfvwrite_r+0x4a8>
   120e8:	00060593          	mv	a1,a2
   120ec:	000a0513          	mv	a0,s4
   120f0:	9e0fe0ef          	jal	102d0 <_malloc_r>
   120f4:	00050c93          	mv	s9,a0
   120f8:	34050e63          	beqz	a0,12454 <__sfvwrite_r+0x4f8>
   120fc:	01042583          	lw	a1,16(s0)
   12100:	00090613          	mv	a2,s2
   12104:	6d8000ef          	jal	127dc <memcpy>
   12108:	00c45783          	lhu	a5,12(s0)
   1210c:	b7f7f793          	and	a5,a5,-1153
   12110:	0807e793          	or	a5,a5,128
   12114:	00f41623          	sh	a5,12(s0)
   12118:	012c8533          	add	a0,s9,s2
   1211c:	412c07b3          	sub	a5,s8,s2
   12120:	01942823          	sw	s9,16(s0)
   12124:	01842a23          	sw	s8,20(s0)
   12128:	00a42023          	sw	a0,0(s0)
   1212c:	00098c13          	mv	s8,s3
   12130:	00f42423          	sw	a5,8(s0)
   12134:	00098c93          	mv	s9,s3
   12138:	000c8613          	mv	a2,s9
   1213c:	000b8593          	mv	a1,s7
   12140:	590000ef          	jal	126d0 <memmove>
   12144:	00842703          	lw	a4,8(s0)
   12148:	00042783          	lw	a5,0(s0)
   1214c:	00098913          	mv	s2,s3
   12150:	41870733          	sub	a4,a4,s8
   12154:	019787b3          	add	a5,a5,s9
   12158:	00e42423          	sw	a4,8(s0)
   1215c:	00f42023          	sw	a5,0(s0)
   12160:	00000993          	li	s3,0
   12164:	008b2783          	lw	a5,8(s6)
   12168:	012b8bb3          	add	s7,s7,s2
   1216c:	412787b3          	sub	a5,a5,s2
   12170:	00fb2423          	sw	a5,8(s6)
   12174:	02078663          	beqz	a5,121a0 <__sfvwrite_r+0x244>
   12178:	00042783          	lw	a5,0(s0)
   1217c:	00842703          	lw	a4,8(s0)
   12180:	00c41683          	lh	a3,12(s0)
   12184:	00078513          	mv	a0,a5
   12188:	00070c13          	mv	s8,a4
   1218c:	f00992e3          	bnez	s3,12090 <__sfvwrite_r+0x134>
   12190:	0004ab83          	lw	s7,0(s1)
   12194:	0044a983          	lw	s3,4(s1)
   12198:	00848493          	add	s1,s1,8
   1219c:	ee9ff06f          	j	12084 <__sfvwrite_r+0x128>
   121a0:	00c12b83          	lw	s7,12(sp)
   121a4:	00812c03          	lw	s8,8(sp)
   121a8:	00412c83          	lw	s9,4(sp)
   121ac:	02c12083          	lw	ra,44(sp)
   121b0:	02812403          	lw	s0,40(sp)
   121b4:	02412483          	lw	s1,36(sp)
   121b8:	02012903          	lw	s2,32(sp)
   121bc:	01c12983          	lw	s3,28(sp)
   121c0:	01412a83          	lw	s5,20(sp)
   121c4:	01812a03          	lw	s4,24(sp)
   121c8:	01012b03          	lw	s6,16(sp)
   121cc:	00000513          	li	a0,0
   121d0:	03010113          	add	sp,sp,48
   121d4:	00008067          	ret
   121d8:	00040593          	mv	a1,s0
   121dc:	000a0513          	mv	a0,s4
   121e0:	ca1ff0ef          	jal	11e80 <_fflush_r>
   121e4:	0a050e63          	beqz	a0,122a0 <__sfvwrite_r+0x344>
   121e8:	00c41783          	lh	a5,12(s0)
   121ec:	00c12b83          	lw	s7,12(sp)
   121f0:	00812c03          	lw	s8,8(sp)
   121f4:	02412483          	lw	s1,36(sp)
   121f8:	02012903          	lw	s2,32(sp)
   121fc:	01c12983          	lw	s3,28(sp)
   12200:	01412a83          	lw	s5,20(sp)
   12204:	0407e793          	or	a5,a5,64
   12208:	00f41623          	sh	a5,12(s0)
   1220c:	02c12083          	lw	ra,44(sp)
   12210:	02812403          	lw	s0,40(sp)
   12214:	01812a03          	lw	s4,24(sp)
   12218:	01012b03          	lw	s6,16(sp)
   1221c:	fff00513          	li	a0,-1
   12220:	03010113          	add	sp,sp,48
   12224:	00008067          	ret
   12228:	00000513          	li	a0,0
   1222c:	00008067          	ret
   12230:	00000a93          	li	s5,0
   12234:	00000513          	li	a0,0
   12238:	00000c13          	li	s8,0
   1223c:	00000993          	li	s3,0
   12240:	08098263          	beqz	s3,122c4 <__sfvwrite_r+0x368>
   12244:	08050a63          	beqz	a0,122d8 <__sfvwrite_r+0x37c>
   12248:	000a8793          	mv	a5,s5
   1224c:	00098b93          	mv	s7,s3
   12250:	0137f463          	bgeu	a5,s3,12258 <__sfvwrite_r+0x2fc>
   12254:	00078b93          	mv	s7,a5
   12258:	00042503          	lw	a0,0(s0)
   1225c:	01042783          	lw	a5,16(s0)
   12260:	00842903          	lw	s2,8(s0)
   12264:	01442683          	lw	a3,20(s0)
   12268:	00a7f663          	bgeu	a5,a0,12274 <__sfvwrite_r+0x318>
   1226c:	00d90933          	add	s2,s2,a3
   12270:	09794463          	blt	s2,s7,122f8 <__sfvwrite_r+0x39c>
   12274:	16dbc263          	blt	s7,a3,123d8 <__sfvwrite_r+0x47c>
   12278:	02442783          	lw	a5,36(s0)
   1227c:	01c42583          	lw	a1,28(s0)
   12280:	000c0613          	mv	a2,s8
   12284:	000a0513          	mv	a0,s4
   12288:	000780e7          	jalr	a5
   1228c:	00050913          	mv	s2,a0
   12290:	f4a05ce3          	blez	a0,121e8 <__sfvwrite_r+0x28c>
   12294:	412a8ab3          	sub	s5,s5,s2
   12298:	00100513          	li	a0,1
   1229c:	f20a8ee3          	beqz	s5,121d8 <__sfvwrite_r+0x27c>
   122a0:	008b2783          	lw	a5,8(s6)
   122a4:	012c0c33          	add	s8,s8,s2
   122a8:	412989b3          	sub	s3,s3,s2
   122ac:	412787b3          	sub	a5,a5,s2
   122b0:	00fb2423          	sw	a5,8(s6)
   122b4:	f80796e3          	bnez	a5,12240 <__sfvwrite_r+0x2e4>
   122b8:	00c12b83          	lw	s7,12(sp)
   122bc:	00812c03          	lw	s8,8(sp)
   122c0:	eedff06f          	j	121ac <__sfvwrite_r+0x250>
   122c4:	0044a983          	lw	s3,4(s1)
   122c8:	00048793          	mv	a5,s1
   122cc:	00848493          	add	s1,s1,8
   122d0:	fe098ae3          	beqz	s3,122c4 <__sfvwrite_r+0x368>
   122d4:	0007ac03          	lw	s8,0(a5)
   122d8:	00098613          	mv	a2,s3
   122dc:	00a00593          	li	a1,10
   122e0:	000c0513          	mv	a0,s8
   122e4:	2cc000ef          	jal	125b0 <memchr>
   122e8:	14050c63          	beqz	a0,12440 <__sfvwrite_r+0x4e4>
   122ec:	00150513          	add	a0,a0,1
   122f0:	41850ab3          	sub	s5,a0,s8
   122f4:	f55ff06f          	j	12248 <__sfvwrite_r+0x2ec>
   122f8:	000c0593          	mv	a1,s8
   122fc:	00090613          	mv	a2,s2
   12300:	3d0000ef          	jal	126d0 <memmove>
   12304:	00042783          	lw	a5,0(s0)
   12308:	00040593          	mv	a1,s0
   1230c:	000a0513          	mv	a0,s4
   12310:	012787b3          	add	a5,a5,s2
   12314:	00f42023          	sw	a5,0(s0)
   12318:	b69ff0ef          	jal	11e80 <_fflush_r>
   1231c:	f6050ce3          	beqz	a0,12294 <__sfvwrite_r+0x338>
   12320:	ec9ff06f          	j	121e8 <__sfvwrite_r+0x28c>
   12324:	01042683          	lw	a3,16(s0)
   12328:	04f6e463          	bltu	a3,a5,12370 <__sfvwrite_r+0x414>
   1232c:	01442583          	lw	a1,20(s0)
   12330:	04b9e063          	bltu	s3,a1,12370 <__sfvwrite_r+0x414>
   12334:	00098913          	mv	s2,s3
   12338:	013af463          	bgeu	s5,s3,12340 <__sfvwrite_r+0x3e4>
   1233c:	000a8913          	mv	s2,s5
   12340:	00090513          	mv	a0,s2
   12344:	6c4010ef          	jal	13a08 <__modsi3>
   12348:	02442783          	lw	a5,36(s0)
   1234c:	01c42583          	lw	a1,28(s0)
   12350:	40a906b3          	sub	a3,s2,a0
   12354:	000b8613          	mv	a2,s7
   12358:	000a0513          	mv	a0,s4
   1235c:	000780e7          	jalr	a5
   12360:	00050913          	mv	s2,a0
   12364:	04a05a63          	blez	a0,123b8 <__sfvwrite_r+0x45c>
   12368:	412989b3          	sub	s3,s3,s2
   1236c:	df9ff06f          	j	12164 <__sfvwrite_r+0x208>
   12370:	00070913          	mv	s2,a4
   12374:	00e9f463          	bgeu	s3,a4,1237c <__sfvwrite_r+0x420>
   12378:	00098913          	mv	s2,s3
   1237c:	00078513          	mv	a0,a5
   12380:	00090613          	mv	a2,s2
   12384:	000b8593          	mv	a1,s7
   12388:	348000ef          	jal	126d0 <memmove>
   1238c:	00842703          	lw	a4,8(s0)
   12390:	00042783          	lw	a5,0(s0)
   12394:	41270733          	sub	a4,a4,s2
   12398:	012787b3          	add	a5,a5,s2
   1239c:	00e42423          	sw	a4,8(s0)
   123a0:	00f42023          	sw	a5,0(s0)
   123a4:	fc0712e3          	bnez	a4,12368 <__sfvwrite_r+0x40c>
   123a8:	00040593          	mv	a1,s0
   123ac:	000a0513          	mv	a0,s4
   123b0:	ad1ff0ef          	jal	11e80 <_fflush_r>
   123b4:	fa050ae3          	beqz	a0,12368 <__sfvwrite_r+0x40c>
   123b8:	00c41783          	lh	a5,12(s0)
   123bc:	00c12b83          	lw	s7,12(sp)
   123c0:	00812c03          	lw	s8,8(sp)
   123c4:	00412c83          	lw	s9,4(sp)
   123c8:	e2dff06f          	j	121f4 <__sfvwrite_r+0x298>
   123cc:	00098c13          	mv	s8,s3
   123d0:	00098c93          	mv	s9,s3
   123d4:	d65ff06f          	j	12138 <__sfvwrite_r+0x1dc>
   123d8:	000b8613          	mv	a2,s7
   123dc:	000c0593          	mv	a1,s8
   123e0:	2f0000ef          	jal	126d0 <memmove>
   123e4:	00842703          	lw	a4,8(s0)
   123e8:	00042783          	lw	a5,0(s0)
   123ec:	000b8913          	mv	s2,s7
   123f0:	41770733          	sub	a4,a4,s7
   123f4:	017787b3          	add	a5,a5,s7
   123f8:	00e42423          	sw	a4,8(s0)
   123fc:	00f42023          	sw	a5,0(s0)
   12400:	e95ff06f          	j	12294 <__sfvwrite_r+0x338>
   12404:	000a0513          	mv	a0,s4
   12408:	610000ef          	jal	12a18 <_realloc_r>
   1240c:	00050c93          	mv	s9,a0
   12410:	d00514e3          	bnez	a0,12118 <__sfvwrite_r+0x1bc>
   12414:	01042583          	lw	a1,16(s0)
   12418:	000a0513          	mv	a0,s4
   1241c:	c00ff0ef          	jal	1181c <_free_r>
   12420:	00c41783          	lh	a5,12(s0)
   12424:	00c00713          	li	a4,12
   12428:	00c12b83          	lw	s7,12(sp)
   1242c:	00812c03          	lw	s8,8(sp)
   12430:	00412c83          	lw	s9,4(sp)
   12434:	00ea2023          	sw	a4,0(s4)
   12438:	f7f7f793          	and	a5,a5,-129
   1243c:	db9ff06f          	j	121f4 <__sfvwrite_r+0x298>
   12440:	00198793          	add	a5,s3,1
   12444:	00078a93          	mv	s5,a5
   12448:	e05ff06f          	j	1224c <__sfvwrite_r+0x2f0>
   1244c:	00c41783          	lh	a5,12(s0)
   12450:	da5ff06f          	j	121f4 <__sfvwrite_r+0x298>
   12454:	00c00713          	li	a4,12
   12458:	00c41783          	lh	a5,12(s0)
   1245c:	00c12b83          	lw	s7,12(sp)
   12460:	00812c03          	lw	s8,8(sp)
   12464:	00412c83          	lw	s9,4(sp)
   12468:	00ea2023          	sw	a4,0(s4)
   1246c:	d89ff06f          	j	121f4 <__sfvwrite_r+0x298>

00012470 <__swsetup_r>:
   12470:	d441a783          	lw	a5,-700(gp) # 1455c <_impure_ptr>
   12474:	ff010113          	add	sp,sp,-16
   12478:	00812423          	sw	s0,8(sp)
   1247c:	00912223          	sw	s1,4(sp)
   12480:	00112623          	sw	ra,12(sp)
   12484:	00050493          	mv	s1,a0
   12488:	00058413          	mv	s0,a1
   1248c:	00078663          	beqz	a5,12498 <__swsetup_r+0x28>
   12490:	0347a703          	lw	a4,52(a5)
   12494:	0e070c63          	beqz	a4,1258c <__swsetup_r+0x11c>
   12498:	00c41783          	lh	a5,12(s0)
   1249c:	0087f713          	and	a4,a5,8
   124a0:	06070a63          	beqz	a4,12514 <__swsetup_r+0xa4>
   124a4:	01042703          	lw	a4,16(s0)
   124a8:	08070663          	beqz	a4,12534 <__swsetup_r+0xc4>
   124ac:	0017f693          	and	a3,a5,1
   124b0:	02068863          	beqz	a3,124e0 <__swsetup_r+0x70>
   124b4:	01442683          	lw	a3,20(s0)
   124b8:	00042423          	sw	zero,8(s0)
   124bc:	00000513          	li	a0,0
   124c0:	40d006b3          	neg	a3,a3
   124c4:	00d42c23          	sw	a3,24(s0)
   124c8:	02070a63          	beqz	a4,124fc <__swsetup_r+0x8c>
   124cc:	00c12083          	lw	ra,12(sp)
   124d0:	00812403          	lw	s0,8(sp)
   124d4:	00412483          	lw	s1,4(sp)
   124d8:	01010113          	add	sp,sp,16
   124dc:	00008067          	ret
   124e0:	0027f693          	and	a3,a5,2
   124e4:	00000613          	li	a2,0
   124e8:	00069463          	bnez	a3,124f0 <__swsetup_r+0x80>
   124ec:	01442603          	lw	a2,20(s0)
   124f0:	00c42423          	sw	a2,8(s0)
   124f4:	00000513          	li	a0,0
   124f8:	fc071ae3          	bnez	a4,124cc <__swsetup_r+0x5c>
   124fc:	0807f713          	and	a4,a5,128
   12500:	fc0706e3          	beqz	a4,124cc <__swsetup_r+0x5c>
   12504:	0407e793          	or	a5,a5,64
   12508:	00f41623          	sh	a5,12(s0)
   1250c:	fff00513          	li	a0,-1
   12510:	fbdff06f          	j	124cc <__swsetup_r+0x5c>
   12514:	0107f713          	and	a4,a5,16
   12518:	08070063          	beqz	a4,12598 <__swsetup_r+0x128>
   1251c:	0047f713          	and	a4,a5,4
   12520:	02071c63          	bnez	a4,12558 <__swsetup_r+0xe8>
   12524:	01042703          	lw	a4,16(s0)
   12528:	0087e793          	or	a5,a5,8
   1252c:	00f41623          	sh	a5,12(s0)
   12530:	f6071ee3          	bnez	a4,124ac <__swsetup_r+0x3c>
   12534:	2807f693          	and	a3,a5,640
   12538:	20000613          	li	a2,512
   1253c:	f6c688e3          	beq	a3,a2,124ac <__swsetup_r+0x3c>
   12540:	00040593          	mv	a1,s0
   12544:	00048513          	mv	a0,s1
   12548:	241000ef          	jal	12f88 <__smakebuf_r>
   1254c:	00c41783          	lh	a5,12(s0)
   12550:	01042703          	lw	a4,16(s0)
   12554:	f59ff06f          	j	124ac <__swsetup_r+0x3c>
   12558:	03042583          	lw	a1,48(s0)
   1255c:	00058e63          	beqz	a1,12578 <__swsetup_r+0x108>
   12560:	04040713          	add	a4,s0,64
   12564:	00e58863          	beq	a1,a4,12574 <__swsetup_r+0x104>
   12568:	00048513          	mv	a0,s1
   1256c:	ab0ff0ef          	jal	1181c <_free_r>
   12570:	00c41783          	lh	a5,12(s0)
   12574:	02042823          	sw	zero,48(s0)
   12578:	01042703          	lw	a4,16(s0)
   1257c:	fdb7f793          	and	a5,a5,-37
   12580:	00042223          	sw	zero,4(s0)
   12584:	00e42023          	sw	a4,0(s0)
   12588:	fa1ff06f          	j	12528 <__swsetup_r+0xb8>
   1258c:	00078513          	mv	a0,a5
   12590:	805fe0ef          	jal	10d94 <__sinit>
   12594:	f05ff06f          	j	12498 <__swsetup_r+0x28>
   12598:	00900713          	li	a4,9
   1259c:	00e4a023          	sw	a4,0(s1)
   125a0:	0407e793          	or	a5,a5,64
   125a4:	00f41623          	sh	a5,12(s0)
   125a8:	fff00513          	li	a0,-1
   125ac:	f21ff06f          	j	124cc <__swsetup_r+0x5c>

000125b0 <memchr>:
   125b0:	00357793          	and	a5,a0,3
   125b4:	0ff5f693          	zext.b	a3,a1
   125b8:	02078a63          	beqz	a5,125ec <memchr+0x3c>
   125bc:	fff60793          	add	a5,a2,-1
   125c0:	02060e63          	beqz	a2,125fc <memchr+0x4c>
   125c4:	fff00613          	li	a2,-1
   125c8:	0180006f          	j	125e0 <memchr+0x30>
   125cc:	00150513          	add	a0,a0,1
   125d0:	00357713          	and	a4,a0,3
   125d4:	00070e63          	beqz	a4,125f0 <memchr+0x40>
   125d8:	fff78793          	add	a5,a5,-1
   125dc:	02c78063          	beq	a5,a2,125fc <memchr+0x4c>
   125e0:	00054703          	lbu	a4,0(a0)
   125e4:	fed714e3          	bne	a4,a3,125cc <memchr+0x1c>
   125e8:	00008067          	ret
   125ec:	00060793          	mv	a5,a2
   125f0:	00300713          	li	a4,3
   125f4:	00f76863          	bltu	a4,a5,12604 <memchr+0x54>
   125f8:	06079063          	bnez	a5,12658 <memchr+0xa8>
   125fc:	00000513          	li	a0,0
   12600:	00008067          	ret
   12604:	0ff5f593          	zext.b	a1,a1
   12608:	00859713          	sll	a4,a1,0x8
   1260c:	00b705b3          	add	a1,a4,a1
   12610:	01059713          	sll	a4,a1,0x10
   12614:	feff08b7          	lui	a7,0xfeff0
   12618:	80808837          	lui	a6,0x80808
   1261c:	00e585b3          	add	a1,a1,a4
   12620:	eff88893          	add	a7,a7,-257 # fefefeff <__BSS_END__+0xfefdb5f7>
   12624:	08080813          	add	a6,a6,128 # 80808080 <__BSS_END__+0x807f3778>
   12628:	00300313          	li	t1,3
   1262c:	0100006f          	j	1263c <memchr+0x8c>
   12630:	ffc78793          	add	a5,a5,-4
   12634:	00450513          	add	a0,a0,4
   12638:	fcf370e3          	bgeu	t1,a5,125f8 <memchr+0x48>
   1263c:	00052703          	lw	a4,0(a0)
   12640:	00e5c733          	xor	a4,a1,a4
   12644:	01170633          	add	a2,a4,a7
   12648:	fff74713          	not	a4,a4
   1264c:	00e67733          	and	a4,a2,a4
   12650:	01077733          	and	a4,a4,a6
   12654:	fc070ee3          	beqz	a4,12630 <memchr+0x80>
   12658:	00f507b3          	add	a5,a0,a5
   1265c:	00c0006f          	j	12668 <memchr+0xb8>
   12660:	00150513          	add	a0,a0,1
   12664:	f8f50ce3          	beq	a0,a5,125fc <memchr+0x4c>
   12668:	00054703          	lbu	a4,0(a0)
   1266c:	fed71ae3          	bne	a4,a3,12660 <memchr+0xb0>
   12670:	00008067          	ret

00012674 <__libc_fini_array>:
   12674:	ff010113          	add	sp,sp,-16
   12678:	00812423          	sw	s0,8(sp)
   1267c:	000147b7          	lui	a5,0x14
   12680:	00014437          	lui	s0,0x14
   12684:	01078793          	add	a5,a5,16 # 14010 <__do_global_dtors_aux_fini_array_entry>
   12688:	01440413          	add	s0,s0,20 # 14014 <__fini_array_end>
   1268c:	40f40433          	sub	s0,s0,a5
   12690:	00912223          	sw	s1,4(sp)
   12694:	00112623          	sw	ra,12(sp)
   12698:	40245493          	sra	s1,s0,0x2
   1269c:	02048063          	beqz	s1,126bc <__libc_fini_array+0x48>
   126a0:	ffc40413          	add	s0,s0,-4
   126a4:	00f40433          	add	s0,s0,a5
   126a8:	00042783          	lw	a5,0(s0)
   126ac:	fff48493          	add	s1,s1,-1
   126b0:	ffc40413          	add	s0,s0,-4
   126b4:	000780e7          	jalr	a5
   126b8:	fe0498e3          	bnez	s1,126a8 <__libc_fini_array+0x34>
   126bc:	00c12083          	lw	ra,12(sp)
   126c0:	00812403          	lw	s0,8(sp)
   126c4:	00412483          	lw	s1,4(sp)
   126c8:	01010113          	add	sp,sp,16
   126cc:	00008067          	ret

000126d0 <memmove>:
   126d0:	02a5f663          	bgeu	a1,a0,126fc <memmove+0x2c>
   126d4:	00c58733          	add	a4,a1,a2
   126d8:	02e57263          	bgeu	a0,a4,126fc <memmove+0x2c>
   126dc:	00c507b3          	add	a5,a0,a2
   126e0:	04060663          	beqz	a2,1272c <memmove+0x5c>
   126e4:	fff74683          	lbu	a3,-1(a4)
   126e8:	fff78793          	add	a5,a5,-1
   126ec:	fff70713          	add	a4,a4,-1
   126f0:	00d78023          	sb	a3,0(a5)
   126f4:	fef518e3          	bne	a0,a5,126e4 <memmove+0x14>
   126f8:	00008067          	ret
   126fc:	00f00793          	li	a5,15
   12700:	02c7e863          	bltu	a5,a2,12730 <memmove+0x60>
   12704:	00050793          	mv	a5,a0
   12708:	fff60693          	add	a3,a2,-1
   1270c:	0c060263          	beqz	a2,127d0 <memmove+0x100>
   12710:	00168693          	add	a3,a3,1
   12714:	00d786b3          	add	a3,a5,a3
   12718:	0005c703          	lbu	a4,0(a1)
   1271c:	00178793          	add	a5,a5,1
   12720:	00158593          	add	a1,a1,1
   12724:	fee78fa3          	sb	a4,-1(a5)
   12728:	fed798e3          	bne	a5,a3,12718 <memmove+0x48>
   1272c:	00008067          	ret
   12730:	00b567b3          	or	a5,a0,a1
   12734:	0037f793          	and	a5,a5,3
   12738:	08079663          	bnez	a5,127c4 <memmove+0xf4>
   1273c:	ff060893          	add	a7,a2,-16
   12740:	ff08f893          	and	a7,a7,-16
   12744:	01088893          	add	a7,a7,16
   12748:	011506b3          	add	a3,a0,a7
   1274c:	00058713          	mv	a4,a1
   12750:	00050793          	mv	a5,a0
   12754:	00072803          	lw	a6,0(a4)
   12758:	01070713          	add	a4,a4,16
   1275c:	01078793          	add	a5,a5,16
   12760:	ff07a823          	sw	a6,-16(a5)
   12764:	ff472803          	lw	a6,-12(a4)
   12768:	ff07aa23          	sw	a6,-12(a5)
   1276c:	ff872803          	lw	a6,-8(a4)
   12770:	ff07ac23          	sw	a6,-8(a5)
   12774:	ffc72803          	lw	a6,-4(a4)
   12778:	ff07ae23          	sw	a6,-4(a5)
   1277c:	fcd79ce3          	bne	a5,a3,12754 <memmove+0x84>
   12780:	00c67813          	and	a6,a2,12
   12784:	011585b3          	add	a1,a1,a7
   12788:	00f67713          	and	a4,a2,15
   1278c:	04080463          	beqz	a6,127d4 <memmove+0x104>
   12790:	ffc70813          	add	a6,a4,-4
   12794:	ffc87813          	and	a6,a6,-4
   12798:	00480813          	add	a6,a6,4
   1279c:	010687b3          	add	a5,a3,a6
   127a0:	00058713          	mv	a4,a1
   127a4:	00072883          	lw	a7,0(a4)
   127a8:	00468693          	add	a3,a3,4
   127ac:	00470713          	add	a4,a4,4
   127b0:	ff16ae23          	sw	a7,-4(a3)
   127b4:	fef698e3          	bne	a3,a5,127a4 <memmove+0xd4>
   127b8:	00367613          	and	a2,a2,3
   127bc:	010585b3          	add	a1,a1,a6
   127c0:	f49ff06f          	j	12708 <memmove+0x38>
   127c4:	fff60693          	add	a3,a2,-1
   127c8:	00050793          	mv	a5,a0
   127cc:	f45ff06f          	j	12710 <memmove+0x40>
   127d0:	00008067          	ret
   127d4:	00070613          	mv	a2,a4
   127d8:	f31ff06f          	j	12708 <memmove+0x38>

000127dc <memcpy>:
   127dc:	00a5c7b3          	xor	a5,a1,a0
   127e0:	0037f793          	and	a5,a5,3
   127e4:	00c508b3          	add	a7,a0,a2
   127e8:	06079463          	bnez	a5,12850 <memcpy+0x74>
   127ec:	00300793          	li	a5,3
   127f0:	06c7f063          	bgeu	a5,a2,12850 <memcpy+0x74>
   127f4:	00357793          	and	a5,a0,3
   127f8:	00050713          	mv	a4,a0
   127fc:	06079a63          	bnez	a5,12870 <memcpy+0x94>
   12800:	ffc8f613          	and	a2,a7,-4
   12804:	40e606b3          	sub	a3,a2,a4
   12808:	02000793          	li	a5,32
   1280c:	08d7ce63          	blt	a5,a3,128a8 <memcpy+0xcc>
   12810:	00058693          	mv	a3,a1
   12814:	00070793          	mv	a5,a4
   12818:	02c77863          	bgeu	a4,a2,12848 <memcpy+0x6c>
   1281c:	0006a803          	lw	a6,0(a3)
   12820:	00478793          	add	a5,a5,4
   12824:	00468693          	add	a3,a3,4
   12828:	ff07ae23          	sw	a6,-4(a5)
   1282c:	fec7e8e3          	bltu	a5,a2,1281c <memcpy+0x40>
   12830:	fff60793          	add	a5,a2,-1
   12834:	40e787b3          	sub	a5,a5,a4
   12838:	ffc7f793          	and	a5,a5,-4
   1283c:	00478793          	add	a5,a5,4
   12840:	00f70733          	add	a4,a4,a5
   12844:	00f585b3          	add	a1,a1,a5
   12848:	01176863          	bltu	a4,a7,12858 <memcpy+0x7c>
   1284c:	00008067          	ret
   12850:	00050713          	mv	a4,a0
   12854:	05157863          	bgeu	a0,a7,128a4 <memcpy+0xc8>
   12858:	0005c783          	lbu	a5,0(a1)
   1285c:	00170713          	add	a4,a4,1
   12860:	00158593          	add	a1,a1,1
   12864:	fef70fa3          	sb	a5,-1(a4)
   12868:	fee898e3          	bne	a7,a4,12858 <memcpy+0x7c>
   1286c:	00008067          	ret
   12870:	0005c683          	lbu	a3,0(a1)
   12874:	00170713          	add	a4,a4,1
   12878:	00377793          	and	a5,a4,3
   1287c:	fed70fa3          	sb	a3,-1(a4)
   12880:	00158593          	add	a1,a1,1
   12884:	f6078ee3          	beqz	a5,12800 <memcpy+0x24>
   12888:	0005c683          	lbu	a3,0(a1)
   1288c:	00170713          	add	a4,a4,1
   12890:	00377793          	and	a5,a4,3
   12894:	fed70fa3          	sb	a3,-1(a4)
   12898:	00158593          	add	a1,a1,1
   1289c:	fc079ae3          	bnez	a5,12870 <memcpy+0x94>
   128a0:	f61ff06f          	j	12800 <memcpy+0x24>
   128a4:	00008067          	ret
   128a8:	ff010113          	add	sp,sp,-16
   128ac:	00812623          	sw	s0,12(sp)
   128b0:	02000413          	li	s0,32
   128b4:	0005a383          	lw	t2,0(a1)
   128b8:	0045a283          	lw	t0,4(a1)
   128bc:	0085af83          	lw	t6,8(a1)
   128c0:	00c5af03          	lw	t5,12(a1)
   128c4:	0105ae83          	lw	t4,16(a1)
   128c8:	0145ae03          	lw	t3,20(a1)
   128cc:	0185a303          	lw	t1,24(a1)
   128d0:	01c5a803          	lw	a6,28(a1)
   128d4:	0205a683          	lw	a3,32(a1)
   128d8:	02470713          	add	a4,a4,36
   128dc:	40e607b3          	sub	a5,a2,a4
   128e0:	fc772e23          	sw	t2,-36(a4)
   128e4:	fe572023          	sw	t0,-32(a4)
   128e8:	fff72223          	sw	t6,-28(a4)
   128ec:	ffe72423          	sw	t5,-24(a4)
   128f0:	ffd72623          	sw	t4,-20(a4)
   128f4:	ffc72823          	sw	t3,-16(a4)
   128f8:	fe672a23          	sw	t1,-12(a4)
   128fc:	ff072c23          	sw	a6,-8(a4)
   12900:	fed72e23          	sw	a3,-4(a4)
   12904:	02458593          	add	a1,a1,36
   12908:	faf446e3          	blt	s0,a5,128b4 <memcpy+0xd8>
   1290c:	00058693          	mv	a3,a1
   12910:	00070793          	mv	a5,a4
   12914:	02c77863          	bgeu	a4,a2,12944 <memcpy+0x168>
   12918:	0006a803          	lw	a6,0(a3)
   1291c:	00478793          	add	a5,a5,4
   12920:	00468693          	add	a3,a3,4
   12924:	ff07ae23          	sw	a6,-4(a5)
   12928:	fec7e8e3          	bltu	a5,a2,12918 <memcpy+0x13c>
   1292c:	fff60793          	add	a5,a2,-1
   12930:	40e787b3          	sub	a5,a5,a4
   12934:	ffc7f793          	and	a5,a5,-4
   12938:	00478793          	add	a5,a5,4
   1293c:	00f70733          	add	a4,a4,a5
   12940:	00f585b3          	add	a1,a1,a5
   12944:	01176863          	bltu	a4,a7,12954 <memcpy+0x178>
   12948:	00c12403          	lw	s0,12(sp)
   1294c:	01010113          	add	sp,sp,16
   12950:	00008067          	ret
   12954:	0005c783          	lbu	a5,0(a1)
   12958:	00170713          	add	a4,a4,1
   1295c:	00158593          	add	a1,a1,1
   12960:	fef70fa3          	sb	a5,-1(a4)
   12964:	fee882e3          	beq	a7,a4,12948 <memcpy+0x16c>
   12968:	0005c783          	lbu	a5,0(a1)
   1296c:	00170713          	add	a4,a4,1
   12970:	00158593          	add	a1,a1,1
   12974:	fef70fa3          	sb	a5,-1(a4)
   12978:	fce89ee3          	bne	a7,a4,12954 <memcpy+0x178>
   1297c:	fcdff06f          	j	12948 <memcpy+0x16c>

00012980 <__register_exitproc>:
   12980:	d5c1a783          	lw	a5,-676(gp) # 14574 <__atexit>
   12984:	04078c63          	beqz	a5,129dc <__register_exitproc+0x5c>
   12988:	0047a703          	lw	a4,4(a5)
   1298c:	01f00813          	li	a6,31
   12990:	08e84063          	blt	a6,a4,12a10 <__register_exitproc+0x90>
   12994:	00271813          	sll	a6,a4,0x2
   12998:	02050663          	beqz	a0,129c4 <__register_exitproc+0x44>
   1299c:	01078333          	add	t1,a5,a6
   129a0:	08c32423          	sw	a2,136(t1)
   129a4:	1887a883          	lw	a7,392(a5)
   129a8:	00100613          	li	a2,1
   129ac:	00e61633          	sll	a2,a2,a4
   129b0:	00c8e8b3          	or	a7,a7,a2
   129b4:	1917a423          	sw	a7,392(a5)
   129b8:	10d32423          	sw	a3,264(t1)
   129bc:	00200693          	li	a3,2
   129c0:	02d50663          	beq	a0,a3,129ec <__register_exitproc+0x6c>
   129c4:	00170713          	add	a4,a4,1
   129c8:	00e7a223          	sw	a4,4(a5)
   129cc:	010787b3          	add	a5,a5,a6
   129d0:	00b7a423          	sw	a1,8(a5)
   129d4:	00000513          	li	a0,0
   129d8:	00008067          	ret
   129dc:	ee018813          	add	a6,gp,-288 # 146f8 <__atexit0>
   129e0:	d501ae23          	sw	a6,-676(gp) # 14574 <__atexit>
   129e4:	ee018793          	add	a5,gp,-288 # 146f8 <__atexit0>
   129e8:	fa1ff06f          	j	12988 <__register_exitproc+0x8>
   129ec:	18c7a683          	lw	a3,396(a5)
   129f0:	00170713          	add	a4,a4,1
   129f4:	00e7a223          	sw	a4,4(a5)
   129f8:	00c6e6b3          	or	a3,a3,a2
   129fc:	18d7a623          	sw	a3,396(a5)
   12a00:	010787b3          	add	a5,a5,a6
   12a04:	00b7a423          	sw	a1,8(a5)
   12a08:	00000513          	li	a0,0
   12a0c:	00008067          	ret
   12a10:	fff00513          	li	a0,-1
   12a14:	00008067          	ret

00012a18 <_realloc_r>:
   12a18:	fd010113          	add	sp,sp,-48
   12a1c:	02912223          	sw	s1,36(sp)
   12a20:	02112623          	sw	ra,44(sp)
   12a24:	00060493          	mv	s1,a2
   12a28:	1e058863          	beqz	a1,12c18 <_realloc_r+0x200>
   12a2c:	02812423          	sw	s0,40(sp)
   12a30:	03212023          	sw	s2,32(sp)
   12a34:	00058413          	mv	s0,a1
   12a38:	01312e23          	sw	s3,28(sp)
   12a3c:	01512a23          	sw	s5,20(sp)
   12a40:	01412c23          	sw	s4,24(sp)
   12a44:	00050913          	mv	s2,a0
   12a48:	844fe0ef          	jal	10a8c <__malloc_lock>
   12a4c:	ffc42703          	lw	a4,-4(s0)
   12a50:	00b48793          	add	a5,s1,11
   12a54:	01600693          	li	a3,22
   12a58:	ff840a93          	add	s5,s0,-8
   12a5c:	ffc77993          	and	s3,a4,-4
   12a60:	10f6f263          	bgeu	a3,a5,12b64 <_realloc_r+0x14c>
   12a64:	ff87fa13          	and	s4,a5,-8
   12a68:	1007c263          	bltz	a5,12b6c <_realloc_r+0x154>
   12a6c:	109a6063          	bltu	s4,s1,12b6c <_realloc_r+0x154>
   12a70:	1349d263          	bge	s3,s4,12b94 <_realloc_r+0x17c>
   12a74:	000147b7          	lui	a5,0x14
   12a78:	01812423          	sw	s8,8(sp)
   12a7c:	01878c13          	add	s8,a5,24 # 14018 <__malloc_av_>
   12a80:	008c2603          	lw	a2,8(s8)
   12a84:	013a86b3          	add	a3,s5,s3
   12a88:	0046a783          	lw	a5,4(a3)
   12a8c:	1cd60863          	beq	a2,a3,12c5c <_realloc_r+0x244>
   12a90:	ffe7f613          	and	a2,a5,-2
   12a94:	00c68633          	add	a2,a3,a2
   12a98:	00462603          	lw	a2,4(a2)
   12a9c:	00167613          	and	a2,a2,1
   12aa0:	14061a63          	bnez	a2,12bf4 <_realloc_r+0x1dc>
   12aa4:	ffc7f793          	and	a5,a5,-4
   12aa8:	00f98633          	add	a2,s3,a5
   12aac:	0d465863          	bge	a2,s4,12b7c <_realloc_r+0x164>
   12ab0:	00177713          	and	a4,a4,1
   12ab4:	02071c63          	bnez	a4,12aec <_realloc_r+0xd4>
   12ab8:	01712623          	sw	s7,12(sp)
   12abc:	ff842b83          	lw	s7,-8(s0)
   12ac0:	01612823          	sw	s6,16(sp)
   12ac4:	417a8bb3          	sub	s7,s5,s7
   12ac8:	004ba703          	lw	a4,4(s7)
   12acc:	ffc77713          	and	a4,a4,-4
   12ad0:	00e787b3          	add	a5,a5,a4
   12ad4:	01378b33          	add	s6,a5,s3
   12ad8:	334b5c63          	bge	s6,s4,12e10 <_realloc_r+0x3f8>
   12adc:	00e98b33          	add	s6,s3,a4
   12ae0:	294b5863          	bge	s6,s4,12d70 <_realloc_r+0x358>
   12ae4:	01012b03          	lw	s6,16(sp)
   12ae8:	00c12b83          	lw	s7,12(sp)
   12aec:	00048593          	mv	a1,s1
   12af0:	00090513          	mv	a0,s2
   12af4:	fdcfd0ef          	jal	102d0 <_malloc_r>
   12af8:	00050493          	mv	s1,a0
   12afc:	40050863          	beqz	a0,12f0c <_realloc_r+0x4f4>
   12b00:	ffc42783          	lw	a5,-4(s0)
   12b04:	ff850713          	add	a4,a0,-8
   12b08:	ffe7f793          	and	a5,a5,-2
   12b0c:	00fa87b3          	add	a5,s5,a5
   12b10:	24e78663          	beq	a5,a4,12d5c <_realloc_r+0x344>
   12b14:	ffc98613          	add	a2,s3,-4
   12b18:	02400793          	li	a5,36
   12b1c:	2ec7e463          	bltu	a5,a2,12e04 <_realloc_r+0x3ec>
   12b20:	01300713          	li	a4,19
   12b24:	20c76a63          	bltu	a4,a2,12d38 <_realloc_r+0x320>
   12b28:	00050793          	mv	a5,a0
   12b2c:	00040713          	mv	a4,s0
   12b30:	00072683          	lw	a3,0(a4)
   12b34:	00d7a023          	sw	a3,0(a5)
   12b38:	00472683          	lw	a3,4(a4)
   12b3c:	00d7a223          	sw	a3,4(a5)
   12b40:	00872703          	lw	a4,8(a4)
   12b44:	00e7a423          	sw	a4,8(a5)
   12b48:	00040593          	mv	a1,s0
   12b4c:	00090513          	mv	a0,s2
   12b50:	ccdfe0ef          	jal	1181c <_free_r>
   12b54:	00090513          	mv	a0,s2
   12b58:	f39fd0ef          	jal	10a90 <__malloc_unlock>
   12b5c:	00812c03          	lw	s8,8(sp)
   12b60:	06c0006f          	j	12bcc <_realloc_r+0x1b4>
   12b64:	01000a13          	li	s4,16
   12b68:	f09a74e3          	bgeu	s4,s1,12a70 <_realloc_r+0x58>
   12b6c:	00c00793          	li	a5,12
   12b70:	00f92023          	sw	a5,0(s2)
   12b74:	00000493          	li	s1,0
   12b78:	0540006f          	j	12bcc <_realloc_r+0x1b4>
   12b7c:	00c6a783          	lw	a5,12(a3)
   12b80:	0086a703          	lw	a4,8(a3)
   12b84:	00812c03          	lw	s8,8(sp)
   12b88:	00060993          	mv	s3,a2
   12b8c:	00f72623          	sw	a5,12(a4)
   12b90:	00e7a423          	sw	a4,8(a5)
   12b94:	004aa783          	lw	a5,4(s5)
   12b98:	414986b3          	sub	a3,s3,s4
   12b9c:	00f00613          	li	a2,15
   12ba0:	0017f793          	and	a5,a5,1
   12ba4:	013a8733          	add	a4,s5,s3
   12ba8:	08d66263          	bltu	a2,a3,12c2c <_realloc_r+0x214>
   12bac:	0137e7b3          	or	a5,a5,s3
   12bb0:	00faa223          	sw	a5,4(s5)
   12bb4:	00472783          	lw	a5,4(a4)
   12bb8:	0017e793          	or	a5,a5,1
   12bbc:	00f72223          	sw	a5,4(a4)
   12bc0:	00090513          	mv	a0,s2
   12bc4:	ecdfd0ef          	jal	10a90 <__malloc_unlock>
   12bc8:	00040493          	mv	s1,s0
   12bcc:	02812403          	lw	s0,40(sp)
   12bd0:	02c12083          	lw	ra,44(sp)
   12bd4:	02012903          	lw	s2,32(sp)
   12bd8:	01c12983          	lw	s3,28(sp)
   12bdc:	01812a03          	lw	s4,24(sp)
   12be0:	01412a83          	lw	s5,20(sp)
   12be4:	00048513          	mv	a0,s1
   12be8:	02412483          	lw	s1,36(sp)
   12bec:	03010113          	add	sp,sp,48
   12bf0:	00008067          	ret
   12bf4:	00177713          	and	a4,a4,1
   12bf8:	ee071ae3          	bnez	a4,12aec <_realloc_r+0xd4>
   12bfc:	01712623          	sw	s7,12(sp)
   12c00:	ff842b83          	lw	s7,-8(s0)
   12c04:	01612823          	sw	s6,16(sp)
   12c08:	417a8bb3          	sub	s7,s5,s7
   12c0c:	004ba703          	lw	a4,4(s7)
   12c10:	ffc77713          	and	a4,a4,-4
   12c14:	ec9ff06f          	j	12adc <_realloc_r+0xc4>
   12c18:	02c12083          	lw	ra,44(sp)
   12c1c:	02412483          	lw	s1,36(sp)
   12c20:	00060593          	mv	a1,a2
   12c24:	03010113          	add	sp,sp,48
   12c28:	ea8fd06f          	j	102d0 <_malloc_r>
   12c2c:	0147e7b3          	or	a5,a5,s4
   12c30:	00faa223          	sw	a5,4(s5)
   12c34:	014a85b3          	add	a1,s5,s4
   12c38:	0016e693          	or	a3,a3,1
   12c3c:	00d5a223          	sw	a3,4(a1)
   12c40:	00472783          	lw	a5,4(a4)
   12c44:	00858593          	add	a1,a1,8
   12c48:	00090513          	mv	a0,s2
   12c4c:	0017e793          	or	a5,a5,1
   12c50:	00f72223          	sw	a5,4(a4)
   12c54:	bc9fe0ef          	jal	1181c <_free_r>
   12c58:	f69ff06f          	j	12bc0 <_realloc_r+0x1a8>
   12c5c:	ffc7f793          	and	a5,a5,-4
   12c60:	013786b3          	add	a3,a5,s3
   12c64:	010a0613          	add	a2,s4,16
   12c68:	26c6d063          	bge	a3,a2,12ec8 <_realloc_r+0x4b0>
   12c6c:	00177713          	and	a4,a4,1
   12c70:	e6071ee3          	bnez	a4,12aec <_realloc_r+0xd4>
   12c74:	01712623          	sw	s7,12(sp)
   12c78:	ff842b83          	lw	s7,-8(s0)
   12c7c:	01612823          	sw	s6,16(sp)
   12c80:	417a8bb3          	sub	s7,s5,s7
   12c84:	004ba703          	lw	a4,4(s7)
   12c88:	ffc77713          	and	a4,a4,-4
   12c8c:	00e787b3          	add	a5,a5,a4
   12c90:	01378b33          	add	s6,a5,s3
   12c94:	e4cb44e3          	blt	s6,a2,12adc <_realloc_r+0xc4>
   12c98:	00cba783          	lw	a5,12(s7)
   12c9c:	008ba703          	lw	a4,8(s7)
   12ca0:	ffc98613          	add	a2,s3,-4
   12ca4:	02400693          	li	a3,36
   12ca8:	00f72623          	sw	a5,12(a4)
   12cac:	00e7a423          	sw	a4,8(a5)
   12cb0:	008b8493          	add	s1,s7,8
   12cb4:	28c6e463          	bltu	a3,a2,12f3c <_realloc_r+0x524>
   12cb8:	01300713          	li	a4,19
   12cbc:	00048793          	mv	a5,s1
   12cc0:	02c77263          	bgeu	a4,a2,12ce4 <_realloc_r+0x2cc>
   12cc4:	00042703          	lw	a4,0(s0)
   12cc8:	01b00793          	li	a5,27
   12ccc:	00eba423          	sw	a4,8(s7)
   12cd0:	00442703          	lw	a4,4(s0)
   12cd4:	00eba623          	sw	a4,12(s7)
   12cd8:	26c7ea63          	bltu	a5,a2,12f4c <_realloc_r+0x534>
   12cdc:	00840413          	add	s0,s0,8
   12ce0:	010b8793          	add	a5,s7,16
   12ce4:	00042703          	lw	a4,0(s0)
   12ce8:	00e7a023          	sw	a4,0(a5)
   12cec:	00442703          	lw	a4,4(s0)
   12cf0:	00e7a223          	sw	a4,4(a5)
   12cf4:	00842703          	lw	a4,8(s0)
   12cf8:	00e7a423          	sw	a4,8(a5)
   12cfc:	014b8733          	add	a4,s7,s4
   12d00:	414b0b33          	sub	s6,s6,s4
   12d04:	00ec2423          	sw	a4,8(s8)
   12d08:	001b6793          	or	a5,s6,1
   12d0c:	00f72223          	sw	a5,4(a4)
   12d10:	004ba783          	lw	a5,4(s7)
   12d14:	00090513          	mv	a0,s2
   12d18:	0017f793          	and	a5,a5,1
   12d1c:	0147e7b3          	or	a5,a5,s4
   12d20:	00fba223          	sw	a5,4(s7)
   12d24:	d6dfd0ef          	jal	10a90 <__malloc_unlock>
   12d28:	01012b03          	lw	s6,16(sp)
   12d2c:	00c12b83          	lw	s7,12(sp)
   12d30:	00812c03          	lw	s8,8(sp)
   12d34:	e99ff06f          	j	12bcc <_realloc_r+0x1b4>
   12d38:	00042683          	lw	a3,0(s0)
   12d3c:	01b00713          	li	a4,27
   12d40:	00d52023          	sw	a3,0(a0)
   12d44:	00442683          	lw	a3,4(s0)
   12d48:	00d52223          	sw	a3,4(a0)
   12d4c:	14c76e63          	bltu	a4,a2,12ea8 <_realloc_r+0x490>
   12d50:	00840713          	add	a4,s0,8
   12d54:	00850793          	add	a5,a0,8
   12d58:	dd9ff06f          	j	12b30 <_realloc_r+0x118>
   12d5c:	ffc52783          	lw	a5,-4(a0)
   12d60:	00812c03          	lw	s8,8(sp)
   12d64:	ffc7f793          	and	a5,a5,-4
   12d68:	00f989b3          	add	s3,s3,a5
   12d6c:	e29ff06f          	j	12b94 <_realloc_r+0x17c>
   12d70:	00cba783          	lw	a5,12(s7)
   12d74:	008ba703          	lw	a4,8(s7)
   12d78:	ffc98613          	add	a2,s3,-4
   12d7c:	02400693          	li	a3,36
   12d80:	00f72623          	sw	a5,12(a4)
   12d84:	00e7a423          	sw	a4,8(a5)
   12d88:	008b8493          	add	s1,s7,8
   12d8c:	10c6e663          	bltu	a3,a2,12e98 <_realloc_r+0x480>
   12d90:	01300713          	li	a4,19
   12d94:	00048793          	mv	a5,s1
   12d98:	02c77c63          	bgeu	a4,a2,12dd0 <_realloc_r+0x3b8>
   12d9c:	00042703          	lw	a4,0(s0)
   12da0:	01b00793          	li	a5,27
   12da4:	00eba423          	sw	a4,8(s7)
   12da8:	00442703          	lw	a4,4(s0)
   12dac:	00eba623          	sw	a4,12(s7)
   12db0:	14c7f863          	bgeu	a5,a2,12f00 <_realloc_r+0x4e8>
   12db4:	00842783          	lw	a5,8(s0)
   12db8:	00fba823          	sw	a5,16(s7)
   12dbc:	00c42783          	lw	a5,12(s0)
   12dc0:	00fbaa23          	sw	a5,20(s7)
   12dc4:	0ad60c63          	beq	a2,a3,12e7c <_realloc_r+0x464>
   12dc8:	01040413          	add	s0,s0,16
   12dcc:	018b8793          	add	a5,s7,24
   12dd0:	00042703          	lw	a4,0(s0)
   12dd4:	00e7a023          	sw	a4,0(a5)
   12dd8:	00442703          	lw	a4,4(s0)
   12ddc:	00e7a223          	sw	a4,4(a5)
   12de0:	00842703          	lw	a4,8(s0)
   12de4:	00e7a423          	sw	a4,8(a5)
   12de8:	000b0993          	mv	s3,s6
   12dec:	000b8a93          	mv	s5,s7
   12df0:	01012b03          	lw	s6,16(sp)
   12df4:	00c12b83          	lw	s7,12(sp)
   12df8:	00812c03          	lw	s8,8(sp)
   12dfc:	00048413          	mv	s0,s1
   12e00:	d95ff06f          	j	12b94 <_realloc_r+0x17c>
   12e04:	00040593          	mv	a1,s0
   12e08:	8c9ff0ef          	jal	126d0 <memmove>
   12e0c:	d3dff06f          	j	12b48 <_realloc_r+0x130>
   12e10:	00c6a783          	lw	a5,12(a3)
   12e14:	0086a703          	lw	a4,8(a3)
   12e18:	ffc98613          	add	a2,s3,-4
   12e1c:	02400693          	li	a3,36
   12e20:	00f72623          	sw	a5,12(a4)
   12e24:	00e7a423          	sw	a4,8(a5)
   12e28:	008ba703          	lw	a4,8(s7)
   12e2c:	00cba783          	lw	a5,12(s7)
   12e30:	008b8493          	add	s1,s7,8
   12e34:	00f72623          	sw	a5,12(a4)
   12e38:	00e7a423          	sw	a4,8(a5)
   12e3c:	04c6ee63          	bltu	a3,a2,12e98 <_realloc_r+0x480>
   12e40:	01300713          	li	a4,19
   12e44:	00048793          	mv	a5,s1
   12e48:	f8c774e3          	bgeu	a4,a2,12dd0 <_realloc_r+0x3b8>
   12e4c:	00042703          	lw	a4,0(s0)
   12e50:	01b00793          	li	a5,27
   12e54:	00eba423          	sw	a4,8(s7)
   12e58:	00442703          	lw	a4,4(s0)
   12e5c:	00eba623          	sw	a4,12(s7)
   12e60:	0ac7f063          	bgeu	a5,a2,12f00 <_realloc_r+0x4e8>
   12e64:	00842703          	lw	a4,8(s0)
   12e68:	02400793          	li	a5,36
   12e6c:	00eba823          	sw	a4,16(s7)
   12e70:	00c42703          	lw	a4,12(s0)
   12e74:	00ebaa23          	sw	a4,20(s7)
   12e78:	f4f618e3          	bne	a2,a5,12dc8 <_realloc_r+0x3b0>
   12e7c:	01042703          	lw	a4,16(s0)
   12e80:	020b8793          	add	a5,s7,32
   12e84:	01840413          	add	s0,s0,24
   12e88:	00ebac23          	sw	a4,24(s7)
   12e8c:	ffc42703          	lw	a4,-4(s0)
   12e90:	00ebae23          	sw	a4,28(s7)
   12e94:	f3dff06f          	j	12dd0 <_realloc_r+0x3b8>
   12e98:	00040593          	mv	a1,s0
   12e9c:	00048513          	mv	a0,s1
   12ea0:	831ff0ef          	jal	126d0 <memmove>
   12ea4:	f45ff06f          	j	12de8 <_realloc_r+0x3d0>
   12ea8:	00842703          	lw	a4,8(s0)
   12eac:	00e52423          	sw	a4,8(a0)
   12eb0:	00c42703          	lw	a4,12(s0)
   12eb4:	00e52623          	sw	a4,12(a0)
   12eb8:	06f60463          	beq	a2,a5,12f20 <_realloc_r+0x508>
   12ebc:	01040713          	add	a4,s0,16
   12ec0:	01050793          	add	a5,a0,16
   12ec4:	c6dff06f          	j	12b30 <_realloc_r+0x118>
   12ec8:	014a8ab3          	add	s5,s5,s4
   12ecc:	414686b3          	sub	a3,a3,s4
   12ed0:	015c2423          	sw	s5,8(s8)
   12ed4:	0016e793          	or	a5,a3,1
   12ed8:	00faa223          	sw	a5,4(s5)
   12edc:	ffc42783          	lw	a5,-4(s0)
   12ee0:	00090513          	mv	a0,s2
   12ee4:	00040493          	mv	s1,s0
   12ee8:	0017f793          	and	a5,a5,1
   12eec:	0147e7b3          	or	a5,a5,s4
   12ef0:	fef42e23          	sw	a5,-4(s0)
   12ef4:	b9dfd0ef          	jal	10a90 <__malloc_unlock>
   12ef8:	00812c03          	lw	s8,8(sp)
   12efc:	cd1ff06f          	j	12bcc <_realloc_r+0x1b4>
   12f00:	00840413          	add	s0,s0,8
   12f04:	010b8793          	add	a5,s7,16
   12f08:	ec9ff06f          	j	12dd0 <_realloc_r+0x3b8>
   12f0c:	00090513          	mv	a0,s2
   12f10:	b81fd0ef          	jal	10a90 <__malloc_unlock>
   12f14:	00000493          	li	s1,0
   12f18:	00812c03          	lw	s8,8(sp)
   12f1c:	cb1ff06f          	j	12bcc <_realloc_r+0x1b4>
   12f20:	01042683          	lw	a3,16(s0)
   12f24:	01840713          	add	a4,s0,24
   12f28:	01850793          	add	a5,a0,24
   12f2c:	00d52823          	sw	a3,16(a0)
   12f30:	01442683          	lw	a3,20(s0)
   12f34:	00d52a23          	sw	a3,20(a0)
   12f38:	bf9ff06f          	j	12b30 <_realloc_r+0x118>
   12f3c:	00040593          	mv	a1,s0
   12f40:	00048513          	mv	a0,s1
   12f44:	f8cff0ef          	jal	126d0 <memmove>
   12f48:	db5ff06f          	j	12cfc <_realloc_r+0x2e4>
   12f4c:	00842783          	lw	a5,8(s0)
   12f50:	00fba823          	sw	a5,16(s7)
   12f54:	00c42783          	lw	a5,12(s0)
   12f58:	00fbaa23          	sw	a5,20(s7)
   12f5c:	00d60863          	beq	a2,a3,12f6c <_realloc_r+0x554>
   12f60:	01040413          	add	s0,s0,16
   12f64:	018b8793          	add	a5,s7,24
   12f68:	d7dff06f          	j	12ce4 <_realloc_r+0x2cc>
   12f6c:	01042703          	lw	a4,16(s0)
   12f70:	020b8793          	add	a5,s7,32
   12f74:	01840413          	add	s0,s0,24
   12f78:	00ebac23          	sw	a4,24(s7)
   12f7c:	ffc42703          	lw	a4,-4(s0)
   12f80:	00ebae23          	sw	a4,28(s7)
   12f84:	d61ff06f          	j	12ce4 <_realloc_r+0x2cc>

00012f88 <__smakebuf_r>:
   12f88:	00c59783          	lh	a5,12(a1)
   12f8c:	f8010113          	add	sp,sp,-128
   12f90:	06812c23          	sw	s0,120(sp)
   12f94:	06112e23          	sw	ra,124(sp)
   12f98:	0027f713          	and	a4,a5,2
   12f9c:	00058413          	mv	s0,a1
   12fa0:	02070463          	beqz	a4,12fc8 <__smakebuf_r+0x40>
   12fa4:	04358793          	add	a5,a1,67
   12fa8:	00f5a023          	sw	a5,0(a1)
   12fac:	00f5a823          	sw	a5,16(a1)
   12fb0:	00100793          	li	a5,1
   12fb4:	00f5aa23          	sw	a5,20(a1)
   12fb8:	07c12083          	lw	ra,124(sp)
   12fbc:	07812403          	lw	s0,120(sp)
   12fc0:	08010113          	add	sp,sp,128
   12fc4:	00008067          	ret
   12fc8:	00e59583          	lh	a1,14(a1)
   12fcc:	06912a23          	sw	s1,116(sp)
   12fd0:	07212823          	sw	s2,112(sp)
   12fd4:	07312623          	sw	s3,108(sp)
   12fd8:	07412423          	sw	s4,104(sp)
   12fdc:	00050493          	mv	s1,a0
   12fe0:	0805c663          	bltz	a1,1306c <__smakebuf_r+0xe4>
   12fe4:	00810613          	add	a2,sp,8
   12fe8:	210000ef          	jal	131f8 <_fstat_r>
   12fec:	06054e63          	bltz	a0,13068 <__smakebuf_r+0xe0>
   12ff0:	00c12783          	lw	a5,12(sp)
   12ff4:	0000f937          	lui	s2,0xf
   12ff8:	000019b7          	lui	s3,0x1
   12ffc:	00f97933          	and	s2,s2,a5
   13000:	ffffe7b7          	lui	a5,0xffffe
   13004:	00f90933          	add	s2,s2,a5
   13008:	00193913          	seqz	s2,s2
   1300c:	40000a13          	li	s4,1024
   13010:	80098993          	add	s3,s3,-2048 # 800 <exit-0xf8a0>
   13014:	000a0593          	mv	a1,s4
   13018:	00048513          	mv	a0,s1
   1301c:	ab4fd0ef          	jal	102d0 <_malloc_r>
   13020:	00c41783          	lh	a5,12(s0)
   13024:	06050863          	beqz	a0,13094 <__smakebuf_r+0x10c>
   13028:	0807e793          	or	a5,a5,128
   1302c:	00a42023          	sw	a0,0(s0)
   13030:	00a42823          	sw	a0,16(s0)
   13034:	00f41623          	sh	a5,12(s0)
   13038:	01442a23          	sw	s4,20(s0)
   1303c:	0a091063          	bnez	s2,130dc <__smakebuf_r+0x154>
   13040:	0137e7b3          	or	a5,a5,s3
   13044:	07c12083          	lw	ra,124(sp)
   13048:	00f41623          	sh	a5,12(s0)
   1304c:	07812403          	lw	s0,120(sp)
   13050:	07412483          	lw	s1,116(sp)
   13054:	07012903          	lw	s2,112(sp)
   13058:	06c12983          	lw	s3,108(sp)
   1305c:	06812a03          	lw	s4,104(sp)
   13060:	08010113          	add	sp,sp,128
   13064:	00008067          	ret
   13068:	00c41783          	lh	a5,12(s0)
   1306c:	0807f793          	and	a5,a5,128
   13070:	00000913          	li	s2,0
   13074:	04078e63          	beqz	a5,130d0 <__smakebuf_r+0x148>
   13078:	04000a13          	li	s4,64
   1307c:	000a0593          	mv	a1,s4
   13080:	00048513          	mv	a0,s1
   13084:	a4cfd0ef          	jal	102d0 <_malloc_r>
   13088:	00c41783          	lh	a5,12(s0)
   1308c:	00000993          	li	s3,0
   13090:	f8051ce3          	bnez	a0,13028 <__smakebuf_r+0xa0>
   13094:	2007f713          	and	a4,a5,512
   13098:	04071e63          	bnez	a4,130f4 <__smakebuf_r+0x16c>
   1309c:	ffc7f793          	and	a5,a5,-4
   130a0:	0027e793          	or	a5,a5,2
   130a4:	04340713          	add	a4,s0,67
   130a8:	00f41623          	sh	a5,12(s0)
   130ac:	00100793          	li	a5,1
   130b0:	07412483          	lw	s1,116(sp)
   130b4:	07012903          	lw	s2,112(sp)
   130b8:	06c12983          	lw	s3,108(sp)
   130bc:	06812a03          	lw	s4,104(sp)
   130c0:	00e42023          	sw	a4,0(s0)
   130c4:	00e42823          	sw	a4,16(s0)
   130c8:	00f42a23          	sw	a5,20(s0)
   130cc:	eedff06f          	j	12fb8 <__smakebuf_r+0x30>
   130d0:	40000a13          	li	s4,1024
   130d4:	00000993          	li	s3,0
   130d8:	f3dff06f          	j	13014 <__smakebuf_r+0x8c>
   130dc:	00e41583          	lh	a1,14(s0)
   130e0:	00048513          	mv	a0,s1
   130e4:	178000ef          	jal	1325c <_isatty_r>
   130e8:	02051063          	bnez	a0,13108 <__smakebuf_r+0x180>
   130ec:	00c41783          	lh	a5,12(s0)
   130f0:	f51ff06f          	j	13040 <__smakebuf_r+0xb8>
   130f4:	07412483          	lw	s1,116(sp)
   130f8:	07012903          	lw	s2,112(sp)
   130fc:	06c12983          	lw	s3,108(sp)
   13100:	06812a03          	lw	s4,104(sp)
   13104:	eb5ff06f          	j	12fb8 <__smakebuf_r+0x30>
   13108:	00c45783          	lhu	a5,12(s0)
   1310c:	ffc7f793          	and	a5,a5,-4
   13110:	0017e793          	or	a5,a5,1
   13114:	01079793          	sll	a5,a5,0x10
   13118:	4107d793          	sra	a5,a5,0x10
   1311c:	f25ff06f          	j	13040 <__smakebuf_r+0xb8>

00013120 <__swhatbuf_r>:
   13120:	f9010113          	add	sp,sp,-112
   13124:	06812423          	sw	s0,104(sp)
   13128:	00058413          	mv	s0,a1
   1312c:	00e59583          	lh	a1,14(a1)
   13130:	06912223          	sw	s1,100(sp)
   13134:	07212023          	sw	s2,96(sp)
   13138:	06112623          	sw	ra,108(sp)
   1313c:	00060493          	mv	s1,a2
   13140:	00068913          	mv	s2,a3
   13144:	0405ca63          	bltz	a1,13198 <__swhatbuf_r+0x78>
   13148:	00810613          	add	a2,sp,8
   1314c:	0ac000ef          	jal	131f8 <_fstat_r>
   13150:	04054463          	bltz	a0,13198 <__swhatbuf_r+0x78>
   13154:	00c12703          	lw	a4,12(sp)
   13158:	0000f7b7          	lui	a5,0xf
   1315c:	06c12083          	lw	ra,108(sp)
   13160:	00e7f7b3          	and	a5,a5,a4
   13164:	ffffe737          	lui	a4,0xffffe
   13168:	00e787b3          	add	a5,a5,a4
   1316c:	06812403          	lw	s0,104(sp)
   13170:	0017b793          	seqz	a5,a5
   13174:	00f92023          	sw	a5,0(s2) # f000 <exit-0x10a0>
   13178:	40000713          	li	a4,1024
   1317c:	00e4a023          	sw	a4,0(s1)
   13180:	00001537          	lui	a0,0x1
   13184:	06412483          	lw	s1,100(sp)
   13188:	06012903          	lw	s2,96(sp)
   1318c:	80050513          	add	a0,a0,-2048 # 800 <exit-0xf8a0>
   13190:	07010113          	add	sp,sp,112
   13194:	00008067          	ret
   13198:	00c45783          	lhu	a5,12(s0)
   1319c:	0807f793          	and	a5,a5,128
   131a0:	02078863          	beqz	a5,131d0 <__swhatbuf_r+0xb0>
   131a4:	06c12083          	lw	ra,108(sp)
   131a8:	06812403          	lw	s0,104(sp)
   131ac:	00000793          	li	a5,0
   131b0:	00f92023          	sw	a5,0(s2)
   131b4:	04000713          	li	a4,64
   131b8:	00e4a023          	sw	a4,0(s1)
   131bc:	06012903          	lw	s2,96(sp)
   131c0:	06412483          	lw	s1,100(sp)
   131c4:	00000513          	li	a0,0
   131c8:	07010113          	add	sp,sp,112
   131cc:	00008067          	ret
   131d0:	06c12083          	lw	ra,108(sp)
   131d4:	06812403          	lw	s0,104(sp)
   131d8:	00f92023          	sw	a5,0(s2)
   131dc:	40000713          	li	a4,1024
   131e0:	00e4a023          	sw	a4,0(s1)
   131e4:	06012903          	lw	s2,96(sp)
   131e8:	06412483          	lw	s1,100(sp)
   131ec:	00000513          	li	a0,0
   131f0:	07010113          	add	sp,sp,112
   131f4:	00008067          	ret

000131f8 <_fstat_r>:
   131f8:	ff010113          	add	sp,sp,-16
   131fc:	00058713          	mv	a4,a1
   13200:	00812423          	sw	s0,8(sp)
   13204:	00912223          	sw	s1,4(sp)
   13208:	00050413          	mv	s0,a0
   1320c:	00060593          	mv	a1,a2
   13210:	00070513          	mv	a0,a4
   13214:	00112623          	sw	ra,12(sp)
   13218:	d401ac23          	sw	zero,-680(gp) # 14570 <errno>
   1321c:	244000ef          	jal	13460 <_fstat>
   13220:	fff00793          	li	a5,-1
   13224:	00f50c63          	beq	a0,a5,1323c <_fstat_r+0x44>
   13228:	00c12083          	lw	ra,12(sp)
   1322c:	00812403          	lw	s0,8(sp)
   13230:	00412483          	lw	s1,4(sp)
   13234:	01010113          	add	sp,sp,16
   13238:	00008067          	ret
   1323c:	d581a783          	lw	a5,-680(gp) # 14570 <errno>
   13240:	fe0784e3          	beqz	a5,13228 <_fstat_r+0x30>
   13244:	00c12083          	lw	ra,12(sp)
   13248:	00f42023          	sw	a5,0(s0)
   1324c:	00812403          	lw	s0,8(sp)
   13250:	00412483          	lw	s1,4(sp)
   13254:	01010113          	add	sp,sp,16
   13258:	00008067          	ret

0001325c <_isatty_r>:
   1325c:	ff010113          	add	sp,sp,-16
   13260:	00812423          	sw	s0,8(sp)
   13264:	00912223          	sw	s1,4(sp)
   13268:	00050413          	mv	s0,a0
   1326c:	00058513          	mv	a0,a1
   13270:	00112623          	sw	ra,12(sp)
   13274:	d401ac23          	sw	zero,-680(gp) # 14570 <errno>
   13278:	228000ef          	jal	134a0 <_isatty>
   1327c:	fff00793          	li	a5,-1
   13280:	00f50c63          	beq	a0,a5,13298 <_isatty_r+0x3c>
   13284:	00c12083          	lw	ra,12(sp)
   13288:	00812403          	lw	s0,8(sp)
   1328c:	00412483          	lw	s1,4(sp)
   13290:	01010113          	add	sp,sp,16
   13294:	00008067          	ret
   13298:	d581a783          	lw	a5,-680(gp) # 14570 <errno>
   1329c:	fe0784e3          	beqz	a5,13284 <_isatty_r+0x28>
   132a0:	00c12083          	lw	ra,12(sp)
   132a4:	00f42023          	sw	a5,0(s0)
   132a8:	00812403          	lw	s0,8(sp)
   132ac:	00412483          	lw	s1,4(sp)
   132b0:	01010113          	add	sp,sp,16
   132b4:	00008067          	ret
	...

000132c0 <_close>:
   132c0:	fe010113          	add	sp,sp,-32
   132c4:	00912a23          	sw	s1,20(sp)
   132c8:	00112e23          	sw	ra,28(sp)
   132cc:	00812c23          	sw	s0,24(sp)
   132d0:	00050493          	mv	s1,a0
   132d4:	12c000ef          	jal	13400 <__get_fdentry>
   132d8:	06050463          	beqz	a0,13340 <_close+0x80>
   132dc:	00052783          	lw	a5,0(a0)
   132e0:	00c10593          	add	a1,sp,12
   132e4:	00200513          	li	a0,2
   132e8:	00f12623          	sw	a5,12(sp)
   132ec:	00000013          	nop
   132f0:	01f01013          	sll	zero,zero,0x1f
   132f4:	00100073          	ebreak
   132f8:	40705013          	sra	zero,zero,0x7
   132fc:	00050413          	mv	s0,a0
   13300:	02054463          	bltz	a0,13328 <_close+0x68>
   13304:	00051663          	bnez	a0,13310 <_close+0x50>
   13308:	00048513          	mv	a0,s1
   1330c:	13c000ef          	jal	13448 <__remove_fdentry>
   13310:	01c12083          	lw	ra,28(sp)
   13314:	00040513          	mv	a0,s0
   13318:	01812403          	lw	s0,24(sp)
   1331c:	01412483          	lw	s1,20(sp)
   13320:	02010113          	add	sp,sp,32
   13324:	00008067          	ret
   13328:	01300513          	li	a0,19
   1332c:	00000593          	li	a1,0
   13330:	01f01013          	sll	zero,zero,0x1f
   13334:	00100073          	ebreak
   13338:	40705013          	sra	zero,zero,0x7
   1333c:	d4a1ac23          	sw	a0,-680(gp) # 14570 <errno>
   13340:	fff00413          	li	s0,-1
   13344:	fcdff06f          	j	13310 <_close+0x50>
	...

00013350 <_exit>:
   13350:	000205b7          	lui	a1,0x20
   13354:	01800513          	li	a0,24
   13358:	02658593          	add	a1,a1,38 # 20026 <__BSS_END__+0xb71e>
   1335c:	00000013          	nop
   13360:	01f01013          	sll	zero,zero,0x1f
   13364:	00100073          	ebreak
   13368:	40705013          	sra	zero,zero,0x7
   1336c:	00054463          	bltz	a0,13374 <_exit+0x24>
   13370:	0000006f          	j	13370 <_exit+0x20>
   13374:	01300513          	li	a0,19
   13378:	00000593          	li	a1,0
   1337c:	00000013          	nop
   13380:	01f01013          	sll	zero,zero,0x1f
   13384:	00100073          	ebreak
   13388:	40705013          	sra	zero,zero,0x7
   1338c:	d4a1ac23          	sw	a0,-680(gp) # 14570 <errno>
   13390:	fe1ff06f          	j	13370 <_exit+0x20>
	...

0001339c <__add_fdentry>:
   1339c:	00050593          	mv	a1,a0
   133a0:	07018813          	add	a6,gp,112 # 14888 <fdtable>
   133a4:	00000513          	li	a0,0
   133a8:	07018793          	add	a5,gp,112 # 14888 <fdtable>
   133ac:	fff00693          	li	a3,-1
   133b0:	01000613          	li	a2,16
   133b4:	0007a703          	lw	a4,0(a5) # f000 <exit-0x10a0>
   133b8:	00878793          	add	a5,a5,8
   133bc:	02d70863          	beq	a4,a3,133ec <__add_fdentry+0x50>
   133c0:	00150513          	add	a0,a0,1
   133c4:	fec518e3          	bne	a0,a2,133b4 <__add_fdentry+0x18>
   133c8:	ff010113          	add	sp,sp,-16
   133cc:	00112623          	sw	ra,12(sp)
   133d0:	588000ef          	jal	13958 <__errno>
   133d4:	00c12083          	lw	ra,12(sp)
   133d8:	01700793          	li	a5,23
   133dc:	00f52023          	sw	a5,0(a0)
   133e0:	fff00513          	li	a0,-1
   133e4:	01010113          	add	sp,sp,16
   133e8:	00008067          	ret
   133ec:	00351793          	sll	a5,a0,0x3
   133f0:	00f80833          	add	a6,a6,a5
   133f4:	00b82023          	sw	a1,0(a6)
   133f8:	00082223          	sw	zero,4(a6)
   133fc:	00008067          	ret

00013400 <__get_fdentry>:
   13400:	00f00793          	li	a5,15
   13404:	02a7e063          	bltu	a5,a0,13424 <__get_fdentry+0x24>
   13408:	00351713          	sll	a4,a0,0x3
   1340c:	07018513          	add	a0,gp,112 # 14888 <fdtable>
   13410:	00e50533          	add	a0,a0,a4
   13414:	00052703          	lw	a4,0(a0)
   13418:	fff00793          	li	a5,-1
   1341c:	00f70463          	beq	a4,a5,13424 <__get_fdentry+0x24>
   13420:	00008067          	ret
   13424:	ff010113          	add	sp,sp,-16
   13428:	00112623          	sw	ra,12(sp)
   1342c:	52c000ef          	jal	13958 <__errno>
   13430:	00c12083          	lw	ra,12(sp)
   13434:	00900793          	li	a5,9
   13438:	00f52023          	sw	a5,0(a0)
   1343c:	00000513          	li	a0,0
   13440:	01010113          	add	sp,sp,16
   13444:	00008067          	ret

00013448 <__remove_fdentry>:
   13448:	00351513          	sll	a0,a0,0x3
   1344c:	07018793          	add	a5,gp,112 # 14888 <fdtable>
   13450:	00a787b3          	add	a5,a5,a0
   13454:	fff00713          	li	a4,-1
   13458:	00e7a023          	sw	a4,0(a5)
   1345c:	00008067          	ret

00013460 <_fstat>:
   13460:	ff010113          	add	sp,sp,-16
   13464:	00058793          	mv	a5,a1
   13468:	00812423          	sw	s0,8(sp)
   1346c:	00000593          	li	a1,0
   13470:	00050413          	mv	s0,a0
   13474:	05800613          	li	a2,88
   13478:	00078513          	mv	a0,a5
   1347c:	00112623          	sw	ra,12(sp)
   13480:	fb5fd0ef          	jal	11434 <memset>
   13484:	00050593          	mv	a1,a0
   13488:	00040513          	mv	a0,s0
   1348c:	00812403          	lw	s0,8(sp)
   13490:	00c12083          	lw	ra,12(sp)
   13494:	01010113          	add	sp,sp,16
   13498:	3980006f          	j	13830 <__stat_common>
   1349c:	0000                	.insn	2, 0x
	...

000134a0 <_isatty>:
   134a0:	fe010113          	add	sp,sp,-32
   134a4:	00112e23          	sw	ra,28(sp)
   134a8:	f59ff0ef          	jal	13400 <__get_fdentry>
   134ac:	04050a63          	beqz	a0,13500 <_isatty+0x60>
   134b0:	00052783          	lw	a5,0(a0)
   134b4:	00c10593          	add	a1,sp,12
   134b8:	00900513          	li	a0,9
   134bc:	00f12623          	sw	a5,12(sp)
   134c0:	01f01013          	sll	zero,zero,0x1f
   134c4:	00100073          	ebreak
   134c8:	40705013          	sra	zero,zero,0x7
   134cc:	00054863          	bltz	a0,134dc <_isatty+0x3c>
   134d0:	01c12083          	lw	ra,28(sp)
   134d4:	02010113          	add	sp,sp,32
   134d8:	00008067          	ret
   134dc:	01300513          	li	a0,19
   134e0:	00000593          	li	a1,0
   134e4:	00000013          	nop
   134e8:	00000013          	nop
   134ec:	00000013          	nop
   134f0:	01f01013          	sll	zero,zero,0x1f
   134f4:	00100073          	ebreak
   134f8:	40705013          	sra	zero,zero,0x7
   134fc:	d4a1ac23          	sw	a0,-680(gp) # 14570 <errno>
   13500:	fff00513          	li	a0,-1
   13504:	fcdff06f          	j	134d0 <_isatty+0x30>
	...

00013510 <_lseek>:
   13510:	fe010113          	add	sp,sp,-32
   13514:	00812c23          	sw	s0,24(sp)
   13518:	00912a23          	sw	s1,20(sp)
   1351c:	00112e23          	sw	ra,28(sp)
   13520:	00058413          	mv	s0,a1
   13524:	00060493          	mv	s1,a2
   13528:	ed9ff0ef          	jal	13400 <__get_fdentry>
   1352c:	0e050e63          	beqz	a0,13628 <_lseek+0x118>
   13530:	00100713          	li	a4,1
   13534:	00050793          	mv	a5,a0
   13538:	08e48e63          	beq	s1,a4,135d4 <_lseek+0xc4>
   1353c:	00052703          	lw	a4,0(a0)
   13540:	00e12423          	sw	a4,8(sp)
   13544:	02048863          	beqz	s1,13574 <_lseek+0x64>
   13548:	00200713          	li	a4,2
   1354c:	0ae49063          	bne	s1,a4,135ec <_lseek+0xdc>
   13550:	00012623          	sw	zero,12(sp)
   13554:	00c00513          	li	a0,12
   13558:	00810593          	add	a1,sp,8
   1355c:	00000013          	nop
   13560:	01f01013          	sll	zero,zero,0x1f
   13564:	00100073          	ebreak
   13568:	40705013          	sra	zero,zero,0x7
   1356c:	00a40433          	add	s0,s0,a0
   13570:	08054863          	bltz	a0,13600 <_lseek+0xf0>
   13574:	06044c63          	bltz	s0,135ec <_lseek+0xdc>
   13578:	00812623          	sw	s0,12(sp)
   1357c:	00a00513          	li	a0,10
   13580:	00810593          	add	a1,sp,8
   13584:	00000013          	nop
   13588:	00000013          	nop
   1358c:	00000013          	nop
   13590:	01f01013          	sll	zero,zero,0x1f
   13594:	00100073          	ebreak
   13598:	40705013          	sra	zero,zero,0x7
   1359c:	06054263          	bltz	a0,13600 <_lseek+0xf0>
   135a0:	00050c63          	beqz	a0,135b8 <_lseek+0xa8>
   135a4:	01c12083          	lw	ra,28(sp)
   135a8:	01812403          	lw	s0,24(sp)
   135ac:	01412483          	lw	s1,20(sp)
   135b0:	02010113          	add	sp,sp,32
   135b4:	00008067          	ret
   135b8:	01c12083          	lw	ra,28(sp)
   135bc:	0087a223          	sw	s0,4(a5)
   135c0:	00040513          	mv	a0,s0
   135c4:	01812403          	lw	s0,24(sp)
   135c8:	01412483          	lw	s1,20(sp)
   135cc:	02010113          	add	sp,sp,32
   135d0:	00008067          	ret
   135d4:	00452503          	lw	a0,4(a0)
   135d8:	fc0406e3          	beqz	s0,135a4 <_lseek+0x94>
   135dc:	0007a703          	lw	a4,0(a5)
   135e0:	00a40433          	add	s0,s0,a0
   135e4:	00e12423          	sw	a4,8(sp)
   135e8:	f8dff06f          	j	13574 <_lseek+0x64>
   135ec:	36c000ef          	jal	13958 <__errno>
   135f0:	01600793          	li	a5,22
   135f4:	00f52023          	sw	a5,0(a0)
   135f8:	fff00513          	li	a0,-1
   135fc:	fa9ff06f          	j	135a4 <_lseek+0x94>
   13600:	358000ef          	jal	13958 <__errno>
   13604:	00050793          	mv	a5,a0
   13608:	00000593          	li	a1,0
   1360c:	01300513          	li	a0,19
   13610:	01f01013          	sll	zero,zero,0x1f
   13614:	00100073          	ebreak
   13618:	40705013          	sra	zero,zero,0x7
   1361c:	00a7a023          	sw	a0,0(a5)
   13620:	fff00513          	li	a0,-1
   13624:	f81ff06f          	j	135a4 <_lseek+0x94>
   13628:	330000ef          	jal	13958 <__errno>
   1362c:	00900793          	li	a5,9
   13630:	00f52023          	sw	a5,0(a0)
   13634:	fff00513          	li	a0,-1
   13638:	f6dff06f          	j	135a4 <_lseek+0x94>
   1363c:	0000                	.insn	2, 0x
	...

00013640 <_open>:
   13640:	fc010113          	add	sp,sp,-64
   13644:	02f12a23          	sw	a5,52(sp)
   13648:	00112e23          	sw	ra,28(sp)
   1364c:	02c12423          	sw	a2,40(sp)
   13650:	02d12623          	sw	a3,44(sp)
   13654:	02e12823          	sw	a4,48(sp)
   13658:	03012c23          	sw	a6,56(sp)
   1365c:	03112e23          	sw	a7,60(sp)
   13660:	0035f793          	and	a5,a1,3
   13664:	04078063          	beqz	a5,136a4 <_open+0x64>
   13668:	6015f793          	and	a5,a1,1537
   1366c:	60100713          	li	a4,1537
   13670:	06e78863          	beq	a5,a4,136e0 <_open+0xa0>
   13674:	2095f793          	and	a5,a1,521
   13678:	20900713          	li	a4,521
   1367c:	06e78a63          	beq	a5,a4,136f0 <_open+0xb0>
   13680:	6025f793          	and	a5,a1,1538
   13684:	60200713          	li	a4,1538
   13688:	06e78063          	beq	a5,a4,136e8 <_open+0xa8>
   1368c:	20a5f793          	and	a5,a1,522
   13690:	20a00713          	li	a4,522
   13694:	06e78263          	beq	a5,a4,136f8 <_open+0xb8>
   13698:	0025f593          	and	a1,a1,2
   1369c:	00200793          	li	a5,2
   136a0:	06058063          	beqz	a1,13700 <_open+0xc0>
   136a4:	00a12223          	sw	a0,4(sp)
   136a8:	00f12423          	sw	a5,8(sp)
   136ac:	e65fd0ef          	jal	11510 <strlen>
   136b0:	00a12623          	sw	a0,12(sp)
   136b4:	00410593          	add	a1,sp,4
   136b8:	00100513          	li	a0,1
   136bc:	00000013          	nop
   136c0:	01f01013          	sll	zero,zero,0x1f
   136c4:	00100073          	ebreak
   136c8:	40705013          	sra	zero,zero,0x7
   136cc:	04054463          	bltz	a0,13714 <_open+0xd4>
   136d0:	ccdff0ef          	jal	1339c <__add_fdentry>
   136d4:	01c12083          	lw	ra,28(sp)
   136d8:	04010113          	add	sp,sp,64
   136dc:	00008067          	ret
   136e0:	00400793          	li	a5,4
   136e4:	fc1ff06f          	j	136a4 <_open+0x64>
   136e8:	00600793          	li	a5,6
   136ec:	fb9ff06f          	j	136a4 <_open+0x64>
   136f0:	00800793          	li	a5,8
   136f4:	fb1ff06f          	j	136a4 <_open+0x64>
   136f8:	00a00793          	li	a5,10
   136fc:	fa9ff06f          	j	136a4 <_open+0x64>
   13700:	258000ef          	jal	13958 <__errno>
   13704:	01600793          	li	a5,22
   13708:	00f52023          	sw	a5,0(a0)
   1370c:	fff00513          	li	a0,-1
   13710:	fc5ff06f          	j	136d4 <_open+0x94>
   13714:	01300513          	li	a0,19
   13718:	00000593          	li	a1,0
   1371c:	00000013          	nop
   13720:	01f01013          	sll	zero,zero,0x1f
   13724:	00100073          	ebreak
   13728:	40705013          	sra	zero,zero,0x7
   1372c:	d4a1ac23          	sw	a0,-680(gp) # 14570 <errno>
   13730:	fff00513          	li	a0,-1
   13734:	fa1ff06f          	j	136d4 <_open+0x94>
	...

00013740 <_read>:
   13740:	fe010113          	add	sp,sp,-32
   13744:	00812c23          	sw	s0,24(sp)
   13748:	00912a23          	sw	s1,20(sp)
   1374c:	00112e23          	sw	ra,28(sp)
   13750:	00058493          	mv	s1,a1
   13754:	00060413          	mv	s0,a2
   13758:	ca9ff0ef          	jal	13400 <__get_fdentry>
   1375c:	08050263          	beqz	a0,137e0 <_read+0xa0>
   13760:	00052703          	lw	a4,0(a0)
   13764:	00050793          	mv	a5,a0
   13768:	00912423          	sw	s1,8(sp)
   1376c:	00600513          	li	a0,6
   13770:	00e12223          	sw	a4,4(sp)
   13774:	00812623          	sw	s0,12(sp)
   13778:	00410593          	add	a1,sp,4
   1377c:	00000013          	nop
   13780:	01f01013          	sll	zero,zero,0x1f
   13784:	00100073          	ebreak
   13788:	40705013          	sra	zero,zero,0x7
   1378c:	02054463          	bltz	a0,137b4 <_read+0x74>
   13790:	0047a703          	lw	a4,4(a5)
   13794:	40a40533          	sub	a0,s0,a0
   13798:	01c12083          	lw	ra,28(sp)
   1379c:	01812403          	lw	s0,24(sp)
   137a0:	00a70733          	add	a4,a4,a0
   137a4:	00e7a223          	sw	a4,4(a5)
   137a8:	01412483          	lw	s1,20(sp)
   137ac:	02010113          	add	sp,sp,32
   137b0:	00008067          	ret
   137b4:	1a4000ef          	jal	13958 <__errno>
   137b8:	00050793          	mv	a5,a0
   137bc:	00000593          	li	a1,0
   137c0:	01300513          	li	a0,19
   137c4:	00000013          	nop
   137c8:	00000013          	nop
   137cc:	00000013          	nop
   137d0:	01f01013          	sll	zero,zero,0x1f
   137d4:	00100073          	ebreak
   137d8:	40705013          	sra	zero,zero,0x7
   137dc:	00a7a023          	sw	a0,0(a5)
   137e0:	01c12083          	lw	ra,28(sp)
   137e4:	01812403          	lw	s0,24(sp)
   137e8:	01412483          	lw	s1,20(sp)
   137ec:	fff00513          	li	a0,-1
   137f0:	02010113          	add	sp,sp,32
   137f4:	00008067          	ret
	...

00013800 <_sbrk>:
   13800:	d601a783          	lw	a5,-672(gp) # 14578 <heap_ptr>
   13804:	00078a63          	beqz	a5,13818 <_sbrk+0x18>
   13808:	00a78533          	add	a0,a5,a0
   1380c:	d6a1a023          	sw	a0,-672(gp) # 14578 <heap_ptr>
   13810:	00078513          	mv	a0,a5
   13814:	00008067          	ret
   13818:	0f018793          	add	a5,gp,240 # 14908 <__BSS_END__>
   1381c:	00a78533          	add	a0,a5,a0
   13820:	d6a1a023          	sw	a0,-672(gp) # 14578 <heap_ptr>
   13824:	00078513          	mv	a0,a5
   13828:	00008067          	ret
   1382c:	0000                	.insn	2, 0x
	...

00013830 <__stat_common>:
   13830:	fe010113          	add	sp,sp,-32
   13834:	00812c23          	sw	s0,24(sp)
   13838:	00112e23          	sw	ra,28(sp)
   1383c:	00058413          	mv	s0,a1
   13840:	bc1ff0ef          	jal	13400 <__get_fdentry>
   13844:	06050663          	beqz	a0,138b0 <__stat_common+0x80>
   13848:	00442783          	lw	a5,4(s0)
   1384c:	00052703          	lw	a4,0(a0)
   13850:	000026b7          	lui	a3,0x2
   13854:	00d7e7b3          	or	a5,a5,a3
   13858:	00f42223          	sw	a5,4(s0)
   1385c:	000017b7          	lui	a5,0x1
   13860:	00e12623          	sw	a4,12(sp)
   13864:	04f42423          	sw	a5,72(s0)
   13868:	00c00513          	li	a0,12
   1386c:	00c10593          	add	a1,sp,12
   13870:	01f01013          	sll	zero,zero,0x1f
   13874:	00100073          	ebreak
   13878:	40705013          	sra	zero,zero,0x7
   1387c:	00054e63          	bltz	a0,13898 <__stat_common+0x68>
   13880:	00a42823          	sw	a0,16(s0)
   13884:	00000513          	li	a0,0
   13888:	01c12083          	lw	ra,28(sp)
   1388c:	01812403          	lw	s0,24(sp)
   13890:	02010113          	add	sp,sp,32
   13894:	00008067          	ret
   13898:	01300513          	li	a0,19
   1389c:	00000593          	li	a1,0
   138a0:	01f01013          	sll	zero,zero,0x1f
   138a4:	00100073          	ebreak
   138a8:	40705013          	sra	zero,zero,0x7
   138ac:	d4a1ac23          	sw	a0,-680(gp) # 14570 <errno>
   138b0:	fff00513          	li	a0,-1
   138b4:	fd5ff06f          	j	13888 <__stat_common+0x58>
	...

000138c0 <_write>:
   138c0:	fe010113          	add	sp,sp,-32
   138c4:	00812c23          	sw	s0,24(sp)
   138c8:	00912a23          	sw	s1,20(sp)
   138cc:	00112e23          	sw	ra,28(sp)
   138d0:	00058493          	mv	s1,a1
   138d4:	00060413          	mv	s0,a2
   138d8:	b29ff0ef          	jal	13400 <__get_fdentry>
   138dc:	06050a63          	beqz	a0,13950 <_write+0x90>
   138e0:	00052703          	lw	a4,0(a0)
   138e4:	00050793          	mv	a5,a0
   138e8:	00912423          	sw	s1,8(sp)
   138ec:	00500513          	li	a0,5
   138f0:	00e12223          	sw	a4,4(sp)
   138f4:	00812623          	sw	s0,12(sp)
   138f8:	00410593          	add	a1,sp,4
   138fc:	00000013          	nop
   13900:	01f01013          	sll	zero,zero,0x1f
   13904:	00100073          	ebreak
   13908:	40705013          	sra	zero,zero,0x7
   1390c:	02054463          	bltz	a0,13934 <_write+0x74>
   13910:	0047a703          	lw	a4,4(a5) # 1004 <exit-0xf09c>
   13914:	40a40533          	sub	a0,s0,a0
   13918:	00a70733          	add	a4,a4,a0
   1391c:	00e7a223          	sw	a4,4(a5)
   13920:	01c12083          	lw	ra,28(sp)
   13924:	01812403          	lw	s0,24(sp)
   13928:	01412483          	lw	s1,20(sp)
   1392c:	02010113          	add	sp,sp,32
   13930:	00008067          	ret
   13934:	01300513          	li	a0,19
   13938:	00000593          	li	a1,0
   1393c:	00000013          	nop
   13940:	01f01013          	sll	zero,zero,0x1f
   13944:	00100073          	ebreak
   13948:	40705013          	sra	zero,zero,0x7
   1394c:	d4a1ac23          	sw	a0,-680(gp) # 14570 <errno>
   13950:	fff00513          	li	a0,-1
   13954:	fcdff06f          	j	13920 <_write+0x60>

00013958 <__errno>:
   13958:	d441a503          	lw	a0,-700(gp) # 1455c <_impure_ptr>
   1395c:	00008067          	ret

00013960 <__mulsi3>:
   13960:	00050613          	mv	a2,a0
   13964:	00000513          	li	a0,0
   13968:	0015f693          	and	a3,a1,1
   1396c:	00068463          	beqz	a3,13974 <__mulsi3+0x14>
   13970:	00c50533          	add	a0,a0,a2
   13974:	0015d593          	srl	a1,a1,0x1
   13978:	00161613          	sll	a2,a2,0x1
   1397c:	fe0596e3          	bnez	a1,13968 <__mulsi3+0x8>
   13980:	00008067          	ret

00013984 <__divsi3>:
   13984:	06054063          	bltz	a0,139e4 <__umodsi3+0x10>
   13988:	0605c663          	bltz	a1,139f4 <__umodsi3+0x20>

0001398c <__hidden___udivsi3>:
   1398c:	00058613          	mv	a2,a1
   13990:	00050593          	mv	a1,a0
   13994:	fff00513          	li	a0,-1
   13998:	02060c63          	beqz	a2,139d0 <__hidden___udivsi3+0x44>
   1399c:	00100693          	li	a3,1
   139a0:	00b67a63          	bgeu	a2,a1,139b4 <__hidden___udivsi3+0x28>
   139a4:	00c05863          	blez	a2,139b4 <__hidden___udivsi3+0x28>
   139a8:	00161613          	sll	a2,a2,0x1
   139ac:	00169693          	sll	a3,a3,0x1
   139b0:	feb66ae3          	bltu	a2,a1,139a4 <__hidden___udivsi3+0x18>
   139b4:	00000513          	li	a0,0
   139b8:	00c5e663          	bltu	a1,a2,139c4 <__hidden___udivsi3+0x38>
   139bc:	40c585b3          	sub	a1,a1,a2
   139c0:	00d56533          	or	a0,a0,a3
   139c4:	0016d693          	srl	a3,a3,0x1
   139c8:	00165613          	srl	a2,a2,0x1
   139cc:	fe0696e3          	bnez	a3,139b8 <__hidden___udivsi3+0x2c>
   139d0:	00008067          	ret

000139d4 <__umodsi3>:
   139d4:	00008293          	mv	t0,ra
   139d8:	fb5ff0ef          	jal	1398c <__hidden___udivsi3>
   139dc:	00058513          	mv	a0,a1
   139e0:	00028067          	jr	t0 # 114e8 <memset+0xb4>
   139e4:	40a00533          	neg	a0,a0
   139e8:	00b04863          	bgtz	a1,139f8 <__umodsi3+0x24>
   139ec:	40b005b3          	neg	a1,a1
   139f0:	f9dff06f          	j	1398c <__hidden___udivsi3>
   139f4:	40b005b3          	neg	a1,a1
   139f8:	00008293          	mv	t0,ra
   139fc:	f91ff0ef          	jal	1398c <__hidden___udivsi3>
   13a00:	40a00533          	neg	a0,a0
   13a04:	00028067          	jr	t0

00013a08 <__modsi3>:
   13a08:	00008293          	mv	t0,ra
   13a0c:	0005ca63          	bltz	a1,13a20 <__modsi3+0x18>
   13a10:	00054c63          	bltz	a0,13a28 <__modsi3+0x20>
   13a14:	f79ff0ef          	jal	1398c <__hidden___udivsi3>
   13a18:	00058513          	mv	a0,a1
   13a1c:	00028067          	jr	t0
   13a20:	40b005b3          	neg	a1,a1
   13a24:	fe0558e3          	bgez	a0,13a14 <__modsi3+0xc>
   13a28:	40a00533          	neg	a0,a0
   13a2c:	f61ff0ef          	jal	1398c <__hidden___udivsi3>
   13a30:	40b00533          	neg	a0,a1
   13a34:	00028067          	jr	t0
